Microsoft (R) COFF/PE Dumper Version 14.00.24215.1
Copyright (C) Microsoft Corporation.  All rights reserved.


Dump of file BaseSys.dll

PE signature found

File Type: DLL

FILE HEADER VALUES
            8664 machine (x64)
               6 number of sections
               0 time date stamp
               0 file pointer to symbol table
               0 number of symbols
              F0 size of optional header
            2022 characteristics
                   Executable
                   Application can handle large (>2GB) addresses
                   DLL

OPTIONAL HEADER VALUES
             20B magic # (PE32+)
            0.00 linker version
            1A00 size of code
            1600 size of initialized data
            1000 size of uninitialized data
            48E0 entry point (00000000100048E0)
            3000 base of code
        10000000 image base (0000000010000000 to 0000000010007FFF)
            1000 section alignment
             200 file alignment
            5.00 operating system version
            0.00 image version
            5.00 subsystem version
               0 Win32 version
            8000 size of image
             400 size of headers
               0 checksum
               2 subsystem (Windows GUI)
             140 DLL characteristics
                   Dynamic base
                   NX compatible
            1000 size of stack reserve
            1000 size of stack commit
           10000 size of heap reserve
               0 size of heap commit
               0 loader flags
              10 number of directories
            7000 [      D0] RVA [size] of Export Directory
            5000 [     130] RVA [size] of Import Directory
               0 [       0] RVA [size] of Resource Directory
               0 [       0] RVA [size] of Exception Directory
               0 [       0] RVA [size] of Certificates Directory
            6000 [       C] RVA [size] of Base Relocation Directory
               0 [       0] RVA [size] of Debug Directory
               0 [       0] RVA [size] of Architecture Directory
               0 [       0] RVA [size] of Global Pointer Directory
               0 [       0] RVA [size] of Thread Storage Directory
               0 [       0] RVA [size] of Load Configuration Directory
               0 [       0] RVA [size] of Bound Import Directory
               0 [       0] RVA [size] of Import Address Table Directory
               0 [       0] RVA [size] of Delay Import Directory
               0 [       0] RVA [size] of COM Descriptor Directory
               0 [       0] RVA [size] of Reserved Directory


SECTION HEADER #1
    .bss name
    1000 virtual size
    1000 virtual address (0000000010001000 to 0000000010001FFF)
       0 size of raw data
       0 file pointer to raw data
       0 file pointer to relocation table
       0 file pointer to line numbers
       0 number of relocations
       0 number of line numbers
C0000080 flags
         Uninitialized Data
         Read Write

SECTION HEADER #2
   .data name
    1000 virtual size
    2000 virtual address (0000000010002000 to 0000000010002FFF)
    1000 size of raw data
    2000 file pointer to raw data (00002000 to 00002FFF)
       0 file pointer to relocation table
       0 file pointer to line numbers
       0 number of relocations
       0 number of line numbers
C0000040 flags
         Initialized Data
         Read Write

RAW DATA #2
  0000000010002000: 00 00 00 00 00 00 00 00 00 00 00 00 00 00 00 00  ................
  0000000010002010: 00 00 00 00 00 00 00 00 00 00 00 00 00 00 00 00  ................
  0000000010002020: 00 00 00 00 00 00 00 00 00 00 00 00 00 00 00 00  ................
  0000000010002030: 00 00 00 00 00 00 00 00 00 00 00 00 00 00 00 00  ................
  0000000010002040: 00 00 00 00 00 00 00 00 00 00 00 00 00 00 00 00  ................
  0000000010002050: 00 00 00 00 00 00 00 00 00 00 00 00 00 00 00 00  ................
  0000000010002060: 00 00 00 00 00 00 00 00 00 00 00 00 00 00 00 00  ................
  0000000010002070: 00 00 00 00 00 00 00 00 00 00 00 00 00 00 00 00  ................
  0000000010002080: 00 00 00 00 00 00 00 00 00 00 00 00 00 00 00 00  ................
  0000000010002090: 00 00 00 00 00 00 00 00 00 00 00 00 00 00 00 00  ................
  00000000100020A0: 00 00 00 00 00 00 00 00 00 00 00 00 00 00 00 00  ................
  00000000100020B0: 00 00 00 00 00 00 00 00 00 00 00 00 00 00 00 00  ................
  00000000100020C0: 00 00 00 00 00 00 00 00 00 00 00 00 00 00 00 00  ................
  00000000100020D0: 00 00 00 00 00 00 00 00 00 00 00 00 00 00 00 00  ................
  00000000100020E0: 00 00 00 00 00 00 00 00 00 00 00 00 00 00 00 00  ................
  00000000100020F0: 00 00 00 00 00 00 00 00 00 00 00 00 00 00 00 00  ................
  0000000010002100: 00 00 00 00 00 00 00 00 00 00 00 00 00 00 00 00  ................
  0000000010002110: 00 00 00 00 00 00 00 00 00 00 00 00 00 00 00 00  ................
  0000000010002120: 00 00 00 00 00 00 00 00 00 00 00 00 00 00 00 00  ................
  0000000010002130: 00 00 00 00 00 00 00 00 00 00 00 00 00 00 00 00  ................
  0000000010002140: 00 00 00 00 00 00 00 00 00 00 00 00 00 00 00 00  ................
  0000000010002150: 00 00 00 00 00 00 00 00 00 00 00 00 00 00 00 00  ................
  0000000010002160: 00 00 00 00 00 00 00 00 00 00 00 00 00 00 00 00  ................
  0000000010002170: 00 00 00 00 00 00 00 00 00 00 00 00 00 00 00 00  ................
  0000000010002180: 00 00 00 00 00 00 00 00 00 00 00 00 00 00 00 00  ................
  0000000010002190: 00 00 00 00 00 00 00 00 00 00 00 00 00 00 00 00  ................
  00000000100021A0: 00 00 00 00 00 00 00 00 00 00 00 00 00 00 00 00  ................
  00000000100021B0: 00 00 00 00 00 00 00 00 00 00 00 00 00 00 00 00  ................
  00000000100021C0: 00 00 00 00 00 00 00 00 00 00 00 00 00 00 00 00  ................
  00000000100021D0: 00 00 00 00 00 00 00 00 00 00 00 00 00 00 00 00  ................
  00000000100021E0: 00 00 00 00 00 00 00 00 00 00 00 00 00 00 00 00  ................
  00000000100021F0: 00 00 00 00 00 00 00 00 00 00 00 00 00 00 00 00  ................
  0000000010002200: 00 00 00 00 00 00 00 00 00 00 00 00 00 00 00 00  ................
  0000000010002210: 00 00 00 00 00 00 00 00 00 00 00 00 00 00 00 00  ................
  0000000010002220: 00 00 00 00 00 00 00 00 00 00 00 00 00 00 00 00  ................
  0000000010002230: 00 00 00 00 00 00 00 00 00 00 00 00 00 00 00 00  ................
  0000000010002240: 00 00 00 00 00 00 00 00 00 00 00 00 00 00 00 00  ................
  0000000010002250: 00 00 00 00 00 00 00 00 00 00 00 00 00 00 00 00  ................
  0000000010002260: 00 00 00 00 00 00 00 00 00 00 00 00 00 00 00 00  ................
  0000000010002270: 00 00 00 00 00 00 00 00 00 00 00 00 00 00 00 00  ................
  0000000010002280: 00 00 00 00 00 00 00 00 00 00 00 00 00 00 00 00  ................
  0000000010002290: 00 00 00 00 00 00 00 00 00 00 00 00 00 00 00 00  ................
  00000000100022A0: 00 00 00 00 00 00 00 00 00 00 00 00 00 00 00 00  ................
  00000000100022B0: 00 00 00 00 00 00 00 00 00 00 00 00 00 00 00 00  ................
  00000000100022C0: 00 00 00 00 00 00 00 00 00 00 00 00 00 00 00 00  ................
  00000000100022D0: 00 00 00 00 00 00 00 00 00 00 00 00 00 00 00 00  ................
  00000000100022E0: 00 00 00 00 00 00 00 00 00 00 00 00 00 00 00 00  ................
  00000000100022F0: 00 00 00 00 00 00 00 00 00 00 00 00 00 00 00 00  ................
  0000000010002300: 00 00 00 00 00 00 00 00 00 00 00 00 00 00 00 00  ................
  0000000010002310: 00 00 00 00 00 00 00 00 00 00 00 00 00 00 00 00  ................
  0000000010002320: 00 00 00 00 00 00 00 00 00 00 00 00 00 00 00 00  ................
  0000000010002330: 00 00 00 00 00 00 00 00 00 00 00 00 00 00 00 00  ................
  0000000010002340: 00 00 00 00 00 00 00 00 00 00 00 00 00 00 00 00  ................
  0000000010002350: 00 00 00 00 00 00 00 00 00 00 00 00 00 00 00 00  ................
  0000000010002360: 00 00 00 00 00 00 00 00 00 00 00 00 00 00 00 00  ................
  0000000010002370: 00 00 00 00 00 00 00 00 00 00 00 00 00 00 00 00  ................
  0000000010002380: 00 00 00 00 00 00 00 00 00 00 00 00 00 00 00 00  ................
  0000000010002390: 00 00 00 00 00 00 00 00 00 00 00 00 00 00 00 00  ................
  00000000100023A0: 00 00 00 00 00 00 00 00 00 00 00 00 00 00 00 00  ................
  00000000100023B0: 00 00 00 00 00 00 00 00 00 00 00 00 00 00 00 00  ................
  00000000100023C0: 00 00 00 00 00 00 00 00 00 00 00 00 00 00 00 00  ................
  00000000100023D0: 00 00 00 00 00 00 00 00 00 00 00 00 00 00 00 00  ................
  00000000100023E0: 00 00 00 00 00 00 00 00 00 00 00 00 00 00 00 00  ................
  00000000100023F0: 00 00 00 00 00 00 00 00 00 00 00 00 00 00 00 00  ................
  0000000010002400: 00 00 00 00 00 00 00 00 00 00 00 00 00 00 00 00  ................
  0000000010002410: 00 00 00 00 00 00 00 00 00 00 00 00 00 00 00 00  ................
  0000000010002420: 00 00 00 00 00 00 00 00 00 00 00 00 00 00 00 00  ................
  0000000010002430: 00 00 00 00 00 00 00 00 00 00 00 00 00 00 00 00  ................
  0000000010002440: 00 00 00 00 00 00 00 00 00 00 00 00 00 00 00 00  ................
  0000000010002450: 00 00 00 00 00 00 00 00 00 00 00 00 00 00 00 00  ................
  0000000010002460: 00 00 00 00 00 00 00 00 00 00 00 00 00 00 00 00  ................
  0000000010002470: 00 00 00 00 00 00 00 00 00 00 00 00 00 00 00 00  ................
  0000000010002480: 00 00 00 00 00 00 00 00 00 00 00 00 00 00 00 00  ................
  0000000010002490: 00 00 00 00 00 00 00 00 00 00 00 00 00 00 00 00  ................
  00000000100024A0: 00 00 00 00 00 00 00 00 00 00 00 00 00 00 00 00  ................
  00000000100024B0: 00 00 00 00 00 00 00 00 00 00 00 00 00 00 00 00  ................
  00000000100024C0: 00 00 00 00 00 00 00 00 00 00 00 00 00 00 00 00  ................
  00000000100024D0: 00 00 00 00 00 00 00 00 00 00 00 00 00 00 00 00  ................
  00000000100024E0: 00 00 00 00 00 00 00 00 00 00 00 00 00 00 00 00  ................
  00000000100024F0: 00 00 00 00 00 00 00 00 00 00 00 00 00 00 00 00  ................
  0000000010002500: 00 00 00 00 00 00 00 00 00 00 00 00 00 00 00 00  ................
  0000000010002510: 00 00 00 00 00 00 00 00 00 00 00 00 00 00 00 00  ................
  0000000010002520: 00 00 00 00 00 00 00 00 00 00 00 00 00 00 00 00  ................
  0000000010002530: 00 00 00 00 00 00 00 00 00 00 00 00 00 00 00 00  ................
  0000000010002540: 00 00 00 00 00 00 00 00 00 00 00 00 00 00 00 00  ................
  0000000010002550: 00 00 00 00 00 00 00 00 00 00 00 00 00 00 00 00  ................
  0000000010002560: 00 00 00 00 00 00 00 00 00 00 00 00 00 00 00 00  ................
  0000000010002570: 00 00 00 00 00 00 00 00 00 00 00 00 00 00 00 00  ................
  0000000010002580: 00 00 00 00 00 00 00 00 00 00 00 00 00 00 00 00  ................
  0000000010002590: 00 00 00 00 00 00 00 00 00 00 00 00 00 00 00 00  ................
  00000000100025A0: 00 00 00 00 00 00 00 00 00 00 00 00 00 00 00 00  ................
  00000000100025B0: 00 00 00 00 00 00 00 00 00 00 00 00 00 00 00 00  ................
  00000000100025C0: 00 00 00 00 00 00 00 00 00 00 00 00 00 00 00 00  ................
  00000000100025D0: 00 00 00 00 00 00 00 00 00 00 00 00 00 00 00 00  ................
  00000000100025E0: 00 00 00 00 00 00 00 00 00 00 00 00 00 00 00 00  ................
  00000000100025F0: 00 00 00 00 00 00 00 00 00 00 00 00 00 00 00 00  ................
  0000000010002600: 00 00 00 00 00 00 00 00 00 00 00 00 00 00 00 00  ................
  0000000010002610: 00 00 00 00 00 00 00 00 00 00 00 00 00 00 00 00  ................
  0000000010002620: 00 00 00 00 00 00 00 00 00 00 00 00 00 00 00 00  ................
  0000000010002630: 00 00 00 00 00 00 00 00 00 00 00 00 00 00 00 00  ................
  0000000010002640: 00 00 00 00 00 00 00 00 00 00 00 00 00 00 00 00  ................
  0000000010002650: 00 00 00 00 00 00 00 00 00 00 00 00 00 00 00 00  ................
  0000000010002660: 00 00 00 00 00 00 00 00 00 00 00 00 00 00 00 00  ................
  0000000010002670: 00 00 00 00 00 00 00 00 00 00 00 00 00 00 00 00  ................
  0000000010002680: 00 00 00 00 00 00 00 00 00 00 00 00 00 00 00 00  ................
  0000000010002690: 00 00 00 00 00 00 00 00 00 00 00 00 00 00 00 00  ................
  00000000100026A0: 00 00 00 00 00 00 00 00 00 00 00 00 00 00 00 00  ................
  00000000100026B0: 00 00 00 00 00 00 00 00 00 00 00 00 00 00 00 00  ................
  00000000100026C0: 00 00 00 00 00 00 00 00 00 00 00 00 00 00 00 00  ................
  00000000100026D0: 00 00 00 00 00 00 00 00 00 00 00 00 00 00 00 00  ................
  00000000100026E0: 00 00 00 00 00 00 00 00 00 00 00 00 00 00 00 00  ................
  00000000100026F0: 00 00 00 00 00 00 00 00 00 00 00 00 00 00 00 00  ................
  0000000010002700: 00 00 00 00 00 00 00 00 00 00 00 00 00 00 00 00  ................
  0000000010002710: 00 00 00 00 00 00 00 00 00 00 00 00 00 00 00 00  ................
  0000000010002720: 00 00 00 00 00 00 00 00 00 00 00 00 00 00 00 00  ................
  0000000010002730: 00 00 00 00 00 00 00 00 00 00 00 00 00 00 00 00  ................
  0000000010002740: 00 00 00 00 00 00 00 00 00 00 00 00 00 00 00 00  ................
  0000000010002750: 00 00 00 00 00 00 00 00 00 00 00 00 00 00 00 00  ................
  0000000010002760: 00 00 00 00 00 00 00 00 00 00 00 00 00 00 00 00  ................
  0000000010002770: 00 00 00 00 00 00 00 00 00 00 00 00 00 00 00 00  ................
  0000000010002780: 00 00 00 00 00 00 00 00 00 00 00 00 00 00 00 00  ................
  0000000010002790: 00 00 00 00 00 00 00 00 00 00 00 00 00 00 00 00  ................
  00000000100027A0: 00 00 00 00 00 00 00 00 00 00 00 00 00 00 00 00  ................
  00000000100027B0: 00 00 00 00 00 00 00 00 00 00 00 00 00 00 00 00  ................
  00000000100027C0: 00 00 00 00 00 00 00 00 00 00 00 00 00 00 00 00  ................
  00000000100027D0: 00 00 00 00 00 00 00 00 00 00 00 00 00 00 00 00  ................
  00000000100027E0: 00 00 00 00 00 00 00 00 00 00 00 00 00 00 00 00  ................
  00000000100027F0: 00 00 00 00 00 00 00 00 00 00 00 00 00 00 00 00  ................
  0000000010002800: 00 00 00 00 00 00 00 00 00 00 00 00 00 00 00 00  ................
  0000000010002810: 00 00 00 00 00 00 00 00 00 00 00 00 00 00 00 00  ................
  0000000010002820: 00 00 00 00 00 00 00 00 00 00 00 00 00 00 00 00  ................
  0000000010002830: 00 00 00 00 00 00 00 00 00 00 00 00 00 00 00 00  ................
  0000000010002840: 00 00 00 00 00 00 00 00 00 00 00 00 00 00 00 00  ................
  0000000010002850: 00 00 00 00 00 00 00 00 00 00 00 00 00 00 00 00  ................
  0000000010002860: 00 00 00 00 00 00 00 00 00 00 00 00 00 00 00 00  ................
  0000000010002870: 00 00 00 00 00 00 00 00 00 00 00 00 00 00 00 00  ................
  0000000010002880: 00 00 00 00 00 00 00 00 00 00 00 00 00 00 00 00  ................
  0000000010002890: 00 00 00 00 00 00 00 00 00 00 00 00 00 00 00 00  ................
  00000000100028A0: 00 00 00 00 00 00 00 00 00 00 00 00 00 00 00 00  ................
  00000000100028B0: 00 00 00 00 00 00 00 00 00 00 00 00 00 00 00 00  ................
  00000000100028C0: 00 00 00 00 00 00 00 00 00 00 00 00 00 00 00 00  ................
  00000000100028D0: 00 00 00 00 00 00 00 00 00 00 00 00 00 00 00 00  ................
  00000000100028E0: 00 00 00 00 00 00 00 00 00 00 00 00 00 00 00 00  ................
  00000000100028F0: 00 00 00 00 00 00 00 00 00 00 00 00 00 00 00 00  ................
  0000000010002900: 00 00 00 00 00 00 00 00 00 00 00 00 00 00 00 00  ................
  0000000010002910: 00 00 00 00 00 00 00 00 00 00 00 00 00 00 00 00  ................
  0000000010002920: 00 00 00 00 00 00 00 00 00 00 00 00 00 00 00 00  ................
  0000000010002930: 00 00 00 00 00 00 00 00 00 00 00 00 00 00 00 00  ................
  0000000010002940: 00 00 00 00 00 00 00 00 00 00 00 00 00 00 00 00  ................
  0000000010002950: 00 00 00 00 00 00 00 00 00 00 00 00 00 00 00 00  ................
  0000000010002960: 00 00 00 00 00 00 00 00 00 00 00 00 00 00 00 00  ................
  0000000010002970: 00 00 00 00 00 00 00 00 00 00 00 00 00 00 00 00  ................
  0000000010002980: 00 00 00 00 00 00 00 00 00 00 00 00 00 00 00 00  ................
  0000000010002990: 00 00 00 00 00 00 00 00 00 00 00 00 00 00 00 00  ................
  00000000100029A0: 00 00 00 00 00 00 00 00 00 00 00 00 00 00 00 00  ................
  00000000100029B0: 00 00 00 00 00 00 00 00 00 00 00 00 00 00 00 00  ................
  00000000100029C0: 00 00 00 00 00 00 00 00 00 00 00 00 00 00 00 00  ................
  00000000100029D0: 00 00 00 00 00 00 00 00 00 00 00 00 00 00 00 00  ................
  00000000100029E0: 00 00 00 00 00 00 00 00 00 00 00 00 00 00 00 00  ................
  00000000100029F0: 00 00 00 00 00 00 00 00 00 00 00 00 00 00 00 00  ................
  0000000010002A00: 00 00 00 00 00 00 00 00 00 00 00 00 00 00 00 00  ................
  0000000010002A10: 00 00 00 00 00 00 00 00 00 00 00 00 00 00 00 00  ................
  0000000010002A20: 00 00 00 00 00 00 00 00 00 00 00 00 00 00 00 00  ................
  0000000010002A30: 00 00 00 00 00 00 00 00 00 00 00 00 00 00 00 00  ................
  0000000010002A40: 00 00 00 00 00 00 00 00 00 00 00 00 00 00 00 00  ................
  0000000010002A50: 00 00 00 00 00 00 00 00 00 00 00 00 00 00 00 00  ................
  0000000010002A60: 00 00 00 00 00 00 00 00 00 00 00 00 00 00 00 00  ................
  0000000010002A70: 00 00 00 00 00 00 00 00 00 00 00 00 00 00 00 00  ................
  0000000010002A80: 00 00 00 00 00 00 00 00 00 00 00 00 00 00 00 00  ................
  0000000010002A90: 00 00 00 00 00 00 00 00 00 00 00 00 00 00 00 00  ................
  0000000010002AA0: 00 00 00 00 00 00 00 00 00 00 00 00 00 00 00 00  ................
  0000000010002AB0: 00 00 00 00 00 00 00 00 00 00 00 00 00 00 00 00  ................
  0000000010002AC0: 00 00 00 00 00 00 00 00 00 00 00 00 00 00 00 00  ................
  0000000010002AD0: 00 00 00 00 00 00 00 00 00 00 00 00 00 00 00 00  ................
  0000000010002AE0: 00 00 00 00 00 00 00 00 00 00 00 00 00 00 00 00  ................
  0000000010002AF0: 00 00 00 00 00 00 00 00 00 00 00 00 00 00 00 00  ................
  0000000010002B00: 00 00 00 00 00 00 00 00 00 00 00 00 00 00 00 00  ................
  0000000010002B10: 00 00 00 00 00 00 00 00 00 00 00 00 00 00 00 00  ................
  0000000010002B20: 00 00 00 00 00 00 00 00 00 00 00 00 00 00 00 00  ................
  0000000010002B30: 00 00 00 00 00 00 00 00 00 00 00 00 00 00 00 00  ................
  0000000010002B40: 00 00 00 00 00 00 00 00 00 00 00 00 00 00 00 00  ................
  0000000010002B50: 00 00 00 00 00 00 00 00 00 00 00 00 00 00 00 00  ................
  0000000010002B60: 00 00 00 00 00 00 00 00 00 00 00 00 00 00 00 00  ................
  0000000010002B70: 00 00 00 00 00 00 00 00 00 00 00 00 00 00 00 00  ................
  0000000010002B80: 00 00 00 00 00 00 00 00 00 00 00 00 00 00 00 00  ................
  0000000010002B90: 00 00 00 00 00 00 00 00 00 00 00 00 00 00 00 00  ................
  0000000010002BA0: 00 00 00 00 00 00 00 00 00 00 00 00 00 00 00 00  ................
  0000000010002BB0: 00 00 00 00 00 00 00 00 00 00 00 00 00 00 00 00  ................
  0000000010002BC0: 00 00 00 00 00 00 00 00 00 00 00 00 00 00 00 00  ................
  0000000010002BD0: 00 00 00 00 00 00 00 00 00 00 00 00 00 00 00 00  ................
  0000000010002BE0: 00 00 00 00 00 00 00 00 00 00 00 00 00 00 00 00  ................
  0000000010002BF0: 00 00 00 00 00 00 00 00 00 00 00 00 00 00 00 00  ................
  0000000010002C00: 00 00 00 00 00 00 00 00 00 00 00 00 00 00 00 00  ................
  0000000010002C10: FF FF FF FF FF FF FF FF 00 00 00 00 00 00 00 00  ÿÿÿÿÿÿÿÿ........
  0000000010002C20: 00 00 00 00 00 00 00 00 00 00 00 00 00 00 00 00  ................
  0000000010002C30: 00 00 00 00 00 00 00 00 00 00 00 00 00 00 00 00  ................
  0000000010002C40: 00 00 00 00 00 00 00 00 00 00 00 00 00 00 00 00  ................
  0000000010002C50: 00 00 00 00 00 00 00 00 00 00 00 00 00 00 00 00  ................
  0000000010002C60: FF FF FF FF FF FF FF FF 00 00 00 00 00 00 00 00  ÿÿÿÿÿÿÿÿ........
  0000000010002C70: 00 00 00 00 00 00 00 00 00 00 00 00 00 00 00 00  ................
  0000000010002C80: 00 00 00 00 00 00 00 00 00 00 00 00 00 00 00 00  ................
  0000000010002C90: 00 00 00 00 00 00 00 00 00 00 00 00 00 00 00 00  ................
  0000000010002CA0: 00 00 00 00 00 00 00 00 00 00 00 00 00 00 00 00  ................
  0000000010002CB0: 00 00 00 00 00 00 00 00 FF FF FF FF FF FF FF FF  ........ÿÿÿÿÿÿÿÿ
  0000000010002CC0: 4B 00 65 00 72 00 6E 00 65 00 6C 00 33 00 32 00  K.e.r.n.e.l.3.2.
  0000000010002CD0: 2E 00 64 00 6C 00 6C 00 00 00 00 00 00 00 00 00  ..d.l.l.........
  0000000010002CE0: 00 00 00 00 00 00 00 00 00 00 00 00 00 00 00 00  ................
  0000000010002CF0: 30 00 00 00 00 00 00 00 2D 00 00 00 00 00 00 00  0.......-.......
  0000000010002D00: 2D 00 39 00 32 00 32 00 33 00 33 00 37 00 32 00  -.9.2.2.3.3.7.2.
  0000000010002D10: 30 00 33 00 36 00 38 00 35 00 34 00 37 00 37 00  0.3.6.8.5.4.7.7.
  0000000010002D20: 35 00 38 00 30 00 38 00 00 00 00 00 00 00 00 00  5.8.0.8.........
  0000000010002D30: 00 00 00 00 00 00 00 00 20 00 00 00 00 00 00 00  ........ .......
  0000000010002D40: 20 00 00 00 20 00 00 00 20 00 00 00 00 00 00 00   ... ... .......
  0000000010002D50: 47 00 65 00 74 00 46 00 69 00 6C 00 65 00 41 00  G.e.t.F.i.l.e.A.
  0000000010002D60: 74 00 74 00 72 00 69 00 62 00 75 00 74 00 65 00  t.t.r.i.b.u.t.e.
  0000000010002D70: 73 00 57 00 00 00 00 00 00 00 00 00 00 00 00 00  s.W.............
  0000000010002D80: 43 00 72 00 65 00 61 00 74 00 65 00 46 00 69 00  C.r.e.a.t.e.F.i.
  0000000010002D90: 6C 00 65 00 57 00 00 00 00 00 00 00 00 00 00 00  l.e.W...........
  0000000010002DA0: 43 00 6C 00 6F 00 73 00 65 00 48 00 61 00 6E 00  C.l.o.s.e.H.a.n.
  0000000010002DB0: 64 00 6C 00 65 00 00 00 00 00 00 00 00 00 00 00  d.l.e...........
  0000000010002DC0: 4D 00 6F 00 76 00 65 00 46 00 69 00 6C 00 65 00  M.o.v.e.F.i.l.e.
  0000000010002DD0: 57 00 00 00 00 00 00 00 00 00 00 00 00 00 00 00  W...............
  0000000010002DE0: 44 00 65 00 6C 00 65 00 74 00 65 00 46 00 69 00  D.e.l.e.t.e.F.i.
  0000000010002DF0: 6C 00 65 00 57 00 00 00 00 00 00 00 00 00 00 00  l.e.W...........
  0000000010002E00: 52 00 65 00 61 00 64 00 46 00 69 00 6C 00 65 00  R.e.a.d.F.i.l.e.
  0000000010002E10: 00 00 00 00 00 00 00 00 00 00 00 00 00 00 00 00  ................
  0000000010002E20: 57 00 72 00 69 00 74 00 65 00 46 00 69 00 6C 00  W.r.i.t.e.F.i.l.
  0000000010002E30: 65 00 00 00 00 00 00 00 00 00 00 00 00 00 00 00  e...............
  0000000010002E40: 53 00 65 00 74 00 46 00 69 00 6C 00 65 00 50 00  S.e.t.F.i.l.e.P.
  0000000010002E50: 6F 00 69 00 6E 00 74 00 65 00 72 00 45 00 78 00  o.i.n.t.e.r.E.x.
  0000000010002E60: 00 00 00 00 00 00 00 00 00 00 00 00 00 00 00 00  ................
  0000000010002E70: 47 00 65 00 74 00 54 00 69 00 63 00 6B 00 43 00  G.e.t.T.i.c.k.C.
  0000000010002E80: 6F 00 75 00 6E 00 74 00 00 00 00 00 00 00 00 00  o.u.n.t.........
  0000000010002E90: 47 00 65 00 74 00 43 00 6F 00 6D 00 6D 00 61 00  G.e.t.C.o.m.m.a.
  0000000010002EA0: 6E 00 64 00 4C 00 69 00 6E 00 65 00 57 00 00 00  n.d.L.i.n.e.W...
  0000000010002EB0: 57 00 69 00 64 00 65 00 43 00 68 00 61 00 72 00  W.i.d.e.C.h.a.r.
  0000000010002EC0: 54 00 6F 00 4D 00 75 00 6C 00 74 00 69 00 42 00  T.o.M.u.l.t.i.B.
  0000000010002ED0: 79 00 74 00 65 00 00 00 00 00 00 00 00 00 00 00  y.t.e...........
  0000000010002EE0: 47 00 65 00 74 00 53 00 74 00 64 00 48 00 61 00  G.e.t.S.t.d.H.a.
  0000000010002EF0: 6E 00 64 00 6C 00 65 00 00 00 00 00 00 00 00 00  n.d.l.e.........
  0000000010002F00: 47 00 65 00 74 00 50 00 72 00 6F 00 63 00 65 00  G.e.t.P.r.o.c.e.
  0000000010002F10: 73 00 73 00 48 00 65 00 61 00 70 00 00 00 00 00  s.s.H.e.a.p.....
  0000000010002F20: 48 00 65 00 61 00 70 00 41 00 6C 00 6C 00 6F 00  H.e.a.p.A.l.l.o.
  0000000010002F30: 63 00 00 00 00 00 00 00 00 00 00 00 00 00 00 00  c...............
  0000000010002F40: 48 00 65 00 61 00 70 00 46 00 72 00 65 00 65 00  H.e.a.p.F.r.e.e.
  0000000010002F50: 00 00 00 00 00 00 00 00 00 00 00 00 00 00 00 00  ................
  0000000010002F60: 48 00 65 00 61 00 70 00 52 00 65 00 41 00 6C 00  H.e.a.p.R.e.A.l.
  0000000010002F70: 6C 00 6F 00 63 00 00 00 00 00 00 00 00 00 00 00  l.o.c...........
  0000000010002F80: 00 00 00 00 00 00 00 00 00 00 00 00 00 00 00 00  ................
  0000000010002F90: 00 00 00 00 00 00 00 00 00 00 00 00 00 00 00 00  ................
  0000000010002FA0: 00 00 00 00 00 00 00 00 00 00 00 00 00 00 00 00  ................
  0000000010002FB0: 00 00 00 00 00 00 00 00 00 00 00 00 00 00 00 00  ................
  0000000010002FC0: 00 00 00 00 00 00 00 00 70 50 00 00 00 00 00 00  ........pP......
  0000000010002FD0: 90 50 00 00 00 00 00 00 B0 50 00 00 00 00 00 00  .P......°P......
  0000000010002FE0: D0 50 00 00 00 00 00 00 F0 50 00 00 00 00 00 00  ?P......?P......
  0000000010002FF0: 10 51 00 00 00 00 00 00 00 00 00 00 00 00 00 00  .Q..............

SECTION HEADER #3
   .text name
    192E virtual size
    3000 virtual address (0000000010003000 to 000000001000492D)
    1A00 size of raw data
     400 file pointer to raw data (00000400 to 00001DFF)
       0 file pointer to relocation table
       0 file pointer to line numbers
       0 number of relocations
       0 number of line numbers
60000020 flags
         Code
         Execute Read

  0000000010003000: 55                 push        rbp
  0000000010003001: 48 8B EC           mov         rbp,rsp
  0000000010003004: 48 81 EC 40 01 00  sub         rsp,140h
                    00
  000000001000300B: 48 89 4D 10        mov         qword ptr [rbp+10h],rcx
  000000001000300F: 48 89 55 18        mov         qword ptr [rbp+18h],rdx
  0000000010003013: 4C 89 45 20        mov         qword ptr [rbp+20h],r8
  0000000010003017: 4C 89 4D 28        mov         qword ptr [rbp+28h],r9
  000000001000301B: 48 8B 4D 20        mov         rcx,qword ptr [rbp+20h]
  000000001000301F: FF 53 D0           call        qword ptr [rbx-30h]
  0000000010003022: 48 89 45 F8        mov         qword ptr [rbp-8],rax
  0000000010003026: 48 83 7D F8 00     cmp         qword ptr [rbp-8],0
  000000001000302B: 0F 84 92 00 00 00  je          00000000100030C3
  0000000010003031: 48 C7 45 E8 FF FF  mov         qword ptr [rbp-18h],0FFFFFFFFFFFFFFFFh
                    FF FF
  0000000010003039: 48 8B 45 E8        mov         rax,qword ptr [rbp-18h]
  000000001000303D: 48 83 C0 01        add         rax,1
  0000000010003041: 48 89 45 E8        mov         qword ptr [rbp-18h],rax
  0000000010003045: 48 8D 85 E8 FE FF  lea         rax,[rbp+FFFFFFFFFFFFFEE8h]
                    FF
  000000001000304C: 48 8B 4D E8        mov         rcx,qword ptr [rbp-18h]
  0000000010003050: 48 81 F9 00 01 00  cmp         rcx,100h
                    00
  0000000010003057: 73 02              jae         000000001000305B
  0000000010003059: EB 08              jmp         0000000010003063
  000000001000305B: B0 01              mov         al,1
  000000001000305D: B9 5B 09 00 00     mov         ecx,95Bh
  0000000010003062: CC                 int         3
  0000000010003063: 48 03 C1           add         rax,rcx
  0000000010003066: 48 8B 4D 30        mov         rcx,qword ptr [rbp+30h]
  000000001000306A: 48 8B 55 E8        mov         rdx,qword ptr [rbp-18h]
  000000001000306E: 48 3B 55 38        cmp         rdx,qword ptr [rbp+38h]
  0000000010003072: 73 02              jae         0000000010003076
  0000000010003074: EB 08              jmp         000000001000307E
  0000000010003076: B0 01              mov         al,1
  0000000010003078: B9 6A 09 00 00     mov         ecx,96Ah
  000000001000307D: CC                 int         3
  000000001000307E: 48 C1 E2 01        shl         rdx,1
  0000000010003082: 48 03 CA           add         rcx,rdx
  0000000010003085: 0F B7 09           movzx       ecx,word ptr [rcx]
  0000000010003088: 88 08              mov         byte ptr [rax],cl
  000000001000308A: 48 8B 45 30        mov         rax,qword ptr [rbp+30h]
  000000001000308E: 48 8B 4D E8        mov         rcx,qword ptr [rbp-18h]
  0000000010003092: 48 3B 4D 38        cmp         rcx,qword ptr [rbp+38h]
  0000000010003096: 73 02              jae         000000001000309A
  0000000010003098: EB 08              jmp         00000000100030A2
  000000001000309A: B0 01              mov         al,1
  000000001000309C: B9 79 09 00 00     mov         ecx,979h
  00000000100030A1: CC                 int         3
  00000000100030A2: 48 C1 E1 01        shl         rcx,1
  00000000100030A6: 48 03 C1           add         rax,rcx
  00000000100030A9: 66 83 38 00        cmp         word ptr [rax],0
  00000000100030AD: 75 8A              jne         0000000010003039
  00000000100030AF: 48 8B 4D F8        mov         rcx,qword ptr [rbp-8]
  00000000100030B3: 48 8D 95 E8 FE FF  lea         rdx,[rbp+FFFFFFFFFFFFFEE8h]
                    FF
  00000000100030BA: FF 53 D8           call        qword ptr [rbx-28h]
  00000000100030BD: 48 89 45 F0        mov         qword ptr [rbp-10h],rax
  00000000100030C1: EB 06              jmp         00000000100030C9
  00000000100030C3: 31 C0              xor         eax,eax
  00000000100030C5: 48 89 45 F0        mov         qword ptr [rbp-10h],rax
  00000000100030C9: 48 8B 45 10        mov         rax,qword ptr [rbp+10h]
  00000000100030CD: 48 8B 4D F0        mov         rcx,qword ptr [rbp-10h]
  00000000100030D1: 48 89 08           mov         qword ptr [rax],rcx
  00000000100030D4: C9                 leave
  00000000100030D5: C3                 ret
  00000000100030D6: 90                 nop
  00000000100030D7: 90                 nop
  00000000100030D8: 90                 nop
  00000000100030D9: 90                 nop
  00000000100030DA: 90                 nop
  00000000100030DB: 90                 nop
  00000000100030DC: 90                 nop
  00000000100030DD: 90                 nop
  00000000100030DE: 90                 nop
  00000000100030DF: 90                 nop
  00000000100030E0: 55                 push        rbp
  00000000100030E1: 48 8B EC           mov         rbp,rsp
  00000000100030E4: 48 89 4D 10        mov         qword ptr [rbp+10h],rcx
  00000000100030E8: 48 8B 45 10        mov         rax,qword ptr [rbp+10h]
  00000000100030EC: B9 FF FF FF FF     mov         ecx,0FFFFFFFFh
  00000000100030F1: 48 23 C1           and         rax,rcx
  00000000100030F4: C9                 leave
  00000000100030F5: C3                 ret
  00000000100030F6: 90                 nop
  00000000100030F7: 90                 nop
  00000000100030F8: 90                 nop
  00000000100030F9: 90                 nop
  00000000100030FA: 90                 nop
  00000000100030FB: 90                 nop
  00000000100030FC: 90                 nop
  00000000100030FD: 90                 nop
  00000000100030FE: 90                 nop
  00000000100030FF: 90                 nop
  0000000010003100: 55                 push        rbp
  0000000010003101: 48 8B EC           mov         rbp,rsp
  0000000010003104: 48 89 4D 10        mov         qword ptr [rbp+10h],rcx
  0000000010003108: 48 8B 4D 10        mov         rcx,qword ptr [rbp+10h]
  000000001000310C: 48 81 E1 FF FF 00  and         rcx,0FFFFh
                    00
  0000000010003113: 48 8B C1           mov         rax,rcx
  0000000010003116: C9                 leave
  0000000010003117: C3                 ret
  0000000010003118: 90                 nop
  0000000010003119: 90                 nop
  000000001000311A: 90                 nop
  000000001000311B: 90                 nop
  000000001000311C: 90                 nop
  000000001000311D: 90                 nop
  000000001000311E: 90                 nop
  000000001000311F: 90                 nop
  0000000010003120: 55                 push        rbp
  0000000010003121: 48 8B EC           mov         rbp,rsp
  0000000010003124: 48 89 4D 10        mov         qword ptr [rbp+10h],rcx
  0000000010003128: 48 8B 4D 10        mov         rcx,qword ptr [rbp+10h]
  000000001000312C: 48 C1 E1 20        shl         rcx,20h
  0000000010003130: 48 C1 F9 20        sar         rcx,20h
  0000000010003134: 48 8B C1           mov         rax,rcx
  0000000010003137: C9                 leave
  0000000010003138: C3                 ret
  0000000010003139: 90                 nop
  000000001000313A: 90                 nop
  000000001000313B: 90                 nop
  000000001000313C: 90                 nop
  000000001000313D: 90                 nop
  000000001000313E: 90                 nop
  000000001000313F: 90                 nop
  0000000010003140: 55                 push        rbp
  0000000010003141: 48 8B EC           mov         rbp,rsp
  0000000010003144: 48 83 EC 30        sub         rsp,30h
  0000000010003148: 48 89 5D F0        mov         qword ptr [rbp-10h],rbx
  000000001000314C: 48 8D 1D AD FE FF  lea         rbx,[0000000010003000h]
                    FF
  0000000010003153: 48 89 4D 10        mov         qword ptr [rbp+10h],rcx
  0000000010003157: 48 89 55 18        mov         qword ptr [rbp+18h],rdx
  000000001000315B: 48 8B 83 F8 EF FF  mov         rax,qword ptr [rbx+FFFFFFFFFFFFEFF8h]
                    FF
  0000000010003162: 48 8B 4D 10        mov         rcx,qword ptr [rbp+10h]
  0000000010003166: FF D0              call        rax
  0000000010003168: 48 89 45 F8        mov         qword ptr [rbp-8],rax
  000000001000316C: 48 8B 45 F8        mov         rax,qword ptr [rbp-8]
  0000000010003170: B9 FF FF FF FF     mov         ecx,0FFFFFFFFh
  0000000010003175: 48 3B C1           cmp         rax,rcx
  0000000010003178: 74 07              je          0000000010003181
  000000001000317A: B8 01 00 00 00     mov         eax,1
  000000001000317F: EB 02              jmp         0000000010003183
  0000000010003181: 31 C0              xor         eax,eax
  0000000010003183: 48 8B 5D F0        mov         rbx,qword ptr [rbp-10h]
  0000000010003187: C9                 leave
  0000000010003188: C3                 ret
  0000000010003189: 90                 nop
  000000001000318A: 90                 nop
  000000001000318B: 90                 nop
  000000001000318C: 90                 nop
  000000001000318D: 90                 nop
  000000001000318E: 90                 nop
  000000001000318F: 90                 nop
  0000000010003190: 55                 push        rbp
  0000000010003191: 48 8B EC           mov         rbp,rsp
  0000000010003194: 48 83 EC 50        sub         rsp,50h
  0000000010003198: 48 89 5D F0        mov         qword ptr [rbp-10h],rbx
  000000001000319C: 48 8D 1D 5D FE FF  lea         rbx,[0000000010003000h]
                    FF
  00000000100031A3: 48 89 4D 10        mov         qword ptr [rbp+10h],rcx
  00000000100031A7: 48 89 55 18        mov         qword ptr [rbp+18h],rdx
  00000000100031AB: 4C 89 45 20        mov         qword ptr [rbp+20h],r8
  00000000100031AF: 4C 89 4D 28        mov         qword ptr [rbp+28h],r9
  00000000100031B3: 48 8B 83 E0 EF FF  mov         rax,qword ptr [rbx+FFFFFFFFFFFFEFE0h]
                    FF
  00000000100031BA: 48 8B 4D 20        mov         rcx,qword ptr [rbp+20h]
  00000000100031BE: BA 00 00 00 C0     mov         edx,0C0000000h
  00000000100031C3: 45 31 C0           xor         r8d,r8d
  00000000100031C6: 45 31 C9           xor         r9d,r9d
  00000000100031C9: 41 BA 03 00 00 00  mov         r10d,3
  00000000100031CF: 4C 89 54 24 20     mov         qword ptr [rsp+20h],r10
  00000000100031D4: 45 31 D2           xor         r10d,r10d
  00000000100031D7: 4C 89 54 24 28     mov         qword ptr [rsp+28h],r10
  00000000100031DC: 45 31 D2           xor         r10d,r10d
  00000000100031DF: 4C 89 54 24 30     mov         qword ptr [rsp+30h],r10
  00000000100031E4: FF D0              call        rax
  00000000100031E6: 48 8B 4D 10        mov         rcx,qword ptr [rbp+10h]
  00000000100031EA: 48 89 01           mov         qword ptr [rcx],rax
  00000000100031ED: 48 8B 5D F0        mov         rbx,qword ptr [rbp-10h]
  00000000100031F1: C9                 leave
  00000000100031F2: C3                 ret
  00000000100031F3: 90                 nop
  00000000100031F4: 90                 nop
  00000000100031F5: 90                 nop
  00000000100031F6: 90                 nop
  00000000100031F7: 90                 nop
  00000000100031F8: 90                 nop
  00000000100031F9: 90                 nop
  00000000100031FA: 90                 nop
  00000000100031FB: 90                 nop
  00000000100031FC: 90                 nop
  00000000100031FD: 90                 nop
  00000000100031FE: 90                 nop
  00000000100031FF: 90                 nop
  0000000010003200: 55                 push        rbp
  0000000010003201: 48 8B EC           mov         rbp,rsp
  0000000010003204: 48 83 EC 50        sub         rsp,50h
  0000000010003208: 48 89 5D F0        mov         qword ptr [rbp-10h],rbx
  000000001000320C: 48 8D 1D ED FD FF  lea         rbx,[0000000010003000h]
                    FF
  0000000010003213: 48 89 4D 10        mov         qword ptr [rbp+10h],rcx
  0000000010003217: 48 89 55 18        mov         qword ptr [rbp+18h],rdx
  000000001000321B: 4C 89 45 20        mov         qword ptr [rbp+20h],r8
  000000001000321F: 4C 89 4D 28        mov         qword ptr [rbp+28h],r9
  0000000010003223: 48 8B 83 E0 EF FF  mov         rax,qword ptr [rbx+FFFFFFFFFFFFEFE0h]
                    FF
  000000001000322A: 48 8B 4D 20        mov         rcx,qword ptr [rbp+20h]
  000000001000322E: BA 00 00 00 C0     mov         edx,0C0000000h
  0000000010003233: 45 31 C0           xor         r8d,r8d
  0000000010003236: 45 31 C9           xor         r9d,r9d
  0000000010003239: 41 BA 02 00 00 00  mov         r10d,2
  000000001000323F: 4C 89 54 24 20     mov         qword ptr [rsp+20h],r10
  0000000010003244: 45 31 D2           xor         r10d,r10d
  0000000010003247: 4C 89 54 24 28     mov         qword ptr [rsp+28h],r10
  000000001000324C: 45 31 D2           xor         r10d,r10d
  000000001000324F: 4C 89 54 24 30     mov         qword ptr [rsp+30h],r10
  0000000010003254: FF D0              call        rax
  0000000010003256: 48 8B 4D 10        mov         rcx,qword ptr [rbp+10h]
  000000001000325A: 48 89 01           mov         qword ptr [rcx],rax
  000000001000325D: 48 8B 5D F0        mov         rbx,qword ptr [rbp-10h]
  0000000010003261: C9                 leave
  0000000010003262: C3                 ret
  0000000010003263: 90                 nop
  0000000010003264: 90                 nop
  0000000010003265: 90                 nop
  0000000010003266: 90                 nop
  0000000010003267: 90                 nop
  0000000010003268: 90                 nop
  0000000010003269: 90                 nop
  000000001000326A: 90                 nop
  000000001000326B: 90                 nop
  000000001000326C: 90                 nop
  000000001000326D: 90                 nop
  000000001000326E: 90                 nop
  000000001000326F: 90                 nop
  0000000010003270: 55                 push        rbp
  0000000010003271: 48 8B EC           mov         rbp,rsp
  0000000010003274: 48 83 EC 30        sub         rsp,30h
  0000000010003278: 48 89 5D F0        mov         qword ptr [rbp-10h],rbx
  000000001000327C: 48 8D 1D 7D FD FF  lea         rbx,[0000000010003000h]
                    FF
  0000000010003283: 48 89 4D 10        mov         qword ptr [rbp+10h],rcx
  0000000010003287: 48 89 55 18        mov         qword ptr [rbp+18h],rdx
  000000001000328B: 48 8B 83 D8 EF FF  mov         rax,qword ptr [rbx+FFFFFFFFFFFFEFD8h]
                    FF
  0000000010003292: 48 8B 4D 10        mov         rcx,qword ptr [rbp+10h]
  0000000010003296: 48 8B 09           mov         rcx,qword ptr [rcx]
  0000000010003299: FF D0              call        rax
  000000001000329B: 48 89 45 F8        mov         qword ptr [rbp-8],rax
  000000001000329F: 31 C0              xor         eax,eax
  00000000100032A1: 48 8B 4D 10        mov         rcx,qword ptr [rbp+10h]
  00000000100032A5: 48 89 01           mov         qword ptr [rcx],rax
  00000000100032A8: 48 8B 5D F0        mov         rbx,qword ptr [rbp-10h]
  00000000100032AC: C9                 leave
  00000000100032AD: C3                 ret
  00000000100032AE: 90                 nop
  00000000100032AF: 90                 nop
  00000000100032B0: 55                 push        rbp
  00000000100032B1: 48 8B EC           mov         rbp,rsp
  00000000100032B4: 48 83 EC 30        sub         rsp,30h
  00000000100032B8: 48 89 5D F0        mov         qword ptr [rbp-10h],rbx
  00000000100032BC: 48 8D 1D 3D FD FF  lea         rbx,[0000000010003000h]
                    FF
  00000000100032C3: 48 89 4D 10        mov         qword ptr [rbp+10h],rcx
  00000000100032C7: 48 89 55 18        mov         qword ptr [rbp+18h],rdx
  00000000100032CB: 4C 89 45 20        mov         qword ptr [rbp+20h],r8
  00000000100032CF: 4C 89 4D 28        mov         qword ptr [rbp+28h],r9
  00000000100032D3: 48 8B 83 F0 EF FF  mov         rax,qword ptr [rbx+FFFFFFFFFFFFEFF0h]
                    FF
  00000000100032DA: 48 8B 4D 10        mov         rcx,qword ptr [rbp+10h]
  00000000100032DE: 48 8B 55 20        mov         rdx,qword ptr [rbp+20h]
  00000000100032E2: FF D0              call        rax
  00000000100032E4: 48 89 45 F8        mov         qword ptr [rbp-8],rax
  00000000100032E8: 48 8B 5D F0        mov         rbx,qword ptr [rbp-10h]
  00000000100032EC: C9                 leave
  00000000100032ED: C3                 ret
  00000000100032EE: 90                 nop
  00000000100032EF: 90                 nop
  00000000100032F0: 55                 push        rbp
  00000000100032F1: 48 8B EC           mov         rbp,rsp
  00000000100032F4: 48 83 EC 30        sub         rsp,30h
  00000000100032F8: 48 89 5D F0        mov         qword ptr [rbp-10h],rbx
  00000000100032FC: 48 8D 1D FD FC FF  lea         rbx,[0000000010003000h]
                    FF
  0000000010003303: 48 89 4D 10        mov         qword ptr [rbp+10h],rcx
  0000000010003307: 48 89 55 18        mov         qword ptr [rbp+18h],rdx
  000000001000330B: 48 8B 83 E8 EF FF  mov         rax,qword ptr [rbx+FFFFFFFFFFFFEFE8h]
                    FF
  0000000010003312: 48 8B 4D 10        mov         rcx,qword ptr [rbp+10h]
  0000000010003316: FF D0              call        rax
  0000000010003318: 48 89 45 F8        mov         qword ptr [rbp-8],rax
  000000001000331C: 48 8B 5D F0        mov         rbx,qword ptr [rbp-10h]
  0000000010003320: C9                 leave
  0000000010003321: C3                 ret
  0000000010003322: 90                 nop
  0000000010003323: 90                 nop
  0000000010003324: 90                 nop
  0000000010003325: 90                 nop
  0000000010003326: 90                 nop
  0000000010003327: 90                 nop
  0000000010003328: 90                 nop
  0000000010003329: 90                 nop
  000000001000332A: 90                 nop
  000000001000332B: 90                 nop
  000000001000332C: 90                 nop
  000000001000332D: 90                 nop
  000000001000332E: 90                 nop
  000000001000332F: 90                 nop
  0000000010003330: 55                 push        rbp
  0000000010003331: 48 8B EC           mov         rbp,rsp
  0000000010003334: 48 83 EC 50        sub         rsp,50h
  0000000010003338: 48 89 5D E0        mov         qword ptr [rbp-20h],rbx
  000000001000333C: 48 8D 1D BD FC FF  lea         rbx,[0000000010003000h]
                    FF
  0000000010003343: 48 89 4D 10        mov         qword ptr [rbp+10h],rcx
  0000000010003347: 48 89 55 18        mov         qword ptr [rbp+18h],rdx
  000000001000334B: 4C 89 45 20        mov         qword ptr [rbp+20h],r8
  000000001000334F: 48 8B 83 D0 EF FF  mov         rax,qword ptr [rbx+FFFFFFFFFFFFEFD0h]
                    FF
  0000000010003356: 48 8B 4D 10        mov         rcx,qword ptr [rbp+10h]
  000000001000335A: 48 8B 09           mov         rcx,qword ptr [rcx]
  000000001000335D: 48 8D 55 F7        lea         rdx,[rbp-9]
  0000000010003361: 41 B8 01 00 00 00  mov         r8d,1
  0000000010003367: 4C 8D 4D E8        lea         r9,[rbp-18h]
  000000001000336B: 45 31 D2           xor         r10d,r10d
  000000001000336E: 4C 89 54 24 20     mov         qword ptr [rsp+20h],r10
  0000000010003373: FF D0              call        rax
  0000000010003375: 48 89 45 F8        mov         qword ptr [rbp-8],rax
  0000000010003379: 48 83 7D F8 00     cmp         qword ptr [rbp-8],0
  000000001000337E: 74 0F              je          000000001000338F
  0000000010003380: 48 8B 4D E8        mov         rcx,qword ptr [rbp-18h]
  0000000010003384: E8 57 FD FF FF     call        00000000100030E0
  0000000010003389: 48 83 F8 01        cmp         rax,1
  000000001000338D: 74 0D              je          000000001000339C
  000000001000338F: 48 8B 45 20        mov         rax,qword ptr [rbp+20h]
  0000000010003393: 48 C7 00 FF FF FF  mov         qword ptr [rax],0FFFFFFFFFFFFFFFFh
                    FF
  000000001000339A: EB 0B              jmp         00000000100033A7
  000000001000339C: 0F B6 45 F7        movzx       eax,byte ptr [rbp-9]
  00000000100033A0: 48 8B 4D 20        mov         rcx,qword ptr [rbp+20h]
  00000000100033A4: 48 89 01           mov         qword ptr [rcx],rax
  00000000100033A7: 48 8B 5D E0        mov         rbx,qword ptr [rbp-20h]
  00000000100033AB: C9                 leave
  00000000100033AC: C3                 ret
  00000000100033AD: 90                 nop
  00000000100033AE: 90                 nop
  00000000100033AF: 90                 nop
  00000000100033B0: 55                 push        rbp
  00000000100033B1: 48 8B EC           mov         rbp,rsp
  00000000100033B4: 48 83 EC 50        sub         rsp,50h
  00000000100033B8: 48 89 5D E0        mov         qword ptr [rbp-20h],rbx
  00000000100033BC: 48 8D 1D 3D FC FF  lea         rbx,[0000000010003000h]
                    FF
  00000000100033C3: 48 89 4D 10        mov         qword ptr [rbp+10h],rcx
  00000000100033C7: 48 89 55 18        mov         qword ptr [rbp+18h],rdx
  00000000100033CB: 4C 89 45 20        mov         qword ptr [rbp+20h],r8
  00000000100033CF: 48 8B 83 D0 EF FF  mov         rax,qword ptr [rbx+FFFFFFFFFFFFEFD0h]
                    FF
  00000000100033D6: 48 8B 4D 10        mov         rcx,qword ptr [rbp+10h]
  00000000100033DA: 48 8B 09           mov         rcx,qword ptr [rcx]
  00000000100033DD: 48 8D 55 F0        lea         rdx,[rbp-10h]
  00000000100033E1: 41 B8 02 00 00 00  mov         r8d,2
  00000000100033E7: 4C 8D 4D E8        lea         r9,[rbp-18h]
  00000000100033EB: 45 31 D2           xor         r10d,r10d
  00000000100033EE: 4C 89 54 24 20     mov         qword ptr [rsp+20h],r10
  00000000100033F3: FF D0              call        rax
  00000000100033F5: 48 89 45 F8        mov         qword ptr [rbp-8],rax
  00000000100033F9: 48 83 7D F8 00     cmp         qword ptr [rbp-8],0
  00000000100033FE: 74 0F              je          000000001000340F
  0000000010003400: 48 8B 4D E8        mov         rcx,qword ptr [rbp-18h]
  0000000010003404: E8 D7 FC FF FF     call        00000000100030E0
  0000000010003409: 48 83 F8 02        cmp         rax,2
  000000001000340D: 74 0D              je          000000001000341C
  000000001000340F: 48 8B 45 20        mov         rax,qword ptr [rbp+20h]
  0000000010003413: 48 C7 00 FF FF FF  mov         qword ptr [rax],0FFFFFFFFFFFFFFFFh
                    FF
  000000001000341A: EB 10              jmp         000000001000342C
  000000001000341C: 48 8B 4D F0        mov         rcx,qword ptr [rbp-10h]
  0000000010003420: E8 DB FC FF FF     call        0000000010003100
  0000000010003425: 48 8B 4D 20        mov         rcx,qword ptr [rbp+20h]
  0000000010003429: 48 89 01           mov         qword ptr [rcx],rax
  000000001000342C: 48 8B 5D E0        mov         rbx,qword ptr [rbp-20h]
  0000000010003430: C9                 leave
  0000000010003431: C3                 ret
  0000000010003432: 90                 nop
  0000000010003433: 90                 nop
  0000000010003434: 90                 nop
  0000000010003435: 90                 nop
  0000000010003436: 90                 nop
  0000000010003437: 90                 nop
  0000000010003438: 90                 nop
  0000000010003439: 90                 nop
  000000001000343A: 90                 nop
  000000001000343B: 90                 nop
  000000001000343C: 90                 nop
  000000001000343D: 90                 nop
  000000001000343E: 90                 nop
  000000001000343F: 90                 nop
  0000000010003440: 55                 push        rbp
  0000000010003441: 48 8B EC           mov         rbp,rsp
  0000000010003444: 48 83 EC 40        sub         rsp,40h
  0000000010003448: 48 89 5D E0        mov         qword ptr [rbp-20h],rbx
  000000001000344C: 48 8D 1D AD FB FF  lea         rbx,[0000000010003000h]
                    FF
  0000000010003453: 48 89 4D 10        mov         qword ptr [rbp+10h],rcx
  0000000010003457: 48 89 55 18        mov         qword ptr [rbp+18h],rdx
  000000001000345B: 4C 89 45 20        mov         qword ptr [rbp+20h],r8
  000000001000345F: 4C 89 4D 28        mov         qword ptr [rbp+28h],r9
  0000000010003463: 48 C7 45 F8 FF FF  mov         qword ptr [rbp-8],0FFFFFFFFFFFFFFFFh
                    FF FF
  000000001000346B: 31 C0              xor         eax,eax
  000000001000346D: 48 89 45 F0        mov         qword ptr [rbp-10h],rax
  0000000010003471: 48 FF 45 F8        inc         qword ptr [rbp-8]
  0000000010003475: 48 8B 4D 10        mov         rcx,qword ptr [rbp+10h]
  0000000010003479: 4C 8D 45 F0        lea         r8,[rbp-10h]
  000000001000347D: 48 8B 55 18        mov         rdx,qword ptr [rbp+18h]
  0000000010003481: E8 2A FF FF FF     call        00000000100033B0
  0000000010003486: 48 83 7D F0 FF     cmp         qword ptr [rbp-10h],0FFFFFFFFFFFFFFFFh
  000000001000348B: 75 06              jne         0000000010003493
  000000001000348D: 31 C0              xor         eax,eax
  000000001000348F: 48 89 45 F0        mov         qword ptr [rbp-10h],rax
  0000000010003493: 48 8B 45 20        mov         rax,qword ptr [rbp+20h]
  0000000010003497: 48 8B 4D F8        mov         rcx,qword ptr [rbp-8]
  000000001000349B: 48 3B 4D 28        cmp         rcx,qword ptr [rbp+28h]
  000000001000349F: 73 02              jae         00000000100034A3
  00000000100034A1: EB 08              jmp         00000000100034AB
  00000000100034A3: B0 01              mov         al,1
  00000000100034A5: B9 5E 13 00 00     mov         ecx,135Eh
  00000000100034AA: CC                 int         3
  00000000100034AB: 48 C1 E1 01        shl         rcx,1
  00000000100034AF: 48 03 C1           add         rax,rcx
  00000000100034B2: 0F B7 4D F0        movzx       ecx,word ptr [rbp-10h]
  00000000100034B6: 66 89 08           mov         word ptr [rax],cx
  00000000100034B9: 48 83 7D F0 00     cmp         qword ptr [rbp-10h],0
  00000000100034BE: 75 B1              jne         0000000010003471
  00000000100034C0: 48 8B 5D E0        mov         rbx,qword ptr [rbp-20h]
  00000000100034C4: C9                 leave
  00000000100034C5: C3                 ret
  00000000100034C6: 90                 nop
  00000000100034C7: 90                 nop
  00000000100034C8: 90                 nop
  00000000100034C9: 90                 nop
  00000000100034CA: 90                 nop
  00000000100034CB: 90                 nop
  00000000100034CC: 90                 nop
  00000000100034CD: 90                 nop
  00000000100034CE: 90                 nop
  00000000100034CF: 90                 nop
  00000000100034D0: 55                 push        rbp
  00000000100034D1: 48 8B EC           mov         rbp,rsp
  00000000100034D4: 48 83 EC 50        sub         rsp,50h
  00000000100034D8: 48 89 5D E0        mov         qword ptr [rbp-20h],rbx
  00000000100034DC: 48 8D 1D 1D FB FF  lea         rbx,[0000000010003000h]
                    FF
  00000000100034E3: 48 89 4D 10        mov         qword ptr [rbp+10h],rcx
  00000000100034E7: 48 89 55 18        mov         qword ptr [rbp+18h],rdx
  00000000100034EB: 4C 89 45 20        mov         qword ptr [rbp+20h],r8
  00000000100034EF: 48 8B 83 D0 EF FF  mov         rax,qword ptr [rbx+FFFFFFFFFFFFEFD0h]
                    FF
  00000000100034F6: 48 8B 4D 10        mov         rcx,qword ptr [rbp+10h]
  00000000100034FA: 48 8B 09           mov         rcx,qword ptr [rcx]
  00000000100034FD: 48 8D 55 F0        lea         rdx,[rbp-10h]
  0000000010003501: 41 B8 04 00 00 00  mov         r8d,4
  0000000010003507: 4C 8D 4D E8        lea         r9,[rbp-18h]
  000000001000350B: 45 31 D2           xor         r10d,r10d
  000000001000350E: 4C 89 54 24 20     mov         qword ptr [rsp+20h],r10
  0000000010003513: FF D0              call        rax
  0000000010003515: 48 89 45 F8        mov         qword ptr [rbp-8],rax
  0000000010003519: 48 83 7D F8 00     cmp         qword ptr [rbp-8],0
  000000001000351E: 74 0F              je          000000001000352F
  0000000010003520: 48 8B 4D E8        mov         rcx,qword ptr [rbp-18h]
  0000000010003524: E8 B7 FB FF FF     call        00000000100030E0
  0000000010003529: 48 83 F8 04        cmp         rax,4
  000000001000352D: 74 0D              je          000000001000353C
  000000001000352F: 48 8B 45 20        mov         rax,qword ptr [rbp+20h]
  0000000010003533: 48 C7 00 FF FF FF  mov         qword ptr [rax],0FFFFFFFFFFFFFFFFh
                    FF
  000000001000353A: EB 10              jmp         000000001000354C
  000000001000353C: 48 8B 4D F0        mov         rcx,qword ptr [rbp-10h]
  0000000010003540: E8 9B FB FF FF     call        00000000100030E0
  0000000010003545: 48 8B 4D 20        mov         rcx,qword ptr [rbp+20h]
  0000000010003549: 48 89 01           mov         qword ptr [rcx],rax
  000000001000354C: 48 8B 5D E0        mov         rbx,qword ptr [rbp-20h]
  0000000010003550: C9                 leave
  0000000010003551: C3                 ret
  0000000010003552: 90                 nop
  0000000010003553: 90                 nop
  0000000010003554: 90                 nop
  0000000010003555: 90                 nop
  0000000010003556: 90                 nop
  0000000010003557: 90                 nop
  0000000010003558: 90                 nop
  0000000010003559: 90                 nop
  000000001000355A: 90                 nop
  000000001000355B: 90                 nop
  000000001000355C: 90                 nop
  000000001000355D: 90                 nop
  000000001000355E: 90                 nop
  000000001000355F: 90                 nop
  0000000010003560: 55                 push        rbp
  0000000010003561: 48 8B EC           mov         rbp,rsp
  0000000010003564: 48 83 EC 50        sub         rsp,50h
  0000000010003568: 48 89 5D E0        mov         qword ptr [rbp-20h],rbx
  000000001000356C: 48 8D 1D 8D FA FF  lea         rbx,[0000000010003000h]
                    FF
  0000000010003573: 48 89 4D 10        mov         qword ptr [rbp+10h],rcx
  0000000010003577: 48 89 55 18        mov         qword ptr [rbp+18h],rdx
  000000001000357B: 4C 89 45 20        mov         qword ptr [rbp+20h],r8
  000000001000357F: 48 8B 83 D0 EF FF  mov         rax,qword ptr [rbx+FFFFFFFFFFFFEFD0h]
                    FF
  0000000010003586: 48 8B 4D 10        mov         rcx,qword ptr [rbp+10h]
  000000001000358A: 48 8B 09           mov         rcx,qword ptr [rcx]
  000000001000358D: 48 8D 55 E8        lea         rdx,[rbp-18h]
  0000000010003591: 41 B8 08 00 00 00  mov         r8d,8
  0000000010003597: 4C 8D 4D F0        lea         r9,[rbp-10h]
  000000001000359B: 45 31 D2           xor         r10d,r10d
  000000001000359E: 4C 89 54 24 20     mov         qword ptr [rsp+20h],r10
  00000000100035A3: FF D0              call        rax
  00000000100035A5: 48 89 45 F8        mov         qword ptr [rbp-8],rax
  00000000100035A9: 48 8B 45 E8        mov         rax,qword ptr [rbp-18h]
  00000000100035AD: 48 8B 4D 20        mov         rcx,qword ptr [rbp+20h]
  00000000100035B1: 48 89 01           mov         qword ptr [rcx],rax
  00000000100035B4: 48 8B 5D E0        mov         rbx,qword ptr [rbp-20h]
  00000000100035B8: C9                 leave
  00000000100035B9: C3                 ret
  00000000100035BA: 90                 nop
  00000000100035BB: 90                 nop
  00000000100035BC: 90                 nop
  00000000100035BD: 90                 nop
  00000000100035BE: 90                 nop
  00000000100035BF: 90                 nop
  00000000100035C0: 55                 push        rbp
  00000000100035C1: 48 8B EC           mov         rbp,rsp
  00000000100035C4: 48 83 EC 50        sub         rsp,50h
  00000000100035C8: 48 89 5D E0        mov         qword ptr [rbp-20h],rbx
  00000000100035CC: 48 8D 1D 2D FA FF  lea         rbx,[0000000010003000h]
                    FF
  00000000100035D3: 48 89 4D 10        mov         qword ptr [rbp+10h],rcx
  00000000100035D7: 48 89 55 18        mov         qword ptr [rbp+18h],rdx
  00000000100035DB: 4C 89 45 20        mov         qword ptr [rbp+20h],r8
  00000000100035DF: 4C 89 4D 28        mov         qword ptr [rbp+28h],r9
  00000000100035E3: 48 8B 83 D0 EF FF  mov         rax,qword ptr [rbx+FFFFFFFFFFFFEFD0h]
                    FF
  00000000100035EA: 48 8B 4D 10        mov         rcx,qword ptr [rbp+10h]
  00000000100035EE: 48 8B 09           mov         rcx,qword ptr [rcx]
  00000000100035F1: 48 8B 55 20        mov         rdx,qword ptr [rbp+20h]
  00000000100035F5: 4C 8B 45 28        mov         r8,qword ptr [rbp+28h]
  00000000100035F9: 4C 8D 4D F0        lea         r9,[rbp-10h]
  00000000100035FD: 45 31 D2           xor         r10d,r10d
  0000000010003600: 4C 89 54 24 20     mov         qword ptr [rsp+20h],r10
  0000000010003605: FF D0              call        rax
  0000000010003607: 48 89 45 F8        mov         qword ptr [rbp-8],rax
  000000001000360B: 48 8B 4D F0        mov         rcx,qword ptr [rbp-10h]
  000000001000360F: E8 CC FA FF FF     call        00000000100030E0
  0000000010003614: 48 8B 4D 30        mov         rcx,qword ptr [rbp+30h]
  0000000010003618: 48 89 01           mov         qword ptr [rcx],rax
  000000001000361B: 48 8B 5D E0        mov         rbx,qword ptr [rbp-20h]
  000000001000361F: C9                 leave
  0000000010003620: C3                 ret
  0000000010003621: 90                 nop
  0000000010003622: 90                 nop
  0000000010003623: 90                 nop
  0000000010003624: 90                 nop
  0000000010003625: 90                 nop
  0000000010003626: 90                 nop
  0000000010003627: 90                 nop
  0000000010003628: 90                 nop
  0000000010003629: 90                 nop
  000000001000362A: 90                 nop
  000000001000362B: 90                 nop
  000000001000362C: 90                 nop
  000000001000362D: 90                 nop
  000000001000362E: 90                 nop
  000000001000362F: 90                 nop
  0000000010003630: 55                 push        rbp
  0000000010003631: 48 8B EC           mov         rbp,rsp
  0000000010003634: 48 83 EC 50        sub         rsp,50h
  0000000010003638: 48 89 5D E0        mov         qword ptr [rbp-20h],rbx
  000000001000363C: 48 8D 1D BD F9 FF  lea         rbx,[0000000010003000h]
                    FF
  0000000010003643: 48 89 4D 10        mov         qword ptr [rbp+10h],rcx
  0000000010003647: 48 89 55 18        mov         qword ptr [rbp+18h],rdx
  000000001000364B: 4C 89 45 20        mov         qword ptr [rbp+20h],r8
  000000001000364F: 48 8B 83 C8 EF FF  mov         rax,qword ptr [rbx+FFFFFFFFFFFFEFC8h]
                    FF
  0000000010003656: 48 8B 4D 10        mov         rcx,qword ptr [rbp+10h]
  000000001000365A: 48 8B 09           mov         rcx,qword ptr [rcx]
  000000001000365D: 48 8D 55 20        lea         rdx,[rbp+20h]
  0000000010003661: 41 B8 01 00 00 00  mov         r8d,1
  0000000010003667: 4C 8D 4D F0        lea         r9,[rbp-10h]
  000000001000366B: 45 31 D2           xor         r10d,r10d
  000000001000366E: 4C 89 54 24 20     mov         qword ptr [rsp+20h],r10
  0000000010003673: FF D0              call        rax
  0000000010003675: 48 89 45 F8        mov         qword ptr [rbp-8],rax
  0000000010003679: 48 8B 5D E0        mov         rbx,qword ptr [rbp-20h]
  000000001000367D: C9                 leave
  000000001000367E: C3                 ret
  000000001000367F: 90                 nop
  0000000010003680: 55                 push        rbp
  0000000010003681: 48 8B EC           mov         rbp,rsp
  0000000010003684: 48 83 EC 50        sub         rsp,50h
  0000000010003688: 48 89 5D E0        mov         qword ptr [rbp-20h],rbx
  000000001000368C: 48 8D 1D 6D F9 FF  lea         rbx,[0000000010003000h]
                    FF
  0000000010003693: 48 89 4D 10        mov         qword ptr [rbp+10h],rcx
  0000000010003697: 48 89 55 18        mov         qword ptr [rbp+18h],rdx
  000000001000369B: 4C 89 45 20        mov         qword ptr [rbp+20h],r8
  000000001000369F: 48 8B 83 C8 EF FF  mov         rax,qword ptr [rbx+FFFFFFFFFFFFEFC8h]
                    FF
  00000000100036A6: 48 8B 4D 10        mov         rcx,qword ptr [rbp+10h]
  00000000100036AA: 48 8B 09           mov         rcx,qword ptr [rcx]
  00000000100036AD: 48 8D 55 20        lea         rdx,[rbp+20h]
  00000000100036B1: 41 B8 02 00 00 00  mov         r8d,2
  00000000100036B7: 4C 8D 4D F0        lea         r9,[rbp-10h]
  00000000100036BB: 45 31 D2           xor         r10d,r10d
  00000000100036BE: 4C 89 54 24 20     mov         qword ptr [rsp+20h],r10
  00000000100036C3: FF D0              call        rax
  00000000100036C5: 48 89 45 F8        mov         qword ptr [rbp-8],rax
  00000000100036C9: 48 8B 5D E0        mov         rbx,qword ptr [rbp-20h]
  00000000100036CD: C9                 leave
  00000000100036CE: C3                 ret
  00000000100036CF: 90                 nop
  00000000100036D0: 55                 push        rbp
  00000000100036D1: 48 8B EC           mov         rbp,rsp
  00000000100036D4: 48 83 EC 40        sub         rsp,40h
  00000000100036D8: 48 89 5D E0        mov         qword ptr [rbp-20h],rbx
  00000000100036DC: 48 8D 1D 1D F9 FF  lea         rbx,[0000000010003000h]
                    FF
  00000000100036E3: 48 89 4D 10        mov         qword ptr [rbp+10h],rcx
  00000000100036E7: 48 89 55 18        mov         qword ptr [rbp+18h],rdx
  00000000100036EB: 4C 89 45 20        mov         qword ptr [rbp+20h],r8
  00000000100036EF: 4C 89 4D 28        mov         qword ptr [rbp+28h],r9
  00000000100036F3: 48 C7 45 F8 FF FF  mov         qword ptr [rbp-8],0FFFFFFFFFFFFFFFFh
                    FF FF
  00000000100036FB: 31 C0              xor         eax,eax
  00000000100036FD: 48 89 45 F0        mov         qword ptr [rbp-10h],rax
  0000000010003701: 48 FF 45 F8        inc         qword ptr [rbp-8]
  0000000010003705: 48 8B 4D 10        mov         rcx,qword ptr [rbp+10h]
  0000000010003709: 4C 8B 45 20        mov         r8,qword ptr [rbp+20h]
  000000001000370D: 48 8B 45 F8        mov         rax,qword ptr [rbp-8]
  0000000010003711: 48 3B 45 28        cmp         rax,qword ptr [rbp+28h]
  0000000010003715: 73 02              jae         0000000010003719
  0000000010003717: EB 08              jmp         0000000010003721
  0000000010003719: B0 01              mov         al,1
  000000001000371B: B9 06 19 00 00     mov         ecx,1906h
  0000000010003720: CC                 int         3
  0000000010003721: 48 C1 E0 01        shl         rax,1
  0000000010003725: 4C 03 C0           add         r8,rax
  0000000010003728: 45 0F B7 00        movzx       r8d,word ptr [r8]
  000000001000372C: 48 8B 55 18        mov         rdx,qword ptr [rbp+18h]
  0000000010003730: E8 4B FF FF FF     call        0000000010003680
  0000000010003735: 48 8B 45 20        mov         rax,qword ptr [rbp+20h]
  0000000010003739: 48 8B 4D F8        mov         rcx,qword ptr [rbp-8]
  000000001000373D: 48 3B 4D 28        cmp         rcx,qword ptr [rbp+28h]
  0000000010003741: 73 02              jae         0000000010003745
  0000000010003743: EB 08              jmp         000000001000374D
  0000000010003745: B0 01              mov         al,1
  0000000010003747: B9 15 19 00 00     mov         ecx,1915h
  000000001000374C: CC                 int         3
  000000001000374D: 48 C1 E1 01        shl         rcx,1
  0000000010003751: 48 03 C1           add         rax,rcx
  0000000010003754: 66 83 38 00        cmp         word ptr [rax],0
  0000000010003758: 75 A7              jne         0000000010003701
  000000001000375A: 48 8B 5D E0        mov         rbx,qword ptr [rbp-20h]
  000000001000375E: C9                 leave
  000000001000375F: C3                 ret
  0000000010003760: 55                 push        rbp
  0000000010003761: 48 8B EC           mov         rbp,rsp
  0000000010003764: 48 83 EC 40        sub         rsp,40h
  0000000010003768: 48 89 5D E0        mov         qword ptr [rbp-20h],rbx
  000000001000376C: 48 8D 1D 8D F8 FF  lea         rbx,[0000000010003000h]
                    FF
  0000000010003773: 48 89 4D 10        mov         qword ptr [rbp+10h],rcx
  0000000010003777: 48 89 55 18        mov         qword ptr [rbp+18h],rdx
  000000001000377B: 4C 89 45 20        mov         qword ptr [rbp+20h],r8
  000000001000377F: 4C 89 4D 28        mov         qword ptr [rbp+28h],r9
  0000000010003783: 48 C7 45 F8 FF FF  mov         qword ptr [rbp-8],0FFFFFFFFFFFFFFFFh
                    FF FF
  000000001000378B: 31 C0              xor         eax,eax
  000000001000378D: 48 89 45 F0        mov         qword ptr [rbp-10h],rax
  0000000010003791: 48 FF 45 F8        inc         qword ptr [rbp-8]
  0000000010003795: 48 8B 4D 10        mov         rcx,qword ptr [rbp+10h]
  0000000010003799: 4C 8B 45 20        mov         r8,qword ptr [rbp+20h]
  000000001000379D: 48 8B 45 F8        mov         rax,qword ptr [rbp-8]
  00000000100037A1: 48 3B 45 28        cmp         rax,qword ptr [rbp+28h]
  00000000100037A5: 73 02              jae         00000000100037A9
  00000000100037A7: EB 08              jmp         00000000100037B1
  00000000100037A9: B0 01              mov         al,1
  00000000100037AB: B9 BF 19 00 00     mov         ecx,19BFh
  00000000100037B0: CC                 int         3
  00000000100037B1: 48 C1 E0 01        shl         rax,1
  00000000100037B5: 4C 03 C0           add         r8,rax
  00000000100037B8: 45 0F B7 00        movzx       r8d,word ptr [r8]
  00000000100037BC: 48 8B 55 18        mov         rdx,qword ptr [rbp+18h]
  00000000100037C0: E8 6B FE FF FF     call        0000000010003630
  00000000100037C5: 48 8B 45 20        mov         rax,qword ptr [rbp+20h]
  00000000100037C9: 48 8B 4D F8        mov         rcx,qword ptr [rbp-8]
  00000000100037CD: 48 3B 4D 28        cmp         rcx,qword ptr [rbp+28h]
  00000000100037D1: 73 02              jae         00000000100037D5
  00000000100037D3: EB 08              jmp         00000000100037DD
  00000000100037D5: B0 01              mov         al,1
  00000000100037D7: B9 CE 19 00 00     mov         ecx,19CEh
  00000000100037DC: CC                 int         3
  00000000100037DD: 48 C1 E1 01        shl         rcx,1
  00000000100037E1: 48 03 C1           add         rax,rcx
  00000000100037E4: 66 83 38 00        cmp         word ptr [rax],0
  00000000100037E8: 75 A7              jne         0000000010003791
  00000000100037EA: 48 8B 5D E0        mov         rbx,qword ptr [rbp-20h]
  00000000100037EE: C9                 leave
  00000000100037EF: C3                 ret
  00000000100037F0: 55                 push        rbp
  00000000100037F1: 48 8B EC           mov         rbp,rsp
  00000000100037F4: 48 83 EC 50        sub         rsp,50h
  00000000100037F8: 48 89 5D E0        mov         qword ptr [rbp-20h],rbx
  00000000100037FC: 48 8D 1D FD F7 FF  lea         rbx,[0000000010003000h]
                    FF
  0000000010003803: 48 89 4D 10        mov         qword ptr [rbp+10h],rcx
  0000000010003807: 48 89 55 18        mov         qword ptr [rbp+18h],rdx
  000000001000380B: 4C 89 45 20        mov         qword ptr [rbp+20h],r8
  000000001000380F: 48 8B 83 C8 EF FF  mov         rax,qword ptr [rbx+FFFFFFFFFFFFEFC8h]
                    FF
  0000000010003816: 48 8B 4D 10        mov         rcx,qword ptr [rbp+10h]
  000000001000381A: 48 8B 09           mov         rcx,qword ptr [rcx]
  000000001000381D: 48 8D 55 20        lea         rdx,[rbp+20h]
  0000000010003821: 41 B8 04 00 00 00  mov         r8d,4
  0000000010003827: 4C 8D 4D F0        lea         r9,[rbp-10h]
  000000001000382B: 45 31 D2           xor         r10d,r10d
  000000001000382E: 4C 89 54 24 20     mov         qword ptr [rsp+20h],r10
  0000000010003833: FF D0              call        rax
  0000000010003835: 48 89 45 F8        mov         qword ptr [rbp-8],rax
  0000000010003839: 48 8B 5D E0        mov         rbx,qword ptr [rbp-20h]
  000000001000383D: C9                 leave
  000000001000383E: C3                 ret
  000000001000383F: 90                 nop
  0000000010003840: 55                 push        rbp
  0000000010003841: 48 8B EC           mov         rbp,rsp
  0000000010003844: 48 83 EC 50        sub         rsp,50h
  0000000010003848: 48 89 5D E0        mov         qword ptr [rbp-20h],rbx
  000000001000384C: 48 8D 1D AD F7 FF  lea         rbx,[0000000010003000h]
                    FF
  0000000010003853: 48 89 4D 10        mov         qword ptr [rbp+10h],rcx
  0000000010003857: 48 89 55 18        mov         qword ptr [rbp+18h],rdx
  000000001000385B: 4C 89 45 20        mov         qword ptr [rbp+20h],r8
  000000001000385F: 48 8B 83 C8 EF FF  mov         rax,qword ptr [rbx+FFFFFFFFFFFFEFC8h]
                    FF
  0000000010003866: 48 8B 4D 10        mov         rcx,qword ptr [rbp+10h]
  000000001000386A: 48 8B 09           mov         rcx,qword ptr [rcx]
  000000001000386D: 48 8D 55 20        lea         rdx,[rbp+20h]
  0000000010003871: 41 B8 08 00 00 00  mov         r8d,8
  0000000010003877: 4C 8D 4D F0        lea         r9,[rbp-10h]
  000000001000387B: 45 31 D2           xor         r10d,r10d
  000000001000387E: 4C 89 54 24 20     mov         qword ptr [rsp+20h],r10
  0000000010003883: FF D0              call        rax
  0000000010003885: 48 89 45 F8        mov         qword ptr [rbp-8],rax
  0000000010003889: 48 8B 5D E0        mov         rbx,qword ptr [rbp-20h]
  000000001000388D: C9                 leave
  000000001000388E: C3                 ret
  000000001000388F: 90                 nop
  0000000010003890: 55                 push        rbp
  0000000010003891: 48 8B EC           mov         rbp,rsp
  0000000010003894: 48 83 EC 50        sub         rsp,50h
  0000000010003898: 48 89 5D E0        mov         qword ptr [rbp-20h],rbx
  000000001000389C: 48 8D 1D 5D F7 FF  lea         rbx,[0000000010003000h]
                    FF
  00000000100038A3: 48 89 4D 10        mov         qword ptr [rbp+10h],rcx
  00000000100038A7: 48 89 55 18        mov         qword ptr [rbp+18h],rdx
  00000000100038AB: 4C 89 45 20        mov         qword ptr [rbp+20h],r8
  00000000100038AF: 4C 89 4D 28        mov         qword ptr [rbp+28h],r9
  00000000100038B3: 48 8B 83 C8 EF FF  mov         rax,qword ptr [rbx+FFFFFFFFFFFFEFC8h]
                    FF
  00000000100038BA: 48 8B 4D 10        mov         rcx,qword ptr [rbp+10h]
  00000000100038BE: 48 8B 09           mov         rcx,qword ptr [rcx]
  00000000100038C1: 48 8B 55 20        mov         rdx,qword ptr [rbp+20h]
  00000000100038C5: 4C 8B 45 28        mov         r8,qword ptr [rbp+28h]
  00000000100038C9: 4C 8D 4D F0        lea         r9,[rbp-10h]
  00000000100038CD: 45 31 D2           xor         r10d,r10d
  00000000100038D0: 4C 89 54 24 20     mov         qword ptr [rsp+20h],r10
  00000000100038D5: FF D0              call        rax
  00000000100038D7: 48 89 45 F8        mov         qword ptr [rbp-8],rax
  00000000100038DB: 48 8B 4D F0        mov         rcx,qword ptr [rbp-10h]
  00000000100038DF: E8 FC F7 FF FF     call        00000000100030E0
  00000000100038E4: 48 8B 4D 30        mov         rcx,qword ptr [rbp+30h]
  00000000100038E8: 48 89 01           mov         qword ptr [rcx],rax
  00000000100038EB: 48 8B 5D E0        mov         rbx,qword ptr [rbp-20h]
  00000000100038EF: C9                 leave
  00000000100038F0: C3                 ret
  00000000100038F1: 90                 nop
  00000000100038F2: 90                 nop
  00000000100038F3: 90                 nop
  00000000100038F4: 90                 nop
  00000000100038F5: 90                 nop
  00000000100038F6: 90                 nop
  00000000100038F7: 90                 nop
  00000000100038F8: 90                 nop
  00000000100038F9: 90                 nop
  00000000100038FA: 90                 nop
  00000000100038FB: 90                 nop
  00000000100038FC: 90                 nop
  00000000100038FD: 90                 nop
  00000000100038FE: 90                 nop
  00000000100038FF: 90                 nop
  0000000010003900: 55                 push        rbp
  0000000010003901: 48 8B EC           mov         rbp,rsp
  0000000010003904: 48 83 EC 50        sub         rsp,50h
  0000000010003908: 48 89 5D E0        mov         qword ptr [rbp-20h],rbx
  000000001000390C: 48 8D 1D ED F6 FF  lea         rbx,[0000000010003000h]
                    FF
  0000000010003913: 48 89 4D 10        mov         qword ptr [rbp+10h],rcx
  0000000010003917: 48 89 55 18        mov         qword ptr [rbp+18h],rdx
  000000001000391B: 4C 89 45 20        mov         qword ptr [rbp+20h],r8
  000000001000391F: 4C 89 4D 28        mov         qword ptr [rbp+28h],r9
  0000000010003923: 48 8B 83 C8 EF FF  mov         rax,qword ptr [rbx+FFFFFFFFFFFFEFC8h]
                    FF
  000000001000392A: 48 8B 4D 10        mov         rcx,qword ptr [rbp+10h]
  000000001000392E: 48 8B 09           mov         rcx,qword ptr [rcx]
  0000000010003931: 48 8B 55 20        mov         rdx,qword ptr [rbp+20h]
  0000000010003935: 4C 8B 45 28        mov         r8,qword ptr [rbp+28h]
  0000000010003939: 4D 8B 00           mov         r8,qword ptr [r8]
  000000001000393C: 4C 8D 4D F0        lea         r9,[rbp-10h]
  0000000010003940: 45 31 D2           xor         r10d,r10d
  0000000010003943: 4C 89 54 24 20     mov         qword ptr [rsp+20h],r10
  0000000010003948: FF D0              call        rax
  000000001000394A: 48 89 45 F8        mov         qword ptr [rbp-8],rax
  000000001000394E: 48 8B 4D F0        mov         rcx,qword ptr [rbp-10h]
  0000000010003952: E8 89 F7 FF FF     call        00000000100030E0
  0000000010003957: 48 8B 4D 28        mov         rcx,qword ptr [rbp+28h]
  000000001000395B: 48 89 01           mov         qword ptr [rcx],rax
  000000001000395E: 48 8B 5D E0        mov         rbx,qword ptr [rbp-20h]
  0000000010003962: C9                 leave
  0000000010003963: C3                 ret
  0000000010003964: 90                 nop
  0000000010003965: 90                 nop
  0000000010003966: 90                 nop
  0000000010003967: 90                 nop
  0000000010003968: 90                 nop
  0000000010003969: 90                 nop
  000000001000396A: 90                 nop
  000000001000396B: 90                 nop
  000000001000396C: 90                 nop
  000000001000396D: 90                 nop
  000000001000396E: 90                 nop
  000000001000396F: 90                 nop
  0000000010003970: 55                 push        rbp
  0000000010003971: 48 8B EC           mov         rbp,rsp
  0000000010003974: 48 83 EC 40        sub         rsp,40h
  0000000010003978: 48 89 5D E0        mov         qword ptr [rbp-20h],rbx
  000000001000397C: 48 8D 1D 7D F6 FF  lea         rbx,[0000000010003000h]
                    FF
  0000000010003983: 48 89 4D 10        mov         qword ptr [rbp+10h],rcx
  0000000010003987: 48 89 55 18        mov         qword ptr [rbp+18h],rdx
  000000001000398B: 31 C0              xor         eax,eax
  000000001000398D: 48 89 45 F0        mov         qword ptr [rbp-10h],rax
  0000000010003991: 48 8B 83 C0 EF FF  mov         rax,qword ptr [rbx+FFFFFFFFFFFFEFC0h]
                    FF
  0000000010003998: 48 8B 4D 10        mov         rcx,qword ptr [rbp+10h]
  000000001000399C: 48 8B 09           mov         rcx,qword ptr [rcx]
  000000001000399F: 48 8B 55 F0        mov         rdx,qword ptr [rbp-10h]
  00000000100039A3: 4C 8D 45 E8        lea         r8,[rbp-18h]
  00000000100039A7: 41 B9 01 00 00 00  mov         r9d,1
  00000000100039AD: FF D0              call        rax
  00000000100039AF: 48 89 45 F8        mov         qword ptr [rbp-8],rax
  00000000100039B3: 48 8B 45 E8        mov         rax,qword ptr [rbp-18h]
  00000000100039B7: 48 8B 5D E0        mov         rbx,qword ptr [rbp-20h]
  00000000100039BB: C9                 leave
  00000000100039BC: C3                 ret
  00000000100039BD: 90                 nop
  00000000100039BE: 90                 nop
  00000000100039BF: 90                 nop
  00000000100039C0: 55                 push        rbp
  00000000100039C1: 48 8B EC           mov         rbp,rsp
  00000000100039C4: 48 83 EC 40        sub         rsp,40h
  00000000100039C8: 48 89 5D E0        mov         qword ptr [rbp-20h],rbx
  00000000100039CC: 48 8D 1D 2D F6 FF  lea         rbx,[0000000010003000h]
                    FF
  00000000100039D3: 48 89 4D 10        mov         qword ptr [rbp+10h],rcx
  00000000100039D7: 48 89 55 18        mov         qword ptr [rbp+18h],rdx
  00000000100039DB: 4C 89 45 20        mov         qword ptr [rbp+20h],r8
  00000000100039DF: 48 8B 45 20        mov         rax,qword ptr [rbp+20h]
  00000000100039E3: 48 89 45 F0        mov         qword ptr [rbp-10h],rax
  00000000100039E7: 48 8B 83 C0 EF FF  mov         rax,qword ptr [rbx+FFFFFFFFFFFFEFC0h]
                    FF
  00000000100039EE: 48 8B 4D 10        mov         rcx,qword ptr [rbp+10h]
  00000000100039F2: 48 8B 09           mov         rcx,qword ptr [rcx]
  00000000100039F5: 48 8B 55 F0        mov         rdx,qword ptr [rbp-10h]
  00000000100039F9: 4C 8D 45 E8        lea         r8,[rbp-18h]
  00000000100039FD: 45 31 C9           xor         r9d,r9d
  0000000010003A00: FF D0              call        rax
  0000000010003A02: 48 89 45 F8        mov         qword ptr [rbp-8],rax
  0000000010003A06: 48 8B 5D E0        mov         rbx,qword ptr [rbp-20h]
  0000000010003A0A: C9                 leave
  0000000010003A0B: C3                 ret
  0000000010003A0C: 90                 nop
  0000000010003A0D: 90                 nop
  0000000010003A0E: 90                 nop
  0000000010003A0F: 90                 nop
  0000000010003A10: 55                 push        rbp
  0000000010003A11: 48 8B EC           mov         rbp,rsp
  0000000010003A14: 48 83 EC 40        sub         rsp,40h
  0000000010003A18: 48 89 5D E0        mov         qword ptr [rbp-20h],rbx
  0000000010003A1C: 48 8D 1D DD F5 FF  lea         rbx,[0000000010003000h]
                    FF
  0000000010003A23: 48 89 4D 10        mov         qword ptr [rbp+10h],rcx
  0000000010003A27: 48 89 55 18        mov         qword ptr [rbp+18h],rdx
  0000000010003A2B: 4C 89 45 20        mov         qword ptr [rbp+20h],r8
  0000000010003A2F: 48 8B 45 20        mov         rax,qword ptr [rbp+20h]
  0000000010003A33: 48 89 45 F0        mov         qword ptr [rbp-10h],rax
  0000000010003A37: 48 8B 83 C0 EF FF  mov         rax,qword ptr [rbx+FFFFFFFFFFFFEFC0h]
                    FF
  0000000010003A3E: 48 8B 4D 10        mov         rcx,qword ptr [rbp+10h]
  0000000010003A42: 48 8B 09           mov         rcx,qword ptr [rcx]
  0000000010003A45: 48 8B 55 F0        mov         rdx,qword ptr [rbp-10h]
  0000000010003A49: 4C 8D 45 E8        lea         r8,[rbp-18h]
  0000000010003A4D: 41 B9 01 00 00 00  mov         r9d,1
  0000000010003A53: FF D0              call        rax
  0000000010003A55: 48 89 45 F8        mov         qword ptr [rbp-8],rax
  0000000010003A59: 48 8B 5D E0        mov         rbx,qword ptr [rbp-20h]
  0000000010003A5D: C9                 leave
  0000000010003A5E: C3                 ret
  0000000010003A5F: 90                 nop
  0000000010003A60: 55                 push        rbp
  0000000010003A61: 48 8B EC           mov         rbp,rsp
  0000000010003A64: 48 83 EC 70        sub         rsp,70h
  0000000010003A68: 48 89 5D D0        mov         qword ptr [rbp-30h],rbx
  0000000010003A6C: 48 89 75 D8        mov         qword ptr [rbp-28h],rsi
  0000000010003A70: 48 8D 1D 89 F5 FF  lea         rbx,[0000000010003000h]
                    FF
  0000000010003A77: 48 89 4D 10        mov         qword ptr [rbp+10h],rcx
  0000000010003A7B: 48 8B 83 A8 EF FF  mov         rax,qword ptr [rbx+FFFFFFFFFFFFEFA8h]
                    FF
  0000000010003A82: B9 E9 FD 00 00     mov         ecx,0FDE9h
  0000000010003A87: 31 D2              xor         edx,edx
  0000000010003A89: 4C 8D 45 10        lea         r8,[rbp+10h]
  0000000010003A8D: 41 B9 01 00 00 00  mov         r9d,1
  0000000010003A93: 4C 8D 55 F8        lea         r10,[rbp-8]
  0000000010003A97: 4C 89 54 24 20     mov         qword ptr [rsp+20h],r10
  0000000010003A9C: 45 31 D2           xor         r10d,r10d
  0000000010003A9F: 4C 89 54 24 28     mov         qword ptr [rsp+28h],r10
  0000000010003AA4: 45 31 D2           xor         r10d,r10d
  0000000010003AA7: 4C 89 54 24 30     mov         qword ptr [rsp+30h],r10
  0000000010003AAC: 45 31 D2           xor         r10d,r10d
  0000000010003AAF: 4C 89 54 24 38     mov         qword ptr [rsp+38h],r10
  0000000010003AB4: FF D0              call        rax
  0000000010003AB6: 48 89 45 F0        mov         qword ptr [rbp-10h],rax
  0000000010003ABA: 48 83 7D F0 08     cmp         qword ptr [rbp-10h],8
  0000000010003ABF: 7F 72              jg          0000000010003B33
  0000000010003AC1: 48 8B 83 A8 EF FF  mov         rax,qword ptr [rbx+FFFFFFFFFFFFEFA8h]
                    FF
  0000000010003AC8: B9 E9 FD 00 00     mov         ecx,0FDE9h
  0000000010003ACD: 31 D2              xor         edx,edx
  0000000010003ACF: 4C 8D 45 10        lea         r8,[rbp+10h]
  0000000010003AD3: 41 B9 01 00 00 00  mov         r9d,1
  0000000010003AD9: 4C 8D 55 F8        lea         r10,[rbp-8]
  0000000010003ADD: 4C 89 54 24 20     mov         qword ptr [rsp+20h],r10
  0000000010003AE2: 4C 8B 55 F0        mov         r10,qword ptr [rbp-10h]
  0000000010003AE6: 4C 89 54 24 28     mov         qword ptr [rsp+28h],r10
  0000000010003AEB: 45 31 D2           xor         r10d,r10d
  0000000010003AEE: 4C 89 54 24 30     mov         qword ptr [rsp+30h],r10
  0000000010003AF3: 45 31 D2           xor         r10d,r10d
  0000000010003AF6: 4C 89 54 24 38     mov         qword ptr [rsp+38h],r10
  0000000010003AFB: FF D0              call        rax
  0000000010003AFD: 48 89 45 F0        mov         qword ptr [rbp-10h],rax
  0000000010003B01: 48 8B B3 C8 EF FF  mov         rsi,qword ptr [rbx+FFFFFFFFFFFFEFC8h]
                    FF
  0000000010003B08: 48 8B 83 A0 EF FF  mov         rax,qword ptr [rbx+FFFFFFFFFFFFEFA0h]
                    FF
  0000000010003B0F: 31 C9              xor         ecx,ecx
  0000000010003B11: 48 83 C1 F5        add         rcx,0FFFFFFFFFFFFFFF5h
  0000000010003B15: FF D0              call        rax
  0000000010003B17: 48 8D 55 F8        lea         rdx,[rbp-8]
  0000000010003B1B: 4C 8B 45 F0        mov         r8,qword ptr [rbp-10h]
  0000000010003B1F: 4C 8D 4D E0        lea         r9,[rbp-20h]
  0000000010003B23: 31 C9              xor         ecx,ecx
  0000000010003B25: 48 89 4C 24 20     mov         qword ptr [rsp+20h],rcx
  0000000010003B2A: 48 8B C8           mov         rcx,rax
  0000000010003B2D: FF D6              call        rsi
  0000000010003B2F: 48 89 45 E8        mov         qword ptr [rbp-18h],rax
  0000000010003B33: 48 8B 5D D0        mov         rbx,qword ptr [rbp-30h]
  0000000010003B37: 48 8B 75 D8        mov         rsi,qword ptr [rbp-28h]
  0000000010003B3B: C9                 leave
  0000000010003B3C: C3                 ret
  0000000010003B3D: 90                 nop
  0000000010003B3E: 90                 nop
  0000000010003B3F: 90                 nop
  0000000010003B40: 55                 push        rbp
  0000000010003B41: 48 8B EC           mov         rbp,rsp
  0000000010003B44: 48 81 EC 70 01 00  sub         rsp,170h
                    00
  0000000010003B4B: 48 89 9D D0 FE FF  mov         qword ptr [rbp+FFFFFFFFFFFFFED0h],rbx
                    FF
  0000000010003B52: 48 89 B5 D8 FE FF  mov         qword ptr [rbp+FFFFFFFFFFFFFED8h],rsi
                    FF
  0000000010003B59: 48 8D 1D A0 F4 FF  lea         rbx,[0000000010003000h]
                    FF
  0000000010003B60: 48 89 4D 10        mov         qword ptr [rbp+10h],rcx
  0000000010003B64: 48 89 55 18        mov         qword ptr [rbp+18h],rdx
  0000000010003B68: 31 C0              xor         eax,eax
  0000000010003B6A: 48 89 85 F8 FE FF  mov         qword ptr [rbp+FFFFFFFFFFFFFEF8h],rax
                    FF
  0000000010003B71: 48 8B 45 10        mov         rax,qword ptr [rbp+10h]
  0000000010003B75: 48 8B 8D F8 FE FF  mov         rcx,qword ptr [rbp+FFFFFFFFFFFFFEF8h]
                    FF
  0000000010003B7C: 48 3B 4D 18        cmp         rcx,qword ptr [rbp+18h]
  0000000010003B80: 73 02              jae         0000000010003B84
  0000000010003B82: EB 08              jmp         0000000010003B8C
  0000000010003B84: B0 01              mov         al,1
  0000000010003B86: B9 06 25 00 00     mov         ecx,2506h
  0000000010003B8B: CC                 int         3
  0000000010003B8C: 48 C1 E1 01        shl         rcx,1
  0000000010003B90: 48 03 C1           add         rax,rcx
  0000000010003B93: 66 83 38 00        cmp         word ptr [rax],0
  0000000010003B97: 74 09              je          0000000010003BA2
  0000000010003B99: 48 FF 85 F8 FE FF  inc         qword ptr [rbp+FFFFFFFFFFFFFEF8h]
                    FF
  0000000010003BA0: EB CF              jmp         0000000010003B71
  0000000010003BA2: 48 8B 83 A8 EF FF  mov         rax,qword ptr [rbx+FFFFFFFFFFFFEFA8h]
                    FF
  0000000010003BA9: B9 E9 FD 00 00     mov         ecx,0FDE9h
  0000000010003BAE: 31 D2              xor         edx,edx
  0000000010003BB0: 4C 8B 45 10        mov         r8,qword ptr [rbp+10h]
  0000000010003BB4: 4C 8B 8D F8 FE FF  mov         r9,qword ptr [rbp+FFFFFFFFFFFFFEF8h]
                    FF
  0000000010003BBB: 4C 8D 95 00 FF FF  lea         r10,[rbp+FFFFFFFFFFFFFF00h]
                    FF
  0000000010003BC2: 4C 89 54 24 20     mov         qword ptr [rsp+20h],r10
  0000000010003BC7: 45 31 D2           xor         r10d,r10d
  0000000010003BCA: 4C 89 54 24 28     mov         qword ptr [rsp+28h],r10
  0000000010003BCF: 45 31 D2           xor         r10d,r10d
  0000000010003BD2: 4C 89 54 24 30     mov         qword ptr [rsp+30h],r10
  0000000010003BD7: 45 31 D2           xor         r10d,r10d
  0000000010003BDA: 4C 89 54 24 38     mov         qword ptr [rsp+38h],r10
  0000000010003BDF: FF D0              call        rax
  0000000010003BE1: 48 89 85 F0 FE FF  mov         qword ptr [rbp+FFFFFFFFFFFFFEF0h],rax
                    FF
  0000000010003BE8: 48 81 BD F0 FE FF  cmp         qword ptr [rbp+FFFFFFFFFFFFFEF0h],100h
                    FF 00 01 00 00
  0000000010003BF3: 0F 8F 88 00 00 00  jg          0000000010003C81
  0000000010003BF9: 48 8B 83 A8 EF FF  mov         rax,qword ptr [rbx+FFFFFFFFFFFFEFA8h]
                    FF
  0000000010003C00: B9 E9 FD 00 00     mov         ecx,0FDE9h
  0000000010003C05: 31 D2              xor         edx,edx
  0000000010003C07: 4C 8B 45 10        mov         r8,qword ptr [rbp+10h]
  0000000010003C0B: 4C 8B 8D F8 FE FF  mov         r9,qword ptr [rbp+FFFFFFFFFFFFFEF8h]
                    FF
  0000000010003C12: 4C 8D 95 00 FF FF  lea         r10,[rbp+FFFFFFFFFFFFFF00h]
                    FF
  0000000010003C19: 4C 89 54 24 20     mov         qword ptr [rsp+20h],r10
  0000000010003C1E: 4C 8B 95 F0 FE FF  mov         r10,qword ptr [rbp+FFFFFFFFFFFFFEF0h]
                    FF
  0000000010003C25: 4C 89 54 24 28     mov         qword ptr [rsp+28h],r10
  0000000010003C2A: 45 31 D2           xor         r10d,r10d
  0000000010003C2D: 4C 89 54 24 30     mov         qword ptr [rsp+30h],r10
  0000000010003C32: 45 31 D2           xor         r10d,r10d
  0000000010003C35: 4C 89 54 24 38     mov         qword ptr [rsp+38h],r10
  0000000010003C3A: FF D0              call        rax
  0000000010003C3C: 48 89 85 F0 FE FF  mov         qword ptr [rbp+FFFFFFFFFFFFFEF0h],rax
                    FF
  0000000010003C43: 48 8B B3 C8 EF FF  mov         rsi,qword ptr [rbx+FFFFFFFFFFFFEFC8h]
                    FF
  0000000010003C4A: 48 8B 83 A0 EF FF  mov         rax,qword ptr [rbx+FFFFFFFFFFFFEFA0h]
                    FF
  0000000010003C51: 31 C9              xor         ecx,ecx
  0000000010003C53: 48 83 C1 F5        add         rcx,0FFFFFFFFFFFFFFF5h
  0000000010003C57: FF D0              call        rax
  0000000010003C59: 48 8D 95 00 FF FF  lea         rdx,[rbp+FFFFFFFFFFFFFF00h]
                    FF
  0000000010003C60: 4C 8B 85 F0 FE FF  mov         r8,qword ptr [rbp+FFFFFFFFFFFFFEF0h]
                    FF
  0000000010003C67: 4C 8D 8D E0 FE FF  lea         r9,[rbp+FFFFFFFFFFFFFEE0h]
                    FF
  0000000010003C6E: 31 C9              xor         ecx,ecx
  0000000010003C70: 48 89 4C 24 20     mov         qword ptr [rsp+20h],rcx
  0000000010003C75: 48 8B C8           mov         rcx,rax
  0000000010003C78: FF D6              call        rsi
  0000000010003C7A: 48 89 85 E8 FE FF  mov         qword ptr [rbp+FFFFFFFFFFFFFEE8h],rax
                    FF
  0000000010003C81: 48 8B 9D D0 FE FF  mov         rbx,qword ptr [rbp+FFFFFFFFFFFFFED0h]
                    FF
  0000000010003C88: 48 8B B5 D8 FE FF  mov         rsi,qword ptr [rbp+FFFFFFFFFFFFFED8h]
                    FF
  0000000010003C8F: C9                 leave
  0000000010003C90: C3                 ret
  0000000010003C91: 90                 nop
  0000000010003C92: 90                 nop
  0000000010003C93: 90                 nop
  0000000010003C94: 90                 nop
  0000000010003C95: 90                 nop
  0000000010003C96: 90                 nop
  0000000010003C97: 90                 nop
  0000000010003C98: 90                 nop
  0000000010003C99: 90                 nop
  0000000010003C9A: 90                 nop
  0000000010003C9B: 90                 nop
  0000000010003C9C: 90                 nop
  0000000010003C9D: 90                 nop
  0000000010003C9E: 90                 nop
  0000000010003C9F: 90                 nop
  0000000010003CA0: 55                 push        rbp
  0000000010003CA1: 48 8B EC           mov         rbp,rsp
  0000000010003CA4: 48 83 EC 60        sub         rsp,60h
  0000000010003CA8: 48 89 5D D0        mov         qword ptr [rbp-30h],rbx
  0000000010003CAC: 48 89 75 D8        mov         qword ptr [rbp-28h],rsi
  0000000010003CB0: 48 8D 1D 49 F3 FF  lea         rbx,[0000000010003000h]
                    FF
  0000000010003CB7: C6 45 FE 0D        mov         byte ptr [rbp-2],0Dh
  0000000010003CBB: C6 45 FF 0A        mov         byte ptr [rbp-1],0Ah
  0000000010003CBF: 48 8B B3 C8 EF FF  mov         rsi,qword ptr [rbx+FFFFFFFFFFFFEFC8h]
                    FF
  0000000010003CC6: 48 8B 83 A0 EF FF  mov         rax,qword ptr [rbx+FFFFFFFFFFFFEFA0h]
                    FF
  0000000010003CCD: 31 C9              xor         ecx,ecx
  0000000010003CCF: 48 83 C1 F5        add         rcx,0FFFFFFFFFFFFFFF5h
  0000000010003CD3: FF D0              call        rax
  0000000010003CD5: 48 8D 55 FE        lea         rdx,[rbp-2]
  0000000010003CD9: 41 B8 02 00 00 00  mov         r8d,2
  0000000010003CDF: 4C 8D 4D E8        lea         r9,[rbp-18h]
  0000000010003CE3: 31 C9              xor         ecx,ecx
  0000000010003CE5: 48 89 4C 24 20     mov         qword ptr [rsp+20h],rcx
  0000000010003CEA: 48 8B C8           mov         rcx,rax
  0000000010003CED: FF D6              call        rsi
  0000000010003CEF: 48 89 45 F0        mov         qword ptr [rbp-10h],rax
  0000000010003CF3: 48 8B 5D D0        mov         rbx,qword ptr [rbp-30h]
  0000000010003CF7: 48 8B 75 D8        mov         rsi,qword ptr [rbp-28h]
  0000000010003CFB: C9                 leave
  0000000010003CFC: C3                 ret
  0000000010003CFD: 90                 nop
  0000000010003CFE: 90                 nop
  0000000010003CFF: 90                 nop
  0000000010003D00: 55                 push        rbp
  0000000010003D01: 48 8B EC           mov         rbp,rsp
  0000000010003D04: 48 81 EC D0 00 00  sub         rsp,0D0h
                    00
  0000000010003D0B: 48 89 9D 50 FF FF  mov         qword ptr [rbp+FFFFFFFFFFFFFF50h],rbx
                    FF
  0000000010003D12: 48 89 B5 58 FF FF  mov         qword ptr [rbp+FFFFFFFFFFFFFF58h],rsi
                    FF
  0000000010003D19: 48 89 BD 60 FF FF  mov         qword ptr [rbp+FFFFFFFFFFFFFF60h],rdi
                    FF
  0000000010003D20: 48 8D 1D D9 F2 FF  lea         rbx,[0000000010003000h]
                    FF
  0000000010003D27: 48 89 4D 10        mov         qword ptr [rbp+10h],rcx
  0000000010003D2B: 48 8B 45 10        mov         rax,qword ptr [rbp+10h]
  0000000010003D2F: 48 B9 00 00 00 00  mov         rcx,8000000000000000h
                    00 00 00 80
  0000000010003D39: 48 3B C1           cmp         rax,rcx
  0000000010003D3C: 0F 84 1F 02 00 00  je          0000000010003F61
  0000000010003D42: 31 C0              xor         eax,eax
  0000000010003D44: 48 89 85 70 FF FF  mov         qword ptr [rbp+FFFFFFFFFFFFFF70h],rax
                    FF
  0000000010003D4B: 31 C0              xor         eax,eax
  0000000010003D4D: 48 89 85 68 FF FF  mov         qword ptr [rbp+FFFFFFFFFFFFFF68h],rax
                    FF
  0000000010003D54: 48 83 7D 10 00     cmp         qword ptr [rbp+10h],0
  0000000010003D59: 7D 11              jge         0000000010003D6C
  0000000010003D5B: C6 45 FF 01        mov         byte ptr [rbp-1],1
  0000000010003D5F: 48 8B 45 10        mov         rax,qword ptr [rbp+10h]
  0000000010003D63: 48 F7 D8           neg         rax
  0000000010003D66: 48 89 45 10        mov         qword ptr [rbp+10h],rax
  0000000010003D6A: EB 05              jmp         0000000010003D71
  0000000010003D6C: 31 C0              xor         eax,eax
  0000000010003D6E: 88 45 FF           mov         byte ptr [rbp-1],al
  0000000010003D71: 48 8D 4D BE        lea         rcx,[rbp-42h]
  0000000010003D75: 48 8B 85 70 FF FF  mov         rax,qword ptr [rbp+FFFFFFFFFFFFFF70h]
                    FF
  0000000010003D7C: 48 83 F8 20        cmp         rax,20h
  0000000010003D80: 73 02              jae         0000000010003D84
  0000000010003D82: EB 08              jmp         0000000010003D8C
  0000000010003D84: B0 01              mov         al,1
  0000000010003D86: B9 D4 28 00 00     mov         ecx,28D4h
  0000000010003D8B: CC                 int         3
  0000000010003D8C: 48 C1 E0 01        shl         rax,1
  0000000010003D90: 48 03 C8           add         rcx,rax
  0000000010003D93: 48 8B 45 10        mov         rax,qword ptr [rbp+10h]
  0000000010003D97: 41 B8 0A 00 00 00  mov         r8d,0Ah
  0000000010003D9D: 48 99              cqo
  0000000010003D9F: 49 F7 F8           idiv        rax,r8
  0000000010003DA2: 48 85 D2           test        rdx,rdx
  0000000010003DA5: 7C 02              jl          0000000010003DA9
  0000000010003DA7: EB 03              jmp         0000000010003DAC
  0000000010003DA9: 49 03 D0           add         rdx,r8
  0000000010003DAC: 48 83 C2 30        add         rdx,30h
  0000000010003DB0: 0F B7 D2           movzx       edx,dx
  0000000010003DB3: 66 89 11           mov         word ptr [rcx],dx
  0000000010003DB6: 48 FF 85 70 FF FF  inc         qword ptr [rbp+FFFFFFFFFFFFFF70h]
                    FF
  0000000010003DBD: 48 8B 45 10        mov         rax,qword ptr [rbp+10h]
  0000000010003DC1: B9 0A 00 00 00     mov         ecx,0Ah
  0000000010003DC6: 48 99              cqo
  0000000010003DC8: 48 F7 F9           idiv        rax,rcx
  0000000010003DCB: 48 85 D2           test        rdx,rdx
  0000000010003DCE: 7C 02              jl          0000000010003DD2
  0000000010003DD0: EB 04              jmp         0000000010003DD6
  0000000010003DD2: 48 83 E8 01        sub         rax,1
  0000000010003DD6: 48 89 45 10        mov         qword ptr [rbp+10h],rax
  0000000010003DDA: 48 83 7D 10 00     cmp         qword ptr [rbp+10h],0
  0000000010003DDF: 75 90              jne         0000000010003D71
  0000000010003DE1: 0F B6 45 FF        movzx       eax,byte ptr [rbp-1]
  0000000010003DE5: 85 C0              test        eax,eax
  0000000010003DE7: 0F 85 B3 00 00 00  jne         0000000010003EA0
  0000000010003DED: 48 8B 85 68 FF FF  mov         rax,qword ptr [rbp+FFFFFFFFFFFFFF68h]
                    FF
  0000000010003DF4: 48 8B 8D 70 FF FF  mov         rcx,qword ptr [rbp+FFFFFFFFFFFFFF70h]
                    FF
  0000000010003DFB: 48 3B C1           cmp         rax,rcx
  0000000010003DFE: 7D 71              jge         0000000010003E71
  0000000010003E00: 48 83 BD 68 FF FF  cmp         qword ptr [rbp+FFFFFFFFFFFFFF68h],20h
                    FF 20
  0000000010003E08: 7D 67              jge         0000000010003E71
  0000000010003E0A: 48 8D 85 7E FF FF  lea         rax,[rbp+FFFFFFFFFFFFFF7Eh]
                    FF
  0000000010003E11: 48 8B 8D 68 FF FF  mov         rcx,qword ptr [rbp+FFFFFFFFFFFFFF68h]
                    FF
  0000000010003E18: 48 83 F9 20        cmp         rcx,20h
  0000000010003E1C: 73 02              jae         0000000010003E20
  0000000010003E1E: EB 08              jmp         0000000010003E28
  0000000010003E20: B0 01              mov         al,1
  0000000010003E22: B9 5B 29 00 00     mov         ecx,295Bh
  0000000010003E27: CC                 int         3
  0000000010003E28: 48 C1 E1 01        shl         rcx,1
  0000000010003E2C: 48 03 C1           add         rax,rcx
  0000000010003E2F: 48 8D 4D BE        lea         rcx,[rbp-42h]
  0000000010003E33: 48 8B 95 70 FF FF  mov         rdx,qword ptr [rbp+FFFFFFFFFFFFFF70h]
                    FF
  0000000010003E3A: 48 83 EA 01        sub         rdx,1
  0000000010003E3E: 4C 8B 85 68 FF FF  mov         r8,qword ptr [rbp+FFFFFFFFFFFFFF68h]
                    FF
  0000000010003E45: 49 2B D0           sub         rdx,r8
  0000000010003E48: 48 83 FA 20        cmp         rdx,20h
  0000000010003E4C: 73 02              jae         0000000010003E50
  0000000010003E4E: EB 08              jmp         0000000010003E58
  0000000010003E50: B0 01              mov         al,1
  0000000010003E52: B9 65 29 00 00     mov         ecx,2965h
  0000000010003E57: CC                 int         3
  0000000010003E58: 48 C1 E2 01        shl         rdx,1
  0000000010003E5C: 48 03 CA           add         rcx,rdx
  0000000010003E5F: 0F B7 09           movzx       ecx,word ptr [rcx]
  0000000010003E62: 66 89 08           mov         word ptr [rax],cx
  0000000010003E65: 48 FF 85 68 FF FF  inc         qword ptr [rbp+FFFFFFFFFFFFFF68h]
                    FF
  0000000010003E6C: E9 7C FF FF FF     jmp         0000000010003DED
  0000000010003E71: 48 8D 85 7E FF FF  lea         rax,[rbp+FFFFFFFFFFFFFF7Eh]
                    FF
  0000000010003E78: 48 8B 8D 68 FF FF  mov         rcx,qword ptr [rbp+FFFFFFFFFFFFFF68h]
                    FF
  0000000010003E7F: 48 83 F9 20        cmp         rcx,20h
  0000000010003E83: 73 02              jae         0000000010003E87
  0000000010003E85: EB 08              jmp         0000000010003E8F
  0000000010003E87: B0 01              mov         al,1
  0000000010003E89: B9 83 29 00 00     mov         ecx,2983h
  0000000010003E8E: CC                 int         3
  0000000010003E8F: 48 C1 E1 01        shl         rcx,1
  0000000010003E93: 48 03 C1           add         rax,rcx
  0000000010003E96: 31 C9              xor         ecx,ecx
  0000000010003E98: 66 89 08           mov         word ptr [rax],cx
  0000000010003E9B: E9 BF 00 00 00     jmp         0000000010003F5F
  0000000010003EA0: 66 C7 85 7E FF FF  mov         word ptr [rbp+FFFFFFFFFFFFFF7Eh],2Dh
                    FF 2D 00
  0000000010003EA9: 48 8B 85 68 FF FF  mov         rax,qword ptr [rbp+FFFFFFFFFFFFFF68h]
                    FF
  0000000010003EB0: 48 8B 8D 70 FF FF  mov         rcx,qword ptr [rbp+FFFFFFFFFFFFFF70h]
                    FF
  0000000010003EB7: 48 3B C1           cmp         rax,rcx
  0000000010003EBA: 7D 75              jge         0000000010003F31
  0000000010003EBC: 48 83 BD 68 FF FF  cmp         qword ptr [rbp+FFFFFFFFFFFFFF68h],1Fh
                    FF 1F
  0000000010003EC4: 7D 6B              jge         0000000010003F31
  0000000010003EC6: 48 8D 85 7E FF FF  lea         rax,[rbp+FFFFFFFFFFFFFF7Eh]
                    FF
  0000000010003ECD: 48 8B 8D 68 FF FF  mov         rcx,qword ptr [rbp+FFFFFFFFFFFFFF68h]
                    FF
  0000000010003ED4: 48 83 C1 01        add         rcx,1
  0000000010003ED8: 48 83 F9 20        cmp         rcx,20h
  0000000010003EDC: 73 02              jae         0000000010003EE0
  0000000010003EDE: EB 08              jmp         0000000010003EE8
  0000000010003EE0: B0 01              mov         al,1
  0000000010003EE2: B9 D6 29 00 00     mov         ecx,29D6h
  0000000010003EE7: CC                 int         3
  0000000010003EE8: 48 C1 E1 01        shl         rcx,1
  0000000010003EEC: 48 03 C1           add         rax,rcx
  0000000010003EEF: 48 8D 4D BE        lea         rcx,[rbp-42h]
  0000000010003EF3: 48 8B 95 70 FF FF  mov         rdx,qword ptr [rbp+FFFFFFFFFFFFFF70h]
                    FF
  0000000010003EFA: 48 83 EA 01        sub         rdx,1
  0000000010003EFE: 4C 8B 85 68 FF FF  mov         r8,qword ptr [rbp+FFFFFFFFFFFFFF68h]
                    FF
  0000000010003F05: 49 2B D0           sub         rdx,r8
  0000000010003F08: 48 83 FA 20        cmp         rdx,20h
  0000000010003F0C: 73 02              jae         0000000010003F10
  0000000010003F0E: EB 08              jmp         0000000010003F18
  0000000010003F10: B0 01              mov         al,1
  0000000010003F12: B9 E0 29 00 00     mov         ecx,29E0h
  0000000010003F17: CC                 int         3
  0000000010003F18: 48 C1 E2 01        shl         rdx,1
  0000000010003F1C: 48 03 CA           add         rcx,rdx
  0000000010003F1F: 0F B7 09           movzx       ecx,word ptr [rcx]
  0000000010003F22: 66 89 08           mov         word ptr [rax],cx
  0000000010003F25: 48 FF 85 68 FF FF  inc         qword ptr [rbp+FFFFFFFFFFFFFF68h]
                    FF
  0000000010003F2C: E9 78 FF FF FF     jmp         0000000010003EA9
  0000000010003F31: 48 8D 85 7E FF FF  lea         rax,[rbp+FFFFFFFFFFFFFF7Eh]
                    FF
  0000000010003F38: 48 8B 8D 68 FF FF  mov         rcx,qword ptr [rbp+FFFFFFFFFFFFFF68h]
                    FF
  0000000010003F3F: 48 83 C1 01        add         rcx,1
  0000000010003F43: 48 83 F9 20        cmp         rcx,20h
  0000000010003F47: 73 02              jae         0000000010003F4B
  0000000010003F49: EB 08              jmp         0000000010003F53
  0000000010003F4B: B0 01              mov         al,1
  0000000010003F4D: B9 00 2A 00 00     mov         ecx,2A00h
  0000000010003F52: CC                 int         3
  0000000010003F53: 48 C1 E1 01        shl         rcx,1
  0000000010003F57: 48 03 C1           add         rax,rcx
  0000000010003F5A: 31 C9              xor         ecx,ecx
  0000000010003F5C: 66 89 08           mov         word ptr [rax],cx
  0000000010003F5F: EB 16              jmp         0000000010003F77
  0000000010003F61: 48 8D BD 7E FF FF  lea         rdi,[rbp+FFFFFFFFFFFFFF7Eh]
                    FF
  0000000010003F68: 48 8D B3 00 FD FF  lea         rsi,[rbx+FFFFFFFFFFFFFD00h]
                    FF
  0000000010003F6F: B9 15 00 00 00     mov         ecx,15h
  0000000010003F74: F3 66 A5           rep movs    word ptr [rdi],word ptr [rsi]
  0000000010003F77: 48 8D 8D 7E FF FF  lea         rcx,[rbp+FFFFFFFFFFFFFF7Eh]
                    FF
  0000000010003F7E: BA 20 00 00 00     mov         edx,20h
  0000000010003F83: E8 B8 FB FF FF     call        0000000010003B40
  0000000010003F88: 48 8B 9D 50 FF FF  mov         rbx,qword ptr [rbp+FFFFFFFFFFFFFF50h]
                    FF
  0000000010003F8F: 48 8B B5 58 FF FF  mov         rsi,qword ptr [rbp+FFFFFFFFFFFFFF58h]
                    FF
  0000000010003F96: 48 8B BD 60 FF FF  mov         rdi,qword ptr [rbp+FFFFFFFFFFFFFF60h]
                    FF
  0000000010003F9D: C9                 leave
  0000000010003F9E: C3                 ret
  0000000010003F9F: 90                 nop
  0000000010003FA0: 55                 push        rbp
  0000000010003FA1: 48 8B EC           mov         rbp,rsp
  0000000010003FA4: 48 83 EC 30        sub         rsp,30h
  0000000010003FA8: 48 89 5D F0        mov         qword ptr [rbp-10h],rbx
  0000000010003FAC: 48 8D 1D 4D F0 FF  lea         rbx,[0000000010003000h]
                    FF
  0000000010003FB3: 48 8B 83 B8 EF FF  mov         rax,qword ptr [rbx+FFFFFFFFFFFFEFB8h]
                    FF
  0000000010003FBA: FF D0              call        rax
  0000000010003FBC: 48 8B 5D F0        mov         rbx,qword ptr [rbp-10h]
  0000000010003FC0: C9                 leave
  0000000010003FC1: C3                 ret
  0000000010003FC2: 90                 nop
  0000000010003FC3: 90                 nop
  0000000010003FC4: 90                 nop
  0000000010003FC5: 90                 nop
  0000000010003FC6: 90                 nop
  0000000010003FC7: 90                 nop
  0000000010003FC8: 90                 nop
  0000000010003FC9: 90                 nop
  0000000010003FCA: 90                 nop
  0000000010003FCB: 90                 nop
  0000000010003FCC: 90                 nop
  0000000010003FCD: 90                 nop
  0000000010003FCE: 90                 nop
  0000000010003FCF: 90                 nop
  0000000010003FD0: 55                 push        rbp
  0000000010003FD1: 48 8B EC           mov         rbp,rsp
  0000000010003FD4: 48 83 EC 50        sub         rsp,50h
  0000000010003FD8: 48 89 5D D0        mov         qword ptr [rbp-30h],rbx
  0000000010003FDC: 48 8D 1D 1D F0 FF  lea         rbx,[0000000010003000h]
                    FF
  0000000010003FE3: 48 89 4D 10        mov         qword ptr [rbp+10h],rcx
  0000000010003FE7: 48 89 55 18        mov         qword ptr [rbp+18h],rdx
  0000000010003FEB: 4C 89 45 20        mov         qword ptr [rbp+20h],r8
  0000000010003FEF: 4C 89 4D 28        mov         qword ptr [rbp+28h],r9
  0000000010003FF3: 48 8B 83 B0 EF FF  mov         rax,qword ptr [rbx+FFFFFFFFFFFFEFB0h]
                    FF
  0000000010003FFA: FF D0              call        rax
  0000000010003FFC: 48 89 45 E8        mov         qword ptr [rbp-18h],rax
  0000000010004000: 31 C0              xor         eax,eax
  0000000010004002: 48 89 45 F8        mov         qword ptr [rbp-8],rax
  0000000010004006: 48 83 7D 28 00     cmp         qword ptr [rbp+28h],0
  000000001000400B: 7E 6E              jle         000000001000407B
  000000001000400D: 48 8B 45 E8        mov         rax,qword ptr [rbp-18h]
  0000000010004011: 66 8B 00           mov         ax,word ptr [rax]
  0000000010004014: 66 89 45 E6        mov         word ptr [rbp-1Ah],ax
  0000000010004018: 66 83 7D E6 20     cmp         word ptr [rbp-1Ah],20h
  000000001000401D: 74 20              je          000000001000403F
  000000001000401F: 66 83 7D E6 00     cmp         word ptr [rbp-1Ah],0
  0000000010004024: 74 19              je          000000001000403F
  0000000010004026: 48 8B 45 E8        mov         rax,qword ptr [rbp-18h]
  000000001000402A: 48 83 C0 02        add         rax,2
  000000001000402E: 48 89 45 E8        mov         qword ptr [rbp-18h],rax
  0000000010004032: 48 8B 45 E8        mov         rax,qword ptr [rbp-18h]
  0000000010004036: 66 8B 00           mov         ax,word ptr [rax]
  0000000010004039: 66 89 45 E6        mov         word ptr [rbp-1Ah],ax
  000000001000403D: EB D9              jmp         0000000010004018
  000000001000403F: 66 83 7D E6 00     cmp         word ptr [rbp-1Ah],0
  0000000010004044: 75 08              jne         000000001000404E
  0000000010004046: 31 C0              xor         eax,eax
  0000000010004048: 48 89 45 28        mov         qword ptr [rbp+28h],rax
  000000001000404C: EB 2B              jmp         0000000010004079
  000000001000404E: 66 83 7D E6 20     cmp         word ptr [rbp-1Ah],20h
  0000000010004053: 75 24              jne         0000000010004079
  0000000010004055: 48 FF 4D 28        dec         qword ptr [rbp+28h]
  0000000010004059: 66 83 7D E6 20     cmp         word ptr [rbp-1Ah],20h
  000000001000405E: 75 19              jne         0000000010004079
  0000000010004060: 48 8B 45 E8        mov         rax,qword ptr [rbp-18h]
  0000000010004064: 48 83 C0 02        add         rax,2
  0000000010004068: 48 89 45 E8        mov         qword ptr [rbp-18h],rax
  000000001000406C: 48 8B 45 E8        mov         rax,qword ptr [rbp-18h]
  0000000010004070: 66 8B 00           mov         ax,word ptr [rax]
  0000000010004073: 66 89 45 E6        mov         word ptr [rbp-1Ah],ax
  0000000010004077: EB E0              jmp         0000000010004059
  0000000010004079: EB 8B              jmp         0000000010004006
  000000001000407B: 31 C0              xor         eax,eax
  000000001000407D: 48 89 45 F0        mov         qword ptr [rbp-10h],rax
  0000000010004081: 31 C0              xor         eax,eax
  0000000010004083: 48 8B 4D 20        mov         rcx,qword ptr [rbp+20h]
  0000000010004087: 48 89 01           mov         qword ptr [rcx],rax
  000000001000408A: 66 83 7D E6 20     cmp         word ptr [rbp-1Ah],20h
  000000001000408F: 74 5E              je          00000000100040EF
  0000000010004091: 66 83 7D E6 00     cmp         word ptr [rbp-1Ah],0
  0000000010004096: 74 57              je          00000000100040EF
  0000000010004098: 48 8B 45 F0        mov         rax,qword ptr [rbp-10h]
  000000001000409C: 48 8B 4D 18        mov         rcx,qword ptr [rbp+18h]
  00000000100040A0: 48 3B C1           cmp         rax,rcx
  00000000100040A3: 7D 26              jge         00000000100040CB
  00000000100040A5: 48 8B 45 10        mov         rax,qword ptr [rbp+10h]
  00000000100040A9: 48 8B 4D F0        mov         rcx,qword ptr [rbp-10h]
  00000000100040AD: 48 3B 4D 18        cmp         rcx,qword ptr [rbp+18h]
  00000000100040B1: 73 02              jae         00000000100040B5
  00000000100040B3: EB 08              jmp         00000000100040BD
  00000000100040B5: B0 01              mov         al,1
  00000000100040B7: B9 81 2D 00 00     mov         ecx,2D81h
  00000000100040BC: CC                 int         3
  00000000100040BD: 48 C1 E1 01        shl         rcx,1
  00000000100040C1: 48 03 C1           add         rax,rcx
  00000000100040C4: 0F B7 4D E6        movzx       ecx,word ptr [rbp-1Ah]
  00000000100040C8: 66 89 08           mov         word ptr [rax],cx
  00000000100040CB: 48 FF 45 F0        inc         qword ptr [rbp-10h]
  00000000100040CF: 48 8B 45 20        mov         rax,qword ptr [rbp+20h]
  00000000100040D3: 48 FF 00           inc         qword ptr [rax]
  00000000100040D6: 48 8B 45 E8        mov         rax,qword ptr [rbp-18h]
  00000000100040DA: 48 83 C0 02        add         rax,2
  00000000100040DE: 48 89 45 E8        mov         qword ptr [rbp-18h],rax
  00000000100040E2: 48 8B 45 E8        mov         rax,qword ptr [rbp-18h]
  00000000100040E6: 66 8B 00           mov         ax,word ptr [rax]
  00000000100040E9: 66 89 45 E6        mov         word ptr [rbp-1Ah],ax
  00000000100040ED: EB 9B              jmp         000000001000408A
  00000000100040EF: 48 8B 45 F0        mov         rax,qword ptr [rbp-10h]
  00000000100040F3: 48 8B 4D 18        mov         rcx,qword ptr [rbp+18h]
  00000000100040F7: 48 3B C1           cmp         rax,rcx
  00000000100040FA: 7D 24              jge         0000000010004120
  00000000100040FC: 48 8B 45 10        mov         rax,qword ptr [rbp+10h]
  0000000010004100: 48 8B 4D F0        mov         rcx,qword ptr [rbp-10h]
  0000000010004104: 48 3B 4D 18        cmp         rcx,qword ptr [rbp+18h]
  0000000010004108: 73 02              jae         000000001000410C
  000000001000410A: EB 08              jmp         0000000010004114
  000000001000410C: B0 01              mov         al,1
  000000001000410E: B9 F4 2D 00 00     mov         ecx,2DF4h
  0000000010004113: CC                 int         3
  0000000010004114: 48 C1 E1 01        shl         rcx,1
  0000000010004118: 48 03 C1           add         rax,rcx
  000000001000411B: 31 C9              xor         ecx,ecx
  000000001000411D: 66 89 08           mov         word ptr [rax],cx
  0000000010004120: 48 8B 5D D0        mov         rbx,qword ptr [rbp-30h]
  0000000010004124: C9                 leave
  0000000010004125: C3                 ret
  0000000010004126: 90                 nop
  0000000010004127: 90                 nop
  0000000010004128: 90                 nop
  0000000010004129: 90                 nop
  000000001000412A: 90                 nop
  000000001000412B: 90                 nop
  000000001000412C: 90                 nop
  000000001000412D: 90                 nop
  000000001000412E: 90                 nop
  000000001000412F: 90                 nop
  0000000010004130: 55                 push        rbp
  0000000010004131: 48 8B EC           mov         rbp,rsp
  0000000010004134: 48 83 EC 40        sub         rsp,40h
  0000000010004138: 48 89 5D E0        mov         qword ptr [rbp-20h],rbx
  000000001000413C: 48 89 75 E8        mov         qword ptr [rbp-18h],rsi
  0000000010004140: 48 8D 1D B9 EE FF  lea         rbx,[0000000010003000h]
                    FF
  0000000010004147: 48 89 4D 10        mov         qword ptr [rbp+10h],rcx
  000000001000414B: 48 8B 4B C0        mov         rcx,qword ptr [rbx-40h]
  000000001000414F: BA 08 00 00 00     mov         edx,8
  0000000010004154: 41 B8 28 00 00 00  mov         r8d,28h
  000000001000415A: FF 53 E8           call        qword ptr [rbx-18h]
  000000001000415D: 48 83 C0 10        add         rax,10h
  0000000010004161: 48 8D 8B 20 FC FF  lea         rcx,[rbx+FFFFFFFFFFFFFC20h]
                    FF
  0000000010004168: 48 89 48 F8        mov         qword ptr [rax-8],rcx
  000000001000416C: 48 8B 4D 10        mov         rcx,qword ptr [rbp+10h]
  0000000010004170: 48 89 01           mov         qword ptr [rcx],rax
  0000000010004173: 48 8B 83 98 EF FF  mov         rax,qword ptr [rbx+FFFFFFFFFFFFEF98h]
                    FF
  000000001000417A: FF D0              call        rax
  000000001000417C: 48 89 45 F8        mov         qword ptr [rbp-8],rax
  0000000010004180: 48 8B 75 10        mov         rsi,qword ptr [rbp+10h]
  0000000010004184: 48 8B 36           mov         rsi,qword ptr [rsi]
  0000000010004187: 48 8B 83 90 EF FF  mov         rax,qword ptr [rbx+FFFFFFFFFFFFEF90h]
                    FF
  000000001000418E: 48 8B 4D F8        mov         rcx,qword ptr [rbp-8]
  0000000010004192: 31 D2              xor         edx,edx
  0000000010004194: 41 B8 80 00 00 00  mov         r8d,80h
  000000001000419A: FF D0              call        rax
  000000001000419C: 48 89 06           mov         qword ptr [rsi],rax
  000000001000419F: 48 8B 45 10        mov         rax,qword ptr [rbp+10h]
  00000000100041A3: 48 8B 00           mov         rax,qword ptr [rax]
  00000000100041A6: 48 C7 40 10 80 00  mov         qword ptr [rax+10h],80h
                    00 00
  00000000100041AE: 48 8B 45 10        mov         rax,qword ptr [rbp+10h]
  00000000100041B2: 48 8B 00           mov         rax,qword ptr [rax]
  00000000100041B5: 31 C9              xor         ecx,ecx
  00000000100041B7: 48 89 48 08        mov         qword ptr [rax+8],rcx
  00000000100041BB: 48 8B 5D E0        mov         rbx,qword ptr [rbp-20h]
  00000000100041BF: 48 8B 75 E8        mov         rsi,qword ptr [rbp-18h]
  00000000100041C3: C9                 leave
  00000000100041C4: C3                 ret
  00000000100041C5: 90                 nop
  00000000100041C6: 90                 nop
  00000000100041C7: 90                 nop
  00000000100041C8: 90                 nop
  00000000100041C9: 90                 nop
  00000000100041CA: 90                 nop
  00000000100041CB: 90                 nop
  00000000100041CC: 90                 nop
  00000000100041CD: 90                 nop
  00000000100041CE: 90                 nop
  00000000100041CF: 90                 nop
  00000000100041D0: 55                 push        rbp
  00000000100041D1: 48 8B EC           mov         rbp,rsp
  00000000100041D4: 48 83 EC 40        sub         rsp,40h
  00000000100041D8: 48 89 5D E0        mov         qword ptr [rbp-20h],rbx
  00000000100041DC: 48 8D 1D 1D EE FF  lea         rbx,[0000000010003000h]
                    FF
  00000000100041E3: 48 89 4D 10        mov         qword ptr [rbp+10h],rcx
  00000000100041E7: 48 8B 83 98 EF FF  mov         rax,qword ptr [rbx+FFFFFFFFFFFFEF98h]
                    FF
  00000000100041EE: FF D0              call        rax
  00000000100041F0: 48 89 45 F8        mov         qword ptr [rbp-8],rax
  00000000100041F4: 48 8B 83 88 EF FF  mov         rax,qword ptr [rbx+FFFFFFFFFFFFEF88h]
                    FF
  00000000100041FB: 48 8B 4D F8        mov         rcx,qword ptr [rbp-8]
  00000000100041FF: 31 D2              xor         edx,edx
  0000000010004201: 4C 8B 45 10        mov         r8,qword ptr [rbp+10h]
  0000000010004205: 4D 8B 00           mov         r8,qword ptr [r8]
  0000000010004208: FF D0              call        rax
  000000001000420A: 48 89 45 F0        mov         qword ptr [rbp-10h],rax
  000000001000420E: 48 8B 45 10        mov         rax,qword ptr [rbp+10h]
  0000000010004212: 31 C9              xor         ecx,ecx
  0000000010004214: 48 89 08           mov         qword ptr [rax],rcx
  0000000010004217: 48 8B 45 10        mov         rax,qword ptr [rbp+10h]
  000000001000421B: 31 C9              xor         ecx,ecx
  000000001000421D: 48 89 48 10        mov         qword ptr [rax+10h],rcx
  0000000010004221: 48 8B 45 10        mov         rax,qword ptr [rbp+10h]
  0000000010004225: 31 C9              xor         ecx,ecx
  0000000010004227: 48 89 48 08        mov         qword ptr [rax+8],rcx
  000000001000422B: 48 8B 5D E0        mov         rbx,qword ptr [rbp-20h]
  000000001000422F: C9                 leave
  0000000010004230: C3                 ret
  0000000010004231: 90                 nop
  0000000010004232: 90                 nop
  0000000010004233: 90                 nop
  0000000010004234: 90                 nop
  0000000010004235: 90                 nop
  0000000010004236: 90                 nop
  0000000010004237: 90                 nop
  0000000010004238: 90                 nop
  0000000010004239: 90                 nop
  000000001000423A: 90                 nop
  000000001000423B: 90                 nop
  000000001000423C: 90                 nop
  000000001000423D: 90                 nop
  000000001000423E: 90                 nop
  000000001000423F: 90                 nop
  0000000010004240: 55                 push        rbp
  0000000010004241: 48 8B EC           mov         rbp,rsp
  0000000010004244: 48 83 EC 30        sub         rsp,30h
  0000000010004248: 48 89 75 F0        mov         qword ptr [rbp-10h],rsi
  000000001000424C: 48 89 4D 10        mov         qword ptr [rbp+10h],rcx
  0000000010004250: 48 89 55 18        mov         qword ptr [rbp+18h],rdx
  0000000010004254: 48 8B 45 18        mov         rax,qword ptr [rbp+18h]
  0000000010004258: 48 8B 4D 18        mov         rcx,qword ptr [rbp+18h]
  000000001000425C: 48 F7 D9           neg         rcx
  000000001000425F: 48 83 E1 7F        and         rcx,7Fh
  0000000010004263: 48 03 C1           add         rax,rcx
  0000000010004266: 48 89 45 18        mov         qword ptr [rbp+18h],rax
  000000001000426A: 48 8B 83 98 EF FF  mov         rax,qword ptr [rbx+FFFFFFFFFFFFEF98h]
                    FF
  0000000010004271: FF D0              call        rax
  0000000010004273: 48 89 45 F8        mov         qword ptr [rbp-8],rax
  0000000010004277: 48 8B 45 10        mov         rax,qword ptr [rbp+10h]
  000000001000427B: 48 8B 48 10        mov         rcx,qword ptr [rax+10h]
  000000001000427F: 48 8B 55 18        mov         rdx,qword ptr [rbp+18h]
  0000000010004283: 48 03 CA           add         rcx,rdx
  0000000010004286: 48 89 48 10        mov         qword ptr [rax+10h],rcx
  000000001000428A: 48 8B 75 10        mov         rsi,qword ptr [rbp+10h]
  000000001000428E: 48 8B 83 80 EF FF  mov         rax,qword ptr [rbx+FFFFFFFFFFFFEF80h]
                    FF
  0000000010004295: 48 8B 4D F8        mov         rcx,qword ptr [rbp-8]
  0000000010004299: 31 D2              xor         edx,edx
  000000001000429B: 4C 8B 45 10        mov         r8,qword ptr [rbp+10h]
  000000001000429F: 4D 8B 00           mov         r8,qword ptr [r8]
  00000000100042A2: 4C 8B 4D 10        mov         r9,qword ptr [rbp+10h]
  00000000100042A6: 4D 8B 49 10        mov         r9,qword ptr [r9+10h]
  00000000100042AA: FF D0              call        rax
  00000000100042AC: 48 89 06           mov         qword ptr [rsi],rax
  00000000100042AF: 48 8B 75 F0        mov         rsi,qword ptr [rbp-10h]
  00000000100042B3: C9                 leave
  00000000100042B4: C3                 ret
  00000000100042B5: 90                 nop
  00000000100042B6: 90                 nop
  00000000100042B7: 90                 nop
  00000000100042B8: 90                 nop
  00000000100042B9: 90                 nop
  00000000100042BA: 90                 nop
  00000000100042BB: 90                 nop
  00000000100042BC: 90                 nop
  00000000100042BD: 90                 nop
  00000000100042BE: 90                 nop
  00000000100042BF: 90                 nop
  00000000100042C0: 55                 push        rbp
  00000000100042C1: 48 8B EC           mov         rbp,rsp
  00000000100042C4: 48 83 EC 40        sub         rsp,40h
  00000000100042C8: 48 89 5D E0        mov         qword ptr [rbp-20h],rbx
  00000000100042CC: 48 89 75 E8        mov         qword ptr [rbp-18h],rsi
  00000000100042D0: 48 89 7D F0        mov         qword ptr [rbp-10h],rdi
  00000000100042D4: 48 8D 1D 25 ED FF  lea         rbx,[0000000010003000h]
                    FF
  00000000100042DB: 48 89 4D 10        mov         qword ptr [rbp+10h],rcx
  00000000100042DF: 48 89 55 18        mov         qword ptr [rbp+18h],rdx
  00000000100042E3: 48 8B 45 10        mov         rax,qword ptr [rbp+10h]
  00000000100042E7: 48 8B 40 10        mov         rax,qword ptr [rax+10h]
  00000000100042EB: 48 8B 4D 10        mov         rcx,qword ptr [rbp+10h]
  00000000100042EF: 48 8B 49 08        mov         rcx,qword ptr [rcx+8]
  00000000100042F3: 48 8B 55 18        mov         rdx,qword ptr [rbp+18h]
  00000000100042F7: 48 8B 52 08        mov         rdx,qword ptr [rdx+8]
  00000000100042FB: 48 03 CA           add         rcx,rdx
  00000000100042FE: 48 3B C1           cmp         rax,rcx
  0000000010004301: 7D 45              jge         0000000010004348
  0000000010004303: 48 8B 45 10        mov         rax,qword ptr [rbp+10h]
  0000000010004307: 48 8B 40 08        mov         rax,qword ptr [rax+8]
  000000001000430B: 48 8B 4D 18        mov         rcx,qword ptr [rbp+18h]
  000000001000430F: 48 8B 49 08        mov         rcx,qword ptr [rcx+8]
  0000000010004313: 48 03 C1           add         rax,rcx
  0000000010004316: 48 89 45 F8        mov         qword ptr [rbp-8],rax
  000000001000431A: 48 8B 45 F8        mov         rax,qword ptr [rbp-8]
  000000001000431E: 48 8B 4D F8        mov         rcx,qword ptr [rbp-8]
  0000000010004322: 48 F7 D9           neg         rcx
  0000000010004325: 48 83 E1 7F        and         rcx,7Fh
  0000000010004329: 48 03 C1           add         rax,rcx
  000000001000432C: 48 89 45 F8        mov         qword ptr [rbp-8],rax
  0000000010004330: 48 8B 4D 10        mov         rcx,qword ptr [rbp+10h]
  0000000010004334: 48 8B 55 F8        mov         rdx,qword ptr [rbp-8]
  0000000010004338: 48 8B 45 10        mov         rax,qword ptr [rbp+10h]
  000000001000433C: 48 8B 40 10        mov         rax,qword ptr [rax+10h]
  0000000010004340: 48 2B D0           sub         rdx,rax
  0000000010004343: E8 F8 FE FF FF     call        0000000010004240
  0000000010004348: 48 8B 75 18        mov         rsi,qword ptr [rbp+18h]
  000000001000434C: 48 8B 36           mov         rsi,qword ptr [rsi]
  000000001000434F: 48 8B 7D 10        mov         rdi,qword ptr [rbp+10h]
  0000000010004353: 48 8B 3F           mov         rdi,qword ptr [rdi]
  0000000010004356: 48 8B 45 10        mov         rax,qword ptr [rbp+10h]
  000000001000435A: 48 8B 40 08        mov         rax,qword ptr [rax+8]
  000000001000435E: 48 03 F8           add         rdi,rax
  0000000010004361: 48 8B 4D 18        mov         rcx,qword ptr [rbp+18h]
  0000000010004365: 48 8B 49 08        mov         rcx,qword ptr [rcx+8]
  0000000010004369: F3 A4              rep movs    byte ptr [rdi],byte ptr [rsi]
  000000001000436B: 48 8B 45 10        mov         rax,qword ptr [rbp+10h]
  000000001000436F: 48 8B 48 08        mov         rcx,qword ptr [rax+8]
  0000000010004373: 48 8B 55 18        mov         rdx,qword ptr [rbp+18h]
  0000000010004377: 48 8B 52 08        mov         rdx,qword ptr [rdx+8]
  000000001000437B: 48 03 CA           add         rcx,rdx
  000000001000437E: 48 89 48 08        mov         qword ptr [rax+8],rcx
  0000000010004382: 48 8B 4D 18        mov         rcx,qword ptr [rbp+18h]
  0000000010004386: E8 45 FE FF FF     call        00000000100041D0
  000000001000438B: 48 8B 5D E0        mov         rbx,qword ptr [rbp-20h]
  000000001000438F: 48 8B 75 E8        mov         rsi,qword ptr [rbp-18h]
  0000000010004393: 48 8B 7D F0        mov         rdi,qword ptr [rbp-10h]
  0000000010004397: C9                 leave
  0000000010004398: C3                 ret
  0000000010004399: 90                 nop
  000000001000439A: 90                 nop
  000000001000439B: 90                 nop
  000000001000439C: 90                 nop
  000000001000439D: 90                 nop
  000000001000439E: 90                 nop
  000000001000439F: 90                 nop
  00000000100043A0: 55                 push        rbp
  00000000100043A1: 48 8B EC           mov         rbp,rsp
  00000000100043A4: 48 83 EC 10        sub         rsp,10h
  00000000100043A8: 48 89 5D F0        mov         qword ptr [rbp-10h],rbx
  00000000100043AC: 48 8D 1D 4D EC FF  lea         rbx,[0000000010003000h]
                    FF
  00000000100043B3: 48 89 4D 10        mov         qword ptr [rbp+10h],rcx
  00000000100043B7: 48 8B 45 10        mov         rax,qword ptr [rbp+10h]
  00000000100043BB: 48 8B 40 08        mov         rax,qword ptr [rax+8]
  00000000100043BF: 48 8B 5D F0        mov         rbx,qword ptr [rbp-10h]
  00000000100043C3: C9                 leave
  00000000100043C4: C3                 ret
  00000000100043C5: 90                 nop
  00000000100043C6: 90                 nop
  00000000100043C7: 90                 nop
  00000000100043C8: 90                 nop
  00000000100043C9: 90                 nop
  00000000100043CA: 90                 nop
  00000000100043CB: 90                 nop
  00000000100043CC: 90                 nop
  00000000100043CD: 90                 nop
  00000000100043CE: 90                 nop
  00000000100043CF: 90                 nop
  00000000100043D0: 55                 push        rbp
  00000000100043D1: 48 8B EC           mov         rbp,rsp
  00000000100043D4: 48 83 EC 10        sub         rsp,10h
  00000000100043D8: 48 89 5D F0        mov         qword ptr [rbp-10h],rbx
  00000000100043DC: 48 8D 1D 1D EC FF  lea         rbx,[0000000010003000h]
                    FF
  00000000100043E3: 48 89 4D 10        mov         qword ptr [rbp+10h],rcx
  00000000100043E7: 48 89 55 18        mov         qword ptr [rbp+18h],rdx
  00000000100043EB: 4C 89 45 20        mov         qword ptr [rbp+20h],r8
  00000000100043EF: 4C 89 4D 28        mov         qword ptr [rbp+28h],r9
  00000000100043F3: 48 8B 45 20        mov         rax,qword ptr [rbp+20h]
  00000000100043F7: 48 8B 4D 10        mov         rcx,qword ptr [rbp+10h]
  00000000100043FB: 48 89 01           mov         qword ptr [rcx],rax
  00000000100043FE: 31 C0              xor         eax,eax
  0000000010004400: 48 8B 4D 10        mov         rcx,qword ptr [rbp+10h]
  0000000010004404: 88 41 10           mov         byte ptr [rcx+10h],al
  0000000010004407: 48 83 7D 28 00     cmp         qword ptr [rbp+28h],0
  000000001000440C: 7C 31              jl          000000001000443F
  000000001000440E: 48 8B 45 28        mov         rax,qword ptr [rbp+28h]
  0000000010004412: 48 8B 4D 20        mov         rcx,qword ptr [rbp+20h]
  0000000010004416: 48 8B 49 08        mov         rcx,qword ptr [rcx+8]
  000000001000441A: 48 3B C1           cmp         rax,rcx
  000000001000441D: 7F 0E              jg          000000001000442D
  000000001000441F: 48 8B 45 28        mov         rax,qword ptr [rbp+28h]
  0000000010004423: 48 8B 4D 10        mov         rcx,qword ptr [rbp+10h]
  0000000010004427: 48 89 41 08        mov         qword ptr [rcx+8],rax
  000000001000442B: EB 10              jmp         000000001000443D
  000000001000442D: 48 8B 45 20        mov         rax,qword ptr [rbp+20h]
  0000000010004431: 48 8B 40 08        mov         rax,qword ptr [rax+8]
  0000000010004435: 48 8B 4D 10        mov         rcx,qword ptr [rbp+10h]
  0000000010004439: 48 89 41 08        mov         qword ptr [rcx+8],rax
  000000001000443D: EB 0A              jmp         0000000010004449
  000000001000443F: 31 C0              xor         eax,eax
  0000000010004441: 48 8B 4D 10        mov         rcx,qword ptr [rbp+10h]
  0000000010004445: 48 89 41 08        mov         qword ptr [rcx+8],rax
  0000000010004449: 48 8B 5D F0        mov         rbx,qword ptr [rbp-10h]
  000000001000444D: C9                 leave
  000000001000444E: C3                 ret
  000000001000444F: 90                 nop
  0000000010004450: 55                 push        rbp
  0000000010004451: 48 8B EC           mov         rbp,rsp
  0000000010004454: 48 83 EC 30        sub         rsp,30h
  0000000010004458: 48 89 5D F0        mov         qword ptr [rbp-10h],rbx
  000000001000445C: 48 8D 1D 9D EB FF  lea         rbx,[0000000010003000h]
                    FF
  0000000010004463: 48 89 4D 10        mov         qword ptr [rbp+10h],rcx
  0000000010004467: 48 89 55 18        mov         qword ptr [rbp+18h],rdx
  000000001000446B: 4C 89 45 20        mov         qword ptr [rbp+20h],r8
  000000001000446F: 48 8B 45 10        mov         rax,qword ptr [rbp+10h]
  0000000010004473: 48 8B 40 08        mov         rax,qword ptr [rax+8]
  0000000010004477: 48 8B 4D 10        mov         rcx,qword ptr [rbp+10h]
  000000001000447B: 48 8B 09           mov         rcx,qword ptr [rcx]
  000000001000447E: 48 8B 49 08        mov         rcx,qword ptr [rcx+8]
  0000000010004482: 48 3B C1           cmp         rax,rcx
  0000000010004485: 7F 75              jg          00000000100044FC
  0000000010004487: 48 8B 45 10        mov         rax,qword ptr [rbp+10h]
  000000001000448B: 48 8B 40 08        mov         rax,qword ptr [rax+8]
  000000001000448F: 48 83 C0 01        add         rax,1
  0000000010004493: 48 8B 4D 10        mov         rcx,qword ptr [rbp+10h]
  0000000010004497: 48 8B 09           mov         rcx,qword ptr [rcx]
  000000001000449A: 48 8B 49 10        mov         rcx,qword ptr [rcx+10h]
  000000001000449E: 48 3B C1           cmp         rax,rcx
  00000000100044A1: 7E 11              jle         00000000100044B4
  00000000100044A3: 48 8B 4D 10        mov         rcx,qword ptr [rbp+10h]
  00000000100044A7: 48 8B 09           mov         rcx,qword ptr [rcx]
  00000000100044AA: BA 80 00 00 00     mov         edx,80h
  00000000100044AF: E8 8C FD FF FF     call        0000000010004240
  00000000100044B4: 48 8B 45 10        mov         rax,qword ptr [rbp+10h]
  00000000100044B8: 48 8B 00           mov         rax,qword ptr [rax]
  00000000100044BB: 48 8B 00           mov         rax,qword ptr [rax]
  00000000100044BE: 48 8B 4D 10        mov         rcx,qword ptr [rbp+10h]
  00000000100044C2: 48 8B 49 08        mov         rcx,qword ptr [rcx+8]
  00000000100044C6: 48 03 C1           add         rax,rcx
  00000000100044C9: 0F B6 4D 20        movzx       ecx,byte ptr [rbp+20h]
  00000000100044CD: 88 08              mov         byte ptr [rax],cl
  00000000100044CF: 48 8B 45 10        mov         rax,qword ptr [rbp+10h]
  00000000100044D3: 48 FF 40 08        inc         qword ptr [rax+8]
  00000000100044D7: 48 8B 45 10        mov         rax,qword ptr [rbp+10h]
  00000000100044DB: 48 8B 40 08        mov         rax,qword ptr [rax+8]
  00000000100044DF: 48 8B 4D 10        mov         rcx,qword ptr [rbp+10h]
  00000000100044E3: 48 8B 09           mov         rcx,qword ptr [rcx]
  00000000100044E6: 48 8B 49 08        mov         rcx,qword ptr [rcx+8]
  00000000100044EA: 48 3B C1           cmp         rax,rcx
  00000000100044ED: 7E 0B              jle         00000000100044FA
  00000000100044EF: 48 8B 45 10        mov         rax,qword ptr [rbp+10h]
  00000000100044F3: 48 8B 00           mov         rax,qword ptr [rax]
  00000000100044F6: 48 FF 40 08        inc         qword ptr [rax+8]
  00000000100044FA: EB 08              jmp         0000000010004504
  00000000100044FC: 48 8B 45 10        mov         rax,qword ptr [rbp+10h]
  0000000010004500: C6 40 10 01        mov         byte ptr [rax+10h],1
  0000000010004504: 48 8B 5D F0        mov         rbx,qword ptr [rbp-10h]
  0000000010004508: C9                 leave
  0000000010004509: C3                 ret
  000000001000450A: 90                 nop
  000000001000450B: 90                 nop
  000000001000450C: 90                 nop
  000000001000450D: 90                 nop
  000000001000450E: 90                 nop
  000000001000450F: 90                 nop
  0000000010004510: 55                 push        rbp
  0000000010004511: 48 8B EC           mov         rbp,rsp
  0000000010004514: 48 83 EC 10        sub         rsp,10h
  0000000010004518: 48 89 5D F0        mov         qword ptr [rbp-10h],rbx
  000000001000451C: 48 8D 1D DD EA FF  lea         rbx,[0000000010003000h]
                    FF
  0000000010004523: 48 89 4D 10        mov         qword ptr [rbp+10h],rcx
  0000000010004527: 48 89 55 18        mov         qword ptr [rbp+18h],rdx
  000000001000452B: 4C 89 45 20        mov         qword ptr [rbp+20h],r8
  000000001000452F: 48 8B 45 10        mov         rax,qword ptr [rbp+10h]
  0000000010004533: 48 8B 40 08        mov         rax,qword ptr [rax+8]
  0000000010004537: 48 8B 4D 10        mov         rcx,qword ptr [rbp+10h]
  000000001000453B: 48 8B 09           mov         rcx,qword ptr [rcx]
  000000001000453E: 48 8B 49 08        mov         rcx,qword ptr [rcx+8]
  0000000010004542: 48 3B C1           cmp         rax,rcx
  0000000010004545: 7D 27              jge         000000001000456E
  0000000010004547: 48 8B 45 10        mov         rax,qword ptr [rbp+10h]
  000000001000454B: 48 8B 00           mov         rax,qword ptr [rax]
  000000001000454E: 48 8B 00           mov         rax,qword ptr [rax]
  0000000010004551: 48 8B 4D 10        mov         rcx,qword ptr [rbp+10h]
  0000000010004555: 48 8B 49 08        mov         rcx,qword ptr [rcx+8]
  0000000010004559: 48 03 C1           add         rax,rcx
  000000001000455C: 8A 00              mov         al,byte ptr [rax]
  000000001000455E: 48 8B 4D 20        mov         rcx,qword ptr [rbp+20h]
  0000000010004562: 88 01              mov         byte ptr [rcx],al
  0000000010004564: 48 8B 45 10        mov         rax,qword ptr [rbp+10h]
  0000000010004568: 48 FF 40 08        inc         qword ptr [rax+8]
  000000001000456C: EB 08              jmp         0000000010004576
  000000001000456E: 48 8B 45 10        mov         rax,qword ptr [rbp+10h]
  0000000010004572: C6 40 10 01        mov         byte ptr [rax+10h],1
  0000000010004576: 48 8B 5D F0        mov         rbx,qword ptr [rbp-10h]
  000000001000457A: C9                 leave
  000000001000457B: C3                 ret
  000000001000457C: 90                 nop
  000000001000457D: 90                 nop
  000000001000457E: 90                 nop
  000000001000457F: 90                 nop
  0000000010004580: 55                 push        rbp
  0000000010004581: 48 8B EC           mov         rbp,rsp
  0000000010004584: 48 83 EC 30        sub         rsp,30h
  0000000010004588: 48 8D 8B F8 EF FF  lea         rcx,[rbx+FFFFFFFFFFFFEFF8h]
                    FF
  000000001000458F: 4C 8D 83 C0 FC FF  lea         r8,[rbx+FFFFFFFFFFFFFCC0h]
                    FF
  0000000010004596: 48 8D 83 50 FD FF  lea         rax,[rbx+FFFFFFFFFFFFFD50h]
                    FF
  000000001000459D: 48 89 44 24 20     mov         qword ptr [rsp+20h],rax
  00000000100045A2: B8 13 00 00 00     mov         eax,13h
  00000000100045A7: 48 89 44 24 28     mov         qword ptr [rsp+28h],rax
  00000000100045AC: 41 B9 0D 00 00 00  mov         r9d,0Dh
  00000000100045B2: BA 08 00 00 00     mov         edx,8
  00000000100045B7: E8 44 EA FF FF     call        0000000010003000
  00000000100045BC: 48 8D 8B E0 EF FF  lea         rcx,[rbx+FFFFFFFFFFFFEFE0h]
                    FF
  00000000100045C3: 4C 8D 83 C0 FC FF  lea         r8,[rbx+FFFFFFFFFFFFFCC0h]
                    FF
  00000000100045CA: 48 8D 83 80 FD FF  lea         rax,[rbx+FFFFFFFFFFFFFD80h]
                    FF
  00000000100045D1: 48 89 44 24 20     mov         qword ptr [rsp+20h],rax
  00000000100045D6: B8 0C 00 00 00     mov         eax,0Ch
  00000000100045DB: 48 89 44 24 28     mov         qword ptr [rsp+28h],rax
  00000000100045E0: 41 B9 0D 00 00 00  mov         r9d,0Dh
  00000000100045E6: BA 08 00 00 00     mov         edx,8
  00000000100045EB: E8 10 EA FF FF     call        0000000010003000
  00000000100045F0: 48 8D 8B D8 EF FF  lea         rcx,[rbx+FFFFFFFFFFFFEFD8h]
                    FF
  00000000100045F7: 4C 8D 83 C0 FC FF  lea         r8,[rbx+FFFFFFFFFFFFFCC0h]
                    FF
  00000000100045FE: 48 8D 83 A0 FD FF  lea         rax,[rbx+FFFFFFFFFFFFFDA0h]
                    FF
  0000000010004605: 48 89 44 24 20     mov         qword ptr [rsp+20h],rax
  000000001000460A: B8 0C 00 00 00     mov         eax,0Ch
  000000001000460F: 48 89 44 24 28     mov         qword ptr [rsp+28h],rax
  0000000010004614: 41 B9 0D 00 00 00  mov         r9d,0Dh
  000000001000461A: BA 08 00 00 00     mov         edx,8
  000000001000461F: E8 DC E9 FF FF     call        0000000010003000
  0000000010004624: 48 8D 8B F0 EF FF  lea         rcx,[rbx+FFFFFFFFFFFFEFF0h]
                    FF
  000000001000462B: 4C 8D 83 C0 FC FF  lea         r8,[rbx+FFFFFFFFFFFFFCC0h]
                    FF
  0000000010004632: 48 8D 83 C0 FD FF  lea         rax,[rbx+FFFFFFFFFFFFFDC0h]
                    FF
  0000000010004639: 48 89 44 24 20     mov         qword ptr [rsp+20h],rax
  000000001000463E: B8 0A 00 00 00     mov         eax,0Ah
  0000000010004643: 48 89 44 24 28     mov         qword ptr [rsp+28h],rax
  0000000010004648: 41 B9 0D 00 00 00  mov         r9d,0Dh
  000000001000464E: BA 08 00 00 00     mov         edx,8
  0000000010004653: E8 A8 E9 FF FF     call        0000000010003000
  0000000010004658: 48 8D 8B E8 EF FF  lea         rcx,[rbx+FFFFFFFFFFFFEFE8h]
                    FF
  000000001000465F: 4C 8D 83 C0 FC FF  lea         r8,[rbx+FFFFFFFFFFFFFCC0h]
                    FF
  0000000010004666: 48 8D 83 E0 FD FF  lea         rax,[rbx+FFFFFFFFFFFFFDE0h]
                    FF
  000000001000466D: 48 89 44 24 20     mov         qword ptr [rsp+20h],rax
  0000000010004672: B8 0C 00 00 00     mov         eax,0Ch
  0000000010004677: 48 89 44 24 28     mov         qword ptr [rsp+28h],rax
  000000001000467C: 41 B9 0D 00 00 00  mov         r9d,0Dh
  0000000010004682: BA 08 00 00 00     mov         edx,8
  0000000010004687: E8 74 E9 FF FF     call        0000000010003000
  000000001000468C: 48 8D 8B D0 EF FF  lea         rcx,[rbx+FFFFFFFFFFFFEFD0h]
                    FF
  0000000010004693: 4C 8D 83 C0 FC FF  lea         r8,[rbx+FFFFFFFFFFFFFCC0h]
                    FF
  000000001000469A: 48 8D 83 00 FE FF  lea         rax,[rbx+FFFFFFFFFFFFFE00h]
                    FF
  00000000100046A1: 48 89 44 24 20     mov         qword ptr [rsp+20h],rax
  00000000100046A6: B8 09 00 00 00     mov         eax,9
  00000000100046AB: 48 89 44 24 28     mov         qword ptr [rsp+28h],rax
  00000000100046B0: 41 B9 0D 00 00 00  mov         r9d,0Dh
  00000000100046B6: BA 08 00 00 00     mov         edx,8
  00000000100046BB: E8 40 E9 FF FF     call        0000000010003000
  00000000100046C0: 48 8D 8B C8 EF FF  lea         rcx,[rbx+FFFFFFFFFFFFEFC8h]
                    FF
  00000000100046C7: 4C 8D 83 C0 FC FF  lea         r8,[rbx+FFFFFFFFFFFFFCC0h]
                    FF
  00000000100046CE: 48 8D 83 20 FE FF  lea         rax,[rbx+FFFFFFFFFFFFFE20h]
                    FF
  00000000100046D5: 48 89 44 24 20     mov         qword ptr [rsp+20h],rax
  00000000100046DA: B8 0A 00 00 00     mov         eax,0Ah
  00000000100046DF: 48 89 44 24 28     mov         qword ptr [rsp+28h],rax
  00000000100046E4: 41 B9 0D 00 00 00  mov         r9d,0Dh
  00000000100046EA: BA 08 00 00 00     mov         edx,8
  00000000100046EF: E8 0C E9 FF FF     call        0000000010003000
  00000000100046F4: 48 8D 8B C0 EF FF  lea         rcx,[rbx+FFFFFFFFFFFFEFC0h]
                    FF
  00000000100046FB: 4C 8D 83 C0 FC FF  lea         r8,[rbx+FFFFFFFFFFFFFCC0h]
                    FF
  0000000010004702: 48 8D 83 40 FE FF  lea         rax,[rbx+FFFFFFFFFFFFFE40h]
                    FF
  0000000010004709: 48 89 44 24 20     mov         qword ptr [rsp+20h],rax
  000000001000470E: B8 11 00 00 00     mov         eax,11h
  0000000010004713: 48 89 44 24 28     mov         qword ptr [rsp+28h],rax
  0000000010004718: 41 B9 0D 00 00 00  mov         r9d,0Dh
  000000001000471E: BA 08 00 00 00     mov         edx,8
  0000000010004723: E8 D8 E8 FF FF     call        0000000010003000
  0000000010004728: 48 8D 8B B8 EF FF  lea         rcx,[rbx+FFFFFFFFFFFFEFB8h]
                    FF
  000000001000472F: 4C 8D 83 C0 FC FF  lea         r8,[rbx+FFFFFFFFFFFFFCC0h]
                    FF
  0000000010004736: 48 8D 83 70 FE FF  lea         rax,[rbx+FFFFFFFFFFFFFE70h]
                    FF
  000000001000473D: 48 89 44 24 20     mov         qword ptr [rsp+20h],rax
  0000000010004742: B8 0D 00 00 00     mov         eax,0Dh
  0000000010004747: 48 89 44 24 28     mov         qword ptr [rsp+28h],rax
  000000001000474C: 41 B9 0D 00 00 00  mov         r9d,0Dh
  0000000010004752: BA 08 00 00 00     mov         edx,8
  0000000010004757: E8 A4 E8 FF FF     call        0000000010003000
  000000001000475C: 48 8D 8B B0 EF FF  lea         rcx,[rbx+FFFFFFFFFFFFEFB0h]
                    FF
  0000000010004763: 4C 8D 83 C0 FC FF  lea         r8,[rbx+FFFFFFFFFFFFFCC0h]
                    FF
  000000001000476A: 48 8D 83 90 FE FF  lea         rax,[rbx+FFFFFFFFFFFFFE90h]
                    FF
  0000000010004771: 48 89 44 24 20     mov         qword ptr [rsp+20h],rax
  0000000010004776: B8 10 00 00 00     mov         eax,10h
  000000001000477B: 48 89 44 24 28     mov         qword ptr [rsp+28h],rax
  0000000010004780: 41 B9 0D 00 00 00  mov         r9d,0Dh
  0000000010004786: BA 08 00 00 00     mov         edx,8
  000000001000478B: E8 70 E8 FF FF     call        0000000010003000
  0000000010004790: 48 8D 8B A8 EF FF  lea         rcx,[rbx+FFFFFFFFFFFFEFA8h]
                    FF
  0000000010004797: 4C 8D 83 C0 FC FF  lea         r8,[rbx+FFFFFFFFFFFFFCC0h]
                    FF
  000000001000479E: 48 8D 83 B0 FE FF  lea         rax,[rbx+FFFFFFFFFFFFFEB0h]
                    FF
  00000000100047A5: 48 89 44 24 20     mov         qword ptr [rsp+20h],rax
  00000000100047AA: B8 14 00 00 00     mov         eax,14h
  00000000100047AF: 48 89 44 24 28     mov         qword ptr [rsp+28h],rax
  00000000100047B4: 41 B9 0D 00 00 00  mov         r9d,0Dh
  00000000100047BA: BA 08 00 00 00     mov         edx,8
  00000000100047BF: E8 3C E8 FF FF     call        0000000010003000
  00000000100047C4: 48 8D 8B A0 EF FF  lea         rcx,[rbx+FFFFFFFFFFFFEFA0h]
                    FF
  00000000100047CB: 4C 8D 83 C0 FC FF  lea         r8,[rbx+FFFFFFFFFFFFFCC0h]
                    FF
  00000000100047D2: 48 8D 83 E0 FE FF  lea         rax,[rbx+FFFFFFFFFFFFFEE0h]
                    FF
  00000000100047D9: 48 89 44 24 20     mov         qword ptr [rsp+20h],rax
  00000000100047DE: B8 0D 00 00 00     mov         eax,0Dh
  00000000100047E3: 48 89 44 24 28     mov         qword ptr [rsp+28h],rax
  00000000100047E8: 41 B9 0D 00 00 00  mov         r9d,0Dh
  00000000100047EE: BA 08 00 00 00     mov         edx,8
  00000000100047F3: E8 08 E8 FF FF     call        0000000010003000
  00000000100047F8: 48 8D 8B 98 EF FF  lea         rcx,[rbx+FFFFFFFFFFFFEF98h]
                    FF
  00000000100047FF: 4C 8D 83 C0 FC FF  lea         r8,[rbx+FFFFFFFFFFFFFCC0h]
                    FF
  0000000010004806: 48 8D 83 00 FF FF  lea         rax,[rbx+FFFFFFFFFFFFFF00h]
                    FF
  000000001000480D: 48 89 44 24 20     mov         qword ptr [rsp+20h],rax
  0000000010004812: B8 0F 00 00 00     mov         eax,0Fh
  0000000010004817: 48 89 44 24 28     mov         qword ptr [rsp+28h],rax
  000000001000481C: 41 B9 0D 00 00 00  mov         r9d,0Dh
  0000000010004822: BA 08 00 00 00     mov         edx,8
  0000000010004827: E8 D4 E7 FF FF     call        0000000010003000
  000000001000482C: 48 8D 8B 90 EF FF  lea         rcx,[rbx+FFFFFFFFFFFFEF90h]
                    FF
  0000000010004833: 4C 8D 83 C0 FC FF  lea         r8,[rbx+FFFFFFFFFFFFFCC0h]
                    FF
  000000001000483A: 48 8D 83 20 FF FF  lea         rax,[rbx+FFFFFFFFFFFFFF20h]
                    FF
  0000000010004841: 48 89 44 24 20     mov         qword ptr [rsp+20h],rax
  0000000010004846: B8 0A 00 00 00     mov         eax,0Ah
  000000001000484B: 48 89 44 24 28     mov         qword ptr [rsp+28h],rax
  0000000010004850: 41 B9 0D 00 00 00  mov         r9d,0Dh
  0000000010004856: BA 08 00 00 00     mov         edx,8
  000000001000485B: E8 A0 E7 FF FF     call        0000000010003000
  0000000010004860: 48 8D 8B 88 EF FF  lea         rcx,[rbx+FFFFFFFFFFFFEF88h]
                    FF
  0000000010004867: 4C 8D 83 C0 FC FF  lea         r8,[rbx+FFFFFFFFFFFFFCC0h]
                    FF
  000000001000486E: 48 8D 83 40 FF FF  lea         rax,[rbx+FFFFFFFFFFFFFF40h]
                    FF
  0000000010004875: 48 89 44 24 20     mov         qword ptr [rsp+20h],rax
  000000001000487A: B8 09 00 00 00     mov         eax,9
  000000001000487F: 48 89 44 24 28     mov         qword ptr [rsp+28h],rax
  0000000010004884: 41 B9 0D 00 00 00  mov         r9d,0Dh
  000000001000488A: BA 08 00 00 00     mov         edx,8
  000000001000488F: E8 6C E7 FF FF     call        0000000010003000
  0000000010004894: 48 8D 8B 80 EF FF  lea         rcx,[rbx+FFFFFFFFFFFFEF80h]
                    FF
  000000001000489B: 4C 8D 83 C0 FC FF  lea         r8,[rbx+FFFFFFFFFFFFFCC0h]
                    FF
  00000000100048A2: 48 8D 83 60 FF FF  lea         rax,[rbx+FFFFFFFFFFFFFF60h]
                    FF
  00000000100048A9: 48 89 44 24 20     mov         qword ptr [rsp+20h],rax
  00000000100048AE: B8 0C 00 00 00     mov         eax,0Ch
  00000000100048B3: 48 89 44 24 28     mov         qword ptr [rsp+28h],rax
  00000000100048B8: 41 B9 0D 00 00 00  mov         r9d,0Dh
  00000000100048BE: BA 08 00 00 00     mov         edx,8
  00000000100048C3: E8 38 E7 FF FF     call        0000000010003000
  00000000100048C8: C9                 leave
  00000000100048C9: C3                 ret
  00000000100048CA: 90                 nop
  00000000100048CB: 90                 nop
  00000000100048CC: 90                 nop
  00000000100048CD: 90                 nop
  00000000100048CE: 90                 nop
  00000000100048CF: 90                 nop
  00000000100048D0: 55                 push        rbp
  00000000100048D1: 48 8B EC           mov         rbp,rsp
  00000000100048D4: 48 83 EC 20        sub         rsp,20h
  00000000100048D8: E8 A3 FC FF FF     call        0000000010004580
  00000000100048DD: C9                 leave
  00000000100048DE: C3                 ret
  00000000100048DF: 90                 nop
  00000000100048E0: 83 FA 01           cmp         edx,1
  00000000100048E3: 74 01              je          00000000100048E6
  00000000100048E5: C3                 ret
  00000000100048E6: 56                 push        rsi
  00000000100048E7: 57                 push        rdi
  00000000100048E8: 53                 push        rbx
  00000000100048E9: 48 83 EC 20        sub         rsp,20h
  00000000100048ED: 48 8D 1D 0C E7 FF  lea         rbx,[0000000010003000h]
                    FF
  00000000100048F4: FF 53 E0           call        qword ptr [rbx-20h]
  00000000100048F7: 48 89 43 C0        mov         qword ptr [rbx-40h],rax
  00000000100048FB: 48 C7 83 70 FC FF  mov         qword ptr [rbx+FFFFFFFFFFFFFC70h],11h
                    FF 11 00 00 00
  0000000010004906: 48 C7 83 20 FC FF  mov         qword ptr [rbx+FFFFFFFFFFFFFC20h],18h
                    FF 18 00 00 00
  0000000010004911: 48 C7 83 D0 FB FF  mov         qword ptr [rbx+FFFFFFFFFFFFFBD0h],8
                    FF 08 00 00 00
  000000001000491C: E8 AF FF FF FF     call        00000000100048D0
  0000000010004921: B8 01 00 00 00     mov         eax,1
  0000000010004926: 48 83 C4 20        add         rsp,20h
  000000001000492A: 5B                 pop         rbx
  000000001000492B: 5F                 pop         rdi
  000000001000492C: 5E                 pop         rsi
  000000001000492D: C3                 ret

RAW DATA #3
  0000000010003000: 55 48 8B EC 48 81 EC 40 01 00 00 48 89 4D 10 48  UH.?H.?@...H.M.H
  0000000010003010: 89 55 18 4C 89 45 20 4C 89 4D 28 48 8B 4D 20 FF  .U.L.E L.M(H.M ÿ
  0000000010003020: 53 D0 48 89 45 F8 48 83 7D F8 00 0F 84 92 00 00  S?H.EøH.}ø......
  0000000010003030: 00 48 C7 45 E8 FF FF FF FF 48 8B 45 E8 48 83 C0  .HÇEèÿÿÿÿH.EèH.À
  0000000010003040: 01 48 89 45 E8 48 8D 85 E8 FE FF FF 48 8B 4D E8  .H.EèH..è?ÿÿH.Mè
  0000000010003050: 48 81 F9 00 01 00 00 73 02 EB 08 B0 01 B9 5B 09  H.ù....s.ë.°.¹[.
  0000000010003060: 00 00 CC 48 03 C1 48 8B 4D 30 48 8B 55 E8 48 3B  ..?H.ÁH.M0H.UèH;
  0000000010003070: 55 38 73 02 EB 08 B0 01 B9 6A 09 00 00 CC 48 C1  U8s.ë.°.¹j...?HÁ
  0000000010003080: E2 01 48 03 CA 0F B7 09 88 08 48 8B 45 30 48 8B  â.H.Ê.·...H.E0H.
  0000000010003090: 4D E8 48 3B 4D 38 73 02 EB 08 B0 01 B9 79 09 00  MèH;M8s.ë.°.¹y..
  00000000100030A0: 00 CC 48 C1 E1 01 48 03 C1 66 83 38 00 75 8A 48  .?HÁá.H.Áf.8.u.H
  00000000100030B0: 8B 4D F8 48 8D 95 E8 FE FF FF FF 53 D8 48 89 45  .MøH..è?ÿÿÿSØH.E
  00000000100030C0: F0 EB 06 31 C0 48 89 45 F0 48 8B 45 10 48 8B 4D  ?ë.1ÀH.E?H.E.H.M
  00000000100030D0: F0 48 89 08 C9 C3 90 90 90 90 90 90 90 90 90 90  ?H..É?..........
  00000000100030E0: 55 48 8B EC 48 89 4D 10 48 8B 45 10 B9 FF FF FF  UH.?H.M.H.E.¹ÿÿÿ
  00000000100030F0: FF 48 23 C1 C9 C3 90 90 90 90 90 90 90 90 90 90  ÿH#ÁÉ?..........
  0000000010003100: 55 48 8B EC 48 89 4D 10 48 8B 4D 10 48 81 E1 FF  UH.?H.M.H.M.H.áÿ
  0000000010003110: FF 00 00 48 8B C1 C9 C3 90 90 90 90 90 90 90 90  ÿ..H.ÁÉ?........
  0000000010003120: 55 48 8B EC 48 89 4D 10 48 8B 4D 10 48 C1 E1 20  UH.?H.M.H.M.HÁá 
  0000000010003130: 48 C1 F9 20 48 8B C1 C9 C3 90 90 90 90 90 90 90  HÁù H.ÁÉ?.......
  0000000010003140: 55 48 8B EC 48 83 EC 30 48 89 5D F0 48 8D 1D AD  UH.?H.?0H.]?H..­
  0000000010003150: FE FF FF 48 89 4D 10 48 89 55 18 48 8B 83 F8 EF  ?ÿÿH.M.H.U.H..øï
  0000000010003160: FF FF 48 8B 4D 10 FF D0 48 89 45 F8 48 8B 45 F8  ÿÿH.M.ÿ?H.EøH.Eø
  0000000010003170: B9 FF FF FF FF 48 3B C1 74 07 B8 01 00 00 00 EB  ¹ÿÿÿÿH;Át.¸....ë
  0000000010003180: 02 31 C0 48 8B 5D F0 C9 C3 90 90 90 90 90 90 90  .1ÀH.]?É?.......
  0000000010003190: 55 48 8B EC 48 83 EC 50 48 89 5D F0 48 8D 1D 5D  UH.?H.?PH.]?H..]
  00000000100031A0: FE FF FF 48 89 4D 10 48 89 55 18 4C 89 45 20 4C  ?ÿÿH.M.H.U.L.E L
  00000000100031B0: 89 4D 28 48 8B 83 E0 EF FF FF 48 8B 4D 20 BA 00  .M(H..àïÿÿH.M º.
  00000000100031C0: 00 00 C0 45 31 C0 45 31 C9 41 BA 03 00 00 00 4C  ..ÀE1ÀE1ÉAº....L
  00000000100031D0: 89 54 24 20 45 31 D2 4C 89 54 24 28 45 31 D2 4C  .T$ E1?L.T$(E1?L
  00000000100031E0: 89 54 24 30 FF D0 48 8B 4D 10 48 89 01 48 8B 5D  .T$0ÿ?H.M.H..H.]
  00000000100031F0: F0 C9 C3 90 90 90 90 90 90 90 90 90 90 90 90 90  ?É?.............
  0000000010003200: 55 48 8B EC 48 83 EC 50 48 89 5D F0 48 8D 1D ED  UH.?H.?PH.]?H..í
  0000000010003210: FD FF FF 48 89 4D 10 48 89 55 18 4C 89 45 20 4C  ?ÿÿH.M.H.U.L.E L
  0000000010003220: 89 4D 28 48 8B 83 E0 EF FF FF 48 8B 4D 20 BA 00  .M(H..àïÿÿH.M º.
  0000000010003230: 00 00 C0 45 31 C0 45 31 C9 41 BA 02 00 00 00 4C  ..ÀE1ÀE1ÉAº....L
  0000000010003240: 89 54 24 20 45 31 D2 4C 89 54 24 28 45 31 D2 4C  .T$ E1?L.T$(E1?L
  0000000010003250: 89 54 24 30 FF D0 48 8B 4D 10 48 89 01 48 8B 5D  .T$0ÿ?H.M.H..H.]
  0000000010003260: F0 C9 C3 90 90 90 90 90 90 90 90 90 90 90 90 90  ?É?.............
  0000000010003270: 55 48 8B EC 48 83 EC 30 48 89 5D F0 48 8D 1D 7D  UH.?H.?0H.]?H..}
  0000000010003280: FD FF FF 48 89 4D 10 48 89 55 18 48 8B 83 D8 EF  ?ÿÿH.M.H.U.H..Øï
  0000000010003290: FF FF 48 8B 4D 10 48 8B 09 FF D0 48 89 45 F8 31  ÿÿH.M.H..ÿ?H.Eø1
  00000000100032A0: C0 48 8B 4D 10 48 89 01 48 8B 5D F0 C9 C3 90 90  ÀH.M.H..H.]?É?..
  00000000100032B0: 55 48 8B EC 48 83 EC 30 48 89 5D F0 48 8D 1D 3D  UH.?H.?0H.]?H..=
  00000000100032C0: FD FF FF 48 89 4D 10 48 89 55 18 4C 89 45 20 4C  ?ÿÿH.M.H.U.L.E L
  00000000100032D0: 89 4D 28 48 8B 83 F0 EF FF FF 48 8B 4D 10 48 8B  .M(H..?ïÿÿH.M.H.
  00000000100032E0: 55 20 FF D0 48 89 45 F8 48 8B 5D F0 C9 C3 90 90  U ÿ?H.EøH.]?É?..
  00000000100032F0: 55 48 8B EC 48 83 EC 30 48 89 5D F0 48 8D 1D FD  UH.?H.?0H.]?H..?
  0000000010003300: FC FF FF 48 89 4D 10 48 89 55 18 48 8B 83 E8 EF  üÿÿH.M.H.U.H..èï
  0000000010003310: FF FF 48 8B 4D 10 FF D0 48 89 45 F8 48 8B 5D F0  ÿÿH.M.ÿ?H.EøH.]?
  0000000010003320: C9 C3 90 90 90 90 90 90 90 90 90 90 90 90 90 90  É?..............
  0000000010003330: 55 48 8B EC 48 83 EC 50 48 89 5D E0 48 8D 1D BD  UH.?H.?PH.]àH..½
  0000000010003340: FC FF FF 48 89 4D 10 48 89 55 18 4C 89 45 20 48  üÿÿH.M.H.U.L.E H
  0000000010003350: 8B 83 D0 EF FF FF 48 8B 4D 10 48 8B 09 48 8D 55  ..?ïÿÿH.M.H..H.U
  0000000010003360: F7 41 B8 01 00 00 00 4C 8D 4D E8 45 31 D2 4C 89  ÷A¸....L.MèE1?L.
  0000000010003370: 54 24 20 FF D0 48 89 45 F8 48 83 7D F8 00 74 0F  T$ ÿ?H.EøH.}ø.t.
  0000000010003380: 48 8B 4D E8 E8 57 FD FF FF 48 83 F8 01 74 0D 48  H.MèèW?ÿÿH.ø.t.H
  0000000010003390: 8B 45 20 48 C7 00 FF FF FF FF EB 0B 0F B6 45 F7  .E HÇ.ÿÿÿÿë..¶E÷
  00000000100033A0: 48 8B 4D 20 48 89 01 48 8B 5D E0 C9 C3 90 90 90  H.M H..H.]àÉ?...
  00000000100033B0: 55 48 8B EC 48 83 EC 50 48 89 5D E0 48 8D 1D 3D  UH.?H.?PH.]àH..=
  00000000100033C0: FC FF FF 48 89 4D 10 48 89 55 18 4C 89 45 20 48  üÿÿH.M.H.U.L.E H
  00000000100033D0: 8B 83 D0 EF FF FF 48 8B 4D 10 48 8B 09 48 8D 55  ..?ïÿÿH.M.H..H.U
  00000000100033E0: F0 41 B8 02 00 00 00 4C 8D 4D E8 45 31 D2 4C 89  ?A¸....L.MèE1?L.
  00000000100033F0: 54 24 20 FF D0 48 89 45 F8 48 83 7D F8 00 74 0F  T$ ÿ?H.EøH.}ø.t.
  0000000010003400: 48 8B 4D E8 E8 D7 FC FF FF 48 83 F8 02 74 0D 48  H.Mèè×üÿÿH.ø.t.H
  0000000010003410: 8B 45 20 48 C7 00 FF FF FF FF EB 10 48 8B 4D F0  .E HÇ.ÿÿÿÿë.H.M?
  0000000010003420: E8 DB FC FF FF 48 8B 4D 20 48 89 01 48 8B 5D E0  èÛüÿÿH.M H..H.]à
  0000000010003430: C9 C3 90 90 90 90 90 90 90 90 90 90 90 90 90 90  É?..............
  0000000010003440: 55 48 8B EC 48 83 EC 40 48 89 5D E0 48 8D 1D AD  UH.?H.?@H.]àH..­
  0000000010003450: FB FF FF 48 89 4D 10 48 89 55 18 4C 89 45 20 4C  ûÿÿH.M.H.U.L.E L
  0000000010003460: 89 4D 28 48 C7 45 F8 FF FF FF FF 31 C0 48 89 45  .M(HÇEøÿÿÿÿ1ÀH.E
  0000000010003470: F0 48 FF 45 F8 48 8B 4D 10 4C 8D 45 F0 48 8B 55  ?HÿEøH.M.L.E?H.U
  0000000010003480: 18 E8 2A FF FF FF 48 83 7D F0 FF 75 06 31 C0 48  .è*ÿÿÿH.}?ÿu.1ÀH
  0000000010003490: 89 45 F0 48 8B 45 20 48 8B 4D F8 48 3B 4D 28 73  .E?H.E H.MøH;M(s
  00000000100034A0: 02 EB 08 B0 01 B9 5E 13 00 00 CC 48 C1 E1 01 48  .ë.°.¹^...?HÁá.H
  00000000100034B0: 03 C1 0F B7 4D F0 66 89 08 48 83 7D F0 00 75 B1  .Á.·M?f..H.}?.u±
  00000000100034C0: 48 8B 5D E0 C9 C3 90 90 90 90 90 90 90 90 90 90  H.]àÉ?..........
  00000000100034D0: 55 48 8B EC 48 83 EC 50 48 89 5D E0 48 8D 1D 1D  UH.?H.?PH.]àH...
  00000000100034E0: FB FF FF 48 89 4D 10 48 89 55 18 4C 89 45 20 48  ûÿÿH.M.H.U.L.E H
  00000000100034F0: 8B 83 D0 EF FF FF 48 8B 4D 10 48 8B 09 48 8D 55  ..?ïÿÿH.M.H..H.U
  0000000010003500: F0 41 B8 04 00 00 00 4C 8D 4D E8 45 31 D2 4C 89  ?A¸....L.MèE1?L.
  0000000010003510: 54 24 20 FF D0 48 89 45 F8 48 83 7D F8 00 74 0F  T$ ÿ?H.EøH.}ø.t.
  0000000010003520: 48 8B 4D E8 E8 B7 FB FF FF 48 83 F8 04 74 0D 48  H.Mèè·ûÿÿH.ø.t.H
  0000000010003530: 8B 45 20 48 C7 00 FF FF FF FF EB 10 48 8B 4D F0  .E HÇ.ÿÿÿÿë.H.M?
  0000000010003540: E8 9B FB FF FF 48 8B 4D 20 48 89 01 48 8B 5D E0  è.ûÿÿH.M H..H.]à
  0000000010003550: C9 C3 90 90 90 90 90 90 90 90 90 90 90 90 90 90  É?..............
  0000000010003560: 55 48 8B EC 48 83 EC 50 48 89 5D E0 48 8D 1D 8D  UH.?H.?PH.]àH...
  0000000010003570: FA FF FF 48 89 4D 10 48 89 55 18 4C 89 45 20 48  úÿÿH.M.H.U.L.E H
  0000000010003580: 8B 83 D0 EF FF FF 48 8B 4D 10 48 8B 09 48 8D 55  ..?ïÿÿH.M.H..H.U
  0000000010003590: E8 41 B8 08 00 00 00 4C 8D 4D F0 45 31 D2 4C 89  èA¸....L.M?E1?L.
  00000000100035A0: 54 24 20 FF D0 48 89 45 F8 48 8B 45 E8 48 8B 4D  T$ ÿ?H.EøH.EèH.M
  00000000100035B0: 20 48 89 01 48 8B 5D E0 C9 C3 90 90 90 90 90 90   H..H.]àÉ?......
  00000000100035C0: 55 48 8B EC 48 83 EC 50 48 89 5D E0 48 8D 1D 2D  UH.?H.?PH.]àH..-
  00000000100035D0: FA FF FF 48 89 4D 10 48 89 55 18 4C 89 45 20 4C  úÿÿH.M.H.U.L.E L
  00000000100035E0: 89 4D 28 48 8B 83 D0 EF FF FF 48 8B 4D 10 48 8B  .M(H..?ïÿÿH.M.H.
  00000000100035F0: 09 48 8B 55 20 4C 8B 45 28 4C 8D 4D F0 45 31 D2  .H.U L.E(L.M?E1?
  0000000010003600: 4C 89 54 24 20 FF D0 48 89 45 F8 48 8B 4D F0 E8  L.T$ ÿ?H.EøH.M?è
  0000000010003610: CC FA FF FF 48 8B 4D 30 48 89 01 48 8B 5D E0 C9  ?úÿÿH.M0H..H.]àÉ
  0000000010003620: C3 90 90 90 90 90 90 90 90 90 90 90 90 90 90 90  ?...............
  0000000010003630: 55 48 8B EC 48 83 EC 50 48 89 5D E0 48 8D 1D BD  UH.?H.?PH.]àH..½
  0000000010003640: F9 FF FF 48 89 4D 10 48 89 55 18 4C 89 45 20 48  ùÿÿH.M.H.U.L.E H
  0000000010003650: 8B 83 C8 EF FF FF 48 8B 4D 10 48 8B 09 48 8D 55  ..ÈïÿÿH.M.H..H.U
  0000000010003660: 20 41 B8 01 00 00 00 4C 8D 4D F0 45 31 D2 4C 89   A¸....L.M?E1?L.
  0000000010003670: 54 24 20 FF D0 48 89 45 F8 48 8B 5D E0 C9 C3 90  T$ ÿ?H.EøH.]àÉ?.
  0000000010003680: 55 48 8B EC 48 83 EC 50 48 89 5D E0 48 8D 1D 6D  UH.?H.?PH.]àH..m
  0000000010003690: F9 FF FF 48 89 4D 10 48 89 55 18 4C 89 45 20 48  ùÿÿH.M.H.U.L.E H
  00000000100036A0: 8B 83 C8 EF FF FF 48 8B 4D 10 48 8B 09 48 8D 55  ..ÈïÿÿH.M.H..H.U
  00000000100036B0: 20 41 B8 02 00 00 00 4C 8D 4D F0 45 31 D2 4C 89   A¸....L.M?E1?L.
  00000000100036C0: 54 24 20 FF D0 48 89 45 F8 48 8B 5D E0 C9 C3 90  T$ ÿ?H.EøH.]àÉ?.
  00000000100036D0: 55 48 8B EC 48 83 EC 40 48 89 5D E0 48 8D 1D 1D  UH.?H.?@H.]àH...
  00000000100036E0: F9 FF FF 48 89 4D 10 48 89 55 18 4C 89 45 20 4C  ùÿÿH.M.H.U.L.E L
  00000000100036F0: 89 4D 28 48 C7 45 F8 FF FF FF FF 31 C0 48 89 45  .M(HÇEøÿÿÿÿ1ÀH.E
  0000000010003700: F0 48 FF 45 F8 48 8B 4D 10 4C 8B 45 20 48 8B 45  ?HÿEøH.M.L.E H.E
  0000000010003710: F8 48 3B 45 28 73 02 EB 08 B0 01 B9 06 19 00 00  øH;E(s.ë.°.¹....
  0000000010003720: CC 48 C1 E0 01 4C 03 C0 45 0F B7 00 48 8B 55 18  ?HÁà.L.ÀE.·.H.U.
  0000000010003730: E8 4B FF FF FF 48 8B 45 20 48 8B 4D F8 48 3B 4D  èKÿÿÿH.E H.MøH;M
  0000000010003740: 28 73 02 EB 08 B0 01 B9 15 19 00 00 CC 48 C1 E1  (s.ë.°.¹....?HÁá
  0000000010003750: 01 48 03 C1 66 83 38 00 75 A7 48 8B 5D E0 C9 C3  .H.Áf.8.u§H.]àÉ?
  0000000010003760: 55 48 8B EC 48 83 EC 40 48 89 5D E0 48 8D 1D 8D  UH.?H.?@H.]àH...
  0000000010003770: F8 FF FF 48 89 4D 10 48 89 55 18 4C 89 45 20 4C  øÿÿH.M.H.U.L.E L
  0000000010003780: 89 4D 28 48 C7 45 F8 FF FF FF FF 31 C0 48 89 45  .M(HÇEøÿÿÿÿ1ÀH.E
  0000000010003790: F0 48 FF 45 F8 48 8B 4D 10 4C 8B 45 20 48 8B 45  ?HÿEøH.M.L.E H.E
  00000000100037A0: F8 48 3B 45 28 73 02 EB 08 B0 01 B9 BF 19 00 00  øH;E(s.ë.°.¹¿...
  00000000100037B0: CC 48 C1 E0 01 4C 03 C0 45 0F B7 00 48 8B 55 18  ?HÁà.L.ÀE.·.H.U.
  00000000100037C0: E8 6B FE FF FF 48 8B 45 20 48 8B 4D F8 48 3B 4D  èk?ÿÿH.E H.MøH;M
  00000000100037D0: 28 73 02 EB 08 B0 01 B9 CE 19 00 00 CC 48 C1 E1  (s.ë.°.¹Î...?HÁá
  00000000100037E0: 01 48 03 C1 66 83 38 00 75 A7 48 8B 5D E0 C9 C3  .H.Áf.8.u§H.]àÉ?
  00000000100037F0: 55 48 8B EC 48 83 EC 50 48 89 5D E0 48 8D 1D FD  UH.?H.?PH.]àH..?
  0000000010003800: F7 FF FF 48 89 4D 10 48 89 55 18 4C 89 45 20 48  ÷ÿÿH.M.H.U.L.E H
  0000000010003810: 8B 83 C8 EF FF FF 48 8B 4D 10 48 8B 09 48 8D 55  ..ÈïÿÿH.M.H..H.U
  0000000010003820: 20 41 B8 04 00 00 00 4C 8D 4D F0 45 31 D2 4C 89   A¸....L.M?E1?L.
  0000000010003830: 54 24 20 FF D0 48 89 45 F8 48 8B 5D E0 C9 C3 90  T$ ÿ?H.EøH.]àÉ?.
  0000000010003840: 55 48 8B EC 48 83 EC 50 48 89 5D E0 48 8D 1D AD  UH.?H.?PH.]àH..­
  0000000010003850: F7 FF FF 48 89 4D 10 48 89 55 18 4C 89 45 20 48  ÷ÿÿH.M.H.U.L.E H
  0000000010003860: 8B 83 C8 EF FF FF 48 8B 4D 10 48 8B 09 48 8D 55  ..ÈïÿÿH.M.H..H.U
  0000000010003870: 20 41 B8 08 00 00 00 4C 8D 4D F0 45 31 D2 4C 89   A¸....L.M?E1?L.
  0000000010003880: 54 24 20 FF D0 48 89 45 F8 48 8B 5D E0 C9 C3 90  T$ ÿ?H.EøH.]àÉ?.
  0000000010003890: 55 48 8B EC 48 83 EC 50 48 89 5D E0 48 8D 1D 5D  UH.?H.?PH.]àH..]
  00000000100038A0: F7 FF FF 48 89 4D 10 48 89 55 18 4C 89 45 20 4C  ÷ÿÿH.M.H.U.L.E L
  00000000100038B0: 89 4D 28 48 8B 83 C8 EF FF FF 48 8B 4D 10 48 8B  .M(H..ÈïÿÿH.M.H.
  00000000100038C0: 09 48 8B 55 20 4C 8B 45 28 4C 8D 4D F0 45 31 D2  .H.U L.E(L.M?E1?
  00000000100038D0: 4C 89 54 24 20 FF D0 48 89 45 F8 48 8B 4D F0 E8  L.T$ ÿ?H.EøH.M?è
  00000000100038E0: FC F7 FF FF 48 8B 4D 30 48 89 01 48 8B 5D E0 C9  ü÷ÿÿH.M0H..H.]àÉ
  00000000100038F0: C3 90 90 90 90 90 90 90 90 90 90 90 90 90 90 90  ?...............
  0000000010003900: 55 48 8B EC 48 83 EC 50 48 89 5D E0 48 8D 1D ED  UH.?H.?PH.]àH..í
  0000000010003910: F6 FF FF 48 89 4D 10 48 89 55 18 4C 89 45 20 4C  öÿÿH.M.H.U.L.E L
  0000000010003920: 89 4D 28 48 8B 83 C8 EF FF FF 48 8B 4D 10 48 8B  .M(H..ÈïÿÿH.M.H.
  0000000010003930: 09 48 8B 55 20 4C 8B 45 28 4D 8B 00 4C 8D 4D F0  .H.U L.E(M..L.M?
  0000000010003940: 45 31 D2 4C 89 54 24 20 FF D0 48 89 45 F8 48 8B  E1?L.T$ ÿ?H.EøH.
  0000000010003950: 4D F0 E8 89 F7 FF FF 48 8B 4D 28 48 89 01 48 8B  M?è.÷ÿÿH.M(H..H.
  0000000010003960: 5D E0 C9 C3 90 90 90 90 90 90 90 90 90 90 90 90  ]àÉ?............
  0000000010003970: 55 48 8B EC 48 83 EC 40 48 89 5D E0 48 8D 1D 7D  UH.?H.?@H.]àH..}
  0000000010003980: F6 FF FF 48 89 4D 10 48 89 55 18 31 C0 48 89 45  öÿÿH.M.H.U.1ÀH.E
  0000000010003990: F0 48 8B 83 C0 EF FF FF 48 8B 4D 10 48 8B 09 48  ?H..ÀïÿÿH.M.H..H
  00000000100039A0: 8B 55 F0 4C 8D 45 E8 41 B9 01 00 00 00 FF D0 48  .U?L.EèA¹....ÿ?H
  00000000100039B0: 89 45 F8 48 8B 45 E8 48 8B 5D E0 C9 C3 90 90 90  .EøH.EèH.]àÉ?...
  00000000100039C0: 55 48 8B EC 48 83 EC 40 48 89 5D E0 48 8D 1D 2D  UH.?H.?@H.]àH..-
  00000000100039D0: F6 FF FF 48 89 4D 10 48 89 55 18 4C 89 45 20 48  öÿÿH.M.H.U.L.E H
  00000000100039E0: 8B 45 20 48 89 45 F0 48 8B 83 C0 EF FF FF 48 8B  .E H.E?H..ÀïÿÿH.
  00000000100039F0: 4D 10 48 8B 09 48 8B 55 F0 4C 8D 45 E8 45 31 C9  M.H..H.U?L.EèE1É
  0000000010003A00: FF D0 48 89 45 F8 48 8B 5D E0 C9 C3 90 90 90 90  ÿ?H.EøH.]àÉ?....
  0000000010003A10: 55 48 8B EC 48 83 EC 40 48 89 5D E0 48 8D 1D DD  UH.?H.?@H.]àH..?
  0000000010003A20: F5 FF FF 48 89 4D 10 48 89 55 18 4C 89 45 20 48  ?ÿÿH.M.H.U.L.E H
  0000000010003A30: 8B 45 20 48 89 45 F0 48 8B 83 C0 EF FF FF 48 8B  .E H.E?H..ÀïÿÿH.
  0000000010003A40: 4D 10 48 8B 09 48 8B 55 F0 4C 8D 45 E8 41 B9 01  M.H..H.U?L.EèA¹.
  0000000010003A50: 00 00 00 FF D0 48 89 45 F8 48 8B 5D E0 C9 C3 90  ...ÿ?H.EøH.]àÉ?.
  0000000010003A60: 55 48 8B EC 48 83 EC 70 48 89 5D D0 48 89 75 D8  UH.?H.?pH.]?H.uØ
  0000000010003A70: 48 8D 1D 89 F5 FF FF 48 89 4D 10 48 8B 83 A8 EF  H...?ÿÿH.M.H..¨ï
  0000000010003A80: FF FF B9 E9 FD 00 00 31 D2 4C 8D 45 10 41 B9 01  ÿÿ¹é?..1?L.E.A¹.
  0000000010003A90: 00 00 00 4C 8D 55 F8 4C 89 54 24 20 45 31 D2 4C  ...L.UøL.T$ E1?L
  0000000010003AA0: 89 54 24 28 45 31 D2 4C 89 54 24 30 45 31 D2 4C  .T$(E1?L.T$0E1?L
  0000000010003AB0: 89 54 24 38 FF D0 48 89 45 F0 48 83 7D F0 08 7F  .T$8ÿ?H.E?H.}?..
  0000000010003AC0: 72 48 8B 83 A8 EF FF FF B9 E9 FD 00 00 31 D2 4C  rH..¨ïÿÿ¹é?..1?L
  0000000010003AD0: 8D 45 10 41 B9 01 00 00 00 4C 8D 55 F8 4C 89 54  .E.A¹....L.UøL.T
  0000000010003AE0: 24 20 4C 8B 55 F0 4C 89 54 24 28 45 31 D2 4C 89  $ L.U?L.T$(E1?L.
  0000000010003AF0: 54 24 30 45 31 D2 4C 89 54 24 38 FF D0 48 89 45  T$0E1?L.T$8ÿ?H.E
  0000000010003B00: F0 48 8B B3 C8 EF FF FF 48 8B 83 A0 EF FF FF 31  ?H.³ÈïÿÿH...ïÿÿ1
  0000000010003B10: C9 48 83 C1 F5 FF D0 48 8D 55 F8 4C 8B 45 F0 4C  ÉH.Á?ÿ?H.UøL.E?L
  0000000010003B20: 8D 4D E0 31 C9 48 89 4C 24 20 48 8B C8 FF D6 48  .Mà1ÉH.L$ H.ÈÿÖH
  0000000010003B30: 89 45 E8 48 8B 5D D0 48 8B 75 D8 C9 C3 90 90 90  .EèH.]?H.uØÉ?...
  0000000010003B40: 55 48 8B EC 48 81 EC 70 01 00 00 48 89 9D D0 FE  UH.?H.?p...H..??
  0000000010003B50: FF FF 48 89 B5 D8 FE FF FF 48 8D 1D A0 F4 FF FF  ÿÿH.µØ?ÿÿH...ôÿÿ
  0000000010003B60: 48 89 4D 10 48 89 55 18 31 C0 48 89 85 F8 FE FF  H.M.H.U.1ÀH..ø?ÿ
  0000000010003B70: FF 48 8B 45 10 48 8B 8D F8 FE FF FF 48 3B 4D 18  ÿH.E.H..ø?ÿÿH;M.
  0000000010003B80: 73 02 EB 08 B0 01 B9 06 25 00 00 CC 48 C1 E1 01  s.ë.°.¹.%..?HÁá.
  0000000010003B90: 48 03 C1 66 83 38 00 74 09 48 FF 85 F8 FE FF FF  H.Áf.8.t.Hÿ.ø?ÿÿ
  0000000010003BA0: EB CF 48 8B 83 A8 EF FF FF B9 E9 FD 00 00 31 D2  ëÏH..¨ïÿÿ¹é?..1?
  0000000010003BB0: 4C 8B 45 10 4C 8B 8D F8 FE FF FF 4C 8D 95 00 FF  L.E.L..ø?ÿÿL...ÿ
  0000000010003BC0: FF FF 4C 89 54 24 20 45 31 D2 4C 89 54 24 28 45  ÿÿL.T$ E1?L.T$(E
  0000000010003BD0: 31 D2 4C 89 54 24 30 45 31 D2 4C 89 54 24 38 FF  1?L.T$0E1?L.T$8ÿ
  0000000010003BE0: D0 48 89 85 F0 FE FF FF 48 81 BD F0 FE FF FF 00  ?H..??ÿÿH.½??ÿÿ.
  0000000010003BF0: 01 00 00 0F 8F 88 00 00 00 48 8B 83 A8 EF FF FF  .........H..¨ïÿÿ
  0000000010003C00: B9 E9 FD 00 00 31 D2 4C 8B 45 10 4C 8B 8D F8 FE  ¹é?..1?L.E.L..ø?
  0000000010003C10: FF FF 4C 8D 95 00 FF FF FF 4C 89 54 24 20 4C 8B  ÿÿL...ÿÿÿL.T$ L.
  0000000010003C20: 95 F0 FE FF FF 4C 89 54 24 28 45 31 D2 4C 89 54  .??ÿÿL.T$(E1?L.T
  0000000010003C30: 24 30 45 31 D2 4C 89 54 24 38 FF D0 48 89 85 F0  $0E1?L.T$8ÿ?H..?
  0000000010003C40: FE FF FF 48 8B B3 C8 EF FF FF 48 8B 83 A0 EF FF  ?ÿÿH.³ÈïÿÿH...ïÿ
  0000000010003C50: FF 31 C9 48 83 C1 F5 FF D0 48 8D 95 00 FF FF FF  ÿ1ÉH.Á?ÿ?H...ÿÿÿ
  0000000010003C60: 4C 8B 85 F0 FE FF FF 4C 8D 8D E0 FE FF FF 31 C9  L..??ÿÿL..à?ÿÿ1É
  0000000010003C70: 48 89 4C 24 20 48 8B C8 FF D6 48 89 85 E8 FE FF  H.L$ H.ÈÿÖH..è?ÿ
  0000000010003C80: FF 48 8B 9D D0 FE FF FF 48 8B B5 D8 FE FF FF C9  ÿH..??ÿÿH.µØ?ÿÿÉ
  0000000010003C90: C3 90 90 90 90 90 90 90 90 90 90 90 90 90 90 90  ?...............
  0000000010003CA0: 55 48 8B EC 48 83 EC 60 48 89 5D D0 48 89 75 D8  UH.?H.?`H.]?H.uØ
  0000000010003CB0: 48 8D 1D 49 F3 FF FF C6 45 FE 0D C6 45 FF 0A 48  H..IóÿÿÆE?.ÆEÿ.H
  0000000010003CC0: 8B B3 C8 EF FF FF 48 8B 83 A0 EF FF FF 31 C9 48  .³ÈïÿÿH...ïÿÿ1ÉH
  0000000010003CD0: 83 C1 F5 FF D0 48 8D 55 FE 41 B8 02 00 00 00 4C  .Á?ÿ?H.U?A¸....L
  0000000010003CE0: 8D 4D E8 31 C9 48 89 4C 24 20 48 8B C8 FF D6 48  .Mè1ÉH.L$ H.ÈÿÖH
  0000000010003CF0: 89 45 F0 48 8B 5D D0 48 8B 75 D8 C9 C3 90 90 90  .E?H.]?H.uØÉ?...
  0000000010003D00: 55 48 8B EC 48 81 EC D0 00 00 00 48 89 9D 50 FF  UH.?H.??...H..Pÿ
  0000000010003D10: FF FF 48 89 B5 58 FF FF FF 48 89 BD 60 FF FF FF  ÿÿH.µXÿÿÿH.½`ÿÿÿ
  0000000010003D20: 48 8D 1D D9 F2 FF FF 48 89 4D 10 48 8B 45 10 48  H..Ù?ÿÿH.M.H.E.H
  0000000010003D30: B9 00 00 00 00 00 00 00 80 48 3B C1 0F 84 1F 02  ¹........H;Á....
  0000000010003D40: 00 00 31 C0 48 89 85 70 FF FF FF 31 C0 48 89 85  ..1ÀH..pÿÿÿ1ÀH..
  0000000010003D50: 68 FF FF FF 48 83 7D 10 00 7D 11 C6 45 FF 01 48  hÿÿÿH.}..}.ÆEÿ.H
  0000000010003D60: 8B 45 10 48 F7 D8 48 89 45 10 EB 05 31 C0 88 45  .E.H÷ØH.E.ë.1À.E
  0000000010003D70: FF 48 8D 4D BE 48 8B 85 70 FF FF FF 48 83 F8 20  ÿH.M¾H..pÿÿÿH.ø 
  0000000010003D80: 73 02 EB 08 B0 01 B9 D4 28 00 00 CC 48 C1 E0 01  s.ë.°.¹Ô(..?HÁà.
  0000000010003D90: 48 03 C8 48 8B 45 10 41 B8 0A 00 00 00 48 99 49  H.ÈH.E.A¸....H.I
  0000000010003DA0: F7 F8 48 85 D2 7C 02 EB 03 49 03 D0 48 83 C2 30  ÷øH.?|.ë.I.?H.Â0
  0000000010003DB0: 0F B7 D2 66 89 11 48 FF 85 70 FF FF FF 48 8B 45  .·?f..Hÿ.pÿÿÿH.E
  0000000010003DC0: 10 B9 0A 00 00 00 48 99 48 F7 F9 48 85 D2 7C 02  .¹....H.H÷ùH.?|.
  0000000010003DD0: EB 04 48 83 E8 01 48 89 45 10 48 83 7D 10 00 75  ë.H.è.H.E.H.}..u
  0000000010003DE0: 90 0F B6 45 FF 85 C0 0F 85 B3 00 00 00 48 8B 85  ..¶Eÿ.À..³...H..
  0000000010003DF0: 68 FF FF FF 48 8B 8D 70 FF FF FF 48 3B C1 7D 71  hÿÿÿH..pÿÿÿH;Á}q
  0000000010003E00: 48 83 BD 68 FF FF FF 20 7D 67 48 8D 85 7E FF FF  H.½hÿÿÿ }gH..~ÿÿ
  0000000010003E10: FF 48 8B 8D 68 FF FF FF 48 83 F9 20 73 02 EB 08  ÿH..hÿÿÿH.ù s.ë.
  0000000010003E20: B0 01 B9 5B 29 00 00 CC 48 C1 E1 01 48 03 C1 48  °.¹[)..?HÁá.H.ÁH
  0000000010003E30: 8D 4D BE 48 8B 95 70 FF FF FF 48 83 EA 01 4C 8B  .M¾H..pÿÿÿH.ê.L.
  0000000010003E40: 85 68 FF FF FF 49 2B D0 48 83 FA 20 73 02 EB 08  .hÿÿÿI+?H.ú s.ë.
  0000000010003E50: B0 01 B9 65 29 00 00 CC 48 C1 E2 01 48 03 CA 0F  °.¹e)..?HÁâ.H.Ê.
  0000000010003E60: B7 09 66 89 08 48 FF 85 68 FF FF FF E9 7C FF FF  ·.f..Hÿ.hÿÿÿé|ÿÿ
  0000000010003E70: FF 48 8D 85 7E FF FF FF 48 8B 8D 68 FF FF FF 48  ÿH..~ÿÿÿH..hÿÿÿH
  0000000010003E80: 83 F9 20 73 02 EB 08 B0 01 B9 83 29 00 00 CC 48  .ù s.ë.°.¹.)..?H
  0000000010003E90: C1 E1 01 48 03 C1 31 C9 66 89 08 E9 BF 00 00 00  Áá.H.Á1Éf..é¿...
  0000000010003EA0: 66 C7 85 7E FF FF FF 2D 00 48 8B 85 68 FF FF FF  fÇ.~ÿÿÿ-.H..hÿÿÿ
  0000000010003EB0: 48 8B 8D 70 FF FF FF 48 3B C1 7D 75 48 83 BD 68  H..pÿÿÿH;Á}uH.½h
  0000000010003EC0: FF FF FF 1F 7D 6B 48 8D 85 7E FF FF FF 48 8B 8D  ÿÿÿ.}kH..~ÿÿÿH..
  0000000010003ED0: 68 FF FF FF 48 83 C1 01 48 83 F9 20 73 02 EB 08  hÿÿÿH.Á.H.ù s.ë.
  0000000010003EE0: B0 01 B9 D6 29 00 00 CC 48 C1 E1 01 48 03 C1 48  °.¹Ö)..?HÁá.H.ÁH
  0000000010003EF0: 8D 4D BE 48 8B 95 70 FF FF FF 48 83 EA 01 4C 8B  .M¾H..pÿÿÿH.ê.L.
  0000000010003F00: 85 68 FF FF FF 49 2B D0 48 83 FA 20 73 02 EB 08  .hÿÿÿI+?H.ú s.ë.
  0000000010003F10: B0 01 B9 E0 29 00 00 CC 48 C1 E2 01 48 03 CA 0F  °.¹à)..?HÁâ.H.Ê.
  0000000010003F20: B7 09 66 89 08 48 FF 85 68 FF FF FF E9 78 FF FF  ·.f..Hÿ.hÿÿÿéxÿÿ
  0000000010003F30: FF 48 8D 85 7E FF FF FF 48 8B 8D 68 FF FF FF 48  ÿH..~ÿÿÿH..hÿÿÿH
  0000000010003F40: 83 C1 01 48 83 F9 20 73 02 EB 08 B0 01 B9 00 2A  .Á.H.ù s.ë.°.¹.*
  0000000010003F50: 00 00 CC 48 C1 E1 01 48 03 C1 31 C9 66 89 08 EB  ..?HÁá.H.Á1Éf..ë
  0000000010003F60: 16 48 8D BD 7E FF FF FF 48 8D B3 00 FD FF FF B9  .H.½~ÿÿÿH.³.?ÿÿ¹
  0000000010003F70: 15 00 00 00 F3 66 A5 48 8D 8D 7E FF FF FF BA 20  ....óf¥H..~ÿÿÿº 
  0000000010003F80: 00 00 00 E8 B8 FB FF FF 48 8B 9D 50 FF FF FF 48  ...è¸ûÿÿH..PÿÿÿH
  0000000010003F90: 8B B5 58 FF FF FF 48 8B BD 60 FF FF FF C9 C3 90  .µXÿÿÿH.½`ÿÿÿÉ?.
  0000000010003FA0: 55 48 8B EC 48 83 EC 30 48 89 5D F0 48 8D 1D 4D  UH.?H.?0H.]?H..M
  0000000010003FB0: F0 FF FF 48 8B 83 B8 EF FF FF FF D0 48 8B 5D F0  ?ÿÿH..¸ïÿÿÿ?H.]?
  0000000010003FC0: C9 C3 90 90 90 90 90 90 90 90 90 90 90 90 90 90  É?..............
  0000000010003FD0: 55 48 8B EC 48 83 EC 50 48 89 5D D0 48 8D 1D 1D  UH.?H.?PH.]?H...
  0000000010003FE0: F0 FF FF 48 89 4D 10 48 89 55 18 4C 89 45 20 4C  ?ÿÿH.M.H.U.L.E L
  0000000010003FF0: 89 4D 28 48 8B 83 B0 EF FF FF FF D0 48 89 45 E8  .M(H..°ïÿÿÿ?H.Eè
  0000000010004000: 31 C0 48 89 45 F8 48 83 7D 28 00 7E 6E 48 8B 45  1ÀH.EøH.}(.~nH.E
  0000000010004010: E8 66 8B 00 66 89 45 E6 66 83 7D E6 20 74 20 66  èf..f.Eæf.}æ t f
  0000000010004020: 83 7D E6 00 74 19 48 8B 45 E8 48 83 C0 02 48 89  .}æ.t.H.EèH.À.H.
  0000000010004030: 45 E8 48 8B 45 E8 66 8B 00 66 89 45 E6 EB D9 66  EèH.Eèf..f.EæëÙf
  0000000010004040: 83 7D E6 00 75 08 31 C0 48 89 45 28 EB 2B 66 83  .}æ.u.1ÀH.E(ë+f.
  0000000010004050: 7D E6 20 75 24 48 FF 4D 28 66 83 7D E6 20 75 19  }æ u$HÿM(f.}æ u.
  0000000010004060: 48 8B 45 E8 48 83 C0 02 48 89 45 E8 48 8B 45 E8  H.EèH.À.H.EèH.Eè
  0000000010004070: 66 8B 00 66 89 45 E6 EB E0 EB 8B 31 C0 48 89 45  f..f.Eæëàë.1ÀH.E
  0000000010004080: F0 31 C0 48 8B 4D 20 48 89 01 66 83 7D E6 20 74  ?1ÀH.M H..f.}æ t
  0000000010004090: 5E 66 83 7D E6 00 74 57 48 8B 45 F0 48 8B 4D 18  ^f.}æ.tWH.E?H.M.
  00000000100040A0: 48 3B C1 7D 26 48 8B 45 10 48 8B 4D F0 48 3B 4D  H;Á}&H.E.H.M?H;M
  00000000100040B0: 18 73 02 EB 08 B0 01 B9 81 2D 00 00 CC 48 C1 E1  .s.ë.°.¹.-..?HÁá
  00000000100040C0: 01 48 03 C1 0F B7 4D E6 66 89 08 48 FF 45 F0 48  .H.Á.·Mæf..HÿE?H
  00000000100040D0: 8B 45 20 48 FF 00 48 8B 45 E8 48 83 C0 02 48 89  .E Hÿ.H.EèH.À.H.
  00000000100040E0: 45 E8 48 8B 45 E8 66 8B 00 66 89 45 E6 EB 9B 48  EèH.Eèf..f.Eæë.H
  00000000100040F0: 8B 45 F0 48 8B 4D 18 48 3B C1 7D 24 48 8B 45 10  .E?H.M.H;Á}$H.E.
  0000000010004100: 48 8B 4D F0 48 3B 4D 18 73 02 EB 08 B0 01 B9 F4  H.M?H;M.s.ë.°.¹ô
  0000000010004110: 2D 00 00 CC 48 C1 E1 01 48 03 C1 31 C9 66 89 08  -..?HÁá.H.Á1Éf..
  0000000010004120: 48 8B 5D D0 C9 C3 90 90 90 90 90 90 90 90 90 90  H.]?É?..........
  0000000010004130: 55 48 8B EC 48 83 EC 40 48 89 5D E0 48 89 75 E8  UH.?H.?@H.]àH.uè
  0000000010004140: 48 8D 1D B9 EE FF FF 48 89 4D 10 48 8B 4B C0 BA  H..¹îÿÿH.M.H.KÀº
  0000000010004150: 08 00 00 00 41 B8 28 00 00 00 FF 53 E8 48 83 C0  ....A¸(...ÿSèH.À
  0000000010004160: 10 48 8D 8B 20 FC FF FF 48 89 48 F8 48 8B 4D 10  .H.. üÿÿH.HøH.M.
  0000000010004170: 48 89 01 48 8B 83 98 EF FF FF FF D0 48 89 45 F8  H..H...ïÿÿÿ?H.Eø
  0000000010004180: 48 8B 75 10 48 8B 36 48 8B 83 90 EF FF FF 48 8B  H.u.H.6H...ïÿÿH.
  0000000010004190: 4D F8 31 D2 41 B8 80 00 00 00 FF D0 48 89 06 48  Mø1?A¸....ÿ?H..H
  00000000100041A0: 8B 45 10 48 8B 00 48 C7 40 10 80 00 00 00 48 8B  .E.H..HÇ@.....H.
  00000000100041B0: 45 10 48 8B 00 31 C9 48 89 48 08 48 8B 5D E0 48  E.H..1ÉH.H.H.]àH
  00000000100041C0: 8B 75 E8 C9 C3 90 90 90 90 90 90 90 90 90 90 90  .uèÉ?...........
  00000000100041D0: 55 48 8B EC 48 83 EC 40 48 89 5D E0 48 8D 1D 1D  UH.?H.?@H.]àH...
  00000000100041E0: EE FF FF 48 89 4D 10 48 8B 83 98 EF FF FF FF D0  îÿÿH.M.H...ïÿÿÿ?
  00000000100041F0: 48 89 45 F8 48 8B 83 88 EF FF FF 48 8B 4D F8 31  H.EøH...ïÿÿH.Mø1
  0000000010004200: D2 4C 8B 45 10 4D 8B 00 FF D0 48 89 45 F0 48 8B  ?L.E.M..ÿ?H.E?H.
  0000000010004210: 45 10 31 C9 48 89 08 48 8B 45 10 31 C9 48 89 48  E.1ÉH..H.E.1ÉH.H
  0000000010004220: 10 48 8B 45 10 31 C9 48 89 48 08 48 8B 5D E0 C9  .H.E.1ÉH.H.H.]àÉ
  0000000010004230: C3 90 90 90 90 90 90 90 90 90 90 90 90 90 90 90  ?...............
  0000000010004240: 55 48 8B EC 48 83 EC 30 48 89 75 F0 48 89 4D 10  UH.?H.?0H.u?H.M.
  0000000010004250: 48 89 55 18 48 8B 45 18 48 8B 4D 18 48 F7 D9 48  H.U.H.E.H.M.H÷ÙH
  0000000010004260: 83 E1 7F 48 03 C1 48 89 45 18 48 8B 83 98 EF FF  .á.H.ÁH.E.H...ïÿ
  0000000010004270: FF FF D0 48 89 45 F8 48 8B 45 10 48 8B 48 10 48  ÿÿ?H.EøH.E.H.H.H
  0000000010004280: 8B 55 18 48 03 CA 48 89 48 10 48 8B 75 10 48 8B  .U.H.ÊH.H.H.u.H.
  0000000010004290: 83 80 EF FF FF 48 8B 4D F8 31 D2 4C 8B 45 10 4D  ..ïÿÿH.Mø1?L.E.M
  00000000100042A0: 8B 00 4C 8B 4D 10 4D 8B 49 10 FF D0 48 89 06 48  ..L.M.M.I.ÿ?H..H
  00000000100042B0: 8B 75 F0 C9 C3 90 90 90 90 90 90 90 90 90 90 90  .u?É?...........
  00000000100042C0: 55 48 8B EC 48 83 EC 40 48 89 5D E0 48 89 75 E8  UH.?H.?@H.]àH.uè
  00000000100042D0: 48 89 7D F0 48 8D 1D 25 ED FF FF 48 89 4D 10 48  H.}?H..%íÿÿH.M.H
  00000000100042E0: 89 55 18 48 8B 45 10 48 8B 40 10 48 8B 4D 10 48  .U.H.E.H.@.H.M.H
  00000000100042F0: 8B 49 08 48 8B 55 18 48 8B 52 08 48 03 CA 48 3B  .I.H.U.H.R.H.ÊH;
  0000000010004300: C1 7D 45 48 8B 45 10 48 8B 40 08 48 8B 4D 18 48  Á}EH.E.H.@.H.M.H
  0000000010004310: 8B 49 08 48 03 C1 48 89 45 F8 48 8B 45 F8 48 8B  .I.H.ÁH.EøH.EøH.
  0000000010004320: 4D F8 48 F7 D9 48 83 E1 7F 48 03 C1 48 89 45 F8  MøH÷ÙH.á.H.ÁH.Eø
  0000000010004330: 48 8B 4D 10 48 8B 55 F8 48 8B 45 10 48 8B 40 10  H.M.H.UøH.E.H.@.
  0000000010004340: 48 2B D0 E8 F8 FE FF FF 48 8B 75 18 48 8B 36 48  H+?èø?ÿÿH.u.H.6H
  0000000010004350: 8B 7D 10 48 8B 3F 48 8B 45 10 48 8B 40 08 48 03  .}.H.?H.E.H.@.H.
  0000000010004360: F8 48 8B 4D 18 48 8B 49 08 F3 A4 48 8B 45 10 48  øH.M.H.I.ó¤H.E.H
  0000000010004370: 8B 48 08 48 8B 55 18 48 8B 52 08 48 03 CA 48 89  .H.H.U.H.R.H.ÊH.
  0000000010004380: 48 08 48 8B 4D 18 E8 45 FE FF FF 48 8B 5D E0 48  H.H.M.èE?ÿÿH.]àH
  0000000010004390: 8B 75 E8 48 8B 7D F0 C9 C3 90 90 90 90 90 90 90  .uèH.}?É?.......
  00000000100043A0: 55 48 8B EC 48 83 EC 10 48 89 5D F0 48 8D 1D 4D  UH.?H.?.H.]?H..M
  00000000100043B0: EC FF FF 48 89 4D 10 48 8B 45 10 48 8B 40 08 48  ?ÿÿH.M.H.E.H.@.H
  00000000100043C0: 8B 5D F0 C9 C3 90 90 90 90 90 90 90 90 90 90 90  .]?É?...........
  00000000100043D0: 55 48 8B EC 48 83 EC 10 48 89 5D F0 48 8D 1D 1D  UH.?H.?.H.]?H...
  00000000100043E0: EC FF FF 48 89 4D 10 48 89 55 18 4C 89 45 20 4C  ?ÿÿH.M.H.U.L.E L
  00000000100043F0: 89 4D 28 48 8B 45 20 48 8B 4D 10 48 89 01 31 C0  .M(H.E H.M.H..1À
  0000000010004400: 48 8B 4D 10 88 41 10 48 83 7D 28 00 7C 31 48 8B  H.M..A.H.}(.|1H.
  0000000010004410: 45 28 48 8B 4D 20 48 8B 49 08 48 3B C1 7F 0E 48  E(H.M H.I.H;Á..H
  0000000010004420: 8B 45 28 48 8B 4D 10 48 89 41 08 EB 10 48 8B 45  .E(H.M.H.A.ë.H.E
  0000000010004430: 20 48 8B 40 08 48 8B 4D 10 48 89 41 08 EB 0A 31   H.@.H.M.H.A.ë.1
  0000000010004440: C0 48 8B 4D 10 48 89 41 08 48 8B 5D F0 C9 C3 90  ÀH.M.H.A.H.]?É?.
  0000000010004450: 55 48 8B EC 48 83 EC 30 48 89 5D F0 48 8D 1D 9D  UH.?H.?0H.]?H...
  0000000010004460: EB FF FF 48 89 4D 10 48 89 55 18 4C 89 45 20 48  ëÿÿH.M.H.U.L.E H
  0000000010004470: 8B 45 10 48 8B 40 08 48 8B 4D 10 48 8B 09 48 8B  .E.H.@.H.M.H..H.
  0000000010004480: 49 08 48 3B C1 7F 75 48 8B 45 10 48 8B 40 08 48  I.H;Á.uH.E.H.@.H
  0000000010004490: 83 C0 01 48 8B 4D 10 48 8B 09 48 8B 49 10 48 3B  .À.H.M.H..H.I.H;
  00000000100044A0: C1 7E 11 48 8B 4D 10 48 8B 09 BA 80 00 00 00 E8  Á~.H.M.H..º....è
  00000000100044B0: 8C FD FF FF 48 8B 45 10 48 8B 00 48 8B 00 48 8B  .?ÿÿH.E.H..H..H.
  00000000100044C0: 4D 10 48 8B 49 08 48 03 C1 0F B6 4D 20 88 08 48  M.H.I.H.Á.¶M ..H
  00000000100044D0: 8B 45 10 48 FF 40 08 48 8B 45 10 48 8B 40 08 48  .E.Hÿ@.H.E.H.@.H
  00000000100044E0: 8B 4D 10 48 8B 09 48 8B 49 08 48 3B C1 7E 0B 48  .M.H..H.I.H;Á~.H
  00000000100044F0: 8B 45 10 48 8B 00 48 FF 40 08 EB 08 48 8B 45 10  .E.H..Hÿ@.ë.H.E.
  0000000010004500: C6 40 10 01 48 8B 5D F0 C9 C3 90 90 90 90 90 90  Æ@..H.]?É?......
  0000000010004510: 55 48 8B EC 48 83 EC 10 48 89 5D F0 48 8D 1D DD  UH.?H.?.H.]?H..?
  0000000010004520: EA FF FF 48 89 4D 10 48 89 55 18 4C 89 45 20 48  êÿÿH.M.H.U.L.E H
  0000000010004530: 8B 45 10 48 8B 40 08 48 8B 4D 10 48 8B 09 48 8B  .E.H.@.H.M.H..H.
  0000000010004540: 49 08 48 3B C1 7D 27 48 8B 45 10 48 8B 00 48 8B  I.H;Á}'H.E.H..H.
  0000000010004550: 00 48 8B 4D 10 48 8B 49 08 48 03 C1 8A 00 48 8B  .H.M.H.I.H.Á..H.
  0000000010004560: 4D 20 88 01 48 8B 45 10 48 FF 40 08 EB 08 48 8B  M ..H.E.Hÿ@.ë.H.
  0000000010004570: 45 10 C6 40 10 01 48 8B 5D F0 C9 C3 90 90 90 90  E.Æ@..H.]?É?....
  0000000010004580: 55 48 8B EC 48 83 EC 30 48 8D 8B F8 EF FF FF 4C  UH.?H.?0H..øïÿÿL
  0000000010004590: 8D 83 C0 FC FF FF 48 8D 83 50 FD FF FF 48 89 44  ..ÀüÿÿH..P?ÿÿH.D
  00000000100045A0: 24 20 B8 13 00 00 00 48 89 44 24 28 41 B9 0D 00  $ ¸....H.D$(A¹..
  00000000100045B0: 00 00 BA 08 00 00 00 E8 44 EA FF FF 48 8D 8B E0  ..º....èDêÿÿH..à
  00000000100045C0: EF FF FF 4C 8D 83 C0 FC FF FF 48 8D 83 80 FD FF  ïÿÿL..ÀüÿÿH...?ÿ
  00000000100045D0: FF 48 89 44 24 20 B8 0C 00 00 00 48 89 44 24 28  ÿH.D$ ¸....H.D$(
  00000000100045E0: 41 B9 0D 00 00 00 BA 08 00 00 00 E8 10 EA FF FF  A¹....º....è.êÿÿ
  00000000100045F0: 48 8D 8B D8 EF FF FF 4C 8D 83 C0 FC FF FF 48 8D  H..ØïÿÿL..ÀüÿÿH.
  0000000010004600: 83 A0 FD FF FF 48 89 44 24 20 B8 0C 00 00 00 48  ..?ÿÿH.D$ ¸....H
  0000000010004610: 89 44 24 28 41 B9 0D 00 00 00 BA 08 00 00 00 E8  .D$(A¹....º....è
  0000000010004620: DC E9 FF FF 48 8D 8B F0 EF FF FF 4C 8D 83 C0 FC  ÜéÿÿH..?ïÿÿL..Àü
  0000000010004630: FF FF 48 8D 83 C0 FD FF FF 48 89 44 24 20 B8 0A  ÿÿH..À?ÿÿH.D$ ¸.
  0000000010004640: 00 00 00 48 89 44 24 28 41 B9 0D 00 00 00 BA 08  ...H.D$(A¹....º.
  0000000010004650: 00 00 00 E8 A8 E9 FF FF 48 8D 8B E8 EF FF FF 4C  ...è¨éÿÿH..èïÿÿL
  0000000010004660: 8D 83 C0 FC FF FF 48 8D 83 E0 FD FF FF 48 89 44  ..ÀüÿÿH..à?ÿÿH.D
  0000000010004670: 24 20 B8 0C 00 00 00 48 89 44 24 28 41 B9 0D 00  $ ¸....H.D$(A¹..
  0000000010004680: 00 00 BA 08 00 00 00 E8 74 E9 FF FF 48 8D 8B D0  ..º....ètéÿÿH..?
  0000000010004690: EF FF FF 4C 8D 83 C0 FC FF FF 48 8D 83 00 FE FF  ïÿÿL..ÀüÿÿH...?ÿ
  00000000100046A0: FF 48 89 44 24 20 B8 09 00 00 00 48 89 44 24 28  ÿH.D$ ¸....H.D$(
  00000000100046B0: 41 B9 0D 00 00 00 BA 08 00 00 00 E8 40 E9 FF FF  A¹....º....è@éÿÿ
  00000000100046C0: 48 8D 8B C8 EF FF FF 4C 8D 83 C0 FC FF FF 48 8D  H..ÈïÿÿL..ÀüÿÿH.
  00000000100046D0: 83 20 FE FF FF 48 89 44 24 20 B8 0A 00 00 00 48  . ?ÿÿH.D$ ¸....H
  00000000100046E0: 89 44 24 28 41 B9 0D 00 00 00 BA 08 00 00 00 E8  .D$(A¹....º....è
  00000000100046F0: 0C E9 FF FF 48 8D 8B C0 EF FF FF 4C 8D 83 C0 FC  .éÿÿH..ÀïÿÿL..Àü
  0000000010004700: FF FF 48 8D 83 40 FE FF FF 48 89 44 24 20 B8 11  ÿÿH..@?ÿÿH.D$ ¸.
  0000000010004710: 00 00 00 48 89 44 24 28 41 B9 0D 00 00 00 BA 08  ...H.D$(A¹....º.
  0000000010004720: 00 00 00 E8 D8 E8 FF FF 48 8D 8B B8 EF FF FF 4C  ...èØèÿÿH..¸ïÿÿL
  0000000010004730: 8D 83 C0 FC FF FF 48 8D 83 70 FE FF FF 48 89 44  ..ÀüÿÿH..p?ÿÿH.D
  0000000010004740: 24 20 B8 0D 00 00 00 48 89 44 24 28 41 B9 0D 00  $ ¸....H.D$(A¹..
  0000000010004750: 00 00 BA 08 00 00 00 E8 A4 E8 FF FF 48 8D 8B B0  ..º....è¤èÿÿH..°
  0000000010004760: EF FF FF 4C 8D 83 C0 FC FF FF 48 8D 83 90 FE FF  ïÿÿL..ÀüÿÿH...?ÿ
  0000000010004770: FF 48 89 44 24 20 B8 10 00 00 00 48 89 44 24 28  ÿH.D$ ¸....H.D$(
  0000000010004780: 41 B9 0D 00 00 00 BA 08 00 00 00 E8 70 E8 FF FF  A¹....º....èpèÿÿ
  0000000010004790: 48 8D 8B A8 EF FF FF 4C 8D 83 C0 FC FF FF 48 8D  H..¨ïÿÿL..ÀüÿÿH.
  00000000100047A0: 83 B0 FE FF FF 48 89 44 24 20 B8 14 00 00 00 48  .°?ÿÿH.D$ ¸....H
  00000000100047B0: 89 44 24 28 41 B9 0D 00 00 00 BA 08 00 00 00 E8  .D$(A¹....º....è
  00000000100047C0: 3C E8 FF FF 48 8D 8B A0 EF FF FF 4C 8D 83 C0 FC  <èÿÿH...ïÿÿL..Àü
  00000000100047D0: FF FF 48 8D 83 E0 FE FF FF 48 89 44 24 20 B8 0D  ÿÿH..à?ÿÿH.D$ ¸.
  00000000100047E0: 00 00 00 48 89 44 24 28 41 B9 0D 00 00 00 BA 08  ...H.D$(A¹....º.
  00000000100047F0: 00 00 00 E8 08 E8 FF FF 48 8D 8B 98 EF FF FF 4C  ...è.èÿÿH...ïÿÿL
  0000000010004800: 8D 83 C0 FC FF FF 48 8D 83 00 FF FF FF 48 89 44  ..ÀüÿÿH...ÿÿÿH.D
  0000000010004810: 24 20 B8 0F 00 00 00 48 89 44 24 28 41 B9 0D 00  $ ¸....H.D$(A¹..
  0000000010004820: 00 00 BA 08 00 00 00 E8 D4 E7 FF FF 48 8D 8B 90  ..º....èÔçÿÿH...
  0000000010004830: EF FF FF 4C 8D 83 C0 FC FF FF 48 8D 83 20 FF FF  ïÿÿL..ÀüÿÿH.. ÿÿ
  0000000010004840: FF 48 89 44 24 20 B8 0A 00 00 00 48 89 44 24 28  ÿH.D$ ¸....H.D$(
  0000000010004850: 41 B9 0D 00 00 00 BA 08 00 00 00 E8 A0 E7 FF FF  A¹....º....è.çÿÿ
  0000000010004860: 48 8D 8B 88 EF FF FF 4C 8D 83 C0 FC FF FF 48 8D  H...ïÿÿL..ÀüÿÿH.
  0000000010004870: 83 40 FF FF FF 48 89 44 24 20 B8 09 00 00 00 48  .@ÿÿÿH.D$ ¸....H
  0000000010004880: 89 44 24 28 41 B9 0D 00 00 00 BA 08 00 00 00 E8  .D$(A¹....º....è
  0000000010004890: 6C E7 FF FF 48 8D 8B 80 EF FF FF 4C 8D 83 C0 FC  lçÿÿH...ïÿÿL..Àü
  00000000100048A0: FF FF 48 8D 83 60 FF FF FF 48 89 44 24 20 B8 0C  ÿÿH..`ÿÿÿH.D$ ¸.
  00000000100048B0: 00 00 00 48 89 44 24 28 41 B9 0D 00 00 00 BA 08  ...H.D$(A¹....º.
  00000000100048C0: 00 00 00 E8 38 E7 FF FF C9 C3 90 90 90 90 90 90  ...è8çÿÿÉ?......
  00000000100048D0: 55 48 8B EC 48 83 EC 20 E8 A3 FC FF FF C9 C3 90  UH.?H.? è£üÿÿÉ?.
  00000000100048E0: 83 FA 01 74 01 C3 56 57 53 48 83 EC 20 48 8D 1D  .ú.t.?VWSH.? H..
  00000000100048F0: 0C E7 FF FF FF 53 E0 48 89 43 C0 48 C7 83 70 FC  .çÿÿÿSàH.CÀHÇ.pü
  0000000010004900: FF FF 11 00 00 00 48 C7 83 20 FC FF FF 18 00 00  ÿÿ....HÇ. üÿÿ...
  0000000010004910: 00 48 C7 83 D0 FB FF FF 08 00 00 00 E8 AF FF FF  .HÇ.?ûÿÿ....è¯ÿÿ
  0000000010004920: FF B8 01 00 00 00 48 83 C4 20 5B 5F 5E C3        ÿ¸....H.Ä [_^?

SECTION HEADER #4
  .idata name
     130 virtual size
    5000 virtual address (0000000010005000 to 000000001000512F)
     200 size of raw data
    1E00 file pointer to raw data (00001E00 to 00001FFF)
       0 file pointer to relocation table
       0 file pointer to line numbers
       0 number of relocations
       0 number of line numbers
C0000040 flags
         Initialized Data
         Read Write

RAW DATA #4
  0000000010005000: 28 50 00 00 00 00 00 00 00 00 00 00 60 50 00 00  (P..........`P..
  0000000010005010: C8 2F 00 00 00 00 00 00 00 00 00 00 00 00 00 00  È/..............
  0000000010005020: 00 00 00 00 00 00 00 00 70 50 00 00 00 00 00 00  ........pP......
  0000000010005030: 90 50 00 00 00 00 00 00 B0 50 00 00 00 00 00 00  .P......°P......
  0000000010005040: D0 50 00 00 00 00 00 00 F0 50 00 00 00 00 00 00  ?P......?P......
  0000000010005050: 10 51 00 00 00 00 00 00 00 00 00 00 00 00 00 00  .Q..............
  0000000010005060: 4B 45 52 4E 45 4C 33 32 2E 44 4C 4C 00 00 00 00  KERNEL32.DLL....
  0000000010005070: 00 00 45 78 69 74 50 72 6F 63 65 73 73 00 00 00  ..ExitProcess...
  0000000010005080: 00 00 00 00 00 00 00 00 00 00 00 00 00 00 00 00  ................
  0000000010005090: 00 00 4C 6F 61 64 4C 69 62 72 61 72 79 57 00 00  ..LoadLibraryW..
  00000000100050A0: 00 00 00 00 00 00 00 00 00 00 00 00 00 00 00 00  ................
  00000000100050B0: 00 00 47 65 74 50 72 6F 63 41 64 64 72 65 73 73  ..GetProcAddress
  00000000100050C0: 00 00 00 00 00 00 00 00 00 00 00 00 00 00 00 00  ................
  00000000100050D0: 00 00 47 65 74 50 72 6F 63 65 73 73 48 65 61 70  ..GetProcessHeap
  00000000100050E0: 00 00 00 00 00 00 00 00 00 00 00 00 00 00 00 00  ................
  00000000100050F0: 00 00 48 65 61 70 41 6C 6C 6F 63 00 00 00 00 00  ..HeapAlloc.....
  0000000010005100: 00 00 00 00 00 00 00 00 00 00 00 00 00 00 00 00  ................
  0000000010005110: 00 00 48 65 61 70 46 72 65 65 00 00 00 00 00 00  ..HeapFree......
  0000000010005120: 00 00 00 00 00 00 00 00 00 00 00 00 00 00 00 00  ................

  Section contains the following imports:

    KERNEL32.DLL
              10002FC8 Import Address Table
              10005028 Import Name Table
                     0 time date stamp
                     0 Index of first forwarder reference

                           0 ExitProcess
                           0 LoadLibraryW
                           0 GetProcAddress
                           0 GetProcessHeap
                           0 HeapAlloc
                           0 HeapFree

SECTION HEADER #5
  .reloc name
       C virtual size
    6000 virtual address (0000000010006000 to 000000001000600B)
     200 size of raw data
    3000 file pointer to raw data (00003000 to 000031FF)
       0 file pointer to relocation table
       0 file pointer to line numbers
       0 number of relocations
       0 number of line numbers
42000040 flags
         Initialized Data
         Discardable
         Read Only

RAW DATA #5
  0000000010006000: 04 00 00 00 0C 00 00 00 00 00 00 00              ............

BASE RELOCATIONS #5
       4 RVA,        C SizeOfBlock
       0  ABS                        
       0  ABS                        

SECTION HEADER #6
  .edata name
      D0 virtual size
    7000 virtual address (0000000010007000 to 00000000100070CF)
     200 size of raw data
    3200 file pointer to raw data (00003200 to 000033FF)
       0 file pointer to relocation table
       0 file pointer to line numbers
       0 number of relocations
       0 number of line numbers
40000040 flags
         Initialized Data
         Read Only

RAW DATA #6
  0000000010007000: 00 00 00 00 00 00 00 00 00 00 00 00 C4 70 00 00  ............Äp..
  0000000010007010: 01 00 00 00 27 00 00 00 00 00 00 00 28 70 00 00  ....'.......(p..
  0000000010007020: 00 00 00 00 00 00 00 00 D0 2B 00 00 20 2C 00 00  ........?+.. ,..
  0000000010007030: 70 2C 00 00 40 31 00 00 90 31 00 00 00 32 00 00  p,..@1...1...2..
  0000000010007040: 70 32 00 00 B0 32 00 00 F0 32 00 00 30 33 00 00  p2..°2..?2..03..
  0000000010007050: B0 33 00 00 40 34 00 00 D0 34 00 00 60 35 00 00  °3..@4..?4..`5..
  0000000010007060: C0 35 00 00 30 36 00 00 80 36 00 00 D0 36 00 00  À5..06...6..?6..
  0000000010007070: 60 37 00 00 F0 37 00 00 40 38 00 00 90 38 00 00  `7..?7..@8...8..
  0000000010007080: 00 39 00 00 70 39 00 00 C0 39 00 00 10 3A 00 00  .9..p9..À9...:..
  0000000010007090: 60 3A 00 00 40 3B 00 00 A0 3C 00 00 00 3D 00 00  `:..@;...<...=..
  00000000100070A0: A0 3F 00 00 D0 3F 00 00 30 41 00 00 D0 41 00 00  .?..??..0A..?A..
  00000000100070B0: C0 42 00 00 A0 43 00 00 D0 43 00 00 50 44 00 00  ÀB...C..?C..PD..
  00000000100070C0: 10 45 00 00 42 61 73 65 53 79 73 2E 64 6C 6C 00  .E..BaseSys.dll.

  Section contains the following exports for BaseSys.dll

    00000000 characteristics
           0 time date stamp
        0.00 version
           1 ordinal base
          39 number of functions
           0 number of names

    ordinal hint RVA      name

          1      00002BD0 [NONAME]
          2      00002C20 [NONAME]
          3      00002C70 [NONAME]
          4      00003140 [NONAME]
          5      00003190 [NONAME]
          6      00003200 [NONAME]
          7      00003270 [NONAME]
          8      000032B0 [NONAME]
          9      000032F0 [NONAME]
         10      00003330 [NONAME]
         11      000033B0 [NONAME]
         12      00003440 [NONAME]
         13      000034D0 [NONAME]
         14      00003560 [NONAME]
         15      000035C0 [NONAME]
         16      00003630 [NONAME]
         17      00003680 [NONAME]
         18      000036D0 [NONAME]
         19      00003760 [NONAME]
         20      000037F0 [NONAME]
         21      00003840 [NONAME]
         22      00003890 [NONAME]
         23      00003900 [NONAME]
         24      00003970 [NONAME]
         25      000039C0 [NONAME]
         26      00003A10 [NONAME]
         27      00003A60 [NONAME]
         28      00003B40 [NONAME]
         29      00003CA0 [NONAME]
         30      00003D00 [NONAME]
         31      00003FA0 [NONAME]
         32      00003FD0 [NONAME]
         33      00004130 [NONAME]
         34      000041D0 [NONAME]
         35      000042C0 [NONAME]
         36      000043A0 [NONAME]
         37      000043D0 [NONAME]
         38      00004450 [NONAME]
         39      00004510 [NONAME]

  Summary

        1000 .bss
        1000 .data
        1000 .edata
        1000 .idata
        1000 .reloc
        2000 .text
