Microsoft (R) COFF/PE Dumper Version 14.00.24215.1
Copyright (C) Microsoft Corporation.  All rights reserved.


Dump of file Base1.dll

PE signature found

File Type: DLL

FILE HEADER VALUES
            8664 machine (x64)
               6 number of sections
               0 time date stamp
               0 file pointer to symbol table
               0 number of symbols
              F0 size of optional header
            2022 characteristics
                   Executable
                   Application can handle large (>2GB) addresses
                   DLL

OPTIONAL HEADER VALUES
             20B magic # (PE32+)
            0.00 linker version
            4000 size of code
            1600 size of initialized data
          203000 size of uninitialized data
          208B40 entry point (0000000010208B40)
          205000 base of code
        10000000 image base (0000000010000000 to 000000001020BFFF)
            1000 section alignment
             200 file alignment
            5.00 operating system version
            0.00 image version
            5.00 subsystem version
               0 Win32 version
          20C000 size of image
             400 size of headers
               0 checksum
               2 subsystem (Windows GUI)
             140 DLL characteristics
                   Dynamic base
                   NX compatible
            1000 size of stack reserve
            1000 size of stack commit
           10000 size of heap reserve
               0 size of heap commit
               0 loader flags
              10 number of directories
          20B000 [     14E] RVA [size] of Export Directory
          209000 [     130] RVA [size] of Import Directory
               0 [       0] RVA [size] of Resource Directory
               0 [       0] RVA [size] of Exception Directory
               0 [       0] RVA [size] of Certificates Directory
          20A000 [       C] RVA [size] of Base Relocation Directory
               0 [       0] RVA [size] of Debug Directory
               0 [       0] RVA [size] of Architecture Directory
               0 [       0] RVA [size] of Global Pointer Directory
               0 [       0] RVA [size] of Thread Storage Directory
               0 [       0] RVA [size] of Load Configuration Directory
               0 [       0] RVA [size] of Bound Import Directory
               0 [       0] RVA [size] of Import Address Table Directory
               0 [       0] RVA [size] of Delay Import Directory
               0 [       0] RVA [size] of COM Descriptor Directory
               0 [       0] RVA [size] of Reserved Directory


SECTION HEADER #1
    .bss name
  203000 virtual size
    1000 virtual address (0000000010001000 to 0000000010203FFF)
       0 size of raw data
       0 file pointer to raw data
       0 file pointer to relocation table
       0 file pointer to line numbers
       0 number of relocations
       0 number of line numbers
C0000080 flags
         Uninitialized Data
         Read Write

SECTION HEADER #2
   .data name
    1000 virtual size
  204000 virtual address (0000000010204000 to 0000000010204FFF)
    1000 size of raw data
    4600 file pointer to raw data (00004600 to 000055FF)
       0 file pointer to relocation table
       0 file pointer to line numbers
       0 number of relocations
       0 number of line numbers
C0000040 flags
         Initialized Data
         Read Write

RAW DATA #2
  0000000010204000: 00 00 00 00 00 00 00 00 00 00 00 00 00 00 00 00  ................
  0000000010204010: 00 00 00 00 00 00 00 00 00 00 00 00 00 00 00 00  ................
  0000000010204020: 00 00 00 00 00 00 00 00 00 00 00 00 00 00 00 00  ................
  0000000010204030: 00 00 00 00 00 00 00 00 00 00 00 00 00 00 00 00  ................
  0000000010204040: 00 00 00 00 00 00 00 00 00 00 00 00 00 00 00 00  ................
  0000000010204050: 00 00 00 00 00 00 00 00 00 00 00 00 00 00 00 00  ................
  0000000010204060: 00 00 00 00 00 00 00 00 00 00 00 00 00 00 00 00  ................
  0000000010204070: 00 00 00 00 00 00 00 00 00 00 00 00 00 00 00 00  ................
  0000000010204080: 00 00 00 00 00 00 00 00 00 00 00 00 00 00 00 00  ................
  0000000010204090: 00 00 00 00 00 00 00 00 00 00 00 00 00 00 00 00  ................
  00000000102040A0: 00 00 00 00 00 00 00 00 00 00 00 00 00 00 00 00  ................
  00000000102040B0: 00 00 00 00 00 00 00 00 00 00 00 00 00 00 00 00  ................
  00000000102040C0: 00 00 00 00 00 00 00 00 00 00 00 00 00 00 00 00  ................
  00000000102040D0: 00 00 00 00 00 00 00 00 00 00 00 00 00 00 00 00  ................
  00000000102040E0: 00 00 00 00 00 00 00 00 00 00 00 00 00 00 00 00  ................
  00000000102040F0: 00 00 00 00 00 00 00 00 00 00 00 00 00 00 00 00  ................
  0000000010204100: 00 00 00 00 00 00 00 00 00 00 00 00 00 00 00 00  ................
  0000000010204110: 00 00 00 00 00 00 00 00 00 00 00 00 00 00 00 00  ................
  0000000010204120: 00 00 00 00 00 00 00 00 00 00 00 00 00 00 00 00  ................
  0000000010204130: 00 00 00 00 00 00 00 00 00 00 00 00 00 00 00 00  ................
  0000000010204140: 00 00 00 00 00 00 00 00 00 00 00 00 00 00 00 00  ................
  0000000010204150: 00 00 00 00 00 00 00 00 00 00 00 00 00 00 00 00  ................
  0000000010204160: 00 00 00 00 00 00 00 00 00 00 00 00 00 00 00 00  ................
  0000000010204170: 00 00 00 00 00 00 00 00 00 00 00 00 00 00 00 00  ................
  0000000010204180: 00 00 00 00 00 00 00 00 00 00 00 00 00 00 00 00  ................
  0000000010204190: 00 00 00 00 00 00 00 00 00 00 00 00 00 00 00 00  ................
  00000000102041A0: 00 00 00 00 00 00 00 00 00 00 00 00 00 00 00 00  ................
  00000000102041B0: 00 00 00 00 00 00 00 00 00 00 00 00 00 00 00 00  ................
  00000000102041C0: 00 00 00 00 00 00 00 00 00 00 00 00 00 00 00 00  ................
  00000000102041D0: 00 00 00 00 00 00 00 00 00 00 00 00 00 00 00 00  ................
  00000000102041E0: 00 00 00 00 00 00 00 00 00 00 00 00 00 00 00 00  ................
  00000000102041F0: 00 00 00 00 00 00 00 00 00 00 00 00 00 00 00 00  ................
  0000000010204200: 00 00 00 00 00 00 00 00 00 00 00 00 00 00 00 00  ................
  0000000010204210: 00 00 00 00 00 00 00 00 00 00 00 00 00 00 00 00  ................
  0000000010204220: 00 00 00 00 00 00 00 00 00 00 00 00 00 00 00 00  ................
  0000000010204230: 00 00 00 00 00 00 00 00 00 00 00 00 00 00 00 00  ................
  0000000010204240: 00 00 00 00 00 00 00 00 00 00 00 00 00 00 00 00  ................
  0000000010204250: 00 00 00 00 00 00 00 00 00 00 00 00 00 00 00 00  ................
  0000000010204260: 00 00 00 00 00 00 00 00 00 00 00 00 00 00 00 00  ................
  0000000010204270: 00 00 00 00 00 00 00 00 00 00 00 00 00 00 00 00  ................
  0000000010204280: 00 00 00 00 00 00 00 00 00 00 00 00 00 00 00 00  ................
  0000000010204290: 00 00 00 00 00 00 00 00 00 00 00 00 00 00 00 00  ................
  00000000102042A0: 00 00 00 00 00 00 00 00 00 00 00 00 00 00 00 00  ................
  00000000102042B0: 00 00 00 00 00 00 00 00 00 00 00 00 00 00 00 00  ................
  00000000102042C0: 00 00 00 00 00 00 00 00 00 00 00 00 00 00 00 00  ................
  00000000102042D0: 00 00 00 00 00 00 00 00 00 00 00 00 00 00 00 00  ................
  00000000102042E0: 00 00 00 00 00 00 00 00 00 00 00 00 00 00 00 00  ................
  00000000102042F0: 00 00 00 00 00 00 00 00 00 00 00 00 00 00 00 00  ................
  0000000010204300: 00 00 00 00 00 00 00 00 00 00 00 00 00 00 00 00  ................
  0000000010204310: 00 00 00 00 00 00 00 00 00 00 00 00 00 00 00 00  ................
  0000000010204320: 00 00 00 00 00 00 00 00 00 00 00 00 00 00 00 00  ................
  0000000010204330: 00 00 00 00 00 00 00 00 00 00 00 00 00 00 00 00  ................
  0000000010204340: 00 00 00 00 00 00 00 00 00 00 00 00 00 00 00 00  ................
  0000000010204350: 00 00 00 00 00 00 00 00 00 00 00 00 00 00 00 00  ................
  0000000010204360: 00 00 00 00 00 00 00 00 00 00 00 00 00 00 00 00  ................
  0000000010204370: 00 00 00 00 00 00 00 00 00 00 00 00 00 00 00 00  ................
  0000000010204380: 00 00 00 00 00 00 00 00 00 00 00 00 00 00 00 00  ................
  0000000010204390: 00 00 00 00 00 00 00 00 00 00 00 00 00 00 00 00  ................
  00000000102043A0: 00 00 00 00 00 00 00 00 00 00 00 00 00 00 00 00  ................
  00000000102043B0: 00 00 00 00 00 00 00 00 00 00 00 00 00 00 00 00  ................
  00000000102043C0: 00 00 00 00 00 00 00 00 00 00 00 00 00 00 00 00  ................
  00000000102043D0: 00 00 00 00 00 00 00 00 00 00 00 00 00 00 00 00  ................
  00000000102043E0: 00 00 00 00 00 00 00 00 00 00 00 00 00 00 00 00  ................
  00000000102043F0: 00 00 00 00 00 00 00 00 00 00 00 00 00 00 00 00  ................
  0000000010204400: 00 00 00 00 00 00 00 00 00 00 00 00 00 00 00 00  ................
  0000000010204410: 00 00 00 00 00 00 00 00 00 00 00 00 00 00 00 00  ................
  0000000010204420: 00 00 00 00 00 00 00 00 00 00 00 00 00 00 00 00  ................
  0000000010204430: 00 00 00 00 00 00 00 00 10 00 00 00 00 00 00 00  ................
  0000000010204440: FF FF FF FF FF FF FF FF 00 00 00 00 00 00 00 00  ÿÿÿÿÿÿÿÿ........
  0000000010204450: 00 00 00 00 00 00 00 00 00 00 00 00 00 00 00 00  ................
  0000000010204460: 00 00 00 00 00 00 00 00 00 00 00 00 00 00 00 00  ................
  0000000010204470: 00 00 00 00 00 00 00 00 00 00 00 00 00 00 00 00  ................
  0000000010204480: 00 00 00 00 00 00 00 00 00 00 00 00 00 00 00 00  ................
  0000000010204490: 08 00 00 00 00 00 00 00 10 00 00 00 00 00 00 00  ................
  00000000102044A0: FF FF FF FF FF FF FF FF 00 00 00 00 00 00 00 00  ÿÿÿÿÿÿÿÿ........
  00000000102044B0: 00 00 00 00 00 00 00 00 00 00 00 00 00 00 00 00  ................
  00000000102044C0: 00 00 00 00 00 00 00 00 00 00 00 00 00 00 00 00  ................
  00000000102044D0: 00 00 00 00 00 00 00 00 00 00 00 00 00 00 00 00  ................
  00000000102044E0: 00 00 00 00 00 00 00 00 00 00 00 00 00 00 00 00  ................
  00000000102044F0: 08 00 00 00 00 00 00 00 10 00 00 00 00 00 00 00  ................
  0000000010204500: FF FF FF FF FF FF FF FF 00 00 00 00 00 00 00 00  ÿÿÿÿÿÿÿÿ........
  0000000010204510: 00 00 00 00 00 00 00 00 00 00 00 00 00 00 00 00  ................
  0000000010204520: 00 00 00 00 00 00 00 00 00 00 00 00 00 00 00 00  ................
  0000000010204530: 00 00 00 00 00 00 00 00 00 00 00 00 00 00 00 00  ................
  0000000010204540: 00 00 00 00 00 00 00 00 00 00 00 00 00 00 00 00  ................
  0000000010204550: 08 00 00 00 00 00 00 00 10 00 00 00 00 00 00 00  ................
  0000000010204560: FF FF FF FF FF FF FF FF 00 00 00 00 00 00 00 00  ÿÿÿÿÿÿÿÿ........
  0000000010204570: 00 00 00 00 00 00 00 00 00 00 00 00 00 00 00 00  ................
  0000000010204580: 00 00 00 00 00 00 00 00 00 00 00 00 00 00 00 00  ................
  0000000010204590: 00 00 00 00 00 00 00 00 00 00 00 00 00 00 00 00  ................
  00000000102045A0: 00 00 00 00 00 00 00 00 00 00 00 00 00 00 00 00  ................
  00000000102045B0: 08 00 00 00 00 00 00 00 10 00 00 00 00 00 00 00  ................
  00000000102045C0: FF FF FF FF FF FF FF FF 00 00 00 00 00 00 00 00  ÿÿÿÿÿÿÿÿ........
  00000000102045D0: 00 00 00 00 00 00 00 00 00 00 00 00 00 00 00 00  ................
  00000000102045E0: 00 00 00 00 00 00 00 00 00 00 00 00 00 00 00 00  ................
  00000000102045F0: 00 00 00 00 00 00 00 00 00 00 00 00 00 00 00 00  ................
  0000000010204600: 00 00 00 00 00 00 00 00 00 00 00 00 00 00 00 00  ................
  0000000010204610: 08 00 00 00 00 00 00 00 10 00 00 00 00 00 00 00  ................
  0000000010204620: FF FF FF FF FF FF FF FF 00 00 00 00 00 00 00 00  ÿÿÿÿÿÿÿÿ........
  0000000010204630: 00 00 00 00 00 00 00 00 00 00 00 00 00 00 00 00  ................
  0000000010204640: 00 00 00 00 00 00 00 00 00 00 00 00 00 00 00 00  ................
  0000000010204650: 00 00 00 00 00 00 00 00 00 00 00 00 00 00 00 00  ................
  0000000010204660: 00 00 00 00 00 00 00 00 00 00 00 00 00 00 00 00  ................
  0000000010204670: 08 00 00 00 00 00 00 00 10 00 00 00 00 00 00 00  ................
  0000000010204680: 48 00 00 00 00 00 00 00 50 00 00 00 00 00 00 00  H.......P.......
  0000000010204690: 58 00 00 00 00 00 00 00 FF FF FF FF FF FF FF FF  X.......ÿÿÿÿÿÿÿÿ
  00000000102046A0: 00 00 00 00 00 00 00 00 00 00 00 00 00 00 00 00  ................
  00000000102046B0: 00 00 00 00 00 00 00 00 00 00 00 00 00 00 00 00  ................
  00000000102046C0: 00 00 00 00 00 00 00 00 00 00 00 00 00 00 00 00  ................
  00000000102046D0: 00 00 00 00 00 00 00 00 00 00 00 00 00 00 00 00  ................
  00000000102046E0: 08 00 00 00 00 00 00 00 10 00 00 00 00 00 00 00  ................
  00000000102046F0: FF FF FF FF FF FF FF FF 00 00 00 00 00 00 00 00  ÿÿÿÿÿÿÿÿ........
  0000000010204700: 00 00 00 00 00 00 00 00 00 00 00 00 00 00 00 00  ................
  0000000010204710: 00 00 00 00 00 00 00 00 00 00 00 00 00 00 00 00  ................
  0000000010204720: 00 00 00 00 00 00 00 00 00 00 00 00 00 00 00 00  ................
  0000000010204730: 00 00 00 00 00 00 00 00 00 00 00 00 00 00 00 00  ................
  0000000010204740: 08 00 00 00 00 00 00 00 10 00 00 00 00 00 00 00  ................
  0000000010204750: C8 02 00 00 00 00 00 00 D0 02 00 00 00 00 00 00  È.......?.......
  0000000010204760: D8 02 00 00 00 00 00 00 FF FF FF FF FF FF FF FF  Ø.......ÿÿÿÿÿÿÿÿ
  0000000010204770: 00 00 00 00 00 00 00 00 00 00 00 00 00 00 00 00  ................
  0000000010204780: 00 00 00 00 00 00 00 00 00 00 00 00 00 00 00 00  ................
  0000000010204790: 00 00 00 00 00 00 00 00 00 00 00 00 00 00 00 00  ................
  00000000102047A0: 00 00 00 00 00 00 00 00 00 00 00 00 00 00 00 00  ................
  00000000102047B0: 08 00 00 00 00 00 00 00 10 00 00 00 00 00 00 00  ................
  00000000102047C0: FF FF FF FF FF FF FF FF 00 00 00 00 00 00 00 00  ÿÿÿÿÿÿÿÿ........
  00000000102047D0: 00 00 00 00 00 00 00 00 00 00 00 00 00 00 00 00  ................
  00000000102047E0: 00 00 00 00 00 00 00 00 00 00 00 00 00 00 00 00  ................
  00000000102047F0: 00 00 00 00 00 00 00 00 00 00 00 00 00 00 00 00  ................
  0000000010204800: 00 00 00 00 00 00 00 00 00 00 00 00 00 00 00 00  ................
  0000000010204810: 88 00 00 00 00 00 00 00 90 00 00 00 00 00 00 00  ................
  0000000010204820: FF FF FF FF FF FF FF FF 00 00 00 00 00 00 00 00  ÿÿÿÿÿÿÿÿ........
  0000000010204830: 00 00 00 00 00 00 00 00 00 00 00 00 00 00 00 00  ................
  0000000010204840: 00 00 00 00 00 00 00 00 00 00 00 00 00 00 00 00  ................
  0000000010204850: 00 00 00 00 00 00 00 00 00 00 00 00 00 00 00 00  ................
  0000000010204860: 00 00 00 00 00 00 00 00 00 00 00 00 00 00 00 00  ................
  0000000010204870: 00 00 00 00 00 00 00 00 08 00 00 00 00 00 00 00  ................
  0000000010204880: FF FF FF FF FF FF FF FF 00 00 00 00 00 00 00 00  ÿÿÿÿÿÿÿÿ........
  0000000010204890: 00 00 00 00 00 00 00 00 00 00 00 00 00 00 00 00  ................
  00000000102048A0: 00 00 00 00 00 00 00 00 00 00 00 00 00 00 00 00  ................
  00000000102048B0: 00 00 00 00 00 00 00 00 00 00 00 00 00 00 00 00  ................
  00000000102048C0: 00 00 00 00 00 00 00 00 00 00 00 00 00 00 00 00  ................
  00000000102048D0: 08 00 00 00 00 00 00 00 10 00 00 00 00 00 00 00  ................
  00000000102048E0: 30 00 00 00 00 00 00 00 38 00 00 00 00 00 00 00  0.......8.......
  00000000102048F0: FF FF FF FF FF FF FF FF 00 00 00 00 00 00 00 00  ÿÿÿÿÿÿÿÿ........
  0000000010204900: 00 00 00 00 00 00 00 00 00 00 00 00 00 00 00 00  ................
  0000000010204910: 00 00 00 00 00 00 00 00 00 00 00 00 00 00 00 00  ................
  0000000010204920: 00 00 00 00 00 00 00 00 00 00 00 00 00 00 00 00  ................
  0000000010204930: 00 00 00 00 00 00 00 00 00 00 00 00 00 00 00 00  ................
  0000000010204940: 40 00 00 00 00 00 00 00 48 00 00 00 00 00 00 00  @.......H.......
  0000000010204950: 60 00 00 00 00 00 00 00 FF FF FF FF FF FF FF FF  `.......ÿÿÿÿÿÿÿÿ
  0000000010204960: 00 00 00 00 00 00 00 00 00 00 00 00 00 00 00 00  ................
  0000000010204970: 00 00 00 00 00 00 00 00 00 00 00 00 00 00 00 00  ................
  0000000010204980: 00 00 00 00 00 00 00 00 00 00 00 00 00 00 00 00  ................
  0000000010204990: 00 00 00 00 00 00 00 00 00 00 00 00 00 00 00 00  ................
  00000000102049A0: FF FF FF FF FF FF FF FF 00 00 00 00 00 00 00 00  ÿÿÿÿÿÿÿÿ........
  00000000102049B0: 00 00 00 00 00 00 00 00 00 00 00 00 00 00 00 00  ................
  00000000102049C0: 4D 00 41 00 49 00 4E 00 00 00 00 00 00 00 00 00  M.A.I.N.........
  00000000102049D0: 43 00 4F 00 4E 00 53 00 4F 00 4C 00 45 00 00 00  C.O.N.S.O.L.E...
  00000000102049E0: 44 00 45 00 42 00 55 00 47 00 00 00 00 00 00 00  D.E.B.U.G.......
  00000000102049F0: 74 00 6F 00 6F 00 20 00 6D 00 61 00 6E 00 79 00  t.o.o. .m.a.n.y.
  0000000010204A00: 20 00 73 00 74 00 72 00 69 00 6E 00 67 00 73 00   .s.t.r.i.n.g.s.
  0000000010204A10: 00 00 00 00 00 00 00 00 00 00 00 00 00 00 00 00  ................
  0000000010204A20: 54 00 6F 00 6F 00 20 00 6D 00 61 00 6E 00 79 00  T.o.o. .m.a.n.y.
  0000000010204A30: 20 00 65 00 78 00 70 00 6F 00 72 00 74 00 65 00   .e.x.p.o.r.t.e.
  0000000010204A40: 64 00 20 00 74 00 79 00 70 00 65 00 73 00 00 00  d. .t.y.p.e.s...
  0000000010204A50: 00 00 00 00 00 00 00 00 00 00 00 00 00 00 00 00  ................
  0000000010204A60: 73 00 79 00 6D 00 2E 00 74 00 65 00 6D 00 70 00  s.y.m...t.e.m.p.
  0000000010204A70: 5F 00 00 00 00 00 00 00 00 00 00 00 00 00 00 00  _...............
  0000000010204A80: 00 00 00 00 00 00 00 00 00 00 00 00 00 00 00 00  ................
  0000000010204A90: 2E 00 73 00 79 00 6D 00 00 00 00 00 00 00 00 00  ..s.y.m.........
  0000000010204AA0: 73 00 79 00 6D 00 2E 00 74 00 65 00 6D 00 70 00  s.y.m...t.e.m.p.
  0000000010204AB0: 5F 00 00 00 00 00 00 00 00 00 00 00 00 00 00 00  _...............
  0000000010204AC0: 73 00 79 00 6D 00 2E 00 74 00 65 00 6D 00 70 00  s.y.m...t.e.m.p.
  0000000010204AD0: 5F 00 00 00 00 00 00 00 00 00 00 00 00 00 00 00  _...............
  0000000010204AE0: 4E 00 65 00 65 00 64 00 20 00 74 00 6F 00 20 00  N.e.e.d. .t.o. .
  0000000010204AF0: 69 00 6D 00 70 00 6F 00 72 00 74 00 20 00 00 00  i.m.p.o.r.t. ...
  0000000010204B00: 20 00 69 00 6E 00 20 00 6F 00 72 00 64 00 65 00   .i.n. .o.r.d.e.
  0000000010204B10: 72 00 20 00 74 00 6F 00 20 00 69 00 6D 00 70 00  r. .t.o. .i.m.p.
  0000000010204B20: 6F 00 72 00 74 00 20 00 00 00 00 00 00 00 00 00  o.r.t. .........
  0000000010204B30: 00 00 00 00 00 00 00 00 00 00 00 00 00 00 00 00  ................
  0000000010204B40: 43 00 69 00 72 00 63 00 75 00 6C 00 61 00 72 00  C.i.r.c.u.l.a.r.
  0000000010204B50: 20 00 64 00 65 00 70 00 65 00 6E 00 64 00 65 00   .d.e.p.e.n.d.e.
  0000000010204B60: 6E 00 63 00 79 00 00 00 00 00 00 00 00 00 00 00  n.c.y...........
  0000000010204B70: 4D 00 6F 00 64 00 75 00 6C 00 65 00 20 00 00 00  M.o.d.u.l.e. ...
  0000000010204B80: 20 00 77 00 61 00 73 00 20 00 69 00 6D 00 70 00   .w.a.s. .i.m.p.
  0000000010204B90: 6F 00 72 00 74 00 65 00 64 00 20 00 62 00 79 00  o.r.t.e.d. .b.y.
  0000000010204BA0: 20 00 00 00 00 00 00 00 00 00 00 00 00 00 00 00   ...............
  0000000010204BB0: 20 00 77 00 69 00 74 00 68 00 20 00 61 00 20 00   .w.i.t.h. .a. .
  0000000010204BC0: 64 00 69 00 66 00 66 00 65 00 72 00 65 00 6E 00  d.i.f.f.e.r.e.n.
  0000000010204BD0: 74 00 20 00 6B 00 65 00 79 00 00 00 00 00 00 00  t. .k.e.y.......
  0000000010204BE0: 00 00 00 00 00 00 00 00 00 00 00 00 00 00 00 00  ................
  0000000010204BF0: 2E 00 73 00 79 00 6D 00 00 00 00 00 00 00 00 00  ..s.y.m.........
  0000000010204C00: 53 00 59 00 53 00 54 00 45 00 4D 00 00 00 00 00  S.Y.S.T.E.M.....
  0000000010204C10: 4D 00 6F 00 64 00 75 00 6C 00 65 00 20 00 6C 00  M.o.d.u.l.e. .l.
  0000000010204C20: 65 00 76 00 65 00 6C 00 20 00 74 00 6F 00 6F 00  e.v.e.l. .t.o.o.
  0000000010204C30: 20 00 64 00 65 00 65 00 70 00 00 00 00 00 00 00   .d.e.e.p.......
  0000000010204C40: 53 00 79 00 6D 00 62 00 6F 00 6C 00 20 00 66 00  S.y.m.b.o.l. .f.
  0000000010204C50: 69 00 6C 00 65 00 20 00 6E 00 6F 00 74 00 20 00  i.l.e. .n.o.t. .
  0000000010204C60: 65 00 78 00 69 00 73 00 74 00 65 00 64 00 00 00  e.x.i.s.t.e.d...
  0000000010204C70: 49 00 4E 00 54 00 45 00 47 00 45 00 52 00 00 00  I.N.T.E.G.E.R...
  0000000010204C80: 42 00 59 00 54 00 45 00 00 00 00 00 00 00 00 00  B.Y.T.E.........
  0000000010204C90: 52 00 45 00 41 00 4C 00 00 00 00 00 00 00 00 00  R.E.A.L.........
  0000000010204CA0: 00 00 00 00 00 00 00 00 53 00 45 00 54 00 00 00  ........S.E.T...
  0000000010204CB0: 42 00 4F 00 4F 00 4C 00 45 00 41 00 4E 00 00 00  B.O.O.L.E.A.N...
  0000000010204CC0: 43 00 48 00 41 00 52 00 00 00 00 00 00 00 00 00  C.H.A.R.........
  0000000010204CD0: 49 00 4E 00 43 00 00 00 44 00 45 00 43 00 00 00  I.N.C...D.E.C...
  0000000010204CE0: 49 00 4E 00 43 00 4C 00 00 00 00 00 00 00 00 00  I.N.C.L.........
  0000000010204CF0: 45 00 58 00 43 00 4C 00 00 00 00 00 00 00 00 00  E.X.C.L.........
  0000000010204D00: 00 00 00 00 00 00 00 00 4E 00 45 00 57 00 00 00  ........N.E.W...
  0000000010204D10: 41 00 53 00 53 00 45 00 52 00 54 00 00 00 00 00  A.S.S.E.R.T.....
  0000000010204D20: 50 00 41 00 43 00 4B 00 00 00 00 00 00 00 00 00  P.A.C.K.........
  0000000010204D30: 55 00 4E 00 50 00 4B 00 00 00 00 00 00 00 00 00  U.N.P.K.........
  0000000010204D40: 41 00 42 00 53 00 00 00 4F 00 44 00 44 00 00 00  A.B.S...O.D.D...
  0000000010204D50: 4C 00 45 00 4E 00 00 00 4C 00 53 00 4C 00 00 00  L.E.N...L.S.L...
  0000000010204D60: 41 00 53 00 52 00 00 00 52 00 4F 00 52 00 00 00  A.S.R...R.O.R...
  0000000010204D70: 46 00 4C 00 4F 00 4F 00 52 00 00 00 00 00 00 00  F.L.O.O.R.......
  0000000010204D80: 00 00 00 00 00 00 00 00 46 00 4C 00 54 00 00 00  ........F.L.T...
  0000000010204D90: 4F 00 52 00 44 00 00 00 43 00 48 00 52 00 00 00  O.R.D...C.H.R...
  0000000010204DA0: 47 00 45 00 54 00 00 00 50 00 55 00 54 00 00 00  G.E.T...P.U.T...
  0000000010204DB0: 43 00 4F 00 50 00 59 00 00 00 00 00 00 00 00 00  C.O.P.Y.........
  0000000010204DC0: 4C 00 6F 00 61 00 64 00 4C 00 69 00 62 00 72 00  L.o.a.d.L.i.b.r.
  0000000010204DD0: 61 00 72 00 79 00 57 00 00 00 00 00 00 00 00 00  a.r.y.W.........
  0000000010204DE0: 47 00 65 00 74 00 50 00 72 00 6F 00 63 00 41 00  G.e.t.P.r.o.c.A.
  0000000010204DF0: 64 00 64 00 72 00 65 00 73 00 73 00 00 00 00 00  d.d.r.e.s.s.....
  0000000010204E00: 49 00 4E 00 54 00 33 00 00 00 00 00 00 00 00 00  I.N.T.3.........
  0000000010204E10: 00 00 00 00 00 00 00 00 41 00 44 00 52 00 00 00  ........A.D.R...
  0000000010204E20: 53 00 49 00 5A 00 45 00 00 00 00 00 00 00 00 00  S.I.Z.E.........
  0000000010204E30: 42 00 49 00 54 00 00 00 56 00 41 00 4C 00 00 00  B.I.T...V.A.L...
  0000000010204E40: 42 00 59 00 54 00 45 00 00 00 00 00 00 00 00 00  B.Y.T.E.........
  0000000010204E50: 00 00 00 00 00 00 00 00 00 00 00 00 31 00 00 00  ............1...
  0000000010204E60: 32 00 00 00 31 00 00 00 00 00 00 00 00 00 00 00  2...1...........
  0000000010204E70: 00 00 00 00 00 00 00 00 00 00 00 00 00 00 00 00  ................
  0000000010204E80: 00 00 00 00 00 00 00 00 00 00 00 00 00 00 00 00  ................
  0000000010204E90: 00 00 00 00 00 00 00 00 00 00 00 00 00 00 00 00  ................
  0000000010204EA0: 00 00 00 00 00 00 00 00 00 00 00 00 00 00 00 00  ................
  0000000010204EB0: 00 00 00 00 00 00 00 00 00 00 00 00 00 00 00 00  ................
  0000000010204EC0: 00 00 00 00 00 00 00 00 00 00 00 00 00 00 00 00  ................
  0000000010204ED0: 00 00 00 00 00 00 00 00 00 00 00 00 00 00 00 00  ................
  0000000010204EE0: 00 00 00 00 00 00 00 00 00 00 00 00 00 00 00 00  ................
  0000000010204EF0: 00 00 00 00 00 00 00 00 00 00 00 00 00 00 00 00  ................
  0000000010204F00: 00 00 00 00 00 00 00 00 00 00 00 00 00 00 00 00  ................
  0000000010204F10: 00 00 00 00 00 00 00 00 00 00 00 00 00 00 00 00  ................
  0000000010204F20: 53 00 63 00 61 00 6E 00 6E 00 65 00 72 00 31 00  S.c.a.n.n.e.r.1.
  0000000010204F30: 2E 00 64 00 6C 00 6C 00 00 00 00 00 00 00 00 00  ..d.l.l.........
  0000000010204F40: 43 00 72 00 79 00 70 00 74 00 2E 00 64 00 6C 00  C.r.y.p.t...d.l.
  0000000010204F50: 6C 00 00 00 00 00 00 00 00 00 00 00 00 00 00 00  l...............
  0000000010204F60: 42 00 61 00 73 00 65 00 53 00 79 00 73 00 2E 00  B.a.s.e.S.y.s...
  0000000010204F70: 64 00 6C 00 6C 00 00 00 00 00 00 00 00 00 00 00  d.l.l...........
  0000000010204F80: 00 00 00 00 00 00 00 00 00 00 00 00 00 00 00 00  ................
  0000000010204F90: 00 00 00 00 00 00 00 00 00 00 00 00 00 00 00 00  ................
  0000000010204FA0: 00 00 00 00 00 00 00 00 00 00 00 00 00 00 00 00  ................
  0000000010204FB0: 00 00 00 00 00 00 00 00 00 00 00 00 00 00 00 00  ................
  0000000010204FC0: 00 00 00 00 00 00 00 00 70 90 20 00 00 00 00 00  ........p. .....
  0000000010204FD0: 90 90 20 00 00 00 00 00 B0 90 20 00 00 00 00 00  .. .....°. .....
  0000000010204FE0: D0 90 20 00 00 00 00 00 F0 90 20 00 00 00 00 00  ?. .....?. .....
  0000000010204FF0: 10 91 20 00 00 00 00 00 00 00 00 00 00 00 00 00  .. .............

SECTION HEADER #3
   .text name
    3F4C virtual size
  205000 virtual address (0000000010205000 to 0000000010208F4B)
    4000 size of raw data
     400 file pointer to raw data (00000400 to 000043FF)
       0 file pointer to relocation table
       0 file pointer to line numbers
       0 number of relocations
       0 number of line numbers
60000020 flags
         Code
         Execute Read

  0000000010205000: 55                 push        rbp
  0000000010205001: 48 8B EC           mov         rbp,rsp
  0000000010205004: 48 83 EC 40        sub         rsp,40h
  0000000010205008: 48 89 5D E0        mov         qword ptr [rbp-20h],rbx
  000000001020500C: 48 8D 1D ED FF FF  lea         rbx,[0000000010205000h]
                    FF
  0000000010205013: 48 89 4D 10        mov         qword ptr [rbp+10h],rcx
  0000000010205017: 48 89 55 18        mov         qword ptr [rbp+18h],rdx
  000000001020501B: 4C 89 45 20        mov         qword ptr [rbp+20h],r8
  000000001020501F: 48 8B 45 20        mov         rax,qword ptr [rbp+20h]
  0000000010205023: 48 83 E0 7F        and         rax,7Fh
  0000000010205027: 48 89 45 F0        mov         qword ptr [rbp-10h],rax
  000000001020502B: 48 83 7D 20 C0     cmp         qword ptr [rbp+20h],0FFFFFFFFFFFFFFC0h
  0000000010205030: 7C 0E              jl          0000000010205040
  0000000010205032: 48 83 7D 20 40     cmp         qword ptr [rbp+20h],40h
  0000000010205037: 7D 07              jge         0000000010205040
  0000000010205039: B8 01 00 00 00     mov         eax,1
  000000001020503E: EB 02              jmp         0000000010205042
  0000000010205040: 31 C0              xor         eax,eax
  0000000010205042: 88 45 FF           mov         byte ptr [rbp-1],al
  0000000010205045: 0F B6 45 FF        movzx       eax,byte ptr [rbp-1]
  0000000010205049: 85 C0              test        eax,eax
  000000001020504B: 74 11              je          000000001020505E
  000000001020504D: 48 8B 45 F0        mov         rax,qword ptr [rbp-10h]
  0000000010205051: 48 81 C0 80 00 00  add         rax,80h
                    00
  0000000010205058: 48 89 45 F0        mov         qword ptr [rbp-10h],rax
  000000001020505C: EB 0C              jmp         000000001020506A
  000000001020505E: 48 8B 45 20        mov         rax,qword ptr [rbp+20h]
  0000000010205062: 48 C1 F8 07        sar         rax,7
  0000000010205066: 48 89 45 20        mov         qword ptr [rbp+20h],rax
  000000001020506A: 48 8B 4D 10        mov         rcx,qword ptr [rbp+10h]
  000000001020506E: 4C 8B 45 F0        mov         r8,qword ptr [rbp-10h]
  0000000010205072: 48 8B 55 18        mov         rdx,qword ptr [rbp+18h]
  0000000010205076: FF 93 10 FF FF FF  call        qword ptr [rbx+FFFFFFFFFFFFFF10h]
  000000001020507C: 0F B6 45 FF        movzx       eax,byte ptr [rbp-1]
  0000000010205080: 85 C0              test        eax,eax
  0000000010205082: 74 9B              je          000000001020501F
  0000000010205084: 48 8B 5D E0        mov         rbx,qword ptr [rbp-20h]
  0000000010205088: C9                 leave
  0000000010205089: C3                 ret
  000000001020508A: 90                 nop
  000000001020508B: 90                 nop
  000000001020508C: 90                 nop
  000000001020508D: 90                 nop
  000000001020508E: 90                 nop
  000000001020508F: 90                 nop
  0000000010205090: 55                 push        rbp
  0000000010205091: 48 8B EC           mov         rbp,rsp
  0000000010205094: 48 83 EC 50        sub         rsp,50h
  0000000010205098: 48 89 5D D0        mov         qword ptr [rbp-30h],rbx
  000000001020509C: 48 8D 1D 5D FF FF  lea         rbx,[0000000010205000h]
                    FF
  00000000102050A3: 48 89 4D 10        mov         qword ptr [rbp+10h],rcx
  00000000102050A7: 48 89 55 18        mov         qword ptr [rbp+18h],rdx
  00000000102050AB: 4C 89 45 20        mov         qword ptr [rbp+20h],r8
  00000000102050AF: 31 C0              xor         eax,eax
  00000000102050B1: 48 8B 4D 20        mov         rcx,qword ptr [rbp+20h]
  00000000102050B5: 48 89 01           mov         qword ptr [rcx],rax
  00000000102050B8: 48 C7 45 F0 01 00  mov         qword ptr [rbp-10h],1
                    00 00
  00000000102050C0: 48 C7 45 E0 01 00  mov         qword ptr [rbp-20h],1
                    00 00
  00000000102050C8: 48 8B 4D 10        mov         rcx,qword ptr [rbp+10h]
  00000000102050CC: 4C 8D 45 E8        lea         r8,[rbp-18h]
  00000000102050D0: 48 8B 55 18        mov         rdx,qword ptr [rbp+18h]
  00000000102050D4: FF 93 08 FF FF FF  call        qword ptr [rbx+FFFFFFFFFFFFFF08h]
  00000000102050DA: 48 83 7D F0 0A     cmp         qword ptr [rbp-10h],0Ah
  00000000102050DF: 0F 8D AC 00 00 00  jge         0000000010205191
  00000000102050E5: 48 81 7D E8 80 00  cmp         qword ptr [rbp-18h],80h
                    00 00
  00000000102050ED: 7C 07              jl          00000000102050F6
  00000000102050EF: B8 01 00 00 00     mov         eax,1
  00000000102050F4: EB 02              jmp         00000000102050F8
  00000000102050F6: 31 C0              xor         eax,eax
  00000000102050F8: 88 45 FF           mov         byte ptr [rbp-1],al
  00000000102050FB: 48 8B 45 E8        mov         rax,qword ptr [rbp-18h]
  00000000102050FF: 48 83 E0 7F        and         rax,7Fh
  0000000010205103: 48 89 45 E8        mov         qword ptr [rbp-18h],rax
  0000000010205107: 48 8B 45 20        mov         rax,qword ptr [rbp+20h]
  000000001020510B: 48 8B 00           mov         rax,qword ptr [rax]
  000000001020510E: 48 8B 4D E8        mov         rcx,qword ptr [rbp-18h]
  0000000010205112: 48 8B 55 E0        mov         rdx,qword ptr [rbp-20h]
  0000000010205116: 48 0F AF CA        imul        rcx,rdx
  000000001020511A: 48 03 C1           add         rax,rcx
  000000001020511D: 48 8B 4D 20        mov         rcx,qword ptr [rbp+20h]
  0000000010205121: 48 89 01           mov         qword ptr [rcx],rax
  0000000010205124: 48 83 7D F0 09     cmp         qword ptr [rbp-10h],9
  0000000010205129: 74 0C              je          0000000010205137
  000000001020512B: 48 8B 45 E0        mov         rax,qword ptr [rbp-20h]
  000000001020512F: 48 C1 E0 07        shl         rax,7
  0000000010205133: 48 89 45 E0        mov         qword ptr [rbp-20h],rax
  0000000010205137: 48 FF 45 F0        inc         qword ptr [rbp-10h]
  000000001020513B: 0F B6 45 FF        movzx       eax,byte ptr [rbp-1]
  000000001020513F: 85 C0              test        eax,eax
  0000000010205141: 74 4C              je          000000001020518F
  0000000010205143: 48 83 7D E8 40     cmp         qword ptr [rbp-18h],40h
  0000000010205148: 7C 45              jl          000000001020518F
  000000001020514A: 48 83 7D F0 09     cmp         qword ptr [rbp-10h],9
  000000001020514F: 74 23              je          0000000010205174
  0000000010205151: 48 8B 45 20        mov         rax,qword ptr [rbp+20h]
  0000000010205155: 48 8B 00           mov         rax,qword ptr [rax]
  0000000010205158: B9 01 00 00 00     mov         ecx,1
  000000001020515D: 48 8B 55 E0        mov         rdx,qword ptr [rbp-20h]
  0000000010205161: 48 0F AF CA        imul        rcx,rdx
  0000000010205165: 48 F7 D9           neg         rcx
  0000000010205168: 48 03 C1           add         rax,rcx
  000000001020516B: 48 8B 4D 20        mov         rcx,qword ptr [rbp+20h]
  000000001020516F: 48 89 01           mov         qword ptr [rcx],rax
  0000000010205172: EB 1B              jmp         000000001020518F
  0000000010205174: 48 8B 45 20        mov         rax,qword ptr [rbp+20h]
  0000000010205178: 48 8B 00           mov         rax,qword ptr [rax]
  000000001020517B: 48 B9 00 00 00 00  mov         rcx,8000000000000000h
                    00 00 00 80
  0000000010205185: 48 03 C1           add         rax,rcx
  0000000010205188: 48 8B 4D 20        mov         rcx,qword ptr [rbp+20h]
  000000001020518C: 48 89 01           mov         qword ptr [rcx],rax
  000000001020518F: EB 37              jmp         00000000102051C8
  0000000010205191: 48 83 7D F0 0A     cmp         qword ptr [rbp-10h],0Ah
  0000000010205196: 75 28              jne         00000000102051C0
  0000000010205198: C6 45 FF 01        mov         byte ptr [rbp-1],1
  000000001020519C: 48 83 7D E8 7F     cmp         qword ptr [rbp-18h],7Fh
  00000000102051A1: 75 1B              jne         00000000102051BE
  00000000102051A3: 48 8B 45 20        mov         rax,qword ptr [rbp+20h]
  00000000102051A7: 48 8B 00           mov         rax,qword ptr [rax]
  00000000102051AA: 48 B9 00 00 00 00  mov         rcx,8000000000000000h
                    00 00 00 80
  00000000102051B4: 48 03 C1           add         rax,rcx
  00000000102051B7: 48 8B 4D 20        mov         rcx,qword ptr [rbp+20h]
  00000000102051BB: 48 89 01           mov         qword ptr [rcx],rax
  00000000102051BE: EB 08              jmp         00000000102051C8
  00000000102051C0: B0 03              mov         al,3
  00000000102051C2: B9 C6 12 00 00     mov         ecx,12C6h
  00000000102051C7: CC                 int         3
  00000000102051C8: 0F B6 45 FF        movzx       eax,byte ptr [rbp-1]
  00000000102051CC: 85 C0              test        eax,eax
  00000000102051CE: 0F 84 F4 FE FF FF  je          00000000102050C8
  00000000102051D4: 48 8B 5D D0        mov         rbx,qword ptr [rbp-30h]
  00000000102051D8: C9                 leave
  00000000102051D9: C3                 ret
  00000000102051DA: 90                 nop
  00000000102051DB: 90                 nop
  00000000102051DC: 90                 nop
  00000000102051DD: 90                 nop
  00000000102051DE: 90                 nop
  00000000102051DF: 90                 nop
  00000000102051E0: 55                 push        rbp
  00000000102051E1: 48 8B EC           mov         rbp,rsp
  00000000102051E4: 48 83 EC 20        sub         rsp,20h
  00000000102051E8: 48 89 5D E0        mov         qword ptr [rbp-20h],rbx
  00000000102051EC: 48 8D 1D 0D FE FF  lea         rbx,[0000000010205000h]
                    FF
  00000000102051F3: 48 89 4D 10        mov         qword ptr [rbp+10h],rcx
  00000000102051F7: 48 89 55 18        mov         qword ptr [rbp+18h],rdx
  00000000102051FB: 4C 89 45 20        mov         qword ptr [rbp+20h],r8
  00000000102051FF: 4C 89 4D 28        mov         qword ptr [rbp+28h],r9
  0000000010205203: 31 C0              xor         eax,eax
  0000000010205205: 48 89 45 F8        mov         qword ptr [rbp-8],rax
  0000000010205209: 48 8B 45 20        mov         rax,qword ptr [rbp+20h]
  000000001020520D: 48 8B 4D F8        mov         rcx,qword ptr [rbp-8]
  0000000010205211: 48 3B 4D 28        cmp         rcx,qword ptr [rbp+28h]
  0000000010205215: 73 02              jae         0000000010205219
  0000000010205217: EB 08              jmp         0000000010205221
  0000000010205219: B0 01              mov         al,1
  000000001020521B: B9 60 13 00 00     mov         ecx,1360h
  0000000010205220: CC                 int         3
  0000000010205221: 48 C1 E1 01        shl         rcx,1
  0000000010205225: 48 03 C1           add         rax,rcx
  0000000010205228: 66 83 38 00        cmp         word ptr [rax],0
  000000001020522C: 74 06              je          0000000010205234
  000000001020522E: 48 FF 45 F8        inc         qword ptr [rbp-8]
  0000000010205232: EB D5              jmp         0000000010205209
  0000000010205234: 31 C0              xor         eax,eax
  0000000010205236: 48 89 45 F0        mov         qword ptr [rbp-10h],rax
  000000001020523A: 48 8B 45 10        mov         rax,qword ptr [rbp+10h]
  000000001020523E: 48 8B 4D F0        mov         rcx,qword ptr [rbp-10h]
  0000000010205242: 48 3B 4D 18        cmp         rcx,qword ptr [rbp+18h]
  0000000010205246: 73 02              jae         000000001020524A
  0000000010205248: EB 08              jmp         0000000010205252
  000000001020524A: B0 01              mov         al,1
  000000001020524C: B9 8B 13 00 00     mov         ecx,138Bh
  0000000010205251: CC                 int         3
  0000000010205252: 48 C1 E1 01        shl         rcx,1
  0000000010205256: 48 03 C1           add         rax,rcx
  0000000010205259: 66 83 38 00        cmp         word ptr [rax],0
  000000001020525D: 74 51              je          00000000102052B0
  000000001020525F: 48 8B 45 20        mov         rax,qword ptr [rbp+20h]
  0000000010205263: 48 8B 4D F8        mov         rcx,qword ptr [rbp-8]
  0000000010205267: 48 8B 55 F0        mov         rdx,qword ptr [rbp-10h]
  000000001020526B: 48 03 CA           add         rcx,rdx
  000000001020526E: 48 3B 4D 28        cmp         rcx,qword ptr [rbp+28h]
  0000000010205272: 73 02              jae         0000000010205276
  0000000010205274: EB 08              jmp         000000001020527E
  0000000010205276: B0 01              mov         al,1
  0000000010205278: B9 9C 13 00 00     mov         ecx,139Ch
  000000001020527D: CC                 int         3
  000000001020527E: 48 C1 E1 01        shl         rcx,1
  0000000010205282: 48 03 C1           add         rax,rcx
  0000000010205285: 48 8B 4D 10        mov         rcx,qword ptr [rbp+10h]
  0000000010205289: 48 8B 55 F0        mov         rdx,qword ptr [rbp-10h]
  000000001020528D: 48 3B 55 18        cmp         rdx,qword ptr [rbp+18h]
  0000000010205291: 73 02              jae         0000000010205295
  0000000010205293: EB 08              jmp         000000001020529D
  0000000010205295: B0 01              mov         al,1
  0000000010205297: B9 A6 13 00 00     mov         ecx,13A6h
  000000001020529C: CC                 int         3
  000000001020529D: 48 C1 E2 01        shl         rdx,1
  00000000102052A1: 48 03 CA           add         rcx,rdx
  00000000102052A4: 0F B7 09           movzx       ecx,word ptr [rcx]
  00000000102052A7: 66 89 08           mov         word ptr [rax],cx
  00000000102052AA: 48 FF 45 F0        inc         qword ptr [rbp-10h]
  00000000102052AE: EB 8A              jmp         000000001020523A
  00000000102052B0: 48 8B 45 20        mov         rax,qword ptr [rbp+20h]
  00000000102052B4: 48 8B 4D F8        mov         rcx,qword ptr [rbp-8]
  00000000102052B8: 48 8B 55 F0        mov         rdx,qword ptr [rbp-10h]
  00000000102052BC: 48 03 CA           add         rcx,rdx
  00000000102052BF: 48 3B 4D 28        cmp         rcx,qword ptr [rbp+28h]
  00000000102052C3: 73 02              jae         00000000102052C7
  00000000102052C5: EB 08              jmp         00000000102052CF
  00000000102052C7: B0 01              mov         al,1
  00000000102052C9: B9 BE 13 00 00     mov         ecx,13BEh
  00000000102052CE: CC                 int         3
  00000000102052CF: 48 C1 E1 01        shl         rcx,1
  00000000102052D3: 48 03 C1           add         rax,rcx
  00000000102052D6: 31 C9              xor         ecx,ecx
  00000000102052D8: 66 89 08           mov         word ptr [rax],cx
  00000000102052DB: 48 8B 5D E0        mov         rbx,qword ptr [rbp-20h]
  00000000102052DF: C9                 leave
  00000000102052E0: C3                 ret
  00000000102052E1: 90                 nop
  00000000102052E2: 90                 nop
  00000000102052E3: 90                 nop
  00000000102052E4: 90                 nop
  00000000102052E5: 90                 nop
  00000000102052E6: 90                 nop
  00000000102052E7: 90                 nop
  00000000102052E8: 90                 nop
  00000000102052E9: 90                 nop
  00000000102052EA: 90                 nop
  00000000102052EB: 90                 nop
  00000000102052EC: 90                 nop
  00000000102052ED: 90                 nop
  00000000102052EE: 90                 nop
  00000000102052EF: 90                 nop
  00000000102052F0: 55                 push        rbp
  00000000102052F1: 48 8B EC           mov         rbp,rsp
  00000000102052F4: 48 83 EC 20        sub         rsp,20h
  00000000102052F8: 48 89 5D E0        mov         qword ptr [rbp-20h],rbx
  00000000102052FC: 48 89 75 E8        mov         qword ptr [rbp-18h],rsi
  0000000010205300: 48 89 7D F0        mov         qword ptr [rbp-10h],rdi
  0000000010205304: 48 8D 1D F5 FC FF  lea         rbx,[0000000010205000h]
                    FF
  000000001020530B: 48 89 4D 10        mov         qword ptr [rbp+10h],rcx
  000000001020530F: 48 89 55 18        mov         qword ptr [rbp+18h],rdx
  0000000010205313: 48 8B 75 10        mov         rsi,qword ptr [rbp+10h]
  0000000010205317: 48 8D BB C0 F9 FF  lea         rdi,[rbx+FFFFFFFFFFFFF9C0h]
                    FF
  000000001020531E: 31 C0              xor         eax,eax
  0000000010205320: 48 83 C0 01        add         rax,1
  0000000010205324: 48 3B 45 18        cmp         rax,qword ptr [rbp+18h]
  0000000010205328: 77 02              ja          000000001020532C
  000000001020532A: EB 08              jmp         0000000010205334
  000000001020532C: B0 07              mov         al,7
  000000001020532E: B9 2B 14 00 00     mov         ecx,142Bh
  0000000010205333: CC                 int         3
  0000000010205334: 48 83 F8 05        cmp         rax,5
  0000000010205338: 77 02              ja          000000001020533C
  000000001020533A: EB 08              jmp         0000000010205344
  000000001020533C: B0 07              mov         al,7
  000000001020533E: B9 2B 14 00 00     mov         ecx,142Bh
  0000000010205343: CC                 int         3
  0000000010205344: 66 A7              cmps        word ptr [rsi],word ptr [rdi]
  0000000010205346: 75 07              jne         000000001020534F
  0000000010205348: 66 83 7E FE 00     cmp         word ptr [rsi-2],0
  000000001020534D: 75 D1              jne         0000000010205320
  000000001020534F: 75 0C              jne         000000001020535D
  0000000010205351: C6 83 A5 C5 DF FF  mov         byte ptr [rbx+FFFFFFFFFFDFC5A5h],1
                    01
  0000000010205358: E9 93 00 00 00     jmp         00000000102053F0
  000000001020535D: 48 8B 75 10        mov         rsi,qword ptr [rbp+10h]
  0000000010205361: 48 8D BB D0 F9 FF  lea         rdi,[rbx+FFFFFFFFFFFFF9D0h]
                    FF
  0000000010205368: 31 C0              xor         eax,eax
  000000001020536A: 48 83 C0 01        add         rax,1
  000000001020536E: 48 3B 45 18        cmp         rax,qword ptr [rbp+18h]
  0000000010205372: 77 02              ja          0000000010205376
  0000000010205374: EB 08              jmp         000000001020537E
  0000000010205376: B0 07              mov         al,7
  0000000010205378: B9 60 14 00 00     mov         ecx,1460h
  000000001020537D: CC                 int         3
  000000001020537E: 48 83 F8 08        cmp         rax,8
  0000000010205382: 77 02              ja          0000000010205386
  0000000010205384: EB 08              jmp         000000001020538E
  0000000010205386: B0 07              mov         al,7
  0000000010205388: B9 60 14 00 00     mov         ecx,1460h
  000000001020538D: CC                 int         3
  000000001020538E: 66 A7              cmps        word ptr [rsi],word ptr [rdi]
  0000000010205390: 75 07              jne         0000000010205399
  0000000010205392: 66 83 7E FE 00     cmp         word ptr [rsi-2],0
  0000000010205397: 75 D1              jne         000000001020536A
  0000000010205399: 75 10              jne         00000000102053AB
  000000001020539B: C6 83 A5 C5 DF FF  mov         byte ptr [rbx+FFFFFFFFFFDFC5A5h],1
                    01
  00000000102053A2: C6 83 A6 C5 DF FF  mov         byte ptr [rbx+FFFFFFFFFFDFC5A6h],1
                    01
  00000000102053A9: EB 45              jmp         00000000102053F0
  00000000102053AB: 48 8B 75 10        mov         rsi,qword ptr [rbp+10h]
  00000000102053AF: 48 8D BB E0 F9 FF  lea         rdi,[rbx+FFFFFFFFFFFFF9E0h]
                    FF
  00000000102053B6: 31 C0              xor         eax,eax
  00000000102053B8: 48 83 C0 01        add         rax,1
  00000000102053BC: 48 3B 45 18        cmp         rax,qword ptr [rbp+18h]
  00000000102053C0: 77 02              ja          00000000102053C4
  00000000102053C2: EB 08              jmp         00000000102053CC
  00000000102053C4: B0 07              mov         al,7
  00000000102053C6: B9 AF 14 00 00     mov         ecx,14AFh
  00000000102053CB: CC                 int         3
  00000000102053CC: 48 83 F8 06        cmp         rax,6
  00000000102053D0: 77 02              ja          00000000102053D4
  00000000102053D2: EB 08              jmp         00000000102053DC
  00000000102053D4: B0 07              mov         al,7
  00000000102053D6: B9 AF 14 00 00     mov         ecx,14AFh
  00000000102053DB: CC                 int         3
  00000000102053DC: 66 A7              cmps        word ptr [rsi],word ptr [rdi]
  00000000102053DE: 75 07              jne         00000000102053E7
  00000000102053E0: 66 83 7E FE 00     cmp         word ptr [rsi-2],0
  00000000102053E5: 75 D1              jne         00000000102053B8
  00000000102053E7: 75 07              jne         00000000102053F0
  00000000102053E9: C6 83 A7 C5 DF FF  mov         byte ptr [rbx+FFFFFFFFFFDFC5A7h],1
                    01
  00000000102053F0: 48 8B 5D E0        mov         rbx,qword ptr [rbp-20h]
  00000000102053F4: 48 8B 75 E8        mov         rsi,qword ptr [rbp-18h]
  00000000102053F8: 48 8B 7D F0        mov         rdi,qword ptr [rbp-10h]
  00000000102053FC: C9                 leave
  00000000102053FD: C3                 ret
  00000000102053FE: 90                 nop
  00000000102053FF: 90                 nop
  0000000010205400: 55                 push        rbp
  0000000010205401: 48 8B EC           mov         rbp,rsp
  0000000010205404: 48 83 EC 10        sub         rsp,10h
  0000000010205408: 48 89 5D F0        mov         qword ptr [rbp-10h],rbx
  000000001020540C: 48 8D 1D ED FB FF  lea         rbx,[0000000010205000h]
                    FF
  0000000010205413: 48 89 4D 10        mov         qword ptr [rbp+10h],rcx
  0000000010205417: 48 8B 45 10        mov         rax,qword ptr [rbp+10h]
  000000001020541B: 48 83 38 07        cmp         qword ptr [rax],7
  000000001020541F: 75 12              jne         0000000010205433
  0000000010205421: 48 8B 45 10        mov         rax,qword ptr [rbp+10h]
  0000000010205425: 48 83 78 20 00     cmp         qword ptr [rax+20h],0
  000000001020542A: 7D 07              jge         0000000010205433
  000000001020542C: B8 01 00 00 00     mov         eax,1
  0000000010205431: EB 02              jmp         0000000010205435
  0000000010205433: 31 C0              xor         eax,eax
  0000000010205435: 48 8B 5D F0        mov         rbx,qword ptr [rbp-10h]
  0000000010205439: C9                 leave
  000000001020543A: C3                 ret
  000000001020543B: 90                 nop
  000000001020543C: 90                 nop
  000000001020543D: 90                 nop
  000000001020543E: 90                 nop
  000000001020543F: 90                 nop
  0000000010205440: 55                 push        rbp
  0000000010205441: 48 8B EC           mov         rbp,rsp
  0000000010205444: 48 83 EC 10        sub         rsp,10h
  0000000010205448: 48 89 5D F0        mov         qword ptr [rbp-10h],rbx
  000000001020544C: 48 8D 1D AD FB FF  lea         rbx,[0000000010205000h]
                    FF
  0000000010205453: 48 89 4D 10        mov         qword ptr [rbp+10h],rcx
  0000000010205457: 48 8B 4D 10        mov         rcx,qword ptr [rbp+10h]
  000000001020545B: 48 83 39 07        cmp         qword ptr [rcx],7
  000000001020545F: 75 12              jne         0000000010205473
  0000000010205461: 48 8B 4D 10        mov         rcx,qword ptr [rbp+10h]
  0000000010205465: 48 83 79 20 00     cmp         qword ptr [rcx+20h],0
  000000001020546A: 7C 07              jl          0000000010205473
  000000001020546C: B9 01 00 00 00     mov         ecx,1
  0000000010205471: EB 02              jmp         0000000010205475
  0000000010205473: 31 C9              xor         ecx,ecx
  0000000010205475: 48 8B C1           mov         rax,rcx
  0000000010205478: 48 8B 5D F0        mov         rbx,qword ptr [rbp-10h]
  000000001020547C: C9                 leave
  000000001020547D: C3                 ret
  000000001020547E: 90                 nop
  000000001020547F: 90                 nop
  0000000010205480: 55                 push        rbp
  0000000010205481: 48 8B EC           mov         rbp,rsp
  0000000010205484: 48 83 EC 10        sub         rsp,10h
  0000000010205488: 48 89 5D F0        mov         qword ptr [rbp-10h],rbx
  000000001020548C: 48 8D 1D 6D FB FF  lea         rbx,[0000000010205000h]
                    FF
  0000000010205493: 48 89 4D 10        mov         qword ptr [rbp+10h],rcx
  0000000010205497: 48 8B 4D 10        mov         rcx,qword ptr [rbp+10h]
  000000001020549B: 48 8B 93 C0 EF FF  mov         rdx,qword ptr [rbx+FFFFFFFFFFFFEFC0h]
                    FF
  00000000102054A2: 48 3B CA           cmp         rcx,rdx
  00000000102054A5: 74 18              je          00000000102054BF
  00000000102054A7: 48 8B 4D 10        mov         rcx,qword ptr [rbp+10h]
  00000000102054AB: 48 83 39 07        cmp         qword ptr [rcx],7
  00000000102054AF: 75 15              jne         00000000102054C6
  00000000102054B1: 48 8B 4D 10        mov         rcx,qword ptr [rbp+10h]
  00000000102054B5: 48 8B 49 40        mov         rcx,qword ptr [rcx+40h]
  00000000102054B9: 48 83 39 03        cmp         qword ptr [rcx],3
  00000000102054BD: 75 07              jne         00000000102054C6
  00000000102054BF: B9 01 00 00 00     mov         ecx,1
  00000000102054C4: EB 02              jmp         00000000102054C8
  00000000102054C6: 31 C9              xor         ecx,ecx
  00000000102054C8: 48 8B C1           mov         rax,rcx
  00000000102054CB: 48 8B 5D F0        mov         rbx,qword ptr [rbp-10h]
  00000000102054CF: C9                 leave
  00000000102054D0: C3                 ret
  00000000102054D1: 90                 nop
  00000000102054D2: 90                 nop
  00000000102054D3: 90                 nop
  00000000102054D4: 90                 nop
  00000000102054D5: 90                 nop
  00000000102054D6: 90                 nop
  00000000102054D7: 90                 nop
  00000000102054D8: 90                 nop
  00000000102054D9: 90                 nop
  00000000102054DA: 90                 nop
  00000000102054DB: 90                 nop
  00000000102054DC: 90                 nop
  00000000102054DD: 90                 nop
  00000000102054DE: 90                 nop
  00000000102054DF: 90                 nop
  00000000102054E0: 55                 push        rbp
  00000000102054E1: 48 8B EC           mov         rbp,rsp
  00000000102054E4: 48 83 EC 30        sub         rsp,30h
  00000000102054E8: 48 89 5D F0        mov         qword ptr [rbp-10h],rbx
  00000000102054EC: 48 8D 1D 0D FB FF  lea         rbx,[0000000010205000h]
                    FF
  00000000102054F3: 48 89 4D 10        mov         qword ptr [rbp+10h],rcx
  00000000102054F7: 48 C7 45 F8 00 00  mov         qword ptr [rbp-8],0
                    00 00
  00000000102054FF: 48 8B 4B C0        mov         rcx,qword ptr [rbx-40h]
  0000000010205503: BA 08 00 00 00     mov         edx,8
  0000000010205508: 41 B8 51 00 00 00  mov         r8d,51h
  000000001020550E: FF 53 E8           call        qword ptr [rbx-18h]
  0000000010205511: 48 83 C0 10        add         rax,10h
  0000000010205515: 48 8D 8B 70 F5 FF  lea         rcx,[rbx+FFFFFFFFFFFFF570h]
                    FF
  000000001020551C: 48 89 48 F8        mov         qword ptr [rax-8],rcx
  0000000010205520: 48 89 45 F8        mov         qword ptr [rbp-8],rax
  0000000010205524: 48 8B 45 F8        mov         rax,qword ptr [rbp-8]
  0000000010205528: 48 C7 00 03 00 00  mov         qword ptr [rax],3
                    00
  000000001020552F: 48 8B 45 F8        mov         rax,qword ptr [rbp-8]
  0000000010205533: 31 C9              xor         ecx,ecx
  0000000010205535: 88 48 40           mov         byte ptr [rax+40h],cl
  0000000010205538: 48 8B 45 F8        mov         rax,qword ptr [rbp-8]
  000000001020553C: 48 8B 4D 10        mov         rcx,qword ptr [rbp+10h]
  0000000010205540: 48 89 48 08        mov         qword ptr [rax+8],rcx
  0000000010205544: 48 8B 45 F8        mov         rax,qword ptr [rbp-8]
  0000000010205548: 48 8B 8B 88 EE FF  mov         rcx,qword ptr [rbx+FFFFFFFFFFFFEE88h]
                    FF
  000000001020554F: 48 89 48 38        mov         qword ptr [rax+38h],rcx
  0000000010205553: 48 8B 45 F8        mov         rax,qword ptr [rbp-8]
  0000000010205557: 48 8B 5D F0        mov         rbx,qword ptr [rbp-10h]
  000000001020555B: C9                 leave
  000000001020555C: C3                 ret
  000000001020555D: 90                 nop
  000000001020555E: 90                 nop
  000000001020555F: 90                 nop
  0000000010205560: 55                 push        rbp
  0000000010205561: 48 8B EC           mov         rbp,rsp
  0000000010205564: 48 83 EC 30        sub         rsp,30h
  0000000010205568: 48 89 5D F0        mov         qword ptr [rbp-10h],rbx
  000000001020556C: 48 8D 1D 8D FA FF  lea         rbx,[0000000010205000h]
                    FF
  0000000010205573: 48 89 4D 10        mov         qword ptr [rbp+10h],rcx
  0000000010205577: 48 89 55 18        mov         qword ptr [rbp+18h],rdx
  000000001020557B: 48 C7 45 F8 00 00  mov         qword ptr [rbp-8],0
                    00 00
  0000000010205583: 48 8B 4B C0        mov         rcx,qword ptr [rbx-40h]
  0000000010205587: BA 08 00 00 00     mov         edx,8
  000000001020558C: 41 B8 40 00 00 00  mov         r8d,40h
  0000000010205592: FF 53 E8           call        qword ptr [rbx-18h]
  0000000010205595: 48 83 C0 10        add         rax,10h
  0000000010205599: 48 8D 8B B0 F4 FF  lea         rcx,[rbx+FFFFFFFFFFFFF4B0h]
                    FF
  00000000102055A0: 48 89 48 F8        mov         qword ptr [rax-8],rcx
  00000000102055A4: 48 89 45 F8        mov         qword ptr [rbp-8],rax
  00000000102055A8: 48 8B 45 F8        mov         rax,qword ptr [rbp-8]
  00000000102055AC: 48 C7 00 04 00 00  mov         qword ptr [rax],4
                    00
  00000000102055B3: 48 8B 45 F8        mov         rax,qword ptr [rbp-8]
  00000000102055B7: 48 8B 4D 10        mov         rcx,qword ptr [rbp+10h]
  00000000102055BB: 48 89 48 08        mov         qword ptr [rax+8],rcx
  00000000102055BF: 48 8B 45 F8        mov         rax,qword ptr [rbp-8]
  00000000102055C3: 48 8B 4D 18        mov         rcx,qword ptr [rbp+18h]
  00000000102055C7: 48 89 48 28        mov         qword ptr [rax+28h],rcx
  00000000102055CB: 48 8B 45 F8        mov         rax,qword ptr [rbp-8]
  00000000102055CF: 48 8B 5D F0        mov         rbx,qword ptr [rbp-10h]
  00000000102055D3: C9                 leave
  00000000102055D4: C3                 ret
  00000000102055D5: 90                 nop
  00000000102055D6: 90                 nop
  00000000102055D7: 90                 nop
  00000000102055D8: 90                 nop
  00000000102055D9: 90                 nop
  00000000102055DA: 90                 nop
  00000000102055DB: 90                 nop
  00000000102055DC: 90                 nop
  00000000102055DD: 90                 nop
  00000000102055DE: 90                 nop
  00000000102055DF: 90                 nop
  00000000102055E0: 55                 push        rbp
  00000000102055E1: 48 8B EC           mov         rbp,rsp
  00000000102055E4: 48 83 EC 30        sub         rsp,30h
  00000000102055E8: 48 89 5D F0        mov         qword ptr [rbp-10h],rbx
  00000000102055EC: 48 8D 1D 0D FA FF  lea         rbx,[0000000010205000h]
                    FF
  00000000102055F3: 48 89 4D 10        mov         qword ptr [rbp+10h],rcx
  00000000102055F7: 48 89 55 18        mov         qword ptr [rbp+18h],rdx
  00000000102055FB: 4C 89 45 20        mov         qword ptr [rbp+20h],r8
  00000000102055FF: 48 C7 45 F8 00 00  mov         qword ptr [rbp-8],0
                    00 00
  0000000010205607: 48 8B 4B C0        mov         rcx,qword ptr [rbx-40h]
  000000001020560B: BA 08 00 00 00     mov         edx,8
  0000000010205610: 41 B8 52 00 00 00  mov         r8d,52h
  0000000010205616: FF 53 E8           call        qword ptr [rbx-18h]
  0000000010205619: 48 83 C0 10        add         rax,10h
  000000001020561D: 48 8D 8B D0 F5 FF  lea         rcx,[rbx+FFFFFFFFFFFFF5D0h]
                    FF
  0000000010205624: 48 89 48 F8        mov         qword ptr [rax-8],rcx
  0000000010205628: 48 89 45 F8        mov         qword ptr [rbp-8],rax
  000000001020562C: 48 8B 45 F8        mov         rax,qword ptr [rbp-8]
  0000000010205630: 48 C7 00 03 00 00  mov         qword ptr [rax],3
                    00
  0000000010205637: 48 8B 45 F8        mov         rax,qword ptr [rbp-8]
  000000001020563B: 48 8B 4D 18        mov         rcx,qword ptr [rbp+18h]
  000000001020563F: 48 89 48 08        mov         qword ptr [rax+8],rcx
  0000000010205643: 48 8B 45 F8        mov         rax,qword ptr [rbp-8]
  0000000010205647: 48 8B 8B 88 EE FF  mov         rcx,qword ptr [rbx+FFFFFFFFFFFFEE88h]
                    FF
  000000001020564E: 48 89 48 38        mov         qword ptr [rax+38h],rcx
  0000000010205652: 48 8B 45 F8        mov         rax,qword ptr [rbp-8]
  0000000010205656: 0F B6 4D 20        movzx       ecx,byte ptr [rbp+20h]
  000000001020565A: 88 48 41           mov         byte ptr [rax+41h],cl
  000000001020565D: 48 8B 45 10        mov         rax,qword ptr [rbp+10h]
  0000000010205661: 48 FF 40 58        inc         qword ptr [rax+58h]
  0000000010205665: 48 8B 45 F8        mov         rax,qword ptr [rbp-8]
  0000000010205669: 0F B6 4D 20        movzx       ecx,byte ptr [rbp+20h]
  000000001020566D: 85 C9              test        ecx,ecx
  000000001020566F: 75 19              jne         000000001020568A
  0000000010205671: 48 8B 4D 18        mov         rcx,qword ptr [rbp+18h]
  0000000010205675: 48 8B 09           mov         rcx,qword ptr [rcx]
  0000000010205678: BA 80 01 00 00     mov         edx,180h
  000000001020567D: 48 0F A3 CA        bt          rdx,rcx
  0000000010205681: 73 07              jae         000000001020568A
  0000000010205683: B9 01 00 00 00     mov         ecx,1
  0000000010205688: EB 02              jmp         000000001020568C
  000000001020568A: 31 C9              xor         ecx,ecx
  000000001020568C: 88 48 40           mov         byte ptr [rax+40h],cl
  000000001020568F: 48 8B 45 F8        mov         rax,qword ptr [rbp-8]
  0000000010205693: 48 8B 5D F0        mov         rbx,qword ptr [rbp-10h]
  0000000010205697: C9                 leave
  0000000010205698: C3                 ret
  0000000010205699: 90                 nop
  000000001020569A: 90                 nop
  000000001020569B: 90                 nop
  000000001020569C: 90                 nop
  000000001020569D: 90                 nop
  000000001020569E: 90                 nop
  000000001020569F: 90                 nop
  00000000102056A0: 55                 push        rbp
  00000000102056A1: 48 8B EC           mov         rbp,rsp
  00000000102056A4: 48 83 EC 30        sub         rsp,30h
  00000000102056A8: 48 89 5D F0        mov         qword ptr [rbp-10h],rbx
  00000000102056AC: 48 8D 1D 4D F9 FF  lea         rbx,[0000000010205000h]
                    FF
  00000000102056B3: 48 89 4D 10        mov         qword ptr [rbp+10h],rcx
  00000000102056B7: 48 89 55 18        mov         qword ptr [rbp+18h],rdx
  00000000102056BB: 48 C7 45 F8 00 00  mov         qword ptr [rbp-8],0
                    00 00
  00000000102056C3: 48 8B 4B C0        mov         rcx,qword ptr [rbx-40h]
  00000000102056C7: BA 08 00 00 00     mov         edx,8
  00000000102056CC: 41 B8 40 00 00 00  mov         r8d,40h
  00000000102056D2: FF 53 E8           call        qword ptr [rbx-18h]
  00000000102056D5: 48 83 C0 10        add         rax,10h
  00000000102056D9: 48 8D 8B 10 F5 FF  lea         rcx,[rbx+FFFFFFFFFFFFF510h]
                    FF
  00000000102056E0: 48 89 48 F8        mov         qword ptr [rax-8],rcx
  00000000102056E4: 48 89 45 F8        mov         qword ptr [rbp-8],rax
  00000000102056E8: 48 8B 45 F8        mov         rax,qword ptr [rbp-8]
  00000000102056EC: 48 C7 00 06 00 00  mov         qword ptr [rax],6
                    00
  00000000102056F3: 48 8B 45 F8        mov         rax,qword ptr [rbp-8]
  00000000102056F7: 48 8B 4D 18        mov         rcx,qword ptr [rbp+18h]
  00000000102056FB: 48 89 48 08        mov         qword ptr [rax+8],rcx
  00000000102056FF: 48 8B 45 10        mov         rax,qword ptr [rbp+10h]
  0000000010205703: 48 8B 4D 10        mov         rcx,qword ptr [rbp+10h]
  0000000010205707: 48 8B 49 18        mov         rcx,qword ptr [rcx+18h]
  000000001020570B: 48 8B 55 18        mov         rdx,qword ptr [rbp+18h]
  000000001020570F: 48 8B 52 18        mov         rdx,qword ptr [rdx+18h]
  0000000010205713: 48 03 CA           add         rcx,rdx
  0000000010205716: 48 89 48 18        mov         qword ptr [rax+18h],rcx
  000000001020571A: 48 8B 45 F8        mov         rax,qword ptr [rbp-8]
  000000001020571E: 48 8B 5D F0        mov         rbx,qword ptr [rbp-10h]
  0000000010205722: C9                 leave
  0000000010205723: C3                 ret
  0000000010205724: 90                 nop
  0000000010205725: 90                 nop
  0000000010205726: 90                 nop
  0000000010205727: 90                 nop
  0000000010205728: 90                 nop
  0000000010205729: 90                 nop
  000000001020572A: 90                 nop
  000000001020572B: 90                 nop
  000000001020572C: 90                 nop
  000000001020572D: 90                 nop
  000000001020572E: 90                 nop
  000000001020572F: 90                 nop
  0000000010205730: 55                 push        rbp
  0000000010205731: 48 8B EC           mov         rbp,rsp
  0000000010205734: 48 83 EC 40        sub         rsp,40h
  0000000010205738: 48 89 5D E0        mov         qword ptr [rbp-20h],rbx
  000000001020573C: 48 8D 1D BD F8 FF  lea         rbx,[0000000010205000h]
                    FF
  0000000010205743: 48 89 4D 10        mov         qword ptr [rbp+10h],rcx
  0000000010205747: 48 89 55 18        mov         qword ptr [rbp+18h],rdx
  000000001020574B: 48 C7 45 F8 00 00  mov         qword ptr [rbp-8],0
                    00 00
  0000000010205753: 48 C7 45 E8 00 00  mov         qword ptr [rbp-18h],0
                    00 00
  000000001020575B: 48 8B 4B C0        mov         rcx,qword ptr [rbx-40h]
  000000001020575F: BA 08 00 00 00     mov         edx,8
  0000000010205764: 41 B8 68 00 00 00  mov         r8d,68h
  000000001020576A: FF 53 E8           call        qword ptr [rbx-18h]
  000000001020576D: 48 83 C0 10        add         rax,10h
  0000000010205771: 48 8D 8B A0 F6 FF  lea         rcx,[rbx+FFFFFFFFFFFFF6A0h]
                    FF
  0000000010205778: 48 89 48 F8        mov         qword ptr [rax-8],rcx
  000000001020577C: 48 89 45 F8        mov         qword ptr [rbp-8],rax
  0000000010205780: 48 8B 45 F8        mov         rax,qword ptr [rbp-8]
  0000000010205784: 48 C7 00 03 00 00  mov         qword ptr [rax],3
                    00
  000000001020578B: 48 8B 45 F8        mov         rax,qword ptr [rbp-8]
  000000001020578F: C6 40 40 01        mov         byte ptr [rax+40h],1
  0000000010205793: 48 8B 45 F8        mov         rax,qword ptr [rbp-8]
  0000000010205797: 48 8B 8B C0 EF FF  mov         rcx,qword ptr [rbx+FFFFFFFFFFFFEFC0h]
                    FF
  000000001020579E: 48 89 48 08        mov         qword ptr [rax+8],rcx
  00000000102057A2: 48 8B 45 F8        mov         rax,qword ptr [rbp-8]
  00000000102057A6: 48 8B 8B 88 EE FF  mov         rcx,qword ptr [rbx+FFFFFFFFFFFFEE88h]
                    FF
  00000000102057AD: 48 89 48 38        mov         qword ptr [rax+38h],rcx
  00000000102057B1: 48 8B 45 F8        mov         rax,qword ptr [rbp-8]
  00000000102057B5: 48 8B 4D 18        mov         rcx,qword ptr [rbp+18h]
  00000000102057B9: 48 89 48 50        mov         qword ptr [rax+50h],rcx
  00000000102057BD: 48 8B 45 F8        mov         rax,qword ptr [rbp-8]
  00000000102057C1: 48 83 78 38 FF     cmp         qword ptr [rax+38h],0FFFFFFFFFFFFFFFFh
  00000000102057C6: 0F 8C 25 01 00 00  jl          00000000102058F1
  00000000102057CC: 48 8B 83 A8 C5 DF  mov         rax,qword ptr [rbx+FFFFFFFFFFDFC5A8h]
                    FF
  00000000102057D3: 48 8B 4D 18        mov         rcx,qword ptr [rbp+18h]
  00000000102057D7: 48 03 C1           add         rax,rcx
  00000000102057DA: 48 81 F8 00 00 10  cmp         rax,100000h
                    00
  00000000102057E1: 7C 23              jl          0000000010205806
  00000000102057E3: 48 8D 8B F0 F9 FF  lea         rcx,[rbx+FFFFFFFFFFFFF9F0h]
                    FF
  00000000102057EA: BA 11 00 00 00     mov         edx,11h
  00000000102057EF: FF 93 00 FF FF FF  call        qword ptr [rbx+FFFFFFFFFFFFFF00h]
  00000000102057F5: 48 8B 45 F8        mov         rax,qword ptr [rbp-8]
  00000000102057F9: 48 C7 40 48 FF FF  mov         qword ptr [rax+48h],0FFFFFFFFFFFFFFFFh
                    FF FF
  0000000010205801: E9 E9 00 00 00     jmp         00000000102058EF
  0000000010205806: 48 8B 45 F8        mov         rax,qword ptr [rbp-8]
  000000001020580A: 48 8B 8B A8 C5 DF  mov         rcx,qword ptr [rbx+FFFFFFFFFFDFC5A8h]
                    FF
  0000000010205811: 48 89 48 48        mov         qword ptr [rax+48h],rcx
  0000000010205815: 48 8B 83 A8 C5 DF  mov         rax,qword ptr [rbx+FFFFFFFFFFDFC5A8h]
                    FF
  000000001020581C: 48 8B 4D 18        mov         rcx,qword ptr [rbp+18h]
  0000000010205820: 48 03 C1           add         rax,rcx
  0000000010205823: 48 89 83 A8 C5 DF  mov         qword ptr [rbx+FFFFFFFFFFDFC5A8h],rax
                    FF
  000000001020582A: 48 C7 45 F0 00 00  mov         qword ptr [rbp-10h],0
                    00 00
  0000000010205832: 48 8B 45 18        mov         rax,qword ptr [rbp+18h]
  0000000010205836: 48 83 E8 01        sub         rax,1
  000000001020583A: 48 39 45 F0        cmp         qword ptr [rbp-10h],rax
  000000001020583E: 7F 5E              jg          000000001020589E
  0000000010205840: 48 8D 83 B0 C5 DF  lea         rax,[rbx+FFFFFFFFFFDFC5B0h]
                    FF
  0000000010205847: 48 8B 4D F8        mov         rcx,qword ptr [rbp-8]
  000000001020584B: 48 8B 49 48        mov         rcx,qword ptr [rcx+48h]
  000000001020584F: 48 8B 55 F0        mov         rdx,qword ptr [rbp-10h]
  0000000010205853: 48 03 CA           add         rcx,rdx
  0000000010205856: 48 81 F9 00 00 10  cmp         rcx,100000h
                    00
  000000001020585D: 73 02              jae         0000000010205861
  000000001020585F: EB 08              jmp         0000000010205869
  0000000010205861: B0 01              mov         al,1
  0000000010205863: B9 35 1C 00 00     mov         ecx,1C35h
  0000000010205868: CC                 int         3
  0000000010205869: 48 C1 E1 01        shl         rcx,1
  000000001020586D: 48 03 C1           add         rax,rcx
  0000000010205870: 48 8B 4D 10        mov         rcx,qword ptr [rbp+10h]
  0000000010205874: 48 8B 55 F0        mov         rdx,qword ptr [rbp-10h]
  0000000010205878: 48 81 FA 00 01 00  cmp         rdx,100h
                    00
  000000001020587F: 73 02              jae         0000000010205883
  0000000010205881: EB 08              jmp         000000001020588B
  0000000010205883: B0 01              mov         al,1
  0000000010205885: B9 42 1C 00 00     mov         ecx,1C42h
  000000001020588A: CC                 int         3
  000000001020588B: 48 C1 E2 01        shl         rdx,1
  000000001020588F: 48 03 CA           add         rcx,rdx
  0000000010205892: 0F B7 09           movzx       ecx,word ptr [rcx]
  0000000010205895: 66 89 08           mov         word ptr [rax],cx
  0000000010205898: 48 FF 45 F0        inc         qword ptr [rbp-10h]
  000000001020589C: EB 94              jmp         0000000010205832
  000000001020589E: 48 8B 4B C0        mov         rcx,qword ptr [rbx-40h]
  00000000102058A2: BA 08 00 00 00     mov         edx,8
  00000000102058A7: 41 B8 A8 00 00 00  mov         r8d,0A8h
  00000000102058AD: FF 53 E8           call        qword ptr [rbx-18h]
  00000000102058B0: 48 83 C0 10        add         rax,10h
  00000000102058B4: 48 8D 8B D0 F7 FF  lea         rcx,[rbx+FFFFFFFFFFFFF7D0h]
                    FF
  00000000102058BB: 48 89 48 F8        mov         qword ptr [rax-8],rcx
  00000000102058BF: 48 89 45 E8        mov         qword ptr [rbp-18h],rax
  00000000102058C3: 48 8B 45 E8        mov         rax,qword ptr [rbp-18h]
  00000000102058C7: 48 8B 4D F8        mov         rcx,qword ptr [rbp-8]
  00000000102058CB: 48 89 88 88 00 00  mov         qword ptr [rax+0000000000000088h],rcx
                    00
  00000000102058D2: 48 8B 45 E8        mov         rax,qword ptr [rbp-18h]
  00000000102058D6: 48 8B 8B E0 ED FF  mov         rcx,qword ptr [rbx+FFFFFFFFFFFFEDE0h]
                    FF
  00000000102058DD: 48 89 88 90 00 00  mov         qword ptr [rax+0000000000000090h],rcx
                    00
  00000000102058E4: 48 8B 45 E8        mov         rax,qword ptr [rbp-18h]
  00000000102058E8: 48 89 83 E0 ED FF  mov         qword ptr [rbx+FFFFFFFFFFFFEDE0h],rax
                    FF
  00000000102058EF: EB 0C              jmp         00000000102058FD
  00000000102058F1: 48 8B 45 F8        mov         rax,qword ptr [rbp-8]
  00000000102058F5: 48 C7 40 48 FF FF  mov         qword ptr [rax+48h],0FFFFFFFFFFFFFFFFh
                    FF FF
  00000000102058FD: 48 8B 45 F8        mov         rax,qword ptr [rbp-8]
  0000000010205901: 48 8B 5D E0        mov         rbx,qword ptr [rbp-20h]
  0000000010205905: C9                 leave
  0000000010205906: C3                 ret
  0000000010205907: 90                 nop
  0000000010205908: 90                 nop
  0000000010205909: 90                 nop
  000000001020590A: 90                 nop
  000000001020590B: 90                 nop
  000000001020590C: 90                 nop
  000000001020590D: 90                 nop
  000000001020590E: 90                 nop
  000000001020590F: 90                 nop
  0000000010205910: 55                 push        rbp
  0000000010205911: 48 8B EC           mov         rbp,rsp
  0000000010205914: 48 83 EC 30        sub         rsp,30h
  0000000010205918: 48 89 5D F0        mov         qword ptr [rbp-10h],rbx
  000000001020591C: 48 8D 1D DD F6 FF  lea         rbx,[0000000010205000h]
                    FF
  0000000010205923: 48 C7 45 F8 00 00  mov         qword ptr [rbp-8],0
                    00 00
  000000001020592B: 48 8B 4B C0        mov         rcx,qword ptr [rbx-40h]
  000000001020592F: BA 08 00 00 00     mov         edx,8
  0000000010205934: 41 B8 70 00 00 00  mov         r8d,70h
  000000001020593A: FF 53 E8           call        qword ptr [rbx-18h]
  000000001020593D: 48 83 C0 10        add         rax,10h
  0000000010205941: 48 8D 8B 30 F6 FF  lea         rcx,[rbx+FFFFFFFFFFFFF630h]
                    FF
  0000000010205948: 48 89 48 F8        mov         qword ptr [rax-8],rcx
  000000001020594C: 48 89 45 F8        mov         qword ptr [rbp-8],rax
  0000000010205950: 48 8B 45 F8        mov         rax,qword ptr [rbp-8]
  0000000010205954: 48 C7 00 05 00 00  mov         qword ptr [rax],5
                    00
  000000001020595B: 48 8B 45 F8        mov         rax,qword ptr [rbp-8]
  000000001020595F: 48 8B 8B 88 EE FF  mov         rcx,qword ptr [rbx+FFFFFFFFFFFFEE88h]
                    FF
  0000000010205966: 48 89 48 38        mov         qword ptr [rax+38h],rcx
  000000001020596A: 48 8B 45 F8        mov         rax,qword ptr [rbp-8]
  000000001020596E: 48 8B 5D F0        mov         rbx,qword ptr [rbp-10h]
  0000000010205972: C9                 leave
  0000000010205973: C3                 ret
  0000000010205974: 90                 nop
  0000000010205975: 90                 nop
  0000000010205976: 90                 nop
  0000000010205977: 90                 nop
  0000000010205978: 90                 nop
  0000000010205979: 90                 nop
  000000001020597A: 90                 nop
  000000001020597B: 90                 nop
  000000001020597C: 90                 nop
  000000001020597D: 90                 nop
  000000001020597E: 90                 nop
  000000001020597F: 90                 nop
  0000000010205980: 55                 push        rbp
  0000000010205981: 48 8B EC           mov         rbp,rsp
  0000000010205984: 48 83 EC 30        sub         rsp,30h
  0000000010205988: 48 89 5D F0        mov         qword ptr [rbp-10h],rbx
  000000001020598C: 48 8D 1D 6D F6 FF  lea         rbx,[0000000010205000h]
                    FF
  0000000010205993: 48 89 4D 10        mov         qword ptr [rbp+10h],rcx
  0000000010205997: 48 C7 45 F8 00 00  mov         qword ptr [rbp-8],0
                    00 00
  000000001020599F: 48 8B 4B C0        mov         rcx,qword ptr [rbx-40h]
  00000000102059A3: BA 08 00 00 00     mov         edx,8
  00000000102059A8: 41 B8 38 00 00 00  mov         r8d,38h
  00000000102059AE: FF 53 E8           call        qword ptr [rbx-18h]
  00000000102059B1: 48 83 C0 10        add         rax,10h
  00000000102059B5: 48 8D 8B 50 F4 FF  lea         rcx,[rbx+FFFFFFFFFFFFF450h]
                    FF
  00000000102059BC: 48 89 48 F8        mov         qword ptr [rax-8],rcx
  00000000102059C0: 48 89 45 F8        mov         qword ptr [rbp-8],rax
  00000000102059C4: 48 8B 45 F8        mov         rax,qword ptr [rbp-8]
  00000000102059C8: 48 C7 00 01 00 00  mov         qword ptr [rax],1
                    00
  00000000102059CF: 48 8B 45 F8        mov         rax,qword ptr [rbp-8]
  00000000102059D3: 48 8B 4D 10        mov         rcx,qword ptr [rbp+10h]
  00000000102059D7: 48 89 48 08        mov         qword ptr [rax+8],rcx
  00000000102059DB: 48 8B 45 10        mov         rax,qword ptr [rbp+10h]
  00000000102059DF: 48 83 78 60 00     cmp         qword ptr [rax+60h],0
  00000000102059E4: 75 0C              jne         00000000102059F2
  00000000102059E6: 48 8B 45 10        mov         rax,qword ptr [rbp+10h]
  00000000102059EA: 48 8B 4D F8        mov         rcx,qword ptr [rbp-8]
  00000000102059EE: 48 89 48 60        mov         qword ptr [rax+60h],rcx
  00000000102059F2: 48 8B 45 F8        mov         rax,qword ptr [rbp-8]
  00000000102059F6: 48 8B 5D F0        mov         rbx,qword ptr [rbp-10h]
  00000000102059FA: C9                 leave
  00000000102059FB: C3                 ret
  00000000102059FC: 90                 nop
  00000000102059FD: 90                 nop
  00000000102059FE: 90                 nop
  00000000102059FF: 90                 nop
  0000000010205A00: 55                 push        rbp
  0000000010205A01: 48 8B EC           mov         rbp,rsp
  0000000010205A04: 48 83 EC 30        sub         rsp,30h
  0000000010205A08: 48 89 5D F0        mov         qword ptr [rbp-10h],rbx
  0000000010205A0C: 48 8D 1D ED F5 FF  lea         rbx,[0000000010205000h]
                    FF
  0000000010205A13: 48 89 4D 10        mov         qword ptr [rbp+10h],rcx
  0000000010205A17: 48 89 55 18        mov         qword ptr [rbp+18h],rdx
  0000000010205A1B: 48 C7 45 F8 00 00  mov         qword ptr [rbp-8],0
                    00 00
  0000000010205A23: 48 8B 4B C0        mov         rcx,qword ptr [rbx-40h]
  0000000010205A27: BA 08 00 00 00     mov         edx,8
  0000000010205A2C: 41 B8 40 00 00 00  mov         r8d,40h
  0000000010205A32: FF 53 E8           call        qword ptr [rbx-18h]
  0000000010205A35: 48 83 C0 10        add         rax,10h
  0000000010205A39: 48 8D 8B 70 F7 FF  lea         rcx,[rbx+FFFFFFFFFFFFF770h]
                    FF
  0000000010205A40: 48 89 48 F8        mov         qword ptr [rax-8],rcx
  0000000010205A44: 48 89 45 F8        mov         qword ptr [rbp-8],rax
  0000000010205A48: 48 8B 45 F8        mov         rax,qword ptr [rbp-8]
  0000000010205A4C: 48 8B 4D 18        mov         rcx,qword ptr [rbp+18h]
  0000000010205A50: 48 89 08           mov         qword ptr [rax],rcx
  0000000010205A53: 48 8B 45 F8        mov         rax,qword ptr [rbp-8]
  0000000010205A57: 48 8B 4D 10        mov         rcx,qword ptr [rbp+10h]
  0000000010205A5B: 48 89 48 28        mov         qword ptr [rax+28h],rcx
  0000000010205A5F: 48 8B 45 F8        mov         rax,qword ptr [rbp-8]
  0000000010205A63: 48 8B 8B B8 EF FF  mov         rcx,qword ptr [rbx+FFFFFFFFFFFFEFB8h]
                    FF
  0000000010205A6A: 48 89 48 08        mov         qword ptr [rax+8],rcx
  0000000010205A6E: 48 8B 45 F8        mov         rax,qword ptr [rbp-8]
  0000000010205A72: 48 8B 5D F0        mov         rbx,qword ptr [rbp-10h]
  0000000010205A76: C9                 leave
  0000000010205A77: C3                 ret
  0000000010205A78: 90                 nop
  0000000010205A79: 90                 nop
  0000000010205A7A: 90                 nop
  0000000010205A7B: 90                 nop
  0000000010205A7C: 90                 nop
  0000000010205A7D: 90                 nop
  0000000010205A7E: 90                 nop
  0000000010205A7F: 90                 nop
  0000000010205A80: 55                 push        rbp
  0000000010205A81: 48 8B EC           mov         rbp,rsp
  0000000010205A84: 48 83 EC 30        sub         rsp,30h
  0000000010205A88: 48 89 5D F0        mov         qword ptr [rbp-10h],rbx
  0000000010205A8C: 48 8D 1D 6D F5 FF  lea         rbx,[0000000010205000h]
                    FF
  0000000010205A93: 48 89 4D 10        mov         qword ptr [rbp+10h],rcx
  0000000010205A97: 48 89 55 18        mov         qword ptr [rbp+18h],rdx
  0000000010205A9B: 48 8B 4B C0        mov         rcx,qword ptr [rbx-40h]
  0000000010205A9F: BA 08 00 00 00     mov         edx,8
  0000000010205AA4: 41 B8 80 00 00 00  mov         r8d,80h
  0000000010205AAA: FF 53 E8           call        qword ptr [rbx-18h]
  0000000010205AAD: 48 83 C0 10        add         rax,10h
  0000000010205AB1: 48 8D 8B 00 F9 FF  lea         rcx,[rbx+FFFFFFFFFFFFF900h]
                    FF
  0000000010205AB8: 48 89 48 F8        mov         qword ptr [rax-8],rcx
  0000000010205ABC: 48 8B 4D 10        mov         rcx,qword ptr [rbp+10h]
  0000000010205AC0: 48 89 01           mov         qword ptr [rcx],rax
  0000000010205AC3: 48 8B 45 10        mov         rax,qword ptr [rbp+10h]
  0000000010205AC7: 48 8B 00           mov         rax,qword ptr [rax]
  0000000010205ACA: 48 8B 4D 18        mov         rcx,qword ptr [rbp+18h]
  0000000010205ACE: 48 89 08           mov         qword ptr [rax],rcx
  0000000010205AD1: 48 8B 45 10        mov         rax,qword ptr [rbp+10h]
  0000000010205AD5: 48 8B 00           mov         rax,qword ptr [rax]
  0000000010205AD8: 31 C9              xor         ecx,ecx
  0000000010205ADA: 48 89 48 18        mov         qword ptr [rax+18h],rcx
  0000000010205ADE: 48 8B 45 10        mov         rax,qword ptr [rbp+10h]
  0000000010205AE2: 48 8B 00           mov         rax,qword ptr [rax]
  0000000010205AE5: 31 C9              xor         ecx,ecx
  0000000010205AE7: 48 89 48 08        mov         qword ptr [rax+8],rcx
  0000000010205AEB: 48 8B 45 10        mov         rax,qword ptr [rbp+10h]
  0000000010205AEF: 48 8B 00           mov         rax,qword ptr [rax]
  0000000010205AF2: 31 C9              xor         ecx,ecx
  0000000010205AF4: 48 89 48 10        mov         qword ptr [rax+10h],rcx
  0000000010205AF8: 48 8B 45 10        mov         rax,qword ptr [rbp+10h]
  0000000010205AFC: 48 8B 00           mov         rax,qword ptr [rax]
  0000000010205AFF: 48 8B 8B 88 EE FF  mov         rcx,qword ptr [rbx+FFFFFFFFFFFFEE88h]
                    FF
  0000000010205B06: 48 89 48 30        mov         qword ptr [rax+30h],rcx
  0000000010205B0A: 48 8B 45 10        mov         rax,qword ptr [rbp+10h]
  0000000010205B0E: 48 8B 00           mov         rax,qword ptr [rax]
  0000000010205B11: 48 C7 40 68 FF FF  mov         qword ptr [rax+68h],0FFFFFFFFFFFFFFFFh
                    FF FF
  0000000010205B19: 48 8B 5D F0        mov         rbx,qword ptr [rbp-10h]
  0000000010205B1D: C9                 leave
  0000000010205B1E: C3                 ret
  0000000010205B1F: 90                 nop
  0000000010205B20: 55                 push        rbp
  0000000010205B21: 48 8B EC           mov         rbp,rsp
  0000000010205B24: 48 83 EC 30        sub         rsp,30h
  0000000010205B28: 48 89 5D F0        mov         qword ptr [rbp-10h],rbx
  0000000010205B2C: 48 8D 1D CD F4 FF  lea         rbx,[0000000010205000h]
                    FF
  0000000010205B33: 48 89 4D 10        mov         qword ptr [rbp+10h],rcx
  0000000010205B37: 48 C7 45 F8 00 00  mov         qword ptr [rbp-8],0
                    00 00
  0000000010205B3F: 48 8D 4D F8        lea         rcx,[rbp-8]
  0000000010205B43: BA 07 00 00 00     mov         edx,7
  0000000010205B48: E8 33 FF FF FF     call        0000000010205A80
  0000000010205B4D: 48 8B 45 F8        mov         rax,qword ptr [rbp-8]
  0000000010205B51: 48 8B 4D 10        mov         rcx,qword ptr [rbp+10h]
  0000000010205B55: 48 89 48 20        mov         qword ptr [rax+20h],rcx
  0000000010205B59: 48 8B 45 F8        mov         rax,qword ptr [rbp-8]
  0000000010205B5D: 48 8B 5D F0        mov         rbx,qword ptr [rbp-10h]
  0000000010205B61: C9                 leave
  0000000010205B62: C3                 ret
  0000000010205B63: 90                 nop
  0000000010205B64: 90                 nop
  0000000010205B65: 90                 nop
  0000000010205B66: 90                 nop
  0000000010205B67: 90                 nop
  0000000010205B68: 90                 nop
  0000000010205B69: 90                 nop
  0000000010205B6A: 90                 nop
  0000000010205B6B: 90                 nop
  0000000010205B6C: 90                 nop
  0000000010205B6D: 90                 nop
  0000000010205B6E: 90                 nop
  0000000010205B6F: 90                 nop
  0000000010205B70: 55                 push        rbp
  0000000010205B71: 48 8B EC           mov         rbp,rsp
  0000000010205B74: 48 83 EC 30        sub         rsp,30h
  0000000010205B78: 48 89 5D F0        mov         qword ptr [rbp-10h],rbx
  0000000010205B7C: 48 8D 1D 7D F4 FF  lea         rbx,[0000000010205000h]
                    FF
  0000000010205B83: 48 89 4D 10        mov         qword ptr [rbp+10h],rcx
  0000000010205B87: 48 8B 45 10        mov         rax,qword ptr [rbp+10h]
  0000000010205B8B: 48 8B 40 40        mov         rax,qword ptr [rax+40h]
  0000000010205B8F: 48 83 38 07        cmp         qword ptr [rax],7
  0000000010205B93: 75 09              jne         0000000010205B9E
  0000000010205B95: 48 8B 4D 10        mov         rcx,qword ptr [rbp+10h]
  0000000010205B99: E8 D2 FF FF FF     call        0000000010205B70
  0000000010205B9E: 48 8B 45 10        mov         rax,qword ptr [rbp+10h]
  0000000010205BA2: 48 8B 4D 10        mov         rcx,qword ptr [rbp+10h]
  0000000010205BA6: 48 8B 49 20        mov         rcx,qword ptr [rcx+20h]
  0000000010205BAA: 48 8B 55 10        mov         rdx,qword ptr [rbp+10h]
  0000000010205BAE: 48 8B 52 40        mov         rdx,qword ptr [rdx+40h]
  0000000010205BB2: 48 8B 52 18        mov         rdx,qword ptr [rdx+18h]
  0000000010205BB6: 48 0F AF CA        imul        rcx,rdx
  0000000010205BBA: 48 89 48 18        mov         qword ptr [rax+18h],rcx
  0000000010205BBE: 48 8B 5D F0        mov         rbx,qword ptr [rbp-10h]
  0000000010205BC2: C9                 leave
  0000000010205BC3: C3                 ret
  0000000010205BC4: 90                 nop
  0000000010205BC5: 90                 nop
  0000000010205BC6: 90                 nop
  0000000010205BC7: 90                 nop
  0000000010205BC8: 90                 nop
  0000000010205BC9: 90                 nop
  0000000010205BCA: 90                 nop
  0000000010205BCB: 90                 nop
  0000000010205BCC: 90                 nop
  0000000010205BCD: 90                 nop
  0000000010205BCE: 90                 nop
  0000000010205BCF: 90                 nop
  0000000010205BD0: 55                 push        rbp
  0000000010205BD1: 48 8B EC           mov         rbp,rsp
  0000000010205BD4: 48 83 EC 40        sub         rsp,40h
  0000000010205BD8: 48 89 5D E0        mov         qword ptr [rbp-20h],rbx
  0000000010205BDC: 48 8D 1D 1D F4 FF  lea         rbx,[0000000010205000h]
                    FF
  0000000010205BE3: 48 C7 45 F8 00 00  mov         qword ptr [rbp-8],0
                    00 00
  0000000010205BEB: 48 C7 45 F0 00 00  mov         qword ptr [rbp-10h],0
                    00 00
  0000000010205BF3: 48 8D 4D F8        lea         rcx,[rbp-8]
  0000000010205BF7: BA 08 00 00 00     mov         edx,8
  0000000010205BFC: E8 7F FE FF FF     call        0000000010205A80
  0000000010205C01: 48 8B 45 F8        mov         rax,qword ptr [rbp-8]
  0000000010205C05: 31 C9              xor         ecx,ecx
  0000000010205C07: 48 89 48 20        mov         qword ptr [rax+20h],rcx
  0000000010205C0B: 48 83 BB 88 EE FF  cmp         qword ptr [rbx+FFFFFFFFFFFFEE88h],0
                    FF 00
  0000000010205C13: 7C 4C              jl          0000000010205C61
  0000000010205C15: 48 8B 4B C0        mov         rcx,qword ptr [rbx-40h]
  0000000010205C19: BA 08 00 00 00     mov         edx,8
  0000000010205C1E: 41 B8 28 00 00 00  mov         r8d,28h
  0000000010205C24: FF 53 E8           call        qword ptr [rbx-18h]
  0000000010205C27: 48 83 C0 10        add         rax,10h
  0000000010205C2B: 48 8D 8B F0 F3 FF  lea         rcx,[rbx+FFFFFFFFFFFFF3F0h]
                    FF
  0000000010205C32: 48 89 48 F8        mov         qword ptr [rax-8],rcx
  0000000010205C36: 48 89 45 F0        mov         qword ptr [rbp-10h],rax
  0000000010205C3A: 48 8B 45 F0        mov         rax,qword ptr [rbp-10h]
  0000000010205C3E: 48 8B 4D F8        mov         rcx,qword ptr [rbp-8]
  0000000010205C42: 48 89 08           mov         qword ptr [rax],rcx
  0000000010205C45: 48 8B 45 F0        mov         rax,qword ptr [rbp-10h]
  0000000010205C49: 48 8B 8B D8 ED FF  mov         rcx,qword ptr [rbx+FFFFFFFFFFFFEDD8h]
                    FF
  0000000010205C50: 48 89 48 10        mov         qword ptr [rax+10h],rcx
  0000000010205C54: 48 8B 45 F0        mov         rax,qword ptr [rbp-10h]
  0000000010205C58: 48 89 83 D8 ED FF  mov         qword ptr [rbx+FFFFFFFFFFFFEDD8h],rax
                    FF
  0000000010205C5F: EB 12              jmp         0000000010205C73
  0000000010205C61: 48 83 BB 88 EE FF  cmp         qword ptr [rbx+FFFFFFFFFFFFEE88h],0FFFFFFFFFFFFFFFFh
                    FF FF
  0000000010205C69: 75 08              jne         0000000010205C73
  0000000010205C6B: B0 03              mov         al,3
  0000000010205C6D: B9 E2 21 00 00     mov         ecx,21E2h
  0000000010205C72: CC                 int         3
  0000000010205C73: 48 8B 45 F8        mov         rax,qword ptr [rbp-8]
  0000000010205C77: 48 8B 5D E0        mov         rbx,qword ptr [rbp-20h]
  0000000010205C7B: C9                 leave
  0000000010205C7C: C3                 ret
  0000000010205C7D: 90                 nop
  0000000010205C7E: 90                 nop
  0000000010205C7F: 90                 nop
  0000000010205C80: 55                 push        rbp
  0000000010205C81: 48 8B EC           mov         rbp,rsp
  0000000010205C84: 48 83 EC 10        sub         rsp,10h
  0000000010205C88: 48 89 5D F0        mov         qword ptr [rbp-10h],rbx
  0000000010205C8C: 48 8D 1D 6D F3 FF  lea         rbx,[0000000010205000h]
                    FF
  0000000010205C93: 48 89 4D 10        mov         qword ptr [rbp+10h],rcx
  0000000010205C97: 48 8B 45 10        mov         rax,qword ptr [rbp+10h]
  0000000010205C9B: 48 83 78 40 00     cmp         qword ptr [rax+40h],0
  0000000010205CA0: 74 2C              je          0000000010205CCE
  0000000010205CA2: 48 8B 45 10        mov         rax,qword ptr [rbp+10h]
  0000000010205CA6: 48 8B 4D 10        mov         rcx,qword ptr [rbp+10h]
  0000000010205CAA: 48 8B 49 40        mov         rcx,qword ptr [rcx+40h]
  0000000010205CAE: 48 8B 49 20        mov         rcx,qword ptr [rcx+20h]
  0000000010205CB2: 48 83 C1 01        add         rcx,1
  0000000010205CB6: 48 89 48 20        mov         qword ptr [rax+20h],rcx
  0000000010205CBA: 48 8B 45 10        mov         rax,qword ptr [rbp+10h]
  0000000010205CBE: 48 8B 4D 10        mov         rcx,qword ptr [rbp+10h]
  0000000010205CC2: 48 8B 49 40        mov         rcx,qword ptr [rcx+40h]
  0000000010205CC6: 48 8B 49 18        mov         rcx,qword ptr [rcx+18h]
  0000000010205CCA: 48 89 48 18        mov         qword ptr [rax+18h],rcx
  0000000010205CCE: 48 8B 5D F0        mov         rbx,qword ptr [rbp-10h]
  0000000010205CD2: C9                 leave
  0000000010205CD3: C3                 ret
  0000000010205CD4: 90                 nop
  0000000010205CD5: 90                 nop
  0000000010205CD6: 90                 nop
  0000000010205CD7: 90                 nop
  0000000010205CD8: 90                 nop
  0000000010205CD9: 90                 nop
  0000000010205CDA: 90                 nop
  0000000010205CDB: 90                 nop
  0000000010205CDC: 90                 nop
  0000000010205CDD: 90                 nop
  0000000010205CDE: 90                 nop
  0000000010205CDF: 90                 nop
  0000000010205CE0: 55                 push        rbp
  0000000010205CE1: 48 8B EC           mov         rbp,rsp
  0000000010205CE4: 48 83 EC 30        sub         rsp,30h
  0000000010205CE8: 48 89 5D F0        mov         qword ptr [rbp-10h],rbx
  0000000010205CEC: 48 8D 1D 0D F3 FF  lea         rbx,[0000000010205000h]
                    FF
  0000000010205CF3: 48 C7 45 F8 00 00  mov         qword ptr [rbp-8],0
                    00 00
  0000000010205CFB: 48 8D 4D F8        lea         rcx,[rbp-8]
  0000000010205CFF: BA 05 00 00 00     mov         edx,5
  0000000010205D04: E8 77 FD FF FF     call        0000000010205A80
  0000000010205D09: 48 8B 45 F8        mov         rax,qword ptr [rbp-8]
  0000000010205D0D: 48 C7 40 18 01 00  mov         qword ptr [rax+18h],1
                    00 00
  0000000010205D15: 48 8B 45 F8        mov         rax,qword ptr [rbp-8]
  0000000010205D19: 48 8B 5D F0        mov         rbx,qword ptr [rbp-10h]
  0000000010205D1D: C9                 leave
  0000000010205D1E: C3                 ret
  0000000010205D1F: 90                 nop
  0000000010205D20: 55                 push        rbp
  0000000010205D21: 48 8B EC           mov         rbp,rsp
  0000000010205D24: 48 83 EC 30        sub         rsp,30h
  0000000010205D28: 48 89 5D F0        mov         qword ptr [rbp-10h],rbx
  0000000010205D2C: 48 8D 1D CD F2 FF  lea         rbx,[0000000010205000h]
                    FF
  0000000010205D33: 48 C7 45 F8 00 00  mov         qword ptr [rbp-8],0
                    00 00
  0000000010205D3B: 48 8D 4D F8        lea         rcx,[rbp-8]
  0000000010205D3F: BA 06 00 00 00     mov         edx,6
  0000000010205D44: E8 37 FD FF FF     call        0000000010205A80
  0000000010205D49: 48 8B 45 F8        mov         rax,qword ptr [rbp-8]
  0000000010205D4D: 31 C9              xor         ecx,ecx
  0000000010205D4F: 48 89 48 58        mov         qword ptr [rax+58h],rcx
  0000000010205D53: 48 8B 45 F8        mov         rax,qword ptr [rbp-8]
  0000000010205D57: 48 8B 5D F0        mov         rbx,qword ptr [rbp-10h]
  0000000010205D5B: C9                 leave
  0000000010205D5C: C3                 ret
  0000000010205D5D: 90                 nop
  0000000010205D5E: 90                 nop
  0000000010205D5F: 90                 nop
  0000000010205D60: 55                 push        rbp
  0000000010205D61: 48 8B EC           mov         rbp,rsp
  0000000010205D64: 48 83 EC 20        sub         rsp,20h
  0000000010205D68: 48 89 4D 10        mov         qword ptr [rbp+10h],rcx
  0000000010205D6C: 48 89 55 18        mov         qword ptr [rbp+18h],rdx
  0000000010205D70: 48 8B 4D 10        mov         rcx,qword ptr [rbp+10h]
  0000000010205D74: 48 8B 55 18        mov         rdx,qword ptr [rbp+18h]
  0000000010205D78: E8 03 FD FF FF     call        0000000010205A80
  0000000010205D7D: 48 FF 83 C0 ED FF  inc         qword ptr [rbx+FFFFFFFFFFFFEDC0h]
                    FF
  0000000010205D84: 48 8B 45 10        mov         rax,qword ptr [rbp+10h]
  0000000010205D88: 48 8B 00           mov         rax,qword ptr [rax]
  0000000010205D8B: 48 8B 8B C0 ED FF  mov         rcx,qword ptr [rbx+FFFFFFFFFFFFEDC0h]
                    FF
  0000000010205D92: 48 89 48 68        mov         qword ptr [rax+68h],rcx
  0000000010205D96: 48 8D 83 B8 EE FF  lea         rax,[rbx+FFFFFFFFFFFFEEB8h]
                    FF
  0000000010205D9D: 48 8B 8B C0 ED FF  mov         rcx,qword ptr [rbx+FFFFFFFFFFFFEDC0h]
                    FF
  0000000010205DA4: 48 83 F9 20        cmp         rcx,20h
  0000000010205DA8: 73 02              jae         0000000010205DAC
  0000000010205DAA: EB 08              jmp         0000000010205DB4
  0000000010205DAC: B0 01              mov         al,1
  0000000010205DAE: B9 4E 24 00 00     mov         ecx,244Eh
  0000000010205DB3: CC                 int         3
  0000000010205DB4: 48 C1 E1 03        shl         rcx,3
  0000000010205DB8: 48 03 C1           add         rax,rcx
  0000000010205DBB: 48 8B 4D 10        mov         rcx,qword ptr [rbp+10h]
  0000000010205DBF: 48 8B 09           mov         rcx,qword ptr [rcx]
  0000000010205DC2: 48 89 08           mov         qword ptr [rax],rcx
  0000000010205DC5: C9                 leave
  0000000010205DC6: C3                 ret
  0000000010205DC7: 90                 nop
  0000000010205DC8: 90                 nop
  0000000010205DC9: 90                 nop
  0000000010205DCA: 90                 nop
  0000000010205DCB: 90                 nop
  0000000010205DCC: 90                 nop
  0000000010205DCD: 90                 nop
  0000000010205DCE: 90                 nop
  0000000010205DCF: 90                 nop
  0000000010205DD0: 55                 push        rbp
  0000000010205DD1: 48 8B EC           mov         rbp,rsp
  0000000010205DD4: 48 83 EC 30        sub         rsp,30h
  0000000010205DD8: 48 89 5D F0        mov         qword ptr [rbp-10h],rbx
  0000000010205DDC: 48 8D 1D 1D F2 FF  lea         rbx,[0000000010205000h]
                    FF
  0000000010205DE3: 48 C7 45 F8 00 00  mov         qword ptr [rbp-8],0
                    00 00
  0000000010205DEB: 48 8B 4B C0        mov         rcx,qword ptr [rbx-40h]
  0000000010205DEF: BA 08 00 00 00     mov         edx,8
  0000000010205DF4: 41 B8 20 00 00 00  mov         r8d,20h
  0000000010205DFA: FF 53 E8           call        qword ptr [rbx-18h]
  0000000010205DFD: 48 83 C0 10        add         rax,10h
  0000000010205E01: 48 8D 8B 30 F8 FF  lea         rcx,[rbx+FFFFFFFFFFFFF830h]
                    FF
  0000000010205E08: 48 89 48 F8        mov         qword ptr [rax-8],rcx
  0000000010205E0C: 48 89 45 F8        mov         qword ptr [rbp-8],rax
  0000000010205E10: 48 8B 45 F8        mov         rax,qword ptr [rbp-8]
  0000000010205E14: 48 8B 8B A0 EE FF  mov         rcx,qword ptr [rbx+FFFFFFFFFFFFEEA0h]
                    FF
  0000000010205E1B: 48 89 48 08        mov         qword ptr [rax+8],rcx
  0000000010205E1F: 48 8B 45 F8        mov         rax,qword ptr [rbp-8]
  0000000010205E23: 48 89 83 A0 EE FF  mov         qword ptr [rbx+FFFFFFFFFFFFEEA0h],rax
                    FF
  0000000010205E2A: 48 8B 5D F0        mov         rbx,qword ptr [rbp-10h]
  0000000010205E2E: C9                 leave
  0000000010205E2F: C3                 ret
  0000000010205E30: 55                 push        rbp
  0000000010205E31: 48 8B EC           mov         rbp,rsp
  0000000010205E34: 48 83 EC 10        sub         rsp,10h
  0000000010205E38: 48 89 5D F0        mov         qword ptr [rbp-10h],rbx
  0000000010205E3C: 48 8D 1D BD F1 FF  lea         rbx,[0000000010205000h]
                    FF
  0000000010205E43: 48 8B 83 A0 EE FF  mov         rax,qword ptr [rbx+FFFFFFFFFFFFEEA0h]
                    FF
  0000000010205E4A: 48 8B 40 08        mov         rax,qword ptr [rax+8]
  0000000010205E4E: 48 89 83 A0 EE FF  mov         qword ptr [rbx+FFFFFFFFFFFFEEA0h],rax
                    FF
  0000000010205E55: 48 8B 5D F0        mov         rbx,qword ptr [rbp-10h]
  0000000010205E59: C9                 leave
  0000000010205E5A: C3                 ret
  0000000010205E5B: 90                 nop
  0000000010205E5C: 90                 nop
  0000000010205E5D: 90                 nop
  0000000010205E5E: 90                 nop
  0000000010205E5F: 90                 nop
  0000000010205E60: 55                 push        rbp
  0000000010205E61: 48 8B EC           mov         rbp,rsp
  0000000010205E64: 48 83 EC 10        sub         rsp,10h
  0000000010205E68: 48 89 5D F0        mov         qword ptr [rbp-10h],rbx
  0000000010205E6C: 48 8D 1D 8D F1 FF  lea         rbx,[0000000010205000h]
                    FF
  0000000010205E73: 48 89 4D 10        mov         qword ptr [rbp+10h],rcx
  0000000010205E77: 48 8B 83 88 EE FF  mov         rax,qword ptr [rbx+FFFFFFFFFFFFEE88h]
                    FF
  0000000010205E7E: 48 8B 4D 10        mov         rcx,qword ptr [rbp+10h]
  0000000010205E82: 48 03 C1           add         rax,rcx
  0000000010205E85: 48 89 83 88 EE FF  mov         qword ptr [rbx+FFFFFFFFFFFFEE88h],rax
                    FF
  0000000010205E8C: 48 8B 5D F0        mov         rbx,qword ptr [rbp-10h]
  0000000010205E90: C9                 leave
  0000000010205E91: C3                 ret
  0000000010205E92: 90                 nop
  0000000010205E93: 90                 nop
  0000000010205E94: 90                 nop
  0000000010205E95: 90                 nop
  0000000010205E96: 90                 nop
  0000000010205E97: 90                 nop
  0000000010205E98: 90                 nop
  0000000010205E99: 90                 nop
  0000000010205E9A: 90                 nop
  0000000010205E9B: 90                 nop
  0000000010205E9C: 90                 nop
  0000000010205E9D: 90                 nop
  0000000010205E9E: 90                 nop
  0000000010205E9F: 90                 nop
  0000000010205EA0: 55                 push        rbp
  0000000010205EA1: 48 8B EC           mov         rbp,rsp
  0000000010205EA4: 48 83 EC 40        sub         rsp,40h
  0000000010205EA8: 48 89 75 E0        mov         qword ptr [rbp-20h],rsi
  0000000010205EAC: 48 89 7D E8        mov         qword ptr [rbp-18h],rdi
  0000000010205EB0: 48 89 4D 10        mov         qword ptr [rbp+10h],rcx
  0000000010205EB4: 48 89 55 18        mov         qword ptr [rbp+18h],rdx
  0000000010205EB8: 48 C7 45 F8 00 00  mov         qword ptr [rbp-8],0
                    00 00
  0000000010205EC0: 48 8B 4B C0        mov         rcx,qword ptr [rbx-40h]
  0000000010205EC4: BA 08 00 00 00     mov         edx,8
  0000000010205EC9: 41 B8 A8 00 00 00  mov         r8d,0A8h
  0000000010205ECF: FF 53 E8           call        qword ptr [rbx-18h]
  0000000010205ED2: 48 83 C0 10        add         rax,10h
  0000000010205ED6: 48 8D 8B D0 F7 FF  lea         rcx,[rbx+FFFFFFFFFFFFF7D0h]
                    FF
  0000000010205EDD: 48 89 48 F8        mov         qword ptr [rax-8],rcx
  0000000010205EE1: 48 89 45 F8        mov         qword ptr [rbp-8],rax
  0000000010205EE5: 48 8B 7D F8        mov         rdi,qword ptr [rbp-8]
  0000000010205EE9: 48 8D 7F 02        lea         rdi,[rdi+2]
  0000000010205EED: 48 8B 75 18        mov         rsi,qword ptr [rbp+18h]
  0000000010205EF1: 31 C9              xor         ecx,ecx
  0000000010205EF3: 31 C0              xor         eax,eax
  0000000010205EF5: 48 83 C1 01        add         rcx,1
  0000000010205EF9: BA 40 00 00 00     mov         edx,40h
  0000000010205EFE: 48 3B CA           cmp         rcx,rdx
  0000000010205F01: 77 02              ja          0000000010205F05
  0000000010205F03: EB 08              jmp         0000000010205F0D
  0000000010205F05: B0 07              mov         al,7
  0000000010205F07: B9 7A 26 00 00     mov         ecx,267Ah
  0000000010205F0C: CC                 int         3
  0000000010205F0D: BA 40 00 00 00     mov         edx,40h
  0000000010205F12: 48 3B CA           cmp         rcx,rdx
  0000000010205F15: 77 02              ja          0000000010205F19
  0000000010205F17: EB 08              jmp         0000000010205F21
  0000000010205F19: B0 07              mov         al,7
  0000000010205F1B: B9 7A 26 00 00     mov         ecx,267Ah
  0000000010205F20: CC                 int         3
  0000000010205F21: 66 AD              lods        word ptr [rsi]
  0000000010205F23: 66 AB              stos        word ptr [rdi]
  0000000010205F25: 85 C0              test        eax,eax
  0000000010205F27: 75 CC              jne         0000000010205EF5
  0000000010205F29: 48 8B 45 F8        mov         rax,qword ptr [rbp-8]
  0000000010205F2D: 31 C9              xor         ecx,ecx
  0000000010205F2F: 88 08              mov         byte ptr [rax],cl
  0000000010205F31: 48 8B 45 F8        mov         rax,qword ptr [rbp-8]
  0000000010205F35: 48 8B 4D 10        mov         rcx,qword ptr [rbp+10h]
  0000000010205F39: 48 89 88 88 00 00  mov         qword ptr [rax+0000000000000088h],rcx
                    00
  0000000010205F40: 48 8B 45 10        mov         rax,qword ptr [rbp+10h]
  0000000010205F44: 48 8B 4D F8        mov         rcx,qword ptr [rbp-8]
  0000000010205F48: 48 89 48 10        mov         qword ptr [rax+10h],rcx
  0000000010205F4C: 48 8B 45 F8        mov         rax,qword ptr [rbp-8]
  0000000010205F50: 48 8B 8B A0 EE FF  mov         rcx,qword ptr [rbx+FFFFFFFFFFFFEEA0h]
                    FF
  0000000010205F57: 48 8B 09           mov         rcx,qword ptr [rcx]
  0000000010205F5A: 48 89 88 90 00 00  mov         qword ptr [rax+0000000000000090h],rcx
                    00
  0000000010205F61: 48 8B 83 A0 EE FF  mov         rax,qword ptr [rbx+FFFFFFFFFFFFEEA0h]
                    FF
  0000000010205F68: 48 8B 4D F8        mov         rcx,qword ptr [rbp-8]
  0000000010205F6C: 48 89 08           mov         qword ptr [rax],rcx
  0000000010205F6F: 48 8B 75 E0        mov         rsi,qword ptr [rbp-20h]
  0000000010205F73: 48 8B 7D E8        mov         rdi,qword ptr [rbp-18h]
  0000000010205F77: C9                 leave
  0000000010205F78: C3                 ret
  0000000010205F79: 90                 nop
  0000000010205F7A: 90                 nop
  0000000010205F7B: 90                 nop
  0000000010205F7C: 90                 nop
  0000000010205F7D: 90                 nop
  0000000010205F7E: 90                 nop
  0000000010205F7F: 90                 nop
  0000000010205F80: 55                 push        rbp
  0000000010205F81: 48 8B EC           mov         rbp,rsp
  0000000010205F84: 48 83 EC 10        sub         rsp,10h
  0000000010205F88: 48 89 5D F0        mov         qword ptr [rbp-10h],rbx
  0000000010205F8C: 48 8D 1D 6D F0 FF  lea         rbx,[0000000010205000h]
                    FF
  0000000010205F93: 48 89 4D 10        mov         qword ptr [rbp+10h],rcx
  0000000010205F97: 48 8D 83 B0 C5 FF  lea         rax,[rbx+FFFFFFFFFFFFC5B0h]
                    FF
  0000000010205F9E: 48 8B 4D 10        mov         rcx,qword ptr [rbp+10h]
  0000000010205FA2: 48 F7 D9           neg         rcx
  0000000010205FA5: 48 83 E9 02        sub         rcx,2
  0000000010205FA9: 48 81 F9 00 01 00  cmp         rcx,100h
                    00
  0000000010205FB0: 73 02              jae         0000000010205FB4
  0000000010205FB2: EB 08              jmp         0000000010205FBC
  0000000010205FB4: B0 01              mov         al,1
  0000000010205FB6: B9 07 28 00 00     mov         ecx,2807h
  0000000010205FBB: CC                 int         3
  0000000010205FBC: 48 C1 E1 03        shl         rcx,3
  0000000010205FC0: 48 03 C1           add         rax,rcx
  0000000010205FC3: 48 8B 00           mov         rax,qword ptr [rax]
  0000000010205FC6: 48 8B 5D F0        mov         rbx,qword ptr [rbp-10h]
  0000000010205FCA: C9                 leave
  0000000010205FCB: C3                 ret
  0000000010205FCC: 90                 nop
  0000000010205FCD: 90                 nop
  0000000010205FCE: 90                 nop
  0000000010205FCF: 90                 nop
  0000000010205FD0: 55                 push        rbp
  0000000010205FD1: 48 8B EC           mov         rbp,rsp
  0000000010205FD4: 48 83 EC 30        sub         rsp,30h
  0000000010205FD8: 48 89 4D 10        mov         qword ptr [rbp+10h],rcx
  0000000010205FDC: 48 C7 45 F8 00 00  mov         qword ptr [rbp-8],0
                    00 00
  0000000010205FE4: 48 8B 4B C0        mov         rcx,qword ptr [rbx-40h]
  0000000010205FE8: BA 08 00 00 00     mov         edx,8
  0000000010205FED: 41 B8 A8 00 00 00  mov         r8d,0A8h
  0000000010205FF3: FF 53 E8           call        qword ptr [rbx-18h]
  0000000010205FF6: 48 83 C0 10        add         rax,10h
  0000000010205FFA: 48 8D 8B D0 F7 FF  lea         rcx,[rbx+FFFFFFFFFFFFF7D0h]
                    FF
  0000000010206001: 48 89 48 F8        mov         qword ptr [rax-8],rcx
  0000000010206005: 48 8B 4D 10        mov         rcx,qword ptr [rbp+10h]
  0000000010206009: 48 89 01           mov         qword ptr [rcx],rax
  000000001020600C: 48 FF 83 B8 ED FF  inc         qword ptr [rbx+FFFFFFFFFFFFEDB8h]
                    FF
  0000000010206013: 48 83 BB E8 ED FF  cmp         qword ptr [rbx+FFFFFFFFFFFFEDE8h],0
                    FF 00
  000000001020601B: 75 10              jne         000000001020602D
  000000001020601D: 48 8B 45 10        mov         rax,qword ptr [rbp+10h]
  0000000010206021: 48 8B 00           mov         rax,qword ptr [rax]
  0000000010206024: 48 89 83 E8 ED FF  mov         qword ptr [rbx+FFFFFFFFFFFFEDE8h],rax
                    FF
  000000001020602B: EB 3C              jmp         0000000010206069
  000000001020602D: 48 8B 83 E8 ED FF  mov         rax,qword ptr [rbx+FFFFFFFFFFFFEDE8h]
                    FF
  0000000010206034: 48 89 45 F8        mov         qword ptr [rbp-8],rax
  0000000010206038: 48 8B 45 F8        mov         rax,qword ptr [rbp-8]
  000000001020603C: 48 83 B8 90 00 00  cmp         qword ptr [rax+0000000000000090h],0
                    00 00
  0000000010206044: 74 11              je          0000000010206057
  0000000010206046: 48 8B 45 F8        mov         rax,qword ptr [rbp-8]
  000000001020604A: 48 8B 80 90 00 00  mov         rax,qword ptr [rax+0000000000000090h]
                    00
  0000000010206051: 48 89 45 F8        mov         qword ptr [rbp-8],rax
  0000000010206055: EB E1              jmp         0000000010206038
  0000000010206057: 48 8B 45 F8        mov         rax,qword ptr [rbp-8]
  000000001020605B: 48 8B 4D 10        mov         rcx,qword ptr [rbp+10h]
  000000001020605F: 48 8B 09           mov         rcx,qword ptr [rcx]
  0000000010206062: 48 89 88 90 00 00  mov         qword ptr [rax+0000000000000090h],rcx
                    00
  0000000010206069: C9                 leave
  000000001020606A: C3                 ret
  000000001020606B: 90                 nop
  000000001020606C: 90                 nop
  000000001020606D: 90                 nop
  000000001020606E: 90                 nop
  000000001020606F: 90                 nop
  0000000010206070: 55                 push        rbp
  0000000010206071: 48 8B EC           mov         rbp,rsp
  0000000010206074: 48 83 EC 20        sub         rsp,20h
  0000000010206078: 48 89 4D 10        mov         qword ptr [rbp+10h],rcx
  000000001020607C: 48 83 7D 10 00     cmp         qword ptr [rbp+10h],0
  0000000010206081: 0F 84 D1 00 00 00  je          0000000010206158
  0000000010206087: 48 8D 8B D0 ED FF  lea         rcx,[rbx+FFFFFFFFFFFFEDD0h]
                    FF
  000000001020608E: 4C 8B 45 10        mov         r8,qword ptr [rbp+10h]
  0000000010206092: 4D 8B 40 30        mov         r8,qword ptr [r8+30h]
  0000000010206096: 48 8B 93 18 FF FF  mov         rdx,qword ptr [rbx+FFFFFFFFFFFFFF18h]
                    FF
  000000001020609D: E8 5E EF FF FF     call        0000000010205000
  00000000102060A2: 48 8D 8B D0 ED FF  lea         rcx,[rbx+FFFFFFFFFFFFEDD0h]
                    FF
  00000000102060A9: 4C 8B 45 10        mov         r8,qword ptr [rbp+10h]
  00000000102060AD: 4D 8B 40 68        mov         r8,qword ptr [r8+68h]
  00000000102060B1: 48 8B 93 18 FF FF  mov         rdx,qword ptr [rbx+FFFFFFFFFFFFFF18h]
                    FF
  00000000102060B8: E8 43 EF FF FF     call        0000000010205000
  00000000102060BD: 48 8B 45 10        mov         rax,qword ptr [rbp+10h]
  00000000102060C1: 48 83 78 30 FF     cmp         qword ptr [rax+30h],0FFFFFFFFFFFFFFFFh
  00000000102060C6: 7D 56              jge         000000001020611E
  00000000102060C8: 48 8D 8B D0 ED FF  lea         rcx,[rbx+FFFFFFFFFFFFEDD0h]
                    FF
  00000000102060CF: 4C 8D 83 B0 C5 FF  lea         r8,[rbx+FFFFFFFFFFFFC5B0h]
                    FF
  00000000102060D6: 48 8B 45 10        mov         rax,qword ptr [rbp+10h]
  00000000102060DA: 48 8B 40 30        mov         rax,qword ptr [rax+30h]
  00000000102060DE: 48 F7 D8           neg         rax
  00000000102060E1: 48 83 E8 02        sub         rax,2
  00000000102060E5: 48 81 F8 00 01 00  cmp         rax,100h
                    00
  00000000102060EC: 73 02              jae         00000000102060F0
  00000000102060EE: EB 08              jmp         00000000102060F8
  00000000102060F0: B0 01              mov         al,1
  00000000102060F2: B9 BB 29 00 00     mov         ecx,29BBh
  00000000102060F7: CC                 int         3
  00000000102060F8: 48 C1 E0 03        shl         rax,3
  00000000102060FC: 4C 03 C0           add         r8,rax
  00000000102060FF: 4D 8B 00           mov         r8,qword ptr [r8]
  0000000010206102: 4D 8D 80 28 02 00  lea         r8,[r8+0000000000000228h]
                    00
  0000000010206109: 41 B9 40 00 00 00  mov         r9d,40h
  000000001020610F: 48 8B 93 18 FF FF  mov         rdx,qword ptr [rbx+FFFFFFFFFFFFFF18h]
                    FF
  0000000010206116: FF 93 F8 FE FF FF  call        qword ptr [rbx+FFFFFFFFFFFFFEF8h]
  000000001020611C: EB 38              jmp         0000000010206156
  000000001020611E: 48 8B 45 10        mov         rax,qword ptr [rbp+10h]
  0000000010206122: 48 83 78 30 00     cmp         qword ptr [rax+30h],0
  0000000010206127: 75 1A              jne         0000000010206143
  0000000010206129: 48 8B 45 10        mov         rax,qword ptr [rbp+10h]
  000000001020612D: 48 83 78 68 00     cmp         qword ptr [rax+68h],0
  0000000010206132: 7D 0D              jge         0000000010206141
  0000000010206134: 48 8B 83 98 C5 DF  mov         rax,qword ptr [rbx+FFFFFFFFFFDFC598h]
                    FF
  000000001020613B: 48 8B 4D 10        mov         rcx,qword ptr [rbp+10h]
  000000001020613F: FF D0              call        rax
  0000000010206141: EB 13              jmp         0000000010206156
  0000000010206143: 48 8B 45 10        mov         rax,qword ptr [rbp+10h]
  0000000010206147: 48 83 78 30 FF     cmp         qword ptr [rax+30h],0FFFFFFFFFFFFFFFFh
  000000001020614C: 74 08              je          0000000010206156
  000000001020614E: B0 03              mov         al,3
  0000000010206150: B9 22 2A 00 00     mov         ecx,2A22h
  0000000010206155: CC                 int         3
  0000000010206156: EB 30              jmp         0000000010206188
  0000000010206158: 48 8D 8B D0 ED FF  lea         rcx,[rbx+FFFFFFFFFFFFEDD0h]
                    FF
  000000001020615F: 45 31 C0           xor         r8d,r8d
  0000000010206162: 49 83 C0 FF        add         r8,0FFFFFFFFFFFFFFFFh
  0000000010206166: 48 8B 93 18 FF FF  mov         rdx,qword ptr [rbx+FFFFFFFFFFFFFF18h]
                    FF
  000000001020616D: E8 8E EE FF FF     call        0000000010205000
  0000000010206172: 48 8D 8B D0 ED FF  lea         rcx,[rbx+FFFFFFFFFFFFEDD0h]
                    FF
  0000000010206179: 45 31 C0           xor         r8d,r8d
  000000001020617C: 48 8B 93 18 FF FF  mov         rdx,qword ptr [rbx+FFFFFFFFFFFFFF18h]
                    FF
  0000000010206183: E8 78 EE FF FF     call        0000000010205000
  0000000010206188: C9                 leave
  0000000010206189: C3                 ret
  000000001020618A: 90                 nop
  000000001020618B: 90                 nop
  000000001020618C: 90                 nop
  000000001020618D: 90                 nop
  000000001020618E: 90                 nop
  000000001020618F: 90                 nop
  0000000010206190: 55                 push        rbp
  0000000010206191: 48 8B EC           mov         rbp,rsp
  0000000010206194: 48 83 EC 30        sub         rsp,30h
  0000000010206198: 48 89 4D 10        mov         qword ptr [rbp+10h],rcx
  000000001020619C: 48 C7 45 F8 00 00  mov         qword ptr [rbp-8],0
                    00 00
  00000000102061A4: 48 C7 45 F0 00 00  mov         qword ptr [rbp-10h],0
                    00 00
  00000000102061AC: 48 8D 8B D0 ED FF  lea         rcx,[rbx+FFFFFFFFFFFFEDD0h]
                    FF
  00000000102061B3: 4C 8B 45 10        mov         r8,qword ptr [rbp+10h]
  00000000102061B7: 4D 8B 40 08        mov         r8,qword ptr [r8+8]
  00000000102061BB: 48 8B 93 18 FF FF  mov         rdx,qword ptr [rbx+FFFFFFFFFFFFFF18h]
                    FF
  00000000102061C2: E8 39 EE FF FF     call        0000000010205000
  00000000102061C7: 48 8D 8B D0 ED FF  lea         rcx,[rbx+FFFFFFFFFFFFEDD0h]
                    FF
  00000000102061CE: 4C 8B 45 10        mov         r8,qword ptr [rbp+10h]
  00000000102061D2: 4D 8B 40 10        mov         r8,qword ptr [r8+10h]
  00000000102061D6: 48 8B 93 18 FF FF  mov         rdx,qword ptr [rbx+FFFFFFFFFFFFFF18h]
                    FF
  00000000102061DD: E8 1E EE FF FF     call        0000000010205000
  00000000102061E2: 48 8D 8B D0 ED FF  lea         rcx,[rbx+FFFFFFFFFFFFEDD0h]
                    FF
  00000000102061E9: 4C 8B 45 10        mov         r8,qword ptr [rbp+10h]
  00000000102061ED: 4D 8B 40 50        mov         r8,qword ptr [r8+50h]
  00000000102061F1: 48 8B 93 18 FF FF  mov         rdx,qword ptr [rbx+FFFFFFFFFFFFFF18h]
                    FF
  00000000102061F8: E8 03 EE FF FF     call        0000000010205000
  00000000102061FD: 48 8B 4D 10        mov         rcx,qword ptr [rbp+10h]
  0000000010206201: 48 8B 49 40        mov         rcx,qword ptr [rcx+40h]
  0000000010206205: E8 66 FE FF FF     call        0000000010206070
  000000001020620A: 48 8B 45 10        mov         rax,qword ptr [rbp+10h]
  000000001020620E: 48 8B 40 48        mov         rax,qword ptr [rax+48h]
  0000000010206212: 48 89 45 F8        mov         qword ptr [rbp-8],rax
  0000000010206216: 48 83 7D F8 00     cmp         qword ptr [rbp-8],0
  000000001020621B: 0F 84 AA 00 00 00  je          00000000102062CB
  0000000010206221: 48 8B 45 F8        mov         rax,qword ptr [rbp-8]
  0000000010206225: 48 8D 8B D0 F5 FF  lea         rcx,[rbx+FFFFFFFFFFFFF5D0h]
                    FF
  000000001020622C: 48 8B 90 88 00 00  mov         rdx,qword ptr [rax+0000000000000088h]
                    00
  0000000010206233: 48 8B 52 F8        mov         rdx,qword ptr [rdx-8]
  0000000010206237: 48 39 4A 10        cmp         qword ptr [rdx+10h],rcx
  000000001020623B: 75 02              jne         000000001020623F
  000000001020623D: EB 08              jmp         0000000010206247
  000000001020623F: B0 02              mov         al,2
  0000000010206241: B9 6D 2B 00 00     mov         ecx,2B6Dh
  0000000010206246: CC                 int         3
  0000000010206247: 48 8B 80 88 00 00  mov         rax,qword ptr [rax+0000000000000088h]
                    00
  000000001020624E: 48 89 45 F0        mov         qword ptr [rbp-10h],rax
  0000000010206252: 48 8D 8B D0 ED FF  lea         rcx,[rbx+FFFFFFFFFFFFEDD0h]
                    FF
  0000000010206259: 4C 8B 45 F0        mov         r8,qword ptr [rbp-10h]
  000000001020625D: 4D 8B 00           mov         r8,qword ptr [r8]
  0000000010206260: 48 8B 93 18 FF FF  mov         rdx,qword ptr [rbx+FFFFFFFFFFFFFF18h]
                    FF
  0000000010206267: E8 94 ED FF FF     call        0000000010205000
  000000001020626C: 48 8D 8B D0 ED FF  lea         rcx,[rbx+FFFFFFFFFFFFEDD0h]
                    FF
  0000000010206273: 4C 8B 45 F8        mov         r8,qword ptr [rbp-8]
  0000000010206277: 4D 8D 40 02        lea         r8,[r8+2]
  000000001020627B: 41 B9 40 00 00 00  mov         r9d,40h
  0000000010206281: 48 8B 93 18 FF FF  mov         rdx,qword ptr [rbx+FFFFFFFFFFFFFF18h]
                    FF
  0000000010206288: FF 93 F8 FE FF FF  call        qword ptr [rbx+FFFFFFFFFFFFFEF8h]
  000000001020628E: 48 8D 8B D0 ED FF  lea         rcx,[rbx+FFFFFFFFFFFFEDD0h]
                    FF
  0000000010206295: 4C 8B 45 F0        mov         r8,qword ptr [rbp-10h]
  0000000010206299: 45 0F B6 40 41     movzx       r8d,byte ptr [r8+41h]
  000000001020629E: 48 8B 93 18 FF FF  mov         rdx,qword ptr [rbx+FFFFFFFFFFFFFF18h]
                    FF
  00000000102062A5: E8 56 ED FF FF     call        0000000010205000
  00000000102062AA: 48 8B 4D F0        mov         rcx,qword ptr [rbp-10h]
  00000000102062AE: 48 8B 49 08        mov         rcx,qword ptr [rcx+8]
  00000000102062B2: E8 B9 FD FF FF     call        0000000010206070
  00000000102062B7: 48 8B 45 F8        mov         rax,qword ptr [rbp-8]
  00000000102062BB: 48 8B 80 90 00 00  mov         rax,qword ptr [rax+0000000000000090h]
                    00
  00000000102062C2: 48 89 45 F8        mov         qword ptr [rbp-8],rax
  00000000102062C6: E9 4B FF FF FF     jmp         0000000010206216
  00000000102062CB: 48 8D 8B D0 ED FF  lea         rcx,[rbx+FFFFFFFFFFFFEDD0h]
                    FF
  00000000102062D2: 41 B8 01 00 00 00  mov         r8d,1
  00000000102062D8: 48 8B 93 18 FF FF  mov         rdx,qword ptr [rbx+FFFFFFFFFFFFFF18h]
                    FF
  00000000102062DF: E8 1C ED FF FF     call        0000000010205000
  00000000102062E4: C9                 leave
  00000000102062E5: C3                 ret
  00000000102062E6: 90                 nop
  00000000102062E7: 90                 nop
  00000000102062E8: 90                 nop
  00000000102062E9: 90                 nop
  00000000102062EA: 90                 nop
  00000000102062EB: 90                 nop
  00000000102062EC: 90                 nop
  00000000102062ED: 90                 nop
  00000000102062EE: 90                 nop
  00000000102062EF: 90                 nop
  00000000102062F0: 55                 push        rbp
  00000000102062F1: 48 8B EC           mov         rbp,rsp
  00000000102062F4: 48 81 EC 30 02 00  sub         rsp,230h
                    00
  00000000102062FB: 48 89 4D 10        mov         qword ptr [rbp+10h],rcx
  00000000102062FF: 48 C7 45 F8 00 00  mov         qword ptr [rbp-8],0
                    00 00
  0000000010206307: 48 C7 45 F0 00 00  mov         qword ptr [rbp-10h],0
                    00 00
  000000001020630F: 48 81 BB C8 ED FF  cmp         qword ptr [rbx+FFFFFFFFFFFFEDC8h],400h
                    FF 00 04 00 00
  000000001020631A: 7D 18              jge         0000000010206334
  000000001020631C: 48 8B 45 10        mov         rax,qword ptr [rbp+10h]
  0000000010206320: 48 8B 8B C8 ED FF  mov         rcx,qword ptr [rbx+FFFFFFFFFFFFEDC8h]
                    FF
  0000000010206327: 48 89 48 68        mov         qword ptr [rax+68h],rcx
  000000001020632B: 48 FF 83 C8 ED FF  inc         qword ptr [rbx+FFFFFFFFFFFFEDC8h]
                    FF
  0000000010206332: EB 12              jmp         0000000010206346
  0000000010206334: 48 8D 8B 20 FA FF  lea         rcx,[rbx+FFFFFFFFFFFFFA20h]
                    FF
  000000001020633B: BA 18 00 00 00     mov         edx,18h
  0000000010206340: FF 93 00 FF FF FF  call        qword ptr [rbx+FFFFFFFFFFFFFF00h]
  0000000010206346: 48 8D 8B D0 ED FF  lea         rcx,[rbx+FFFFFFFFFFFFEDD0h]
                    FF
  000000001020634D: 4C 8B 45 10        mov         r8,qword ptr [rbp+10h]
  0000000010206351: 4D 8B 40 68        mov         r8,qword ptr [r8+68h]
  0000000010206355: 48 8B 93 18 FF FF  mov         rdx,qword ptr [rbx+FFFFFFFFFFFFFF18h]
                    FF
  000000001020635C: E8 9F EC FF FF     call        0000000010205000
  0000000010206361: 48 8B 45 10        mov         rax,qword ptr [rbp+10h]
  0000000010206365: 48 83 38 08        cmp         qword ptr [rax],8
  0000000010206369: 75 76              jne         00000000102063E1
  000000001020636B: 48 8D 4D F0        lea         rcx,[rbp-10h]
  000000001020636F: E8 5C FC FF FF     call        0000000010205FD0
  0000000010206374: 48 8B 4B C0        mov         rcx,qword ptr [rbx-40h]
  0000000010206378: BA 08 00 00 00     mov         edx,8
  000000001020637D: 41 B8 38 00 00 00  mov         r8d,38h
  0000000010206383: FF 53 E8           call        qword ptr [rbx-18h]
  0000000010206386: 48 83 C0 10        add         rax,10h
  000000001020638A: 48 8D 8B 50 F4 FF  lea         rcx,[rbx+FFFFFFFFFFFFF450h]
                    FF
  0000000010206391: 48 89 48 F8        mov         qword ptr [rax-8],rcx
  0000000010206395: 48 8B 4D F0        mov         rcx,qword ptr [rbp-10h]
  0000000010206399: 48 89 81 88 00 00  mov         qword ptr [rcx+0000000000000088h],rax
                    00
  00000000102063A0: 48 8B 45 F0        mov         rax,qword ptr [rbp-10h]
  00000000102063A4: 48 8B 80 88 00 00  mov         rax,qword ptr [rax+0000000000000088h]
                    00
  00000000102063AB: 48 C7 00 01 00 00  mov         qword ptr [rax],1
                    00
  00000000102063B2: 48 8B 45 F0        mov         rax,qword ptr [rbp-10h]
  00000000102063B6: 48 8B 80 88 00 00  mov         rax,qword ptr [rax+0000000000000088h]
                    00
  00000000102063BD: 48 8B 4D 10        mov         rcx,qword ptr [rbp+10h]
  00000000102063C1: 48 89 48 08        mov         qword ptr [rax+8],rcx
  00000000102063C5: 48 8D 8B D0 ED FF  lea         rcx,[rbx+FFFFFFFFFFFFEDD0h]
                    FF
  00000000102063CC: 4C 8B 83 B8 ED FF  mov         r8,qword ptr [rbx+FFFFFFFFFFFFEDB8h]
                    FF
  00000000102063D3: 48 8B 93 18 FF FF  mov         rdx,qword ptr [rbx+FFFFFFFFFFFFFF18h]
                    FF
  00000000102063DA: E8 21 EC FF FF     call        0000000010205000
  00000000102063DF: EB 16              jmp         00000000102063F7
  00000000102063E1: 48 8D 8B D0 ED FF  lea         rcx,[rbx+FFFFFFFFFFFFEDD0h]
                    FF
  00000000102063E8: 45 31 C0           xor         r8d,r8d
  00000000102063EB: 48 8B 93 18 FF FF  mov         rdx,qword ptr [rbx+FFFFFFFFFFFFFF18h]
                    FF
  00000000102063F2: E8 09 EC FF FF     call        0000000010205000
  00000000102063F7: 48 8D 8B D0 ED FF  lea         rcx,[rbx+FFFFFFFFFFFFEDD0h]
                    FF
  00000000102063FE: 4C 8B 45 10        mov         r8,qword ptr [rbp+10h]
  0000000010206402: 4D 8B 00           mov         r8,qword ptr [r8]
  0000000010206405: 48 8B 93 18 FF FF  mov         rdx,qword ptr [rbx+FFFFFFFFFFFFFF18h]
                    FF
  000000001020640C: E8 EF EB FF FF     call        0000000010205000
  0000000010206411: 48 8B 45 10        mov         rax,qword ptr [rbp+10h]
  0000000010206415: 48 83 38 08        cmp         qword ptr [rax],8
  0000000010206419: 0F 85 56 01 00 00  jne         0000000010206575
  000000001020641F: 48 8D 8B D0 ED FF  lea         rcx,[rbx+FFFFFFFFFFFFEDD0h]
                    FF
  0000000010206426: 4C 8B 45 10        mov         r8,qword ptr [rbp+10h]
  000000001020642A: 4D 8B 40 08        mov         r8,qword ptr [r8+8]
  000000001020642E: 48 8B 93 18 FF FF  mov         rdx,qword ptr [rbx+FFFFFFFFFFFFFF18h]
                    FF
  0000000010206435: E8 C6 EB FF FF     call        0000000010205000
  000000001020643A: 48 8D 8B D0 ED FF  lea         rcx,[rbx+FFFFFFFFFFFFEDD0h]
                    FF
  0000000010206441: 4C 8B 45 10        mov         r8,qword ptr [rbp+10h]
  0000000010206445: 4D 8B 40 10        mov         r8,qword ptr [r8+10h]
  0000000010206449: 48 8B 93 18 FF FF  mov         rdx,qword ptr [rbx+FFFFFFFFFFFFFF18h]
                    FF
  0000000010206450: E8 AB EB FF FF     call        0000000010205000
  0000000010206455: 48 8B 4D 10        mov         rcx,qword ptr [rbp+10h]
  0000000010206459: 48 8B 49 40        mov         rcx,qword ptr [rcx+40h]
  000000001020645D: E8 0E FC FF FF     call        0000000010206070
  0000000010206462: 48 8B 45 10        mov         rax,qword ptr [rbp+10h]
  0000000010206466: 48 8B 40 48        mov         rax,qword ptr [rax+48h]
  000000001020646A: 48 89 45 F8        mov         qword ptr [rbp-8],rax
  000000001020646E: 48 83 7D F8 00     cmp         qword ptr [rbp-8],0
  0000000010206473: 0F 84 DE 00 00 00  je          0000000010206557
  0000000010206479: 48 8D 8B D0 ED FF  lea         rcx,[rbx+FFFFFFFFFFFFEDD0h]
                    FF
  0000000010206480: 41 B8 06 00 00 00  mov         r8d,6
  0000000010206486: 48 8B 93 18 FF FF  mov         rdx,qword ptr [rbx+FFFFFFFFFFFFFF18h]
                    FF
  000000001020648D: E8 6E EB FF FF     call        0000000010205000
  0000000010206492: 48 8B 45 F8        mov         rax,qword ptr [rbp-8]
  0000000010206496: 0F B6 00           movzx       eax,byte ptr [rax]
  0000000010206499: 85 C0              test        eax,eax
  000000001020649B: 75 2C              jne         00000000102064C9
  000000001020649D: 31 C0              xor         eax,eax
  000000001020649F: 66 89 85 F0 FD FF  mov         word ptr [rbp+FFFFFFFFFFFFFDF0h],ax
                    FF
  00000000102064A6: 48 8D 8B D0 ED FF  lea         rcx,[rbx+FFFFFFFFFFFFEDD0h]
                    FF
  00000000102064AD: 4C 8D 85 F0 FD FF  lea         r8,[rbp+FFFFFFFFFFFFFDF0h]
                    FF
  00000000102064B4: 41 B9 00 01 00 00  mov         r9d,100h
  00000000102064BA: 48 8B 93 18 FF FF  mov         rdx,qword ptr [rbx+FFFFFFFFFFFFFF18h]
                    FF
  00000000102064C1: FF 93 F8 FE FF FF  call        qword ptr [rbx+FFFFFFFFFFFFFEF8h]
  00000000102064C7: EB 22              jmp         00000000102064EB
  00000000102064C9: 48 8D 8B D0 ED FF  lea         rcx,[rbx+FFFFFFFFFFFFEDD0h]
                    FF
  00000000102064D0: 4C 8B 45 F8        mov         r8,qword ptr [rbp-8]
  00000000102064D4: 4D 8D 40 02        lea         r8,[r8+2]
  00000000102064D8: 41 B9 40 00 00 00  mov         r9d,40h
  00000000102064DE: 48 8B 93 18 FF FF  mov         rdx,qword ptr [rbx+FFFFFFFFFFFFFF18h]
                    FF
  00000000102064E5: FF 93 F8 FE FF FF  call        qword ptr [rbx+FFFFFFFFFFFFFEF8h]
  00000000102064EB: 48 8B 4D F8        mov         rcx,qword ptr [rbp-8]
  00000000102064EF: 48 8B 89 88 00 00  mov         rcx,qword ptr [rcx+0000000000000088h]
                    00
  00000000102064F6: 48 8B 49 08        mov         rcx,qword ptr [rcx+8]
  00000000102064FA: E8 71 FB FF FF     call        0000000010206070
  00000000102064FF: 48 8D 8B D0 ED FF  lea         rcx,[rbx+FFFFFFFFFFFFEDD0h]
                    FF
  0000000010206506: 4C 8B 45 F8        mov         r8,qword ptr [rbp-8]
  000000001020650A: 48 8D 83 10 F5 FF  lea         rax,[rbx+FFFFFFFFFFFFF510h]
                    FF
  0000000010206511: 49 8B 90 88 00 00  mov         rdx,qword ptr [r8+0000000000000088h]
                    00
  0000000010206518: 48 8B 52 F8        mov         rdx,qword ptr [rdx-8]
  000000001020651C: 48 39 42 08        cmp         qword ptr [rdx+8],rax
  0000000010206520: 75 02              jne         0000000010206524
  0000000010206522: EB 08              jmp         000000001020652C
  0000000010206524: B0 02              mov         al,2
  0000000010206526: B9 44 2F 00 00     mov         ecx,2F44h
  000000001020652B: CC                 int         3
  000000001020652C: 4D 8B 80 88 00 00  mov         r8,qword ptr [r8+0000000000000088h]
                    00
  0000000010206533: 4D 8B 40 28        mov         r8,qword ptr [r8+28h]
  0000000010206537: 48 8B 93 18 FF FF  mov         rdx,qword ptr [rbx+FFFFFFFFFFFFFF18h]
                    FF
  000000001020653E: E8 BD EA FF FF     call        0000000010205000
  0000000010206543: 48 8B 45 F8        mov         rax,qword ptr [rbp-8]
  0000000010206547: 48 8B 80 90 00 00  mov         rax,qword ptr [rax+0000000000000090h]
                    00
  000000001020654E: 48 89 45 F8        mov         qword ptr [rbp-8],rax
  0000000010206552: E9 17 FF FF FF     jmp         000000001020646E
  0000000010206557: 48 8D 8B D0 ED FF  lea         rcx,[rbx+FFFFFFFFFFFFEDD0h]
                    FF
  000000001020655E: 41 B8 01 00 00 00  mov         r8d,1
  0000000010206564: 48 8B 93 18 FF FF  mov         rdx,qword ptr [rbx+FFFFFFFFFFFFFF18h]
                    FF
  000000001020656B: E8 90 EA FF FF     call        0000000010205000
  0000000010206570: E9 CC 00 00 00     jmp         0000000010206641
  0000000010206575: 48 8B 45 10        mov         rax,qword ptr [rbp+10h]
  0000000010206579: 48 83 38 07        cmp         qword ptr [rax],7
  000000001020657D: 75 60              jne         00000000102065DF
  000000001020657F: 48 8D 8B D0 ED FF  lea         rcx,[rbx+FFFFFFFFFFFFEDD0h]
                    FF
  0000000010206586: 4C 8B 45 10        mov         r8,qword ptr [rbp+10h]
  000000001020658A: 4D 8B 40 20        mov         r8,qword ptr [r8+20h]
  000000001020658E: 48 8B 93 18 FF FF  mov         rdx,qword ptr [rbx+FFFFFFFFFFFFFF18h]
                    FF
  0000000010206595: E8 66 EA FF FF     call        0000000010205000
  000000001020659A: 48 8D 8B D0 ED FF  lea         rcx,[rbx+FFFFFFFFFFFFEDD0h]
                    FF
  00000000102065A1: 4C 8B 45 10        mov         r8,qword ptr [rbp+10h]
  00000000102065A5: 4D 8B 40 08        mov         r8,qword ptr [r8+8]
  00000000102065A9: 48 8B 93 18 FF FF  mov         rdx,qword ptr [rbx+FFFFFFFFFFFFFF18h]
                    FF
  00000000102065B0: E8 4B EA FF FF     call        0000000010205000
  00000000102065B5: 48 8D 8B D0 ED FF  lea         rcx,[rbx+FFFFFFFFFFFFEDD0h]
                    FF
  00000000102065BC: 4C 8B 45 10        mov         r8,qword ptr [rbp+10h]
  00000000102065C0: 4D 8B 40 10        mov         r8,qword ptr [r8+10h]
  00000000102065C4: 48 8B 93 18 FF FF  mov         rdx,qword ptr [rbx+FFFFFFFFFFFFFF18h]
                    FF
  00000000102065CB: E8 30 EA FF FF     call        0000000010205000
  00000000102065D0: 48 8B 4D 10        mov         rcx,qword ptr [rbp+10h]
  00000000102065D4: 48 8B 49 40        mov         rcx,qword ptr [rcx+40h]
  00000000102065D8: E8 93 FA FF FF     call        0000000010206070
  00000000102065DD: EB 62              jmp         0000000010206641
  00000000102065DF: 48 8B 45 10        mov         rax,qword ptr [rbp+10h]
  00000000102065E3: 48 83 38 05        cmp         qword ptr [rax],5
  00000000102065E7: 75 45              jne         000000001020662E
  00000000102065E9: 48 8D 8B D0 ED FF  lea         rcx,[rbx+FFFFFFFFFFFFEDD0h]
                    FF
  00000000102065F0: 4C 8B 45 10        mov         r8,qword ptr [rbp+10h]
  00000000102065F4: 4D 8B 40 08        mov         r8,qword ptr [r8+8]
  00000000102065F8: 48 8B 93 18 FF FF  mov         rdx,qword ptr [rbx+FFFFFFFFFFFFFF18h]
                    FF
  00000000102065FF: E8 FC E9 FF FF     call        0000000010205000
  0000000010206604: 48 8D 8B D0 ED FF  lea         rcx,[rbx+FFFFFFFFFFFFEDD0h]
                    FF
  000000001020660B: 4C 8B 45 10        mov         r8,qword ptr [rbp+10h]
  000000001020660F: 4D 8B 40 10        mov         r8,qword ptr [r8+10h]
  0000000010206613: 48 8B 93 18 FF FF  mov         rdx,qword ptr [rbx+FFFFFFFFFFFFFF18h]
                    FF
  000000001020661A: E8 E1 E9 FF FF     call        0000000010205000
  000000001020661F: 48 8B 4D 10        mov         rcx,qword ptr [rbp+10h]
  0000000010206623: 48 8B 49 40        mov         rcx,qword ptr [rcx+40h]
  0000000010206627: E8 44 FA FF FF     call        0000000010206070
  000000001020662C: EB 13              jmp         0000000010206641
  000000001020662E: 48 8B 45 10        mov         rax,qword ptr [rbp+10h]
  0000000010206632: 48 83 38 06        cmp         qword ptr [rax],6
  0000000010206636: 75 09              jne         0000000010206641
  0000000010206638: 48 8B 4D 10        mov         rcx,qword ptr [rbp+10h]
  000000001020663C: E8 4F FB FF FF     call        0000000010206190
  0000000010206641: C9                 leave
  0000000010206642: C3                 ret
  0000000010206643: 90                 nop
  0000000010206644: 90                 nop
  0000000010206645: 90                 nop
  0000000010206646: 90                 nop
  0000000010206647: 90                 nop
  0000000010206648: 90                 nop
  0000000010206649: 90                 nop
  000000001020664A: 90                 nop
  000000001020664B: 90                 nop
  000000001020664C: 90                 nop
  000000001020664D: 90                 nop
  000000001020664E: 90                 nop
  000000001020664F: 90                 nop
  0000000010206650: 55                 push        rbp
  0000000010206651: 48 8B EC           mov         rbp,rsp
  0000000010206654: 48 83 EC 20        sub         rsp,20h
  0000000010206658: 48 89 4D 10        mov         qword ptr [rbp+10h],rcx
  000000001020665C: 48 8D 8B D0 ED FF  lea         rcx,[rbx+FFFFFFFFFFFFEDD0h]
                    FF
  0000000010206663: 4C 8B 45 10        mov         r8,qword ptr [rbp+10h]
  0000000010206667: 4D 8B 00           mov         r8,qword ptr [r8]
  000000001020666A: 48 8B 93 18 FF FF  mov         rdx,qword ptr [rbx+FFFFFFFFFFFFFF18h]
                    FF
  0000000010206671: FF 93 F0 FE FF FF  call        qword ptr [rbx+FFFFFFFFFFFFFEF0h]
  0000000010206677: 48 8D 8B D0 ED FF  lea         rcx,[rbx+FFFFFFFFFFFFEDD0h]
                    FF
  000000001020667E: 4C 8B 45 10        mov         r8,qword ptr [rbp+10h]
  0000000010206682: 4D 8B 40 08        mov         r8,qword ptr [r8+8]
  0000000010206686: 48 8B 93 18 FF FF  mov         rdx,qword ptr [rbx+FFFFFFFFFFFFFF18h]
                    FF
  000000001020668D: FF 93 F0 FE FF FF  call        qword ptr [rbx+FFFFFFFFFFFFFEF0h]
  0000000010206693: C9                 leave
  0000000010206694: C3                 ret
  0000000010206695: 90                 nop
  0000000010206696: 90                 nop
  0000000010206697: 90                 nop
  0000000010206698: 90                 nop
  0000000010206699: 90                 nop
  000000001020669A: 90                 nop
  000000001020669B: 90                 nop
  000000001020669C: 90                 nop
  000000001020669D: 90                 nop
  000000001020669E: 90                 nop
  000000001020669F: 90                 nop
  00000000102066A0: 55                 push        rbp
  00000000102066A1: 48 8B EC           mov         rbp,rsp
  00000000102066A4: 48 81 EC D0 02 00  sub         rsp,2D0h
                    00
  00000000102066AB: 48 89 9D 50 FD FF  mov         qword ptr [rbp+FFFFFFFFFFFFFD50h],rbx
                    FF
  00000000102066B2: 48 8D 1D 47 E9 FF  lea         rbx,[0000000010205000h]
                    FF
  00000000102066B9: 48 C7 45 F8 00 00  mov         qword ptr [rbp-8],0
                    00 00
  00000000102066C1: 48 C7 45 F0 00 00  mov         qword ptr [rbp-10h],0
                    00 00
  00000000102066C9: 48 C7 45 C8 00 00  mov         qword ptr [rbp-38h],0
                    00 00
  00000000102066D1: 31 C0              xor         eax,eax
  00000000102066D3: 48 89 83 C8 ED FF  mov         qword ptr [rbx+FFFFFFFFFFFFEDC8h],rax
                    FF
  00000000102066DA: 31 C0              xor         eax,eax
  00000000102066DC: 48 89 83 B8 ED FF  mov         qword ptr [rbx+FFFFFFFFFFFFEDB8h],rax
                    FF
  00000000102066E3: 48 8D 8B D0 ED FF  lea         rcx,[rbx+FFFFFFFFFFFFEDD0h]
                    FF
  00000000102066EA: 4C 8D 83 60 FA FF  lea         r8,[rbx+FFFFFFFFFFFFFA60h]
                    FF
  00000000102066F1: 41 B9 0A 00 00 00  mov         r9d,0Ah
  00000000102066F7: 48 8B 93 18 FF FF  mov         rdx,qword ptr [rbx+FFFFFFFFFFFFFF18h]
                    FF
  00000000102066FE: FF 93 E0 FE FF FF  call        qword ptr [rbx+FFFFFFFFFFFFFEE0h]
  0000000010206704: 48 8D 8B D0 ED FF  lea         rcx,[rbx+FFFFFFFFFFFFEDD0h]
                    FF
  000000001020670B: 41 B8 10 00 00 00  mov         r8d,10h
  0000000010206711: 48 8B 93 18 FF FF  mov         rdx,qword ptr [rbx+FFFFFFFFFFFFFF18h]
                    FF
  0000000010206718: FF 93 D8 FE FF FF  call        qword ptr [rbx+FFFFFFFFFFFFFED8h]
  000000001020671E: 48 8D 8B D0 ED FF  lea         rcx,[rbx+FFFFFFFFFFFFEDD0h]
                    FF
  0000000010206725: 4C 8B 83 80 EE FF  mov         r8,qword ptr [rbx+FFFFFFFFFFFFEE80h]
                    FF
  000000001020672C: 48 8B 93 18 FF FF  mov         rdx,qword ptr [rbx+FFFFFFFFFFFFFF18h]
                    FF
  0000000010206733: E8 C8 E8 FF FF     call        0000000010205000
  0000000010206738: 48 C7 45 E8 00 00  mov         qword ptr [rbp-18h],0
                    00 00
  0000000010206740: 48 8B 83 B0 ED FF  mov         rax,qword ptr [rbx+FFFFFFFFFFFFEDB0h]
                    FF
  0000000010206747: 48 83 E8 01        sub         rax,1
  000000001020674B: 48 39 45 E8        cmp         qword ptr [rbp-18h],rax
  000000001020674F: 0F 8F 80 00 00 00  jg          00000000102067D5
  0000000010206755: 48 8D 83 B0 C5 FF  lea         rax,[rbx+FFFFFFFFFFFFC5B0h]
                    FF
  000000001020675C: 48 8B 4D E8        mov         rcx,qword ptr [rbp-18h]
  0000000010206760: 48 81 F9 00 01 00  cmp         rcx,100h
                    00
  0000000010206767: 73 02              jae         000000001020676B
  0000000010206769: EB 08              jmp         0000000010206773
  000000001020676B: B0 01              mov         al,1
  000000001020676D: B9 A8 32 00 00     mov         ecx,32A8h
  0000000010206772: CC                 int         3
  0000000010206773: 48 C1 E1 03        shl         rcx,3
  0000000010206777: 48 03 C1           add         rax,rcx
  000000001020677A: 48 8B 00           mov         rax,qword ptr [rax]
  000000001020677D: 48 89 45 C8        mov         qword ptr [rbp-38h],rax
  0000000010206781: 48 8D 8B D0 ED FF  lea         rcx,[rbx+FFFFFFFFFFFFEDD0h]
                    FF
  0000000010206788: 45 31 C0           xor         r8d,r8d
  000000001020678B: 48 8B 93 18 FF FF  mov         rdx,qword ptr [rbx+FFFFFFFFFFFFFF18h]
                    FF
  0000000010206792: E8 69 E8 FF FF     call        0000000010205000
  0000000010206797: 48 8D 8B D0 ED FF  lea         rcx,[rbx+FFFFFFFFFFFFEDD0h]
                    FF
  000000001020679E: 4C 8B 45 C8        mov         r8,qword ptr [rbp-38h]
  00000000102067A2: 4D 8D 80 28 02 00  lea         r8,[r8+0000000000000228h]
                    00
  00000000102067A9: 41 B9 40 00 00 00  mov         r9d,40h
  00000000102067AF: 48 8B 93 18 FF FF  mov         rdx,qword ptr [rbx+FFFFFFFFFFFFFF18h]
                    FF
  00000000102067B6: FF 93 F8 FE FF FF  call        qword ptr [rbx+FFFFFFFFFFFFFEF8h]
  00000000102067BC: 48 8B 4D C8        mov         rcx,qword ptr [rbp-38h]
  00000000102067C0: 48 8D 89 A8 02 00  lea         rcx,[rcx+00000000000002A8h]
                    00
  00000000102067C7: E8 84 FE FF FF     call        0000000010206650
  00000000102067CC: 48 FF 45 E8        inc         qword ptr [rbp-18h]
  00000000102067D0: E9 6B FF FF FF     jmp         0000000010206740
  00000000102067D5: 48 8B 83 98 EE FF  mov         rax,qword ptr [rbx+FFFFFFFFFFFFEE98h]
                    FF
  00000000102067DC: 48 8B 00           mov         rax,qword ptr [rax]
  00000000102067DF: 48 89 45 F8        mov         qword ptr [rbp-8],rax
  00000000102067E3: 48 83 7D F8 00     cmp         qword ptr [rbp-8],0
  00000000102067E8: 0F 84 DD 02 00 00  je          0000000010206ACB
  00000000102067EE: 48 8B 45 F8        mov         rax,qword ptr [rbp-8]
  00000000102067F2: 0F B6 00           movzx       eax,byte ptr [rax]
  00000000102067F5: 85 C0              test        eax,eax
  00000000102067F7: 0F 84 BA 02 00 00  je          0000000010206AB7
  00000000102067FD: 48 8B 45 F8        mov         rax,qword ptr [rbp-8]
  0000000010206801: 48 8B 80 88 00 00  mov         rax,qword ptr [rax+0000000000000088h]
                    00
  0000000010206808: 48 83 38 04        cmp         qword ptr [rax],4
  000000001020680C: 0F 85 98 00 00 00  jne         00000000102068AA
  0000000010206812: 48 8D 8B D0 ED FF  lea         rcx,[rbx+FFFFFFFFFFFFEDD0h]
                    FF
  0000000010206819: 41 B8 04 00 00 00  mov         r8d,4
  000000001020681F: 48 8B 93 18 FF FF  mov         rdx,qword ptr [rbx+FFFFFFFFFFFFFF18h]
                    FF
  0000000010206826: E8 D5 E7 FF FF     call        0000000010205000
  000000001020682B: 48 8D 8B D0 ED FF  lea         rcx,[rbx+FFFFFFFFFFFFEDD0h]
                    FF
  0000000010206832: 4C 8B 45 F8        mov         r8,qword ptr [rbp-8]
  0000000010206836: 4D 8D 40 02        lea         r8,[r8+2]
  000000001020683A: 41 B9 40 00 00 00  mov         r9d,40h
  0000000010206840: 48 8B 93 18 FF FF  mov         rdx,qword ptr [rbx+FFFFFFFFFFFFFF18h]
                    FF
  0000000010206847: FF 93 F8 FE FF FF  call        qword ptr [rbx+FFFFFFFFFFFFFEF8h]
  000000001020684D: 48 8D 8B D0 ED FF  lea         rcx,[rbx+FFFFFFFFFFFFEDD0h]
                    FF
  0000000010206854: 4C 8B 45 F8        mov         r8,qword ptr [rbp-8]
  0000000010206858: 48 8D 83 B0 F4 FF  lea         rax,[rbx+FFFFFFFFFFFFF4B0h]
                    FF
  000000001020685F: 49 8B 90 88 00 00  mov         rdx,qword ptr [r8+0000000000000088h]
                    00
  0000000010206866: 48 8B 52 F8        mov         rdx,qword ptr [rdx-8]
  000000001020686A: 48 39 42 08        cmp         qword ptr [rdx+8],rax
  000000001020686E: 75 02              jne         0000000010206872
  0000000010206870: EB 08              jmp         000000001020687A
  0000000010206872: B0 02              mov         al,2
  0000000010206874: B9 E6 33 00 00     mov         ecx,33E6h
  0000000010206879: CC                 int         3
  000000001020687A: 4D 8B 80 88 00 00  mov         r8,qword ptr [r8+0000000000000088h]
                    00
  0000000010206881: 4D 8B 40 28        mov         r8,qword ptr [r8+28h]
  0000000010206885: 48 8B 93 18 FF FF  mov         rdx,qword ptr [rbx+FFFFFFFFFFFFFF18h]
                    FF
  000000001020688C: E8 6F E7 FF FF     call        0000000010205000
  0000000010206891: 48 8B 4D F8        mov         rcx,qword ptr [rbp-8]
  0000000010206895: 48 8B 89 88 00 00  mov         rcx,qword ptr [rcx+0000000000000088h]
                    00
  000000001020689C: 48 8B 49 08        mov         rcx,qword ptr [rcx+8]
  00000000102068A0: E8 CB F7 FF FF     call        0000000010206070
  00000000102068A5: E9 0D 02 00 00     jmp         0000000010206AB7
  00000000102068AA: 48 8B 45 F8        mov         rax,qword ptr [rbp-8]
  00000000102068AE: 48 8B 80 88 00 00  mov         rax,qword ptr [rax+0000000000000088h]
                    00
  00000000102068B5: 48 83 38 01        cmp         qword ptr [rax],1
  00000000102068B9: 75 54              jne         000000001020690F
  00000000102068BB: 48 8D 8B D0 ED FF  lea         rcx,[rbx+FFFFFFFFFFFFEDD0h]
                    FF
  00000000102068C2: 41 B8 01 00 00 00  mov         r8d,1
  00000000102068C8: 48 8B 93 18 FF FF  mov         rdx,qword ptr [rbx+FFFFFFFFFFFFFF18h]
                    FF
  00000000102068CF: E8 2C E7 FF FF     call        0000000010205000
  00000000102068D4: 48 8D 8B D0 ED FF  lea         rcx,[rbx+FFFFFFFFFFFFEDD0h]
                    FF
  00000000102068DB: 4C 8B 45 F8        mov         r8,qword ptr [rbp-8]
  00000000102068DF: 4D 8D 40 02        lea         r8,[r8+2]
  00000000102068E3: 41 B9 40 00 00 00  mov         r9d,40h
  00000000102068E9: 48 8B 93 18 FF FF  mov         rdx,qword ptr [rbx+FFFFFFFFFFFFFF18h]
                    FF
  00000000102068F0: FF 93 F8 FE FF FF  call        qword ptr [rbx+FFFFFFFFFFFFFEF8h]
  00000000102068F6: 48 8B 4D F8        mov         rcx,qword ptr [rbp-8]
  00000000102068FA: 48 8B 89 88 00 00  mov         rcx,qword ptr [rcx+0000000000000088h]
                    00
  0000000010206901: 48 8B 49 08        mov         rcx,qword ptr [rcx+8]
  0000000010206905: E8 66 F7 FF FF     call        0000000010206070
  000000001020690A: E9 A8 01 00 00     jmp         0000000010206AB7
  000000001020690F: 48 8B 45 F8        mov         rax,qword ptr [rbp-8]
  0000000010206913: 48 8B 80 88 00 00  mov         rax,qword ptr [rax+0000000000000088h]
                    00
  000000001020691A: 48 83 38 03        cmp         qword ptr [rax],3
  000000001020691E: 0F 85 EC 00 00 00  jne         0000000010206A10
  0000000010206924: 48 8D 8B D0 ED FF  lea         rcx,[rbx+FFFFFFFFFFFFEDD0h]
                    FF
  000000001020692B: 41 B8 03 00 00 00  mov         r8d,3
  0000000010206931: 48 8B 93 18 FF FF  mov         rdx,qword ptr [rbx+FFFFFFFFFFFFFF18h]
                    FF
  0000000010206938: E8 C3 E6 FF FF     call        0000000010205000
  000000001020693D: 48 8D 8B D0 ED FF  lea         rcx,[rbx+FFFFFFFFFFFFEDD0h]
                    FF
  0000000010206944: 4C 8B 45 F8        mov         r8,qword ptr [rbp-8]
  0000000010206948: 4D 8D 40 02        lea         r8,[r8+2]
  000000001020694C: 41 B9 40 00 00 00  mov         r9d,40h
  0000000010206952: 48 8B 93 18 FF FF  mov         rdx,qword ptr [rbx+FFFFFFFFFFFFFF18h]
                    FF
  0000000010206959: FF 93 F8 FE FF FF  call        qword ptr [rbx+FFFFFFFFFFFFFEF8h]
  000000001020695F: 48 8D 4D F0        lea         rcx,[rbp-10h]
  0000000010206963: E8 68 F6 FF FF     call        0000000010205FD0
  0000000010206968: 48 8B 45 F0        mov         rax,qword ptr [rbp-10h]
  000000001020696C: 48 8B 4D F8        mov         rcx,qword ptr [rbp-8]
  0000000010206970: 48 8B 89 88 00 00  mov         rcx,qword ptr [rcx+0000000000000088h]
                    00
  0000000010206977: 48 89 88 88 00 00  mov         qword ptr [rax+0000000000000088h],rcx
                    00
  000000001020697E: 48 8D 8B D0 ED FF  lea         rcx,[rbx+FFFFFFFFFFFFEDD0h]
                    FF
  0000000010206985: 4C 8B 83 B8 ED FF  mov         r8,qword ptr [rbx+FFFFFFFFFFFFEDB8h]
                    FF
  000000001020698C: 48 8B 93 18 FF FF  mov         rdx,qword ptr [rbx+FFFFFFFFFFFFFF18h]
                    FF
  0000000010206993: E8 68 E6 FF FF     call        0000000010205000
  0000000010206998: 48 8B 4D F8        mov         rcx,qword ptr [rbp-8]
  000000001020699C: 48 8B 89 88 00 00  mov         rcx,qword ptr [rcx+0000000000000088h]
                    00
  00000000102069A3: 48 8B 49 08        mov         rcx,qword ptr [rcx+8]
  00000000102069A7: E8 C4 F6 FF FF     call        0000000010206070
  00000000102069AC: 48 8B 45 F8        mov         rax,qword ptr [rbp-8]
  00000000102069B0: 48 8B 80 88 00 00  mov         rax,qword ptr [rax+0000000000000088h]
                    00
  00000000102069B7: 48 8B 40 08        mov         rax,qword ptr [rax+8]
  00000000102069BB: 48 8B 8B C0 EF FF  mov         rcx,qword ptr [rbx+FFFFFFFFFFFFEFC0h]
                    FF
  00000000102069C2: 48 3B C1           cmp         rax,rcx
  00000000102069C5: 75 44              jne         0000000010206A0B
  00000000102069C7: 48 8D 8B D0 ED FF  lea         rcx,[rbx+FFFFFFFFFFFFEDD0h]
                    FF
  00000000102069CE: 4C 8B 45 F8        mov         r8,qword ptr [rbp-8]
  00000000102069D2: 48 8D 83 A0 F6 FF  lea         rax,[rbx+FFFFFFFFFFFFF6A0h]
                    FF
  00000000102069D9: 49 8B 90 88 00 00  mov         rdx,qword ptr [r8+0000000000000088h]
                    00
  00000000102069E0: 48 8B 52 F8        mov         rdx,qword ptr [rdx-8]
  00000000102069E4: 48 39 42 10        cmp         qword ptr [rdx+10h],rax
  00000000102069E8: 75 02              jne         00000000102069EC
  00000000102069EA: EB 08              jmp         00000000102069F4
  00000000102069EC: B0 02              mov         al,2
  00000000102069EE: B9 C0 35 00 00     mov         ecx,35C0h
  00000000102069F3: CC                 int         3
  00000000102069F4: 4D 8B 80 88 00 00  mov         r8,qword ptr [r8+0000000000000088h]
                    00
  00000000102069FB: 4D 8B 40 50        mov         r8,qword ptr [r8+50h]
  00000000102069FF: 48 8B 93 18 FF FF  mov         rdx,qword ptr [rbx+FFFFFFFFFFFFFF18h]
                    FF
  0000000010206A06: E8 F5 E5 FF FF     call        0000000010205000
  0000000010206A0B: E9 A7 00 00 00     jmp         0000000010206AB7
  0000000010206A10: 48 8B 45 F8        mov         rax,qword ptr [rbp-8]
  0000000010206A14: 48 8B 80 88 00 00  mov         rax,qword ptr [rax+0000000000000088h]
                    00
  0000000010206A1B: 48 83 38 05        cmp         qword ptr [rax],5
  0000000010206A1F: 0F 85 8A 00 00 00  jne         0000000010206AAF
  0000000010206A25: 48 8D 8B D0 ED FF  lea         rcx,[rbx+FFFFFFFFFFFFEDD0h]
                    FF
  0000000010206A2C: 41 B8 05 00 00 00  mov         r8d,5
  0000000010206A32: 48 8B 93 18 FF FF  mov         rdx,qword ptr [rbx+FFFFFFFFFFFFFF18h]
                    FF
  0000000010206A39: E8 C2 E5 FF FF     call        0000000010205000
  0000000010206A3E: 48 8D 8B D0 ED FF  lea         rcx,[rbx+FFFFFFFFFFFFEDD0h]
                    FF
  0000000010206A45: 4C 8B 45 F8        mov         r8,qword ptr [rbp-8]
  0000000010206A49: 4D 8D 40 02        lea         r8,[r8+2]
  0000000010206A4D: 41 B9 40 00 00 00  mov         r9d,40h
  0000000010206A53: 48 8B 93 18 FF FF  mov         rdx,qword ptr [rbx+FFFFFFFFFFFFFF18h]
                    FF
  0000000010206A5A: FF 93 F8 FE FF FF  call        qword ptr [rbx+FFFFFFFFFFFFFEF8h]
  0000000010206A60: 48 8D 4D F0        lea         rcx,[rbp-10h]
  0000000010206A64: E8 67 F5 FF FF     call        0000000010205FD0
  0000000010206A69: 48 8B 45 F0        mov         rax,qword ptr [rbp-10h]
  0000000010206A6D: 48 8B 4D F8        mov         rcx,qword ptr [rbp-8]
  0000000010206A71: 48 8B 89 88 00 00  mov         rcx,qword ptr [rcx+0000000000000088h]
                    00
  0000000010206A78: 48 89 88 88 00 00  mov         qword ptr [rax+0000000000000088h],rcx
                    00
  0000000010206A7F: 48 8D 8B D0 ED FF  lea         rcx,[rbx+FFFFFFFFFFFFEDD0h]
                    FF
  0000000010206A86: 4C 8B 83 B8 ED FF  mov         r8,qword ptr [rbx+FFFFFFFFFFFFEDB8h]
                    FF
  0000000010206A8D: 48 8B 93 18 FF FF  mov         rdx,qword ptr [rbx+FFFFFFFFFFFFFF18h]
                    FF
  0000000010206A94: E8 67 E5 FF FF     call        0000000010205000
  0000000010206A99: 48 8B 4D F8        mov         rcx,qword ptr [rbp-8]
  0000000010206A9D: 48 8B 89 88 00 00  mov         rcx,qword ptr [rcx+0000000000000088h]
                    00
  0000000010206AA4: 48 8B 49 08        mov         rcx,qword ptr [rcx+8]
  0000000010206AA8: E8 E3 F6 FF FF     call        0000000010206190
  0000000010206AAD: EB 08              jmp         0000000010206AB7
  0000000010206AAF: B0 03              mov         al,3
  0000000010206AB1: B9 C2 36 00 00     mov         ecx,36C2h
  0000000010206AB6: CC                 int         3
  0000000010206AB7: 48 8B 45 F8        mov         rax,qword ptr [rbp-8]
  0000000010206ABB: 48 8B 80 90 00 00  mov         rax,qword ptr [rax+0000000000000090h]
                    00
  0000000010206AC2: 48 89 45 F8        mov         qword ptr [rbp-8],rax
  0000000010206AC6: E9 18 FD FF FF     jmp         00000000102067E3
  0000000010206ACB: 48 8D 8B D0 ED FF  lea         rcx,[rbx+FFFFFFFFFFFFEDD0h]
                    FF
  0000000010206AD2: 45 31 C0           xor         r8d,r8d
  0000000010206AD5: 49 83 C0 FF        add         r8,0FFFFFFFFFFFFFFFFh
  0000000010206AD9: 48 8B 93 18 FF FF  mov         rdx,qword ptr [rbx+FFFFFFFFFFFFFF18h]
                    FF
  0000000010206AE0: E8 1B E5 FF FF     call        0000000010205000
  0000000010206AE5: 48 8D 8B D0 ED FF  lea         rcx,[rbx+FFFFFFFFFFFFEDD0h]
                    FF
  0000000010206AEC: 48 8B 93 18 FF FF  mov         rdx,qword ptr [rbx+FFFFFFFFFFFFFF18h]
                    FF
  0000000010206AF3: FF 93 D0 FE FF FF  call        qword ptr [rbx+FFFFFFFFFFFFFED0h]
  0000000010206AF9: 48 89 45 D0        mov         qword ptr [rbp-30h],rax
  0000000010206AFD: 48 8D 8B D0 ED FF  lea         rcx,[rbx+FFFFFFFFFFFFEDD0h]
                    FF
  0000000010206B04: 45 31 C0           xor         r8d,r8d
  0000000010206B07: 48 8B 93 18 FF FF  mov         rdx,qword ptr [rbx+FFFFFFFFFFFFFF18h]
                    FF
  0000000010206B0E: FF 93 D8 FE FF FF  call        qword ptr [rbx+FFFFFFFFFFFFFED8h]
  0000000010206B14: 48 8D 4D A0        lea         rcx,[rbp-60h]
  0000000010206B18: 48 8B 93 E8 FE FF  mov         rdx,qword ptr [rbx+FFFFFFFFFFFFFEE8h]
                    FF
  0000000010206B1F: FF 93 C8 FE FF FF  call        qword ptr [rbx+FFFFFFFFFFFFFEC8h]
  0000000010206B25: 31 C0              xor         eax,eax
  0000000010206B27: 48 89 45 E8        mov         qword ptr [rbp-18h],rax
  0000000010206B2B: 31 C0              xor         eax,eax
  0000000010206B2D: 48 89 45 E0        mov         qword ptr [rbp-20h],rax
  0000000010206B31: 48 8D 8B D0 ED FF  lea         rcx,[rbx+FFFFFFFFFFFFEDD0h]
                    FF
  0000000010206B38: 4C 8D 45 D8        lea         r8,[rbp-28h]
  0000000010206B3C: 48 8B 93 18 FF FF  mov         rdx,qword ptr [rbx+FFFFFFFFFFFFFF18h]
                    FF
  0000000010206B43: FF 93 08 FF FF FF  call        qword ptr [rbx+FFFFFFFFFFFFFF08h]
  0000000010206B49: 48 8D 85 60 FF FF  lea         rax,[rbp+FFFFFFFFFFFFFF60h]
                    FF
  0000000010206B50: 48 8B 4D E0        mov         rcx,qword ptr [rbp-20h]
  0000000010206B54: 48 83 F9 40        cmp         rcx,40h
  0000000010206B58: 73 02              jae         0000000010206B5C
  0000000010206B5A: EB 08              jmp         0000000010206B64
  0000000010206B5C: B0 01              mov         al,1
  0000000010206B5E: B9 A3 37 00 00     mov         ecx,37A3h
  0000000010206B63: CC                 int         3
  0000000010206B64: 48 03 C1           add         rax,rcx
  0000000010206B67: 48 8B 4D D8        mov         rcx,qword ptr [rbp-28h]
  0000000010206B6B: 88 08              mov         byte ptr [rax],cl
  0000000010206B6D: 48 FF 45 E8        inc         qword ptr [rbp-18h]
  0000000010206B71: 48 FF 45 E0        inc         qword ptr [rbp-20h]
  0000000010206B75: 48 8B 45 E8        mov         rax,qword ptr [rbp-18h]
  0000000010206B79: 48 8B 4D D0        mov         rcx,qword ptr [rbp-30h]
  0000000010206B7D: 48 3B C1           cmp         rax,rcx
  0000000010206B80: 74 07              je          0000000010206B89
  0000000010206B82: 48 83 7D E0 40     cmp         qword ptr [rbp-20h],40h
  0000000010206B87: 75 A8              jne         0000000010206B31
  0000000010206B89: 48 8D 4D A0        lea         rcx,[rbp-60h]
  0000000010206B8D: 4C 8D 85 60 FF FF  lea         r8,[rbp+FFFFFFFFFFFFFF60h]
                    FF
  0000000010206B94: 4C 8B 4D E0        mov         r9,qword ptr [rbp-20h]
  0000000010206B98: 48 8B 93 E8 FE FF  mov         rdx,qword ptr [rbx+FFFFFFFFFFFFFEE8h]
                    FF
  0000000010206B9F: FF 93 C0 FE FF FF  call        qword ptr [rbx+FFFFFFFFFFFFFEC0h]
  0000000010206BA5: 48 8B 45 E8        mov         rax,qword ptr [rbp-18h]
  0000000010206BA9: 48 8B 4D D0        mov         rcx,qword ptr [rbp-30h]
  0000000010206BAD: 48 3B C1           cmp         rax,rcx
  0000000010206BB0: 0F 85 75 FF FF FF  jne         0000000010206B2B
  0000000010206BB6: 48 8D 8B D0 ED FF  lea         rcx,[rbx+FFFFFFFFFFFFEDD0h]
                    FF
  0000000010206BBD: 45 31 C0           xor         r8d,r8d
  0000000010206BC0: 48 8B 93 18 FF FF  mov         rdx,qword ptr [rbx+FFFFFFFFFFFFFF18h]
                    FF
  0000000010206BC7: FF 93 D8 FE FF FF  call        qword ptr [rbx+FFFFFFFFFFFFFED8h]
  0000000010206BCD: 48 8D 4D A0        lea         rcx,[rbp-60h]
  0000000010206BD1: 48 8B 93 E8 FE FF  mov         rdx,qword ptr [rbx+FFFFFFFFFFFFFEE8h]
                    FF
  0000000010206BD8: FF 93 B8 FE FF FF  call        qword ptr [rbx+FFFFFFFFFFFFFEB8h]
  0000000010206BDE: 48 89 83 F0 ED FF  mov         qword ptr [rbx+FFFFFFFFFFFFEDF0h],rax
                    FF
  0000000010206BE5: 48 8D 4D A0        lea         rcx,[rbp-60h]
  0000000010206BE9: 48 8B 93 E8 FE FF  mov         rdx,qword ptr [rbx+FFFFFFFFFFFFFEE8h]
                    FF
  0000000010206BF0: FF 93 B0 FE FF FF  call        qword ptr [rbx+FFFFFFFFFFFFFEB0h]
  0000000010206BF6: 48 89 83 F8 ED FF  mov         qword ptr [rbx+FFFFFFFFFFFFEDF8h],rax
                    FF
  0000000010206BFD: 48 8D 8B F0 ED FF  lea         rcx,[rbx+FFFFFFFFFFFFEDF0h]
                    FF
  0000000010206C04: E8 47 FA FF FF     call        0000000010206650
  0000000010206C09: 48 8D 8B D0 ED FF  lea         rcx,[rbx+FFFFFFFFFFFFEDD0h]
                    FF
  0000000010206C10: 48 8B 93 18 FF FF  mov         rdx,qword ptr [rbx+FFFFFFFFFFFFFF18h]
                    FF
  0000000010206C17: FF 93 A8 FE FF FF  call        qword ptr [rbx+FFFFFFFFFFFFFEA8h]
  0000000010206C1D: 48 8B 83 A0 FE FF  mov         rax,qword ptr [rbx+FFFFFFFFFFFFFEA0h]
                    FF
  0000000010206C24: 48 83 38 00        cmp         qword ptr [rax],0
  0000000010206C28: 75 78              jne         0000000010206CA2
  0000000010206C2A: 31 C0              xor         eax,eax
  0000000010206C2C: 66 89 85 60 FD FF  mov         word ptr [rbp+FFFFFFFFFFFFFD60h],ax
                    FF
  0000000010206C33: 48 8D 8B 00 EE FF  lea         rcx,[rbx+FFFFFFFFFFFFEE00h]
                    FF
  0000000010206C3A: 4C 8D 85 60 FD FF  lea         r8,[rbp+FFFFFFFFFFFFFD60h]
                    FF
  0000000010206C41: 41 B9 00 01 00 00  mov         r9d,100h
  0000000010206C47: BA 40 00 00 00     mov         edx,40h
  0000000010206C4C: E8 8F E5 FF FF     call        00000000102051E0
  0000000010206C51: 48 8D 8B 90 FA FF  lea         rcx,[rbx+FFFFFFFFFFFFFA90h]
                    FF
  0000000010206C58: 4C 8D 85 60 FD FF  lea         r8,[rbp+FFFFFFFFFFFFFD60h]
                    FF
  0000000010206C5F: 41 B9 00 01 00 00  mov         r9d,100h
  0000000010206C65: BA 05 00 00 00     mov         edx,5
  0000000010206C6A: E8 71 E5 FF FF     call        00000000102051E0
  0000000010206C6F: 48 8D 8D 60 FD FF  lea         rcx,[rbp+FFFFFFFFFFFFFD60h]
                    FF
  0000000010206C76: BA 00 01 00 00     mov         edx,100h
  0000000010206C7B: FF 93 98 FE FF FF  call        qword ptr [rbx+FFFFFFFFFFFFFE98h]
  0000000010206C81: 48 8D 8B A0 FA FF  lea         rcx,[rbx+FFFFFFFFFFFFFAA0h]
                    FF
  0000000010206C88: 4C 8D 85 60 FD FF  lea         r8,[rbp+FFFFFFFFFFFFFD60h]
                    FF
  0000000010206C8F: 41 B9 00 01 00 00  mov         r9d,100h
  0000000010206C95: BA 0A 00 00 00     mov         edx,0Ah
  0000000010206C9A: FF 93 90 FE FF FF  call        qword ptr [rbx+FFFFFFFFFFFFFE90h]
  0000000010206CA0: EB 12              jmp         0000000010206CB4
  0000000010206CA2: 48 8D 8B C0 FA FF  lea         rcx,[rbx+FFFFFFFFFFFFFAC0h]
                    FF
  0000000010206CA9: BA 0A 00 00 00     mov         edx,0Ah
  0000000010206CAE: FF 93 98 FE FF FF  call        qword ptr [rbx+FFFFFFFFFFFFFE98h]
  0000000010206CB4: 48 8B 9D 50 FD FF  mov         rbx,qword ptr [rbp+FFFFFFFFFFFFFD50h]
                    FF
  0000000010206CBB: C9                 leave
  0000000010206CBC: C3                 ret
  0000000010206CBD: 90                 nop
  0000000010206CBE: 90                 nop
  0000000010206CBF: 90                 nop
  0000000010206CC0: 55                 push        rbp
  0000000010206CC1: 48 8B EC           mov         rbp,rsp
  0000000010206CC4: 48 83 EC 20        sub         rsp,20h
  0000000010206CC8: 48 89 75 E0        mov         qword ptr [rbp-20h],rsi
  0000000010206CCC: 48 89 7D E8        mov         qword ptr [rbp-18h],rdi
  0000000010206CD0: 48 89 4D 10        mov         qword ptr [rbp+10h],rcx
  0000000010206CD4: 48 C7 45 F0 00 00  mov         qword ptr [rbp-10h],0
                    00 00
  0000000010206CDC: 31 C0              xor         eax,eax
  0000000010206CDE: 48 89 45 F0        mov         qword ptr [rbp-10h],rax
  0000000010206CE2: 48 C7 45 F8 00 00  mov         qword ptr [rbp-8],0
                    00 00
  0000000010206CEA: 48 8B 83 B0 ED FF  mov         rax,qword ptr [rbx+FFFFFFFFFFFFEDB0h]
                    FF
  0000000010206CF1: 48 83 E8 01        sub         rax,1
  0000000010206CF5: 48 39 45 F8        cmp         qword ptr [rbp-8],rax
  0000000010206CF9: 0F 8F 9B 00 00 00  jg          0000000010206D9A
  0000000010206CFF: 48 8D B3 B0 C5 FF  lea         rsi,[rbx+FFFFFFFFFFFFC5B0h]
                    FF
  0000000010206D06: 48 8B 45 F8        mov         rax,qword ptr [rbp-8]
  0000000010206D0A: 48 81 F8 00 01 00  cmp         rax,100h
                    00
  0000000010206D11: 73 02              jae         0000000010206D15
  0000000010206D13: EB 08              jmp         0000000010206D1D
  0000000010206D15: B0 01              mov         al,1
  0000000010206D17: B9 F2 3A 00 00     mov         ecx,3AF2h
  0000000010206D1C: CC                 int         3
  0000000010206D1D: 48 C1 E0 03        shl         rax,3
  0000000010206D21: 48 03 F0           add         rsi,rax
  0000000010206D24: 48 8B 36           mov         rsi,qword ptr [rsi]
  0000000010206D27: 48 8D B6 28 02 00  lea         rsi,[rsi+0000000000000228h]
                    00
  0000000010206D2E: 48 8B 7D 10        mov         rdi,qword ptr [rbp+10h]
  0000000010206D32: 31 C0              xor         eax,eax
  0000000010206D34: 48 83 C0 01        add         rax,1
  0000000010206D38: 48 83 F8 40        cmp         rax,40h
  0000000010206D3C: 77 02              ja          0000000010206D40
  0000000010206D3E: EB 08              jmp         0000000010206D48
  0000000010206D40: B0 07              mov         al,7
  0000000010206D42: B9 F2 3A 00 00     mov         ecx,3AF2h
  0000000010206D47: CC                 int         3
  0000000010206D48: 48 83 F8 40        cmp         rax,40h
  0000000010206D4C: 77 02              ja          0000000010206D50
  0000000010206D4E: EB 08              jmp         0000000010206D58
  0000000010206D50: B0 07              mov         al,7
  0000000010206D52: B9 F2 3A 00 00     mov         ecx,3AF2h
  0000000010206D57: CC                 int         3
  0000000010206D58: 66 A7              cmps        word ptr [rsi],word ptr [rdi]
  0000000010206D5A: 75 07              jne         0000000010206D63
  0000000010206D5C: 66 83 7E FE 00     cmp         word ptr [rsi-2],0
  0000000010206D61: 75 D1              jne         0000000010206D34
  0000000010206D63: 75 2C              jne         0000000010206D91
  0000000010206D65: 48 8D 83 B0 C5 FF  lea         rax,[rbx+FFFFFFFFFFFFC5B0h]
                    FF
  0000000010206D6C: 48 8B 4D F8        mov         rcx,qword ptr [rbp-8]
  0000000010206D70: 48 81 F9 00 01 00  cmp         rcx,100h
                    00
  0000000010206D77: 73 02              jae         0000000010206D7B
  0000000010206D79: EB 08              jmp         0000000010206D83
  0000000010206D7B: B0 01              mov         al,1
  0000000010206D7D: B9 1B 3B 00 00     mov         ecx,3B1Bh
  0000000010206D82: CC                 int         3
  0000000010206D83: 48 C1 E1 03        shl         rcx,3
  0000000010206D87: 48 03 C1           add         rax,rcx
  0000000010206D8A: 48 8B 00           mov         rax,qword ptr [rax]
  0000000010206D8D: 48 89 45 F0        mov         qword ptr [rbp-10h],rax
  0000000010206D91: 48 FF 45 F8        inc         qword ptr [rbp-8]
  0000000010206D95: E9 50 FF FF FF     jmp         0000000010206CEA
  0000000010206D9A: 48 8B 45 F0        mov         rax,qword ptr [rbp-10h]
  0000000010206D9E: 48 8B 75 E0        mov         rsi,qword ptr [rbp-20h]
  0000000010206DA2: 48 8B 7D E8        mov         rdi,qword ptr [rbp-18h]
  0000000010206DA6: C9                 leave
  0000000010206DA7: C3                 ret
  0000000010206DA8: 90                 nop
  0000000010206DA9: 90                 nop
  0000000010206DAA: 90                 nop
  0000000010206DAB: 90                 nop
  0000000010206DAC: 90                 nop
  0000000010206DAD: 90                 nop
  0000000010206DAE: 90                 nop
  0000000010206DAF: 90                 nop
  0000000010206DB0: 55                 push        rbp
  0000000010206DB1: 48 8B EC           mov         rbp,rsp
  0000000010206DB4: 48 83 EC 30        sub         rsp,30h
  0000000010206DB8: 48 89 75 F0        mov         qword ptr [rbp-10h],rsi
  0000000010206DBC: 48 89 7D F8        mov         qword ptr [rbp-8],rdi
  0000000010206DC0: 48 89 4D 10        mov         qword ptr [rbp+10h],rcx
  0000000010206DC4: 48 89 55 18        mov         qword ptr [rbp+18h],rdx
  0000000010206DC8: 4C 89 45 20        mov         qword ptr [rbp+20h],r8
  0000000010206DCC: 48 83 7D 10 00     cmp         qword ptr [rbp+10h],0
  0000000010206DD1: 74 3D              je          0000000010206E10
  0000000010206DD3: 48 8B 4B C0        mov         rcx,qword ptr [rbx-40h]
  0000000010206DD7: BA 08 00 00 00     mov         edx,8
  0000000010206DDC: 41 B8 A8 00 00 00  mov         r8d,0A8h
  0000000010206DE2: FF 53 E8           call        qword ptr [rbx-18h]
  0000000010206DE5: 48 83 C0 10        add         rax,10h
  0000000010206DE9: 48 8D 8B D0 F7 FF  lea         rcx,[rbx+FFFFFFFFFFFFF7D0h]
                    FF
  0000000010206DF0: 48 89 48 F8        mov         qword ptr [rax-8],rcx
  0000000010206DF4: 48 8B 4D 10        mov         rcx,qword ptr [rbp+10h]
  0000000010206DF8: 48 89 81 90 00 00  mov         qword ptr [rcx+0000000000000090h],rax
                    00
  0000000010206DFF: 48 8B 45 10        mov         rax,qword ptr [rbp+10h]
  0000000010206E03: 48 8B 80 90 00 00  mov         rax,qword ptr [rax+0000000000000090h]
                    00
  0000000010206E0A: 48 89 45 10        mov         qword ptr [rbp+10h],rax
  0000000010206E0E: EB 39              jmp         0000000010206E49
  0000000010206E10: 48 8B 4B C0        mov         rcx,qword ptr [rbx-40h]
  0000000010206E14: BA 08 00 00 00     mov         edx,8
  0000000010206E19: 41 B8 A8 00 00 00  mov         r8d,0A8h
  0000000010206E1F: FF 53 E8           call        qword ptr [rbx-18h]
  0000000010206E22: 48 83 C0 10        add         rax,10h
  0000000010206E26: 48 8D 8B D0 F7 FF  lea         rcx,[rbx+FFFFFFFFFFFFF7D0h]
                    FF
  0000000010206E2D: 48 89 48 F8        mov         qword ptr [rax-8],rcx
  0000000010206E31: 48 8B 8B A0 EE FF  mov         rcx,qword ptr [rbx+FFFFFFFFFFFFEEA0h]
                    FF
  0000000010206E38: 48 89 01           mov         qword ptr [rcx],rax
  0000000010206E3B: 48 8B 83 A0 EE FF  mov         rax,qword ptr [rbx+FFFFFFFFFFFFEEA0h]
                    FF
  0000000010206E42: 48 8B 00           mov         rax,qword ptr [rax]
  0000000010206E45: 48 89 45 10        mov         qword ptr [rbp+10h],rax
  0000000010206E49: 48 8B 45 10        mov         rax,qword ptr [rbp+10h]
  0000000010206E4D: 31 C9              xor         ecx,ecx
  0000000010206E4F: 88 08              mov         byte ptr [rax],cl
  0000000010206E51: 48 8B 45 10        mov         rax,qword ptr [rbp+10h]
  0000000010206E55: 48 8B 4D 20        mov         rcx,qword ptr [rbp+20h]
  0000000010206E59: 48 89 88 88 00 00  mov         qword ptr [rax+0000000000000088h],rcx
                    00
  0000000010206E60: 48 8B 7D 10        mov         rdi,qword ptr [rbp+10h]
  0000000010206E64: 48 8D 7F 02        lea         rdi,[rdi+2]
  0000000010206E68: 48 8B 75 18        mov         rsi,qword ptr [rbp+18h]
  0000000010206E6C: 31 C9              xor         ecx,ecx
  0000000010206E6E: 31 C0              xor         eax,eax
  0000000010206E70: 48 83 C1 01        add         rcx,1
  0000000010206E74: BA 40 00 00 00     mov         edx,40h
  0000000010206E79: 48 3B CA           cmp         rcx,rdx
  0000000010206E7C: 77 02              ja          0000000010206E80
  0000000010206E7E: EB 08              jmp         0000000010206E88
  0000000010206E80: B0 07              mov         al,7
  0000000010206E82: B9 42 3C 00 00     mov         ecx,3C42h
  0000000010206E87: CC                 int         3
  0000000010206E88: BA 40 00 00 00     mov         edx,40h
  0000000010206E8D: 48 3B CA           cmp         rcx,rdx
  0000000010206E90: 77 02              ja          0000000010206E94
  0000000010206E92: EB 08              jmp         0000000010206E9C
  0000000010206E94: B0 07              mov         al,7
  0000000010206E96: B9 42 3C 00 00     mov         ecx,3C42h
  0000000010206E9B: CC                 int         3
  0000000010206E9C: 66 AD              lods        word ptr [rsi]
  0000000010206E9E: 66 AB              stos        word ptr [rdi]
  0000000010206EA0: 85 C0              test        eax,eax
  0000000010206EA2: 75 CC              jne         0000000010206E70
  0000000010206EA4: 48 8B 45 20        mov         rax,qword ptr [rbp+20h]
  0000000010206EA8: 48 83 78 10 00     cmp         qword ptr [rax+10h],0
  0000000010206EAD: 75 0C              jne         0000000010206EBB
  0000000010206EAF: 48 8B 45 20        mov         rax,qword ptr [rbp+20h]
  0000000010206EB3: 48 8B 4D 10        mov         rcx,qword ptr [rbp+10h]
  0000000010206EB7: 48 89 48 10        mov         qword ptr [rax+10h],rcx
  0000000010206EBB: 48 8B 45 10        mov         rax,qword ptr [rbp+10h]
  0000000010206EBF: 48 8B 75 F0        mov         rsi,qword ptr [rbp-10h]
  0000000010206EC3: 48 8B 7D F8        mov         rdi,qword ptr [rbp-8]
  0000000010206EC7: C9                 leave
  0000000010206EC8: C3                 ret
  0000000010206EC9: 90                 nop
  0000000010206ECA: 90                 nop
  0000000010206ECB: 90                 nop
  0000000010206ECC: 90                 nop
  0000000010206ECD: 90                 nop
  0000000010206ECE: 90                 nop
  0000000010206ECF: 90                 nop
  0000000010206ED0: 55                 push        rbp
  0000000010206ED1: 48 8B EC           mov         rbp,rsp
  0000000010206ED4: 48 81 EC E0 02 00  sub         rsp,2E0h
                    00
  0000000010206EDB: 48 89 B5 40 FD FF  mov         qword ptr [rbp+FFFFFFFFFFFFFD40h],rsi
                    FF
  0000000010206EE2: 48 89 BD 48 FD FF  mov         qword ptr [rbp+FFFFFFFFFFFFFD48h],rdi
                    FF
  0000000010206EE9: 48 89 4D 10        mov         qword ptr [rbp+10h],rcx
  0000000010206EED: 48 C7 85 60 FD FF  mov         qword ptr [rbp+FFFFFFFFFFFFFD60h],0
                    FF 00 00 00 00
  0000000010206EF8: 48 C7 85 58 FD FF  mov         qword ptr [rbp+FFFFFFFFFFFFFD58h],0
                    FF 00 00 00 00
  0000000010206F03: 48 8D 8B D0 ED FF  lea         rcx,[rbx+FFFFFFFFFFFFEDD0h]
                    FF
  0000000010206F0A: 4C 8D 45 F8        lea         r8,[rbp-8]
  0000000010206F0E: 48 8B 93 18 FF FF  mov         rdx,qword ptr [rbx+FFFFFFFFFFFFFF18h]
                    FF
  0000000010206F15: E8 76 E1 FF FF     call        0000000010205090
  0000000010206F1A: 48 8D 8B D0 ED FF  lea         rcx,[rbx+FFFFFFFFFFFFEDD0h]
                    FF
  0000000010206F21: 4C 8D 45 F0        lea         r8,[rbp-10h]
  0000000010206F25: 48 8B 93 18 FF FF  mov         rdx,qword ptr [rbx+FFFFFFFFFFFFFF18h]
                    FF
  0000000010206F2C: E8 5F E1 FF FF     call        0000000010205090
  0000000010206F31: 48 83 7D F8 FF     cmp         qword ptr [rbp-8],0FFFFFFFFFFFFFFFFh
  0000000010206F36: 75 31              jne         0000000010206F69
  0000000010206F38: 48 8D 83 B8 EE FF  lea         rax,[rbx+FFFFFFFFFFFFEEB8h]
                    FF
  0000000010206F3F: 48 8B 4D F0        mov         rcx,qword ptr [rbp-10h]
  0000000010206F43: 48 83 F9 20        cmp         rcx,20h
  0000000010206F47: 73 02              jae         0000000010206F4B
  0000000010206F49: EB 08              jmp         0000000010206F53
  0000000010206F4B: B0 01              mov         al,1
  0000000010206F4D: B9 85 3D 00 00     mov         ecx,3D85h
  0000000010206F52: CC                 int         3
  0000000010206F53: 48 C1 E1 03        shl         rcx,3
  0000000010206F57: 48 03 C1           add         rax,rcx
  0000000010206F5A: 48 8B 00           mov         rax,qword ptr [rax]
  0000000010206F5D: 48 8B 4D 10        mov         rcx,qword ptr [rbp+10h]
  0000000010206F61: 48 89 01           mov         qword ptr [rcx],rax
  0000000010206F64: E9 27 02 00 00     jmp         0000000010207190
  0000000010206F69: 48 83 7D F8 00     cmp         qword ptr [rbp-8],0
  0000000010206F6E: 0F 85 AD 00 00 00  jne         0000000010207021
  0000000010206F74: 48 83 7D F0 00     cmp         qword ptr [rbp-10h],0
  0000000010206F79: 0F 8C 90 00 00 00  jl          000000001020700F
  0000000010206F7F: 48 8B 83 88 EE FF  mov         rax,qword ptr [rbx+FFFFFFFFFFFFEE88h]
                    FF
  0000000010206F86: 48 83 C0 02        add         rax,2
  0000000010206F8A: 48 F7 D8           neg         rax
  0000000010206F8D: 48 89 45 E8        mov         qword ptr [rbp-18h],rax
  0000000010206F91: 48 8D 83 B0 C5 FF  lea         rax,[rbx+FFFFFFFFFFFFC5B0h]
                    FF
  0000000010206F98: 48 8B 4D E8        mov         rcx,qword ptr [rbp-18h]
  0000000010206F9C: 48 81 F9 00 01 00  cmp         rcx,100h
                    00
  0000000010206FA3: 73 02              jae         0000000010206FA7
  0000000010206FA5: EB 08              jmp         0000000010206FAF
  0000000010206FA7: B0 01              mov         al,1
  0000000010206FA9: B9 D4 3D 00 00     mov         ecx,3DD4h
  0000000010206FAE: CC                 int         3
  0000000010206FAF: 48 C1 E1 03        shl         rcx,3
  0000000010206FB3: 48 03 C1           add         rax,rcx
  0000000010206FB6: 48 8B 00           mov         rax,qword ptr [rax]
  0000000010206FB9: 48 8B 80 D8 02 00  mov         rax,qword ptr [rax+00000000000002D8h]
                    00
  0000000010206FC0: 48 89 85 58 FD FF  mov         qword ptr [rbp+FFFFFFFFFFFFFD58h],rax
                    FF
  0000000010206FC7: 48 83 BD 58 FD FF  cmp         qword ptr [rbp+FFFFFFFFFFFFFD58h],0
                    FF 00
  0000000010206FCF: 74 2B              je          0000000010206FFC
  0000000010206FD1: 48 8B 85 58 FD FF  mov         rax,qword ptr [rbp+FFFFFFFFFFFFFD58h]
                    FF
  0000000010206FD8: 48 8B 00           mov         rax,qword ptr [rax]
  0000000010206FDB: 48 8B 40 68        mov         rax,qword ptr [rax+68h]
  0000000010206FDF: 48 8B 4D F0        mov         rcx,qword ptr [rbp-10h]
  0000000010206FE3: 48 3B C1           cmp         rax,rcx
  0000000010206FE6: 74 14              je          0000000010206FFC
  0000000010206FE8: 48 8B 85 58 FD FF  mov         rax,qword ptr [rbp+FFFFFFFFFFFFFD58h]
                    FF
  0000000010206FEF: 48 8B 40 10        mov         rax,qword ptr [rax+10h]
  0000000010206FF3: 48 89 85 58 FD FF  mov         qword ptr [rbp+FFFFFFFFFFFFFD58h],rax
                    FF
  0000000010206FFA: EB CB              jmp         0000000010206FC7
  0000000010206FFC: 48 8B 85 58 FD FF  mov         rax,qword ptr [rbp+FFFFFFFFFFFFFD58h]
                    FF
  0000000010207003: 48 8B 00           mov         rax,qword ptr [rax]
  0000000010207006: 48 8B 4D 10        mov         rcx,qword ptr [rbp+10h]
  000000001020700A: 48 89 01           mov         qword ptr [rcx],rax
  000000001020700D: EB 0D              jmp         000000001020701C
  000000001020700F: 48 8B 83 90 C5 DF  mov         rax,qword ptr [rbx+FFFFFFFFFFDFC590h]
                    FF
  0000000010207016: 48 8B 4D 10        mov         rcx,qword ptr [rbp+10h]
  000000001020701A: FF D0              call        rax
  000000001020701C: E9 6F 01 00 00     jmp         0000000010207190
  0000000010207021: 48 83 7D F8 FF     cmp         qword ptr [rbp-8],0FFFFFFFFFFFFFFFFh
  0000000010207026: 0F 8D 5C 01 00 00  jge         0000000010207188
  000000001020702C: 48 8D 8B D0 ED FF  lea         rcx,[rbx+FFFFFFFFFFFFEDD0h]
                    FF
  0000000010207033: 4C 8D 85 68 FF FF  lea         r8,[rbp+FFFFFFFFFFFFFF68h]
                    FF
  000000001020703A: 41 B9 40 00 00 00  mov         r9d,40h
  0000000010207040: 48 8B 93 18 FF FF  mov         rdx,qword ptr [rbx+FFFFFFFFFFFFFF18h]
                    FF
  0000000010207047: FF 93 88 FE FF FF  call        qword ptr [rbx+FFFFFFFFFFFFFE88h]
  000000001020704D: 48 8D 8D 68 FF FF  lea         rcx,[rbp+FFFFFFFFFFFFFF68h]
                    FF
  0000000010207054: E8 67 FC FF FF     call        0000000010206CC0
  0000000010207059: 48 89 85 60 FD FF  mov         qword ptr [rbp+FFFFFFFFFFFFFD60h],rax
                    FF
  0000000010207060: 48 83 BD 60 FD FF  cmp         qword ptr [rbp+FFFFFFFFFFFFFD60h],0
                    FF 00
  0000000010207068: 74 60              je          00000000102070CA
  000000001020706A: 48 8B 85 60 FD FF  mov         rax,qword ptr [rbp+FFFFFFFFFFFFFD60h]
                    FF
  0000000010207071: 48 8B 80 D8 02 00  mov         rax,qword ptr [rax+00000000000002D8h]
                    00
  0000000010207078: 48 89 85 58 FD FF  mov         qword ptr [rbp+FFFFFFFFFFFFFD58h],rax
                    FF
  000000001020707F: 48 83 BD 58 FD FF  cmp         qword ptr [rbp+FFFFFFFFFFFFFD58h],0
                    FF 00
  0000000010207087: 74 2B              je          00000000102070B4
  0000000010207089: 48 8B 85 58 FD FF  mov         rax,qword ptr [rbp+FFFFFFFFFFFFFD58h]
                    FF
  0000000010207090: 48 8B 00           mov         rax,qword ptr [rax]
  0000000010207093: 48 8B 40 68        mov         rax,qword ptr [rax+68h]
  0000000010207097: 48 8B 4D F0        mov         rcx,qword ptr [rbp-10h]
  000000001020709B: 48 3B C1           cmp         rax,rcx
  000000001020709E: 74 14              je          00000000102070B4
  00000000102070A0: 48 8B 85 58 FD FF  mov         rax,qword ptr [rbp+FFFFFFFFFFFFFD58h]
                    FF
  00000000102070A7: 48 8B 40 10        mov         rax,qword ptr [rax+10h]
  00000000102070AB: 48 89 85 58 FD FF  mov         qword ptr [rbp+FFFFFFFFFFFFFD58h],rax
                    FF
  00000000102070B2: EB CB              jmp         000000001020707F
  00000000102070B4: 48 8B 85 58 FD FF  mov         rax,qword ptr [rbp+FFFFFFFFFFFFFD58h]
                    FF
  00000000102070BB: 48 8B 00           mov         rax,qword ptr [rax]
  00000000102070BE: 48 8B 4D 10        mov         rcx,qword ptr [rbp+10h]
  00000000102070C2: 48 89 01           mov         qword ptr [rcx],rax
  00000000102070C5: E9 BC 00 00 00     jmp         0000000010207186
  00000000102070CA: 48 8D BD 68 FD FF  lea         rdi,[rbp+FFFFFFFFFFFFFD68h]
                    FF
  00000000102070D1: 48 8D B3 E0 FA FF  lea         rsi,[rbx+FFFFFFFFFFFFFAE0h]
                    FF
  00000000102070D8: B9 04 00 00 00     mov         ecx,4
  00000000102070DD: F3 48 A5           rep movs    qword ptr [rdi],qword ptr [rsi]
  00000000102070E0: 48 8D 8D 68 FF FF  lea         rcx,[rbp+FFFFFFFFFFFFFF68h]
                    FF
  00000000102070E7: 4C 8D 85 68 FD FF  lea         r8,[rbp+FFFFFFFFFFFFFD68h]
                    FF
  00000000102070EE: 41 B9 00 01 00 00  mov         r9d,100h
  00000000102070F4: BA 40 00 00 00     mov         edx,40h
  00000000102070F9: E8 E2 E0 FF FF     call        00000000102051E0
  00000000102070FE: 48 8D 8B 00 FB FF  lea         rcx,[rbx+FFFFFFFFFFFFFB00h]
                    FF
  0000000010207105: 4C 8D 85 68 FD FF  lea         r8,[rbp+FFFFFFFFFFFFFD68h]
                    FF
  000000001020710C: 41 B9 00 01 00 00  mov         r9d,100h
  0000000010207112: BA 15 00 00 00     mov         edx,15h
  0000000010207117: E8 C4 E0 FF FF     call        00000000102051E0
  000000001020711C: 48 8B 83 88 EE FF  mov         rax,qword ptr [rbx+FFFFFFFFFFFFEE88h]
                    FF
  0000000010207123: 48 83 C0 02        add         rax,2
  0000000010207127: 48 F7 D8           neg         rax
  000000001020712A: 48 89 45 E8        mov         qword ptr [rbp-18h],rax
  000000001020712E: 48 8D 8B B0 C5 FF  lea         rcx,[rbx+FFFFFFFFFFFFC5B0h]
                    FF
  0000000010207135: 48 8B 45 E8        mov         rax,qword ptr [rbp-18h]
  0000000010207139: 48 81 F8 00 01 00  cmp         rax,100h
                    00
  0000000010207140: 73 02              jae         0000000010207144
  0000000010207142: EB 08              jmp         000000001020714C
  0000000010207144: B0 01              mov         al,1
  0000000010207146: B9 AD 3F 00 00     mov         ecx,3FADh
  000000001020714B: CC                 int         3
  000000001020714C: 48 C1 E0 03        shl         rax,3
  0000000010207150: 48 03 C8           add         rcx,rax
  0000000010207153: 48 8B 09           mov         rcx,qword ptr [rcx]
  0000000010207156: 48 8D 89 28 02 00  lea         rcx,[rcx+0000000000000228h]
                    00
  000000001020715D: 4C 8D 85 68 FD FF  lea         r8,[rbp+FFFFFFFFFFFFFD68h]
                    FF
  0000000010207164: 41 B9 00 01 00 00  mov         r9d,100h
  000000001020716A: BA 40 00 00 00     mov         edx,40h
  000000001020716F: E8 6C E0 FF FF     call        00000000102051E0
  0000000010207174: 48 8D 8D 68 FD FF  lea         rcx,[rbp+FFFFFFFFFFFFFD68h]
                    FF
  000000001020717B: BA 00 01 00 00     mov         edx,100h
  0000000010207180: FF 93 00 FF FF FF  call        qword ptr [rbx+FFFFFFFFFFFFFF00h]
  0000000010207186: EB 08              jmp         0000000010207190
  0000000010207188: B0 03              mov         al,3
  000000001020718A: B9 E1 3F 00 00     mov         ecx,3FE1h
  000000001020718F: CC                 int         3
  0000000010207190: 48 8B B5 40 FD FF  mov         rsi,qword ptr [rbp+FFFFFFFFFFFFFD40h]
                    FF
  0000000010207197: 48 8B BD 48 FD FF  mov         rdi,qword ptr [rbp+FFFFFFFFFFFFFD48h]
                    FF
  000000001020719E: C9                 leave
  000000001020719F: C3                 ret
  00000000102071A0: 55                 push        rbp
  00000000102071A1: 48 8B EC           mov         rbp,rsp
  00000000102071A4: 48 83 EC 30        sub         rsp,30h
  00000000102071A8: 48 89 4D 10        mov         qword ptr [rbp+10h],rcx
  00000000102071AC: 48 C7 45 F0 00 00  mov         qword ptr [rbp-10h],0
                    00 00
  00000000102071B4: 48 8B 83 88 EE FF  mov         rax,qword ptr [rbx+FFFFFFFFFFFFEE88h]
                    FF
  00000000102071BB: 48 83 C0 02        add         rax,2
  00000000102071BF: 48 F7 D8           neg         rax
  00000000102071C2: 48 89 45 F8        mov         qword ptr [rbp-8],rax
  00000000102071C6: 48 8D 83 B0 C5 FF  lea         rax,[rbx+FFFFFFFFFFFFC5B0h]
                    FF
  00000000102071CD: 48 8B 4D F8        mov         rcx,qword ptr [rbp-8]
  00000000102071D1: 48 81 F9 00 01 00  cmp         rcx,100h
                    00
  00000000102071D8: 73 02              jae         00000000102071DC
  00000000102071DA: EB 08              jmp         00000000102071E4
  00000000102071DC: B0 01              mov         al,1
  00000000102071DE: B9 68 40 00 00     mov         ecx,4068h
  00000000102071E3: CC                 int         3
  00000000102071E4: 48 C1 E1 03        shl         rcx,3
  00000000102071E8: 48 03 C1           add         rax,rcx
  00000000102071EB: 48 8B 00           mov         rax,qword ptr [rax]
  00000000102071EE: 48 83 B8 D8 02 00  cmp         qword ptr [rax+00000000000002D8h],0
                    00 00
  00000000102071F6: 0F 84 91 00 00 00  je          000000001020728D
  00000000102071FC: 48 8D 83 B0 C5 FF  lea         rax,[rbx+FFFFFFFFFFFFC5B0h]
                    FF
  0000000010207203: 48 8B 4D F8        mov         rcx,qword ptr [rbp-8]
  0000000010207207: 48 81 F9 00 01 00  cmp         rcx,100h
                    00
  000000001020720E: 73 02              jae         0000000010207212
  0000000010207210: EB 08              jmp         000000001020721A
  0000000010207212: B0 01              mov         al,1
  0000000010207214: B9 89 40 00 00     mov         ecx,4089h
  0000000010207219: CC                 int         3
  000000001020721A: 48 C1 E1 03        shl         rcx,3
  000000001020721E: 48 03 C1           add         rax,rcx
  0000000010207221: 48 8B 00           mov         rax,qword ptr [rax]
  0000000010207224: 48 8B 80 D8 02 00  mov         rax,qword ptr [rax+00000000000002D8h]
                    00
  000000001020722B: 48 89 45 F0        mov         qword ptr [rbp-10h],rax
  000000001020722F: 48 8B 45 F0        mov         rax,qword ptr [rbp-10h]
  0000000010207233: 48 83 78 10 00     cmp         qword ptr [rax+10h],0
  0000000010207238: 74 0E              je          0000000010207248
  000000001020723A: 48 8B 45 F0        mov         rax,qword ptr [rbp-10h]
  000000001020723E: 48 8B 40 10        mov         rax,qword ptr [rax+10h]
  0000000010207242: 48 89 45 F0        mov         qword ptr [rbp-10h],rax
  0000000010207246: EB E7              jmp         000000001020722F
  0000000010207248: 48 8B 4B C0        mov         rcx,qword ptr [rbx-40h]
  000000001020724C: BA 08 00 00 00     mov         edx,8
  0000000010207251: 41 B8 28 00 00 00  mov         r8d,28h
  0000000010207257: FF 53 E8           call        qword ptr [rbx-18h]
  000000001020725A: 48 83 C0 10        add         rax,10h
  000000001020725E: 48 8D 8B F0 F3 FF  lea         rcx,[rbx+FFFFFFFFFFFFF3F0h]
                    FF
  0000000010207265: 48 89 48 F8        mov         qword ptr [rax-8],rcx
  0000000010207269: 48 8B 4D F0        mov         rcx,qword ptr [rbp-10h]
  000000001020726D: 48 89 41 10        mov         qword ptr [rcx+10h],rax
  0000000010207271: 48 8B 45 F0        mov         rax,qword ptr [rbp-10h]
  0000000010207275: 48 8B 40 10        mov         rax,qword ptr [rax+10h]
  0000000010207279: 48 89 45 F0        mov         qword ptr [rbp-10h],rax
  000000001020727D: 48 8B 45 F0        mov         rax,qword ptr [rbp-10h]
  0000000010207281: 48 8B 4D 10        mov         rcx,qword ptr [rbp+10h]
  0000000010207285: 48 89 08           mov         qword ptr [rax],rcx
  0000000010207288: E9 86 00 00 00     jmp         0000000010207313
  000000001020728D: 48 8B 4B C0        mov         rcx,qword ptr [rbx-40h]
  0000000010207291: BA 08 00 00 00     mov         edx,8
  0000000010207296: 41 B8 28 00 00 00  mov         r8d,28h
  000000001020729C: FF 53 E8           call        qword ptr [rbx-18h]
  000000001020729F: 48 83 C0 10        add         rax,10h
  00000000102072A3: 48 8D 8B F0 F3 FF  lea         rcx,[rbx+FFFFFFFFFFFFF3F0h]
                    FF
  00000000102072AA: 48 89 48 F8        mov         qword ptr [rax-8],rcx
  00000000102072AE: 48 8D 8B B0 C5 FF  lea         rcx,[rbx+FFFFFFFFFFFFC5B0h]
                    FF
  00000000102072B5: 48 8B 55 F8        mov         rdx,qword ptr [rbp-8]
  00000000102072B9: 48 81 FA 00 01 00  cmp         rdx,100h
                    00
  00000000102072C0: 73 02              jae         00000000102072C4
  00000000102072C2: EB 08              jmp         00000000102072CC
  00000000102072C4: B0 01              mov         al,1
  00000000102072C6: B9 FB 40 00 00     mov         ecx,40FBh
  00000000102072CB: CC                 int         3
  00000000102072CC: 48 C1 E2 03        shl         rdx,3
  00000000102072D0: 48 03 CA           add         rcx,rdx
  00000000102072D3: 48 8B 09           mov         rcx,qword ptr [rcx]
  00000000102072D6: 48 89 81 D8 02 00  mov         qword ptr [rcx+00000000000002D8h],rax
                    00
  00000000102072DD: 48 8D 83 B0 C5 FF  lea         rax,[rbx+FFFFFFFFFFFFC5B0h]
                    FF
  00000000102072E4: 48 8B 4D F8        mov         rcx,qword ptr [rbp-8]
  00000000102072E8: 48 81 F9 00 01 00  cmp         rcx,100h
                    00
  00000000102072EF: 73 02              jae         00000000102072F3
  00000000102072F1: EB 08              jmp         00000000102072FB
  00000000102072F3: B0 01              mov         al,1
  00000000102072F5: B9 0E 41 00 00     mov         ecx,410Eh
  00000000102072FA: CC                 int         3
  00000000102072FB: 48 C1 E1 03        shl         rcx,3
  00000000102072FF: 48 03 C1           add         rax,rcx
  0000000010207302: 48 8B 00           mov         rax,qword ptr [rax]
  0000000010207305: 48 8B 80 D8 02 00  mov         rax,qword ptr [rax+00000000000002D8h]
                    00
  000000001020730C: 48 8B 4D 10        mov         rcx,qword ptr [rbp+10h]
  0000000010207310: 48 89 08           mov         qword ptr [rax],rcx
  0000000010207313: C9                 leave
  0000000010207314: C3                 ret
  0000000010207315: 90                 nop
  0000000010207316: 90                 nop
  0000000010207317: 90                 nop
  0000000010207318: 90                 nop
  0000000010207319: 90                 nop
  000000001020731A: 90                 nop
  000000001020731B: 90                 nop
  000000001020731C: 90                 nop
  000000001020731D: 90                 nop
  000000001020731E: 90                 nop
  000000001020731F: 90                 nop
  0000000010207320: 55                 push        rbp
  0000000010207321: 48 8B EC           mov         rbp,rsp
  0000000010207324: 48 81 EC D0 00 00  sub         rsp,0D0h
                    00
  000000001020732B: 48 89 4D 10        mov         qword ptr [rbp+10h],rcx
  000000001020732F: 48 89 55 18        mov         qword ptr [rbp+18h],rdx
  0000000010207333: 48 C7 45 F8 00 00  mov         qword ptr [rbp-8],0
                    00 00
  000000001020733B: 48 C7 45 F0 00 00  mov         qword ptr [rbp-10h],0
                    00 00
  0000000010207343: 48 C7 45 E8 00 00  mov         qword ptr [rbp-18h],0
                    00 00
  000000001020734B: E8 D0 E9 FF FF     call        0000000010205D20
  0000000010207350: 48 8B 4D 10        mov         rcx,qword ptr [rbp+10h]
  0000000010207354: 48 89 01           mov         qword ptr [rcx],rax
  0000000010207357: 48 83 7D 18 FF     cmp         qword ptr [rbp+18h],0FFFFFFFFFFFFFFFFh
  000000001020735C: 7E 1B              jle         0000000010207379
  000000001020735E: 48 8B 45 10        mov         rax,qword ptr [rbp+10h]
  0000000010207362: 48 8B 00           mov         rax,qword ptr [rax]
  0000000010207365: 48 8B 4D 18        mov         rcx,qword ptr [rbp+18h]
  0000000010207369: 48 89 48 68        mov         qword ptr [rax+68h],rcx
  000000001020736D: 48 8B 4D 10        mov         rcx,qword ptr [rbp+10h]
  0000000010207371: 48 8B 09           mov         rcx,qword ptr [rcx]
  0000000010207374: E8 27 FE FF FF     call        00000000102071A0
  0000000010207379: 48 8D 8B D0 ED FF  lea         rcx,[rbx+FFFFFFFFFFFFEDD0h]
                    FF
  0000000010207380: 4C 8B 45 10        mov         r8,qword ptr [rbp+10h]
  0000000010207384: 4D 8B 00           mov         r8,qword ptr [r8]
  0000000010207387: 4D 8D 40 08        lea         r8,[r8+8]
  000000001020738B: 48 8B 93 18 FF FF  mov         rdx,qword ptr [rbx+FFFFFFFFFFFFFF18h]
                    FF
  0000000010207392: E8 F9 DC FF FF     call        0000000010205090
  0000000010207397: 48 8D 8B D0 ED FF  lea         rcx,[rbx+FFFFFFFFFFFFEDD0h]
                    FF
  000000001020739E: 4C 8B 45 10        mov         r8,qword ptr [rbp+10h]
  00000000102073A2: 4D 8B 00           mov         r8,qword ptr [r8]
  00000000102073A5: 4D 8D 40 10        lea         r8,[r8+10h]
  00000000102073A9: 48 8B 93 18 FF FF  mov         rdx,qword ptr [rbx+FFFFFFFFFFFFFF18h]
                    FF
  00000000102073B0: E8 DB DC FF FF     call        0000000010205090
  00000000102073B5: 48 8D 8B D0 ED FF  lea         rcx,[rbx+FFFFFFFFFFFFEDD0h]
                    FF
  00000000102073BC: 4C 8B 45 10        mov         r8,qword ptr [rbp+10h]
  00000000102073C0: 4D 8B 00           mov         r8,qword ptr [r8]
  00000000102073C3: 4D 8D 40 50        lea         r8,[r8+50h]
  00000000102073C7: 48 8B 93 18 FF FF  mov         rdx,qword ptr [rbx+FFFFFFFFFFFFFF18h]
                    FF
  00000000102073CE: E8 BD DC FF FF     call        0000000010205090
  00000000102073D3: 48 8B 4D 10        mov         rcx,qword ptr [rbp+10h]
  00000000102073D7: 48 8B 09           mov         rcx,qword ptr [rcx]
  00000000102073DA: 48 8D 49 40        lea         rcx,[rcx+40h]
  00000000102073DE: E8 ED FA FF FF     call        0000000010206ED0
  00000000102073E3: 48 8D 8B D0 ED FF  lea         rcx,[rbx+FFFFFFFFFFFFEDD0h]
                    FF
  00000000102073EA: 4C 8D 45 E0        lea         r8,[rbp-20h]
  00000000102073EE: 48 8B 93 18 FF FF  mov         rdx,qword ptr [rbx+FFFFFFFFFFFFFF18h]
                    FF
  00000000102073F5: E8 96 DC FF FF     call        0000000010205090
  00000000102073FA: E8 D1 E9 FF FF     call        0000000010205DD0
  00000000102073FF: 48 83 7D E0 01     cmp         qword ptr [rbp-20h],1
  0000000010207404: 0F 84 A7 00 00 00  je          00000000102074B1
  000000001020740A: 48 8D 8B D0 ED FF  lea         rcx,[rbx+FFFFFFFFFFFFEDD0h]
                    FF
  0000000010207411: 4C 8D 85 58 FF FF  lea         r8,[rbp+FFFFFFFFFFFFFF58h]
                    FF
  0000000010207418: 41 B9 40 00 00 00  mov         r9d,40h
  000000001020741E: 48 8B 93 18 FF FF  mov         rdx,qword ptr [rbx+FFFFFFFFFFFFFF18h]
                    FF
  0000000010207425: FF 93 88 FE FF FF  call        qword ptr [rbx+FFFFFFFFFFFFFE88h]
  000000001020742B: 48 8D 8B D0 ED FF  lea         rcx,[rbx+FFFFFFFFFFFFEDD0h]
                    FF
  0000000010207432: 4C 8D 45 D8        lea         r8,[rbp-28h]
  0000000010207436: 48 8B 93 18 FF FF  mov         rdx,qword ptr [rbx+FFFFFFFFFFFFFF18h]
                    FF
  000000001020743D: E8 4E DC FF FF     call        0000000010205090
  0000000010207442: 48 83 7D D8 01     cmp         qword ptr [rbp-28h],1
  0000000010207447: 75 07              jne         0000000010207450
  0000000010207449: B8 01 00 00 00     mov         eax,1
  000000001020744E: EB 02              jmp         0000000010207452
  0000000010207450: 31 C0              xor         eax,eax
  0000000010207452: 88 85 57 FF FF FF  mov         byte ptr [rbp+FFFFFFFFFFFFFF57h],al
  0000000010207458: 48 8D 4D E8        lea         rcx,[rbp-18h]
  000000001020745C: E8 6F FA FF FF     call        0000000010206ED0
  0000000010207461: 48 8B 4D 10        mov         rcx,qword ptr [rbp+10h]
  0000000010207465: 48 8B 09           mov         rcx,qword ptr [rcx]
  0000000010207468: 48 8B 55 E8        mov         rdx,qword ptr [rbp-18h]
  000000001020746C: 44 0F B6 85 57 FF  movzx       r8d,byte ptr [rbp+FFFFFFFFFFFFFF57h]
                    FF FF
  0000000010207474: E8 67 E1 FF FF     call        00000000102055E0
  0000000010207479: 48 89 45 F0        mov         qword ptr [rbp-10h],rax
  000000001020747D: 48 8B 4D F8        mov         rcx,qword ptr [rbp-8]
  0000000010207481: 48 8D 95 58 FF FF  lea         rdx,[rbp+FFFFFFFFFFFFFF58h]
                    FF
  0000000010207488: 4C 8B 45 F0        mov         r8,qword ptr [rbp-10h]
  000000001020748C: E8 1F F9 FF FF     call        0000000010206DB0
  0000000010207491: 48 89 45 F8        mov         qword ptr [rbp-8],rax
  0000000010207495: 48 8D 8B D0 ED FF  lea         rcx,[rbx+FFFFFFFFFFFFEDD0h]
                    FF
  000000001020749C: 4C 8D 45 E0        lea         r8,[rbp-20h]
  00000000102074A0: 48 8B 93 18 FF FF  mov         rdx,qword ptr [rbx+FFFFFFFFFFFFFF18h]
                    FF
  00000000102074A7: E8 E4 DB FF FF     call        0000000010205090
  00000000102074AC: E9 4E FF FF FF     jmp         00000000102073FF
  00000000102074B1: 48 8B 45 10        mov         rax,qword ptr [rbp+10h]
  00000000102074B5: 48 8B 00           mov         rax,qword ptr [rax]
  00000000102074B8: 48 8B 8B A0 EE FF  mov         rcx,qword ptr [rbx+FFFFFFFFFFFFEEA0h]
                    FF
  00000000102074BF: 48 8B 09           mov         rcx,qword ptr [rcx]
  00000000102074C2: 48 89 48 48        mov         qword ptr [rax+48h],rcx
  00000000102074C6: E8 65 E9 FF FF     call        0000000010205E30
  00000000102074CB: C9                 leave
  00000000102074CC: C3                 ret
  00000000102074CD: 90                 nop
  00000000102074CE: 90                 nop
  00000000102074CF: 90                 nop
  00000000102074D0: 55                 push        rbp
  00000000102074D1: 48 8B EC           mov         rbp,rsp
  00000000102074D4: 48 81 EC E0 00 00  sub         rsp,0E0h
                    00
  00000000102074DB: 48 89 4D 10        mov         qword ptr [rbp+10h],rcx
  00000000102074DF: 48 C7 45 F8 00 00  mov         qword ptr [rbp-8],0
                    00 00
  00000000102074E7: 48 C7 45 F0 00 00  mov         qword ptr [rbp-10h],0
                    00 00
  00000000102074EF: 48 C7 85 68 FF FF  mov         qword ptr [rbp+FFFFFFFFFFFFFF68h],0
                    FF 00 00 00 00
  00000000102074FA: 48 8D 8B D0 ED FF  lea         rcx,[rbx+FFFFFFFFFFFFEDD0h]
                    FF
  0000000010207501: 4C 8D 85 50 FF FF  lea         r8,[rbp+FFFFFFFFFFFFFF50h]
                    FF
  0000000010207508: 48 8B 93 18 FF FF  mov         rdx,qword ptr [rbx+FFFFFFFFFFFFFF18h]
                    FF
  000000001020750F: E8 7C DB FF FF     call        0000000010205090
  0000000010207514: 48 8D 8B D0 ED FF  lea         rcx,[rbx+FFFFFFFFFFFFEDD0h]
                    FF
  000000001020751B: 4C 8D 85 48 FF FF  lea         r8,[rbp+FFFFFFFFFFFFFF48h]
                    FF
  0000000010207522: 48 8B 93 18 FF FF  mov         rdx,qword ptr [rbx+FFFFFFFFFFFFFF18h]
                    FF
  0000000010207529: E8 62 DB FF FF     call        0000000010205090
  000000001020752E: 48 8D 8B D0 ED FF  lea         rcx,[rbx+FFFFFFFFFFFFEDD0h]
                    FF
  0000000010207535: 4C 8D 85 58 FF FF  lea         r8,[rbp+FFFFFFFFFFFFFF58h]
                    FF
  000000001020753C: 48 8B 93 18 FF FF  mov         rdx,qword ptr [rbx+FFFFFFFFFFFFFF18h]
                    FF
  0000000010207543: E8 48 DB FF FF     call        0000000010205090
  0000000010207548: 48 83 BD 58 FF FF  cmp         qword ptr [rbp+FFFFFFFFFFFFFF58h],8
                    FF 08
  0000000010207550: 0F 85 A2 01 00 00  jne         00000000102076F8
  0000000010207556: E8 75 E6 FF FF     call        0000000010205BD0
  000000001020755B: 48 8B 4D 10        mov         rcx,qword ptr [rbp+10h]
  000000001020755F: 48 89 01           mov         qword ptr [rcx],rax
  0000000010207562: 48 8B 4D 10        mov         rcx,qword ptr [rbp+10h]
  0000000010207566: 48 8B 09           mov         rcx,qword ptr [rcx]
  0000000010207569: E8 32 FC FF FF     call        00000000102071A0
  000000001020756E: 48 8B 45 10        mov         rax,qword ptr [rbp+10h]
  0000000010207572: 48 8B 00           mov         rax,qword ptr [rax]
  0000000010207575: 48 8B 8D 50 FF FF  mov         rcx,qword ptr [rbp+FFFFFFFFFFFFFF50h]
                    FF
  000000001020757C: 48 89 48 68        mov         qword ptr [rax+68h],rcx
  0000000010207580: 48 8B 45 10        mov         rax,qword ptr [rbp+10h]
  0000000010207584: 48 8B 00           mov         rax,qword ptr [rax]
  0000000010207587: 48 8B 8D 48 FF FF  mov         rcx,qword ptr [rbp+FFFFFFFFFFFFFF48h]
                    FF
  000000001020758E: 48 89 48 38        mov         qword ptr [rax+38h],rcx
  0000000010207592: 48 8B 45 10        mov         rax,qword ptr [rbp+10h]
  0000000010207596: 48 8B 00           mov         rax,qword ptr [rax]
  0000000010207599: 31 C9              xor         ecx,ecx
  000000001020759B: 48 89 48 28        mov         qword ptr [rax+28h],rcx
  000000001020759F: 48 8D 8B D0 ED FF  lea         rcx,[rbx+FFFFFFFFFFFFEDD0h]
                    FF
  00000000102075A6: 4C 8B 45 10        mov         r8,qword ptr [rbp+10h]
  00000000102075AA: 4D 8B 00           mov         r8,qword ptr [r8]
  00000000102075AD: 4D 8D 40 08        lea         r8,[r8+8]
  00000000102075B1: 48 8B 93 18 FF FF  mov         rdx,qword ptr [rbx+FFFFFFFFFFFFFF18h]
                    FF
  00000000102075B8: E8 D3 DA FF FF     call        0000000010205090
  00000000102075BD: 48 8D 8B D0 ED FF  lea         rcx,[rbx+FFFFFFFFFFFFEDD0h]
                    FF
  00000000102075C4: 4C 8B 45 10        mov         r8,qword ptr [rbp+10h]
  00000000102075C8: 4D 8B 00           mov         r8,qword ptr [r8]
  00000000102075CB: 4D 8D 40 10        lea         r8,[r8+10h]
  00000000102075CF: 48 8B 93 18 FF FF  mov         rdx,qword ptr [rbx+FFFFFFFFFFFFFF18h]
                    FF
  00000000102075D6: E8 B5 DA FF FF     call        0000000010205090
  00000000102075DB: 48 8B 4D 10        mov         rcx,qword ptr [rbp+10h]
  00000000102075DF: 48 8B 09           mov         rcx,qword ptr [rcx]
  00000000102075E2: 48 8D 49 40        lea         rcx,[rcx+40h]
  00000000102075E6: E8 E5 F8 FF FF     call        0000000010206ED0
  00000000102075EB: 48 8B 4D 10        mov         rcx,qword ptr [rbp+10h]
  00000000102075EF: 48 8B 09           mov         rcx,qword ptr [rcx]
  00000000102075F2: E8 89 E6 FF FF     call        0000000010205C80
  00000000102075F7: 48 8D 8B D0 ED FF  lea         rcx,[rbx+FFFFFFFFFFFFEDD0h]
                    FF
  00000000102075FE: 4C 8D 85 60 FF FF  lea         r8,[rbp+FFFFFFFFFFFFFF60h]
                    FF
  0000000010207605: 48 8B 93 18 FF FF  mov         rdx,qword ptr [rbx+FFFFFFFFFFFFFF18h]
                    FF
  000000001020760C: E8 7F DA FF FF     call        0000000010205090
  0000000010207611: E8 BA E7 FF FF     call        0000000010205DD0
  0000000010207616: 48 83 BD 60 FF FF  cmp         qword ptr [rbp+FFFFFFFFFFFFFF60h],1
                    FF 01
  000000001020761E: 0F 84 B5 00 00 00  je          00000000102076D9
  0000000010207624: 48 8D 8B D0 ED FF  lea         rcx,[rbx+FFFFFFFFFFFFEDD0h]
                    FF
  000000001020762B: 4C 8D 85 70 FF FF  lea         r8,[rbp+FFFFFFFFFFFFFF70h]
                    FF
  0000000010207632: 41 B9 40 00 00 00  mov         r9d,40h
  0000000010207638: 48 8B 93 18 FF FF  mov         rdx,qword ptr [rbx+FFFFFFFFFFFFFF18h]
                    FF
  000000001020763F: FF 93 88 FE FF FF  call        qword ptr [rbx+FFFFFFFFFFFFFE88h]
  0000000010207645: 48 8D 8D 68 FF FF  lea         rcx,[rbp+FFFFFFFFFFFFFF68h]
                    FF
  000000001020764C: E8 7F F8 FF FF     call        0000000010206ED0
  0000000010207651: 48 8B 4D 10        mov         rcx,qword ptr [rbp+10h]
  0000000010207655: 48 8B 09           mov         rcx,qword ptr [rcx]
  0000000010207658: 48 8B 95 68 FF FF  mov         rdx,qword ptr [rbp+FFFFFFFFFFFFFF68h]
                    FF
  000000001020765F: E8 3C E0 FF FF     call        00000000102056A0
  0000000010207664: 48 89 45 F0        mov         qword ptr [rbp-10h],rax
  0000000010207668: 48 8D 8B D0 ED FF  lea         rcx,[rbx+FFFFFFFFFFFFEDD0h]
                    FF
  000000001020766F: 48 8D 83 10 F5 FF  lea         rax,[rbx+FFFFFFFFFFFFF510h]
                    FF
  0000000010207676: 48 8B 55 F0        mov         rdx,qword ptr [rbp-10h]
  000000001020767A: 48 8B 52 F8        mov         rdx,qword ptr [rdx-8]
  000000001020767E: 48 39 42 08        cmp         qword ptr [rdx+8],rax
  0000000010207682: 75 02              jne         0000000010207686
  0000000010207684: EB 08              jmp         000000001020768E
  0000000010207686: B0 02              mov         al,2
  0000000010207688: B9 47 46 00 00     mov         ecx,4647h
  000000001020768D: CC                 int         3
  000000001020768E: 4C 8B 45 F0        mov         r8,qword ptr [rbp-10h]
  0000000010207692: 4D 8D 40 28        lea         r8,[r8+28h]
  0000000010207696: 48 8B 93 18 FF FF  mov         rdx,qword ptr [rbx+FFFFFFFFFFFFFF18h]
                    FF
  000000001020769D: E8 EE D9 FF FF     call        0000000010205090
  00000000102076A2: 48 8B 4D F8        mov         rcx,qword ptr [rbp-8]
  00000000102076A6: 48 8D 95 70 FF FF  lea         rdx,[rbp+FFFFFFFFFFFFFF70h]
                    FF
  00000000102076AD: 4C 8B 45 F0        mov         r8,qword ptr [rbp-10h]
  00000000102076B1: E8 FA F6 FF FF     call        0000000010206DB0
  00000000102076B6: 48 89 45 F8        mov         qword ptr [rbp-8],rax
  00000000102076BA: 48 8D 8B D0 ED FF  lea         rcx,[rbx+FFFFFFFFFFFFEDD0h]
                    FF
  00000000102076C1: 4C 8D 85 60 FF FF  lea         r8,[rbp+FFFFFFFFFFFFFF60h]
                    FF
  00000000102076C8: 48 8B 93 18 FF FF  mov         rdx,qword ptr [rbx+FFFFFFFFFFFFFF18h]
                    FF
  00000000102076CF: E8 BC D9 FF FF     call        0000000010205090
  00000000102076D4: E9 3D FF FF FF     jmp         0000000010207616
  00000000102076D9: 48 8B 45 10        mov         rax,qword ptr [rbp+10h]
  00000000102076DD: 48 8B 00           mov         rax,qword ptr [rax]
  00000000102076E0: 48 8B 8B A0 EE FF  mov         rcx,qword ptr [rbx+FFFFFFFFFFFFEEA0h]
                    FF
  00000000102076E7: 48 8B 09           mov         rcx,qword ptr [rcx]
  00000000102076EA: 48 89 48 48        mov         qword ptr [rax+48h],rcx
  00000000102076EE: E8 3D E7 FF FF     call        0000000010205E30
  00000000102076F3: E9 52 01 00 00     jmp         000000001020784A
  00000000102076F8: 48 83 BD 58 FF FF  cmp         qword ptr [rbp+FFFFFFFFFFFFFF58h],7
                    FF 07
  0000000010207700: 0F 85 A8 00 00 00  jne         00000000102077AE
  0000000010207706: 48 8D 8B D0 ED FF  lea         rcx,[rbx+FFFFFFFFFFFFEDD0h]
                    FF
  000000001020770D: 4C 8D 85 40 FF FF  lea         r8,[rbp+FFFFFFFFFFFFFF40h]
                    FF
  0000000010207714: 48 8B 93 18 FF FF  mov         rdx,qword ptr [rbx+FFFFFFFFFFFFFF18h]
                    FF
  000000001020771B: E8 70 D9 FF FF     call        0000000010205090
  0000000010207720: 48 8B 8D 40 FF FF  mov         rcx,qword ptr [rbp+FFFFFFFFFFFFFF40h]
                    FF
  0000000010207727: E8 F4 E3 FF FF     call        0000000010205B20
  000000001020772C: 48 8B 4D 10        mov         rcx,qword ptr [rbp+10h]
  0000000010207730: 48 89 01           mov         qword ptr [rcx],rax
  0000000010207733: 48 8B 45 10        mov         rax,qword ptr [rbp+10h]
  0000000010207737: 48 8B 00           mov         rax,qword ptr [rax]
  000000001020773A: 48 8B 8D 50 FF FF  mov         rcx,qword ptr [rbp+FFFFFFFFFFFFFF50h]
                    FF
  0000000010207741: 48 89 48 68        mov         qword ptr [rax+68h],rcx
  0000000010207745: 48 8B 4D 10        mov         rcx,qword ptr [rbp+10h]
  0000000010207749: 48 8B 09           mov         rcx,qword ptr [rcx]
  000000001020774C: E8 4F FA FF FF     call        00000000102071A0
  0000000010207751: 48 8D 8B D0 ED FF  lea         rcx,[rbx+FFFFFFFFFFFFEDD0h]
                    FF
  0000000010207758: 4C 8B 45 10        mov         r8,qword ptr [rbp+10h]
  000000001020775C: 4D 8B 00           mov         r8,qword ptr [r8]
  000000001020775F: 4D 8D 40 08        lea         r8,[r8+8]
  0000000010207763: 48 8B 93 18 FF FF  mov         rdx,qword ptr [rbx+FFFFFFFFFFFFFF18h]
                    FF
  000000001020776A: E8 21 D9 FF FF     call        0000000010205090
  000000001020776F: 48 8D 8B D0 ED FF  lea         rcx,[rbx+FFFFFFFFFFFFEDD0h]
                    FF
  0000000010207776: 4C 8B 45 10        mov         r8,qword ptr [rbp+10h]
  000000001020777A: 4D 8B 00           mov         r8,qword ptr [r8]
  000000001020777D: 4D 8D 40 10        lea         r8,[r8+10h]
  0000000010207781: 48 8B 93 18 FF FF  mov         rdx,qword ptr [rbx+FFFFFFFFFFFFFF18h]
                    FF
  0000000010207788: E8 03 D9 FF FF     call        0000000010205090
  000000001020778D: 48 8B 4D 10        mov         rcx,qword ptr [rbp+10h]
  0000000010207791: 48 8B 09           mov         rcx,qword ptr [rcx]
  0000000010207794: 48 8D 49 40        lea         rcx,[rcx+40h]
  0000000010207798: E8 33 F7 FF FF     call        0000000010206ED0
  000000001020779D: 48 8B 4D 10        mov         rcx,qword ptr [rbp+10h]
  00000000102077A1: 48 8B 09           mov         rcx,qword ptr [rcx]
  00000000102077A4: E8 C7 E3 FF FF     call        0000000010205B70
  00000000102077A9: E9 9C 00 00 00     jmp         000000001020784A
  00000000102077AE: 48 83 BD 58 FF FF  cmp         qword ptr [rbp+FFFFFFFFFFFFFF58h],5
                    FF 05
  00000000102077B6: 75 78              jne         0000000010207830
  00000000102077B8: E8 23 E5 FF FF     call        0000000010205CE0
  00000000102077BD: 48 8B 4D 10        mov         rcx,qword ptr [rbp+10h]
  00000000102077C1: 48 89 01           mov         qword ptr [rcx],rax
  00000000102077C4: 48 8B 45 10        mov         rax,qword ptr [rbp+10h]
  00000000102077C8: 48 8B 00           mov         rax,qword ptr [rax]
  00000000102077CB: 48 8B 8D 50 FF FF  mov         rcx,qword ptr [rbp+FFFFFFFFFFFFFF50h]
                    FF
  00000000102077D2: 48 89 48 68        mov         qword ptr [rax+68h],rcx
  00000000102077D6: 48 8B 4D 10        mov         rcx,qword ptr [rbp+10h]
  00000000102077DA: 48 8B 09           mov         rcx,qword ptr [rcx]
  00000000102077DD: E8 BE F9 FF FF     call        00000000102071A0
  00000000102077E2: 48 8D 8B D0 ED FF  lea         rcx,[rbx+FFFFFFFFFFFFEDD0h]
                    FF
  00000000102077E9: 4C 8B 45 10        mov         r8,qword ptr [rbp+10h]
  00000000102077ED: 4D 8B 00           mov         r8,qword ptr [r8]
  00000000102077F0: 4D 8D 40 08        lea         r8,[r8+8]
  00000000102077F4: 48 8B 93 18 FF FF  mov         rdx,qword ptr [rbx+FFFFFFFFFFFFFF18h]
                    FF
  00000000102077FB: E8 90 D8 FF FF     call        0000000010205090
  0000000010207800: 48 8D 8B D0 ED FF  lea         rcx,[rbx+FFFFFFFFFFFFEDD0h]
                    FF
  0000000010207807: 4C 8B 45 10        mov         r8,qword ptr [rbp+10h]
  000000001020780B: 4D 8B 00           mov         r8,qword ptr [r8]
  000000001020780E: 4D 8D 40 10        lea         r8,[r8+10h]
  0000000010207812: 48 8B 93 18 FF FF  mov         rdx,qword ptr [rbx+FFFFFFFFFFFFFF18h]
                    FF
  0000000010207819: E8 72 D8 FF FF     call        0000000010205090
  000000001020781E: 48 8B 4D 10        mov         rcx,qword ptr [rbp+10h]
  0000000010207822: 48 8B 09           mov         rcx,qword ptr [rcx]
  0000000010207825: 48 8D 49 40        lea         rcx,[rcx+40h]
  0000000010207829: E8 A2 F6 FF FF     call        0000000010206ED0
  000000001020782E: EB 1A              jmp         000000001020784A
  0000000010207830: 48 83 BD 58 FF FF  cmp         qword ptr [rbp+FFFFFFFFFFFFFF58h],6
                    FF 06
  0000000010207838: 75 10              jne         000000001020784A
  000000001020783A: 48 8B 4D 10        mov         rcx,qword ptr [rbp+10h]
  000000001020783E: 48 8B 95 50 FF FF  mov         rdx,qword ptr [rbp+FFFFFFFFFFFFFF50h]
                    FF
  0000000010207845: E8 D6 FA FF FF     call        0000000010207320
  000000001020784A: C9                 leave
  000000001020784B: C3                 ret
  000000001020784C: 90                 nop
  000000001020784D: 90                 nop
  000000001020784E: 90                 nop
  000000001020784F: 90                 nop
  0000000010207850: 55                 push        rbp
  0000000010207851: 48 8B EC           mov         rbp,rsp
  0000000010207854: 48 83 EC 20        sub         rsp,20h
  0000000010207858: 48 89 4D 10        mov         qword ptr [rbp+10h],rcx
  000000001020785C: 48 8D 8B D0 ED FF  lea         rcx,[rbx+FFFFFFFFFFFFEDD0h]
                    FF
  0000000010207863: 4C 8B 45 10        mov         r8,qword ptr [rbp+10h]
  0000000010207867: 48 8B 93 18 FF FF  mov         rdx,qword ptr [rbx+FFFFFFFFFFFFFF18h]
                    FF
  000000001020786E: FF 93 80 FE FF FF  call        qword ptr [rbx+FFFFFFFFFFFFFE80h]
  0000000010207874: 48 8D 8B D0 ED FF  lea         rcx,[rbx+FFFFFFFFFFFFEDD0h]
                    FF
  000000001020787B: 4C 8B 45 10        mov         r8,qword ptr [rbp+10h]
  000000001020787F: 4D 8D 40 08        lea         r8,[r8+8]
  0000000010207883: 48 8B 93 18 FF FF  mov         rdx,qword ptr [rbx+FFFFFFFFFFFFFF18h]
                    FF
  000000001020788A: FF 93 80 FE FF FF  call        qword ptr [rbx+FFFFFFFFFFFFFE80h]
  0000000010207890: C9                 leave
  0000000010207891: C3                 ret
  0000000010207892: 90                 nop
  0000000010207893: 90                 nop
  0000000010207894: 90                 nop
  0000000010207895: 90                 nop
  0000000010207896: 90                 nop
  0000000010207897: 90                 nop
  0000000010207898: 90                 nop
  0000000010207899: 90                 nop
  000000001020789A: 90                 nop
  000000001020789B: 90                 nop
  000000001020789C: 90                 nop
  000000001020789D: 90                 nop
  000000001020789E: 90                 nop
  000000001020789F: 90                 nop
  00000000102078A0: 55                 push        rbp
  00000000102078A1: 48 8B EC           mov         rbp,rsp
  00000000102078A4: 48 81 EC A0 03 00  sub         rsp,3A0h
                    00
  00000000102078AB: 48 89 9D 80 FC FF  mov         qword ptr [rbp+FFFFFFFFFFFFFC80h],rbx
                    FF
  00000000102078B2: 48 89 B5 88 FC FF  mov         qword ptr [rbp+FFFFFFFFFFFFFC88h],rsi
                    FF
  00000000102078B9: 48 89 BD 90 FC FF  mov         qword ptr [rbp+FFFFFFFFFFFFFC90h],rdi
                    FF
  00000000102078C0: 48 8D 1D 39 D7 FF  lea         rbx,[0000000010205000h]
                    FF
  00000000102078C7: 48 C7 45 F8 00 00  mov         qword ptr [rbp-8],0
                    00 00
  00000000102078CF: 48 C7 45 F0 00 00  mov         qword ptr [rbp-10h],0
                    00 00
  00000000102078D7: 48 C7 45 B8 00 00  mov         qword ptr [rbp-48h],0
                    00 00
  00000000102078DF: 48 C7 45 B0 00 00  mov         qword ptr [rbp-50h],0
                    00 00
  00000000102078E7: 48 C7 85 A8 FE FF  mov         qword ptr [rbp+FFFFFFFFFFFFFEA8h],0
                    FF 00 00 00 00
  00000000102078F2: 48 C7 45 E0 00 00  mov         qword ptr [rbp-20h],0
                    00 00
  00000000102078FA: 48 8B 83 B0 ED FF  mov         rax,qword ptr [rbx+FFFFFFFFFFFFEDB0h]
                    FF
  0000000010207901: 48 83 E8 02        sub         rax,2
  0000000010207905: 48 39 45 E0        cmp         qword ptr [rbp-20h],rax
  0000000010207909: 0F 8F 5B 01 00 00  jg          0000000010207A6A
  000000001020790F: 48 8B 45 E0        mov         rax,qword ptr [rbp-20h]
  0000000010207913: 48 89 45 D0        mov         qword ptr [rbp-30h],rax
  0000000010207917: 48 8B 45 E0        mov         rax,qword ptr [rbp-20h]
  000000001020791B: 48 83 C0 01        add         rax,1
  000000001020791F: 48 89 45 D8        mov         qword ptr [rbp-28h],rax
  0000000010207923: 48 8B 83 B0 ED FF  mov         rax,qword ptr [rbx+FFFFFFFFFFFFEDB0h]
                    FF
  000000001020792A: 48 83 E8 01        sub         rax,1
  000000001020792E: 48 39 45 D8        cmp         qword ptr [rbp-28h],rax
  0000000010207932: 7F 74              jg          00000000102079A8
  0000000010207934: 48 8D 83 B0 C5 FF  lea         rax,[rbx+FFFFFFFFFFFFC5B0h]
                    FF
  000000001020793B: 48 8B 4D D0        mov         rcx,qword ptr [rbp-30h]
  000000001020793F: 48 81 F9 00 01 00  cmp         rcx,100h
                    00
  0000000010207946: 73 02              jae         000000001020794A
  0000000010207948: EB 08              jmp         0000000010207952
  000000001020794A: B0 01              mov         al,1
  000000001020794C: B9 3F 4A 00 00     mov         ecx,4A3Fh
  0000000010207951: CC                 int         3
  0000000010207952: 48 C1 E1 03        shl         rcx,3
  0000000010207956: 48 03 C1           add         rax,rcx
  0000000010207959: 48 8B 00           mov         rax,qword ptr [rax]
  000000001020795C: 48 8B 80 B8 02 00  mov         rax,qword ptr [rax+00000000000002B8h]
                    00
  0000000010207963: 48 8D 8B B0 C5 FF  lea         rcx,[rbx+FFFFFFFFFFFFC5B0h]
                    FF
  000000001020796A: 48 8B 55 D8        mov         rdx,qword ptr [rbp-28h]
  000000001020796E: 48 81 FA 00 01 00  cmp         rdx,100h
                    00
  0000000010207975: 73 02              jae         0000000010207979
  0000000010207977: EB 08              jmp         0000000010207981
  0000000010207979: B0 01              mov         al,1
  000000001020797B: B9 50 4A 00 00     mov         ecx,4A50h
  0000000010207980: CC                 int         3
  0000000010207981: 48 C1 E2 03        shl         rdx,3
  0000000010207985: 48 03 CA           add         rcx,rdx
  0000000010207988: 48 8B 09           mov         rcx,qword ptr [rcx]
  000000001020798B: 48 8B 89 B8 02 00  mov         rcx,qword ptr [rcx+00000000000002B8h]
                    00
  0000000010207992: 48 3B C1           cmp         rax,rcx
  0000000010207995: 7E 08              jle         000000001020799F
  0000000010207997: 48 8B 45 D8        mov         rax,qword ptr [rbp-28h]
  000000001020799B: 48 89 45 D0        mov         qword ptr [rbp-30h],rax
  000000001020799F: 48 FF 45 D8        inc         qword ptr [rbp-28h]
  00000000102079A3: E9 7B FF FF FF     jmp         0000000010207923
  00000000102079A8: 48 8B 45 E0        mov         rax,qword ptr [rbp-20h]
  00000000102079AC: 48 8B 4D D0        mov         rcx,qword ptr [rbp-30h]
  00000000102079B0: 48 3B C1           cmp         rax,rcx
  00000000102079B3: 0F 84 A8 00 00 00  je          0000000010207A61
  00000000102079B9: 48 8D 83 B0 C5 FF  lea         rax,[rbx+FFFFFFFFFFFFC5B0h]
                    FF
  00000000102079C0: 48 8B 4D E0        mov         rcx,qword ptr [rbp-20h]
  00000000102079C4: 48 81 F9 00 01 00  cmp         rcx,100h
                    00
  00000000102079CB: 73 02              jae         00000000102079CF
  00000000102079CD: EB 08              jmp         00000000102079D7
  00000000102079CF: B0 01              mov         al,1
  00000000102079D1: B9 92 4A 00 00     mov         ecx,4A92h
  00000000102079D6: CC                 int         3
  00000000102079D7: 48 C1 E1 03        shl         rcx,3
  00000000102079DB: 48 03 C1           add         rax,rcx
  00000000102079DE: 48 8B 00           mov         rax,qword ptr [rax]
  00000000102079E1: 48 89 45 B8        mov         qword ptr [rbp-48h],rax
  00000000102079E5: 48 8D 83 B0 C5 FF  lea         rax,[rbx+FFFFFFFFFFFFC5B0h]
                    FF
  00000000102079EC: 48 8B 4D E0        mov         rcx,qword ptr [rbp-20h]
  00000000102079F0: 48 81 F9 00 01 00  cmp         rcx,100h
                    00
  00000000102079F7: 73 02              jae         00000000102079FB
  00000000102079F9: EB 08              jmp         0000000010207A03
  00000000102079FB: B0 01              mov         al,1
  00000000102079FD: B9 A2 4A 00 00     mov         ecx,4AA2h
  0000000010207A02: CC                 int         3
  0000000010207A03: 48 C1 E1 03        shl         rcx,3
  0000000010207A07: 48 03 C1           add         rax,rcx
  0000000010207A0A: 48 8D 8B B0 C5 FF  lea         rcx,[rbx+FFFFFFFFFFFFC5B0h]
                    FF
  0000000010207A11: 48 8B 55 D0        mov         rdx,qword ptr [rbp-30h]
  0000000010207A15: 48 81 FA 00 01 00  cmp         rdx,100h
                    00
  0000000010207A1C: 73 02              jae         0000000010207A20
  0000000010207A1E: EB 08              jmp         0000000010207A28
  0000000010207A20: B0 01              mov         al,1
  0000000010207A22: B9 B0 4A 00 00     mov         ecx,4AB0h
  0000000010207A27: CC                 int         3
  0000000010207A28: 48 C1 E2 03        shl         rdx,3
  0000000010207A2C: 48 03 CA           add         rcx,rdx
  0000000010207A2F: 48 8B 09           mov         rcx,qword ptr [rcx]
  0000000010207A32: 48 89 08           mov         qword ptr [rax],rcx
  0000000010207A35: 48 8D 83 B0 C5 FF  lea         rax,[rbx+FFFFFFFFFFFFC5B0h]
                    FF
  0000000010207A3C: 48 8B 4D D0        mov         rcx,qword ptr [rbp-30h]
  0000000010207A40: 48 81 F9 00 01 00  cmp         rcx,100h
                    00
  0000000010207A47: 73 02              jae         0000000010207A4B
  0000000010207A49: EB 08              jmp         0000000010207A53
  0000000010207A4B: B0 01              mov         al,1
  0000000010207A4D: B9 BC 4A 00 00     mov         ecx,4ABCh
  0000000010207A52: CC                 int         3
  0000000010207A53: 48 C1 E1 03        shl         rcx,3
  0000000010207A57: 48 03 C1           add         rax,rcx
  0000000010207A5A: 48 8B 4D B8        mov         rcx,qword ptr [rbp-48h]
  0000000010207A5E: 48 89 08           mov         qword ptr [rax],rcx
  0000000010207A61: 48 FF 45 E0        inc         qword ptr [rbp-20h]
  0000000010207A65: E9 90 FE FF FF     jmp         00000000102078FA
  0000000010207A6A: 48 C7 45 E0 00 00  mov         qword ptr [rbp-20h],0
                    00 00
  0000000010207A72: 48 8B 83 B0 ED FF  mov         rax,qword ptr [rbx+FFFFFFFFFFFFEDB0h]
                    FF
  0000000010207A79: 48 83 E8 01        sub         rax,1
  0000000010207A7D: 48 39 45 E0        cmp         qword ptr [rbp-20h],rax
  0000000010207A81: 0F 8F 57 05 00 00  jg          0000000010207FDE
  0000000010207A87: 48 8D 83 B0 C5 FF  lea         rax,[rbx+FFFFFFFFFFFFC5B0h]
                    FF
  0000000010207A8E: 48 8B 4D E0        mov         rcx,qword ptr [rbp-20h]
  0000000010207A92: 48 81 F9 00 01 00  cmp         rcx,100h
                    00
  0000000010207A99: 73 02              jae         0000000010207A9D
  0000000010207A9B: EB 08              jmp         0000000010207AA5
  0000000010207A9D: B0 01              mov         al,1
  0000000010207A9F: B9 07 4B 00 00     mov         ecx,4B07h
  0000000010207AA4: CC                 int         3
  0000000010207AA5: 48 C1 E1 03        shl         rcx,3
  0000000010207AA9: 48 03 C1           add         rax,rcx
  0000000010207AAC: 48 8B 00           mov         rax,qword ptr [rax]
  0000000010207AAF: 48 89 45 B8        mov         qword ptr [rbp-48h],rax
  0000000010207AB3: 48 8D 8B D0 ED FF  lea         rcx,[rbx+FFFFFFFFFFFFEDD0h]
                    FF
  0000000010207ABA: 4C 8B 45 B8        mov         r8,qword ptr [rbp-48h]
  0000000010207ABE: 4D 8D 40 28        lea         r8,[r8+28h]
  0000000010207AC2: 41 B9 00 01 00 00  mov         r9d,100h
  0000000010207AC8: 48 8B 93 18 FF FF  mov         rdx,qword ptr [rbx+FFFFFFFFFFFFFF18h]
                    FF
  0000000010207ACF: FF 93 78 FE FF FF  call        qword ptr [rbx+FFFFFFFFFFFFFE78h]
  0000000010207AD5: 48 8B 4D B8        mov         rcx,qword ptr [rbp-48h]
  0000000010207AD9: 48 8D 89 A8 02 00  lea         rcx,[rcx+00000000000002A8h]
                    00
  0000000010207AE0: E8 6B FD FF FF     call        0000000010207850
  0000000010207AE5: 48 8D 8B D0 ED FF  lea         rcx,[rbx+FFFFFFFFFFFFEDD0h]
                    FF
  0000000010207AEC: 4C 8B 45 B8        mov         r8,qword ptr [rbp-48h]
  0000000010207AF0: 4D 8D 80 B8 02 00  lea         r8,[r8+00000000000002B8h]
                    00
  0000000010207AF7: 48 8B 93 18 FF FF  mov         rdx,qword ptr [rbx+FFFFFFFFFFFFFF18h]
                    FF
  0000000010207AFE: E8 8D D5 FF FF     call        0000000010205090
  0000000010207B03: E8 C8 E2 FF FF     call        0000000010205DD0
  0000000010207B08: 48 8B 45 E0        mov         rax,qword ptr [rbp-20h]
  0000000010207B0C: 48 83 C0 02        add         rax,2
  0000000010207B10: 48 F7 D8           neg         rax
  0000000010207B13: 48 89 83 88 EE FF  mov         qword ptr [rbx+FFFFFFFFFFFFEE88h],rax
                    FF
  0000000010207B1A: 31 C0              xor         eax,eax
  0000000010207B1C: 48 89 45 F8        mov         qword ptr [rbp-8],rax
  0000000010207B20: 48 8D 8B D0 ED FF  lea         rcx,[rbx+FFFFFFFFFFFFEDD0h]
                    FF
  0000000010207B27: 4C 8D 45 E8        lea         r8,[rbp-18h]
  0000000010207B2B: 48 8B 93 18 FF FF  mov         rdx,qword ptr [rbx+FFFFFFFFFFFFFF18h]
                    FF
  0000000010207B32: E8 59 D5 FF FF     call        0000000010205090
  0000000010207B37: 48 83 7D E8 FF     cmp         qword ptr [rbp-18h],0FFFFFFFFFFFFFFFFh
  0000000010207B3C: 0F 84 79 04 00 00  je          0000000010207FBB
  0000000010207B42: 48 83 7D E8 04     cmp         qword ptr [rbp-18h],4
  0000000010207B47: 75 75              jne         0000000010207BBE
  0000000010207B49: 48 8D 8B D0 ED FF  lea         rcx,[rbx+FFFFFFFFFFFFEDD0h]
                    FF
  0000000010207B50: 4C 8D 85 30 FF FF  lea         r8,[rbp+FFFFFFFFFFFFFF30h]
                    FF
  0000000010207B57: 41 B9 40 00 00 00  mov         r9d,40h
  0000000010207B5D: 48 8B 93 18 FF FF  mov         rdx,qword ptr [rbx+FFFFFFFFFFFFFF18h]
                    FF
  0000000010207B64: FF 93 88 FE FF FF  call        qword ptr [rbx+FFFFFFFFFFFFFE88h]
  0000000010207B6A: 48 8D 8B D0 ED FF  lea         rcx,[rbx+FFFFFFFFFFFFEDD0h]
                    FF
  0000000010207B71: 4C 8D 45 C8        lea         r8,[rbp-38h]
  0000000010207B75: 48 8B 93 18 FF FF  mov         rdx,qword ptr [rbx+FFFFFFFFFFFFFF18h]
                    FF
  0000000010207B7C: E8 0F D5 FF FF     call        0000000010205090
  0000000010207B81: 48 8D 8D A8 FE FF  lea         rcx,[rbp+FFFFFFFFFFFFFEA8h]
                    FF
  0000000010207B88: E8 43 F3 FF FF     call        0000000010206ED0
  0000000010207B8D: 48 8B 8D A8 FE FF  mov         rcx,qword ptr [rbp+FFFFFFFFFFFFFEA8h]
                    FF
  0000000010207B94: 48 8B 55 C8        mov         rdx,qword ptr [rbp-38h]
  0000000010207B98: E8 C3 D9 FF FF     call        0000000010205560
  0000000010207B9D: 48 89 45 F0        mov         qword ptr [rbp-10h],rax
  0000000010207BA1: 48 8B 4D F8        mov         rcx,qword ptr [rbp-8]
  0000000010207BA5: 48 8D 95 30 FF FF  lea         rdx,[rbp+FFFFFFFFFFFFFF30h]
                    FF
  0000000010207BAC: 4C 8B 45 F0        mov         r8,qword ptr [rbp-10h]
  0000000010207BB0: E8 FB F1 FF FF     call        0000000010206DB0
  0000000010207BB5: 48 89 45 F8        mov         qword ptr [rbp-8],rax
  0000000010207BB9: E9 E1 03 00 00     jmp         0000000010207F9F
  0000000010207BBE: 48 83 7D E8 01     cmp         qword ptr [rbp-18h],1
  0000000010207BC3: 75 5A              jne         0000000010207C1F
  0000000010207BC5: 48 8D 8B D0 ED FF  lea         rcx,[rbx+FFFFFFFFFFFFEDD0h]
                    FF
  0000000010207BCC: 4C 8D 85 30 FF FF  lea         r8,[rbp+FFFFFFFFFFFFFF30h]
                    FF
  0000000010207BD3: 41 B9 40 00 00 00  mov         r9d,40h
  0000000010207BD9: 48 8B 93 18 FF FF  mov         rdx,qword ptr [rbx+FFFFFFFFFFFFFF18h]
                    FF
  0000000010207BE0: FF 93 88 FE FF FF  call        qword ptr [rbx+FFFFFFFFFFFFFE88h]
  0000000010207BE6: 48 8D 8D A8 FE FF  lea         rcx,[rbp+FFFFFFFFFFFFFEA8h]
                    FF
  0000000010207BED: E8 DE F2 FF FF     call        0000000010206ED0
  0000000010207BF2: 48 8B 8D A8 FE FF  mov         rcx,qword ptr [rbp+FFFFFFFFFFFFFEA8h]
                    FF
  0000000010207BF9: E8 82 DD FF FF     call        0000000010205980
  0000000010207BFE: 48 89 45 F0        mov         qword ptr [rbp-10h],rax
  0000000010207C02: 48 8B 4D F8        mov         rcx,qword ptr [rbp-8]
  0000000010207C06: 48 8D 95 30 FF FF  lea         rdx,[rbp+FFFFFFFFFFFFFF30h]
                    FF
  0000000010207C0D: 4C 8B 45 F0        mov         r8,qword ptr [rbp-10h]
  0000000010207C11: E8 9A F1 FF FF     call        0000000010206DB0
  0000000010207C16: 48 89 45 F8        mov         qword ptr [rbp-8],rax
  0000000010207C1A: E9 80 03 00 00     jmp         0000000010207F9F
  0000000010207C1F: 48 83 7D E8 03     cmp         qword ptr [rbp-18h],3
  0000000010207C24: 0F 85 2C 01 00 00  jne         0000000010207D56
  0000000010207C2A: 48 8D 8B D0 ED FF  lea         rcx,[rbx+FFFFFFFFFFFFEDD0h]
                    FF
  0000000010207C31: 4C 8D 85 30 FF FF  lea         r8,[rbp+FFFFFFFFFFFFFF30h]
                    FF
  0000000010207C38: 41 B9 40 00 00 00  mov         r9d,40h
  0000000010207C3E: 48 8B 93 18 FF FF  mov         rdx,qword ptr [rbx+FFFFFFFFFFFFFF18h]
                    FF
  0000000010207C45: FF 93 88 FE FF FF  call        qword ptr [rbx+FFFFFFFFFFFFFE88h]
  0000000010207C4B: 48 8D 8B D0 ED FF  lea         rcx,[rbx+FFFFFFFFFFFFEDD0h]
                    FF
  0000000010207C52: 4C 8D 45 C8        lea         r8,[rbp-38h]
  0000000010207C56: 48 8B 93 18 FF FF  mov         rdx,qword ptr [rbx+FFFFFFFFFFFFFF18h]
                    FF
  0000000010207C5D: E8 2E D4 FF FF     call        0000000010205090
  0000000010207C62: 48 8D 8D A8 FE FF  lea         rcx,[rbp+FFFFFFFFFFFFFEA8h]
                    FF
  0000000010207C69: E8 62 F2 FF FF     call        0000000010206ED0
  0000000010207C6E: 48 8B 85 A8 FE FF  mov         rax,qword ptr [rbp+FFFFFFFFFFFFFEA8h]
                    FF
  0000000010207C75: 48 8B 8B C0 EF FF  mov         rcx,qword ptr [rbx+FFFFFFFFFFFFEFC0h]
                    FF
  0000000010207C7C: 48 3B C1           cmp         rax,rcx
  0000000010207C7F: 74 39              je          0000000010207CBA
  0000000010207C81: 48 8B 8D A8 FE FF  mov         rcx,qword ptr [rbp+FFFFFFFFFFFFFEA8h]
                    FF
  0000000010207C88: E8 53 D8 FF FF     call        00000000102054E0
  0000000010207C8D: 48 89 45 F0        mov         qword ptr [rbp-10h],rax
  0000000010207C91: 48 8D 83 70 F5 FF  lea         rax,[rbx+FFFFFFFFFFFFF570h]
                    FF
  0000000010207C98: 48 8B 4D F0        mov         rcx,qword ptr [rbp-10h]
  0000000010207C9C: 48 8B 49 F8        mov         rcx,qword ptr [rcx-8]
  0000000010207CA0: 48 39 41 08        cmp         qword ptr [rcx+8],rax
  0000000010207CA4: 75 02              jne         0000000010207CA8
  0000000010207CA6: EB 08              jmp         0000000010207CB0
  0000000010207CA8: B0 02              mov         al,2
  0000000010207CAA: B9 A4 4D 00 00     mov         ecx,4DA4h
  0000000010207CAF: CC                 int         3
  0000000010207CB0: 48 8B 45 F0        mov         rax,qword ptr [rbp-10h]
  0000000010207CB4: C6 40 40 01        mov         byte ptr [rax+40h],1
  0000000010207CB8: EB 2B              jmp         0000000010207CE5
  0000000010207CBA: 48 8D 8B D0 ED FF  lea         rcx,[rbx+FFFFFFFFFFFFEDD0h]
                    FF
  0000000010207CC1: 4C 8D 45 C0        lea         r8,[rbp-40h]
  0000000010207CC5: 48 8B 93 18 FF FF  mov         rdx,qword ptr [rbx+FFFFFFFFFFFFFF18h]
                    FF
  0000000010207CCC: E8 BF D3 FF FF     call        0000000010205090
  0000000010207CD1: 48 8D 8B 3E FB FF  lea         rcx,[rbx+FFFFFFFFFFFFFB3Eh]
                    FF
  0000000010207CD8: 48 8B 55 C0        mov         rdx,qword ptr [rbp-40h]
  0000000010207CDC: E8 4F DA FF FF     call        0000000010205730
  0000000010207CE1: 48 89 45 F0        mov         qword ptr [rbp-10h],rax
  0000000010207CE5: 48 8D 83 70 F5 FF  lea         rax,[rbx+FFFFFFFFFFFFF570h]
                    FF
  0000000010207CEC: 48 8B 4D F0        mov         rcx,qword ptr [rbp-10h]
  0000000010207CF0: 48 8B 49 F8        mov         rcx,qword ptr [rcx-8]
  0000000010207CF4: 48 39 41 08        cmp         qword ptr [rcx+8],rax
  0000000010207CF8: 75 02              jne         0000000010207CFC
  0000000010207CFA: EB 08              jmp         0000000010207D04
  0000000010207CFC: B0 02              mov         al,2
  0000000010207CFE: B9 00 4E 00 00     mov         ecx,4E00h
  0000000010207D03: CC                 int         3
  0000000010207D04: 48 8B 45 F0        mov         rax,qword ptr [rbp-10h]
  0000000010207D08: 48 8B 4D C8        mov         rcx,qword ptr [rbp-38h]
  0000000010207D0C: 48 89 48 30        mov         qword ptr [rax+30h],rcx
  0000000010207D10: 48 8D 83 70 F5 FF  lea         rax,[rbx+FFFFFFFFFFFFF570h]
                    FF
  0000000010207D17: 48 8B 4D F0        mov         rcx,qword ptr [rbp-10h]
  0000000010207D1B: 48 8B 49 F8        mov         rcx,qword ptr [rcx-8]
  0000000010207D1F: 48 39 41 08        cmp         qword ptr [rcx+8],rax
  0000000010207D23: 75 02              jne         0000000010207D27
  0000000010207D25: EB 08              jmp         0000000010207D2F
  0000000010207D27: B0 02              mov         al,2
  0000000010207D29: B9 15 4E 00 00     mov         ecx,4E15h
  0000000010207D2E: CC                 int         3
  0000000010207D2F: 48 8B 45 F0        mov         rax,qword ptr [rbp-10h]
  0000000010207D33: 31 C9              xor         ecx,ecx
  0000000010207D35: 48 89 48 28        mov         qword ptr [rax+28h],rcx
  0000000010207D39: 48 8B 4D F8        mov         rcx,qword ptr [rbp-8]
  0000000010207D3D: 48 8D 95 30 FF FF  lea         rdx,[rbp+FFFFFFFFFFFFFF30h]
                    FF
  0000000010207D44: 4C 8B 45 F0        mov         r8,qword ptr [rbp-10h]
  0000000010207D48: E8 63 F0 FF FF     call        0000000010206DB0
  0000000010207D4D: 48 89 45 F8        mov         qword ptr [rbp-8],rax
  0000000010207D51: E9 49 02 00 00     jmp         0000000010207F9F
  0000000010207D56: 48 83 7D E8 05     cmp         qword ptr [rbp-18h],5
  0000000010207D5B: 0F 85 BD 00 00 00  jne         0000000010207E1E
  0000000010207D61: 48 8D 8B D0 ED FF  lea         rcx,[rbx+FFFFFFFFFFFFEDD0h]
                    FF
  0000000010207D68: 4C 8D 85 30 FF FF  lea         r8,[rbp+FFFFFFFFFFFFFF30h]
                    FF
  0000000010207D6F: 41 B9 40 00 00 00  mov         r9d,40h
  0000000010207D75: 48 8B 93 18 FF FF  mov         rdx,qword ptr [rbx+FFFFFFFFFFFFFF18h]
                    FF
  0000000010207D7C: FF 93 88 FE FF FF  call        qword ptr [rbx+FFFFFFFFFFFFFE88h]
  0000000010207D82: E8 89 DB FF FF     call        0000000010205910
  0000000010207D87: 48 89 45 F0        mov         qword ptr [rbp-10h],rax
  0000000010207D8B: 48 8D 8B D0 ED FF  lea         rcx,[rbx+FFFFFFFFFFFFEDD0h]
                    FF
  0000000010207D92: 48 8D 83 30 F6 FF  lea         rax,[rbx+FFFFFFFFFFFFF630h]
                    FF
  0000000010207D99: 48 8B 55 F0        mov         rdx,qword ptr [rbp-10h]
  0000000010207D9D: 48 8B 52 F8        mov         rdx,qword ptr [rdx-8]
  0000000010207DA1: 48 39 42 08        cmp         qword ptr [rdx+8],rax
  0000000010207DA5: 75 02              jne         0000000010207DA9
  0000000010207DA7: EB 08              jmp         0000000010207DB1
  0000000010207DA9: B0 02              mov         al,2
  0000000010207DAB: B9 B6 4E 00 00     mov         ecx,4EB6h
  0000000010207DB0: CC                 int         3
  0000000010207DB1: 4C 8B 45 F0        mov         r8,qword ptr [rbp-10h]
  0000000010207DB5: 4D 8D 40 30        lea         r8,[r8+30h]
  0000000010207DB9: 48 8B 93 18 FF FF  mov         rdx,qword ptr [rbx+FFFFFFFFFFFFFF18h]
                    FF
  0000000010207DC0: E8 CB D2 FF FF     call        0000000010205090
  0000000010207DC5: 48 8D 83 30 F6 FF  lea         rax,[rbx+FFFFFFFFFFFFF630h]
                    FF
  0000000010207DCC: 48 8B 4D F0        mov         rcx,qword ptr [rbp-10h]
  0000000010207DD0: 48 8B 49 F8        mov         rcx,qword ptr [rcx-8]
  0000000010207DD4: 48 39 41 08        cmp         qword ptr [rcx+8],rax
  0000000010207DD8: 75 02              jne         0000000010207DDC
  0000000010207DDA: EB 08              jmp         0000000010207DE4
  0000000010207DDC: B0 02              mov         al,2
  0000000010207DDE: B9 CB 4E 00 00     mov         ecx,4ECBh
  0000000010207DE3: CC                 int         3
  0000000010207DE4: 48 8B 45 F0        mov         rax,qword ptr [rbp-10h]
  0000000010207DE8: 31 C9              xor         ecx,ecx
  0000000010207DEA: 48 89 48 28        mov         qword ptr [rax+28h],rcx
  0000000010207DEE: 48 8B 4D F0        mov         rcx,qword ptr [rbp-10h]
  0000000010207DF2: 48 8D 49 08        lea         rcx,[rcx+8]
  0000000010207DF6: 31 D2              xor         edx,edx
  0000000010207DF8: 48 83 C2 FF        add         rdx,0FFFFFFFFFFFFFFFFh
  0000000010207DFC: E8 1F F5 FF FF     call        0000000010207320
  0000000010207E01: 48 8B 4D F8        mov         rcx,qword ptr [rbp-8]
  0000000010207E05: 48 8D 95 30 FF FF  lea         rdx,[rbp+FFFFFFFFFFFFFF30h]
                    FF
  0000000010207E0C: 4C 8B 45 F0        mov         r8,qword ptr [rbp-10h]
  0000000010207E10: E8 9B EF FF FF     call        0000000010206DB0
  0000000010207E15: 48 89 45 F8        mov         qword ptr [rbp-8],rax
  0000000010207E19: E9 81 01 00 00     jmp         0000000010207F9F
  0000000010207E1E: 48 83 7D E8 00     cmp         qword ptr [rbp-18h],0
  0000000010207E23: 0F 85 76 01 00 00  jne         0000000010207F9F
  0000000010207E29: 48 8D 8B D0 ED FF  lea         rcx,[rbx+FFFFFFFFFFFFEDD0h]
                    FF
  0000000010207E30: 4C 8D 85 30 FF FF  lea         r8,[rbp+FFFFFFFFFFFFFF30h]
                    FF
  0000000010207E37: 41 B9 40 00 00 00  mov         r9d,40h
  0000000010207E3D: 48 8B 93 18 FF FF  mov         rdx,qword ptr [rbx+FFFFFFFFFFFFFF18h]
                    FF
  0000000010207E44: FF 93 88 FE FF FF  call        qword ptr [rbx+FFFFFFFFFFFFFE88h]
  0000000010207E4A: 48 8D 8D 98 FE FF  lea         rcx,[rbp+FFFFFFFFFFFFFE98h]
                    FF
  0000000010207E51: E8 FA F9 FF FF     call        0000000010207850
  0000000010207E56: 48 8D 8D 30 FF FF  lea         rcx,[rbp+FFFFFFFFFFFFFF30h]
                    FF
  0000000010207E5D: E8 5E EE FF FF     call        0000000010206CC0
  0000000010207E62: 48 89 45 B0        mov         qword ptr [rbp-50h],rax
  0000000010207E66: 48 8D B5 30 FF FF  lea         rsi,[rbp+FFFFFFFFFFFFFF30h]
                    FF
  0000000010207E6D: 48 8D BB 00 EE FF  lea         rdi,[rbx+FFFFFFFFFFFFEE00h]
                    FF
  0000000010207E74: 31 C0              xor         eax,eax
  0000000010207E76: 48 83 C0 01        add         rax,1
  0000000010207E7A: 48 83 F8 40        cmp         rax,40h
  0000000010207E7E: 77 02              ja          0000000010207E82
  0000000010207E80: EB 08              jmp         0000000010207E8A
  0000000010207E82: B0 07              mov         al,7
  0000000010207E84: B9 A4 4F 00 00     mov         ecx,4FA4h
  0000000010207E89: CC                 int         3
  0000000010207E8A: 48 83 F8 40        cmp         rax,40h
  0000000010207E8E: 77 02              ja          0000000010207E92
  0000000010207E90: EB 08              jmp         0000000010207E9A
  0000000010207E92: B0 07              mov         al,7
  0000000010207E94: B9 A4 4F 00 00     mov         ecx,4FA4h
  0000000010207E99: CC                 int         3
  0000000010207E9A: 66 A7              cmps        word ptr [rsi],word ptr [rdi]
  0000000010207E9C: 75 07              jne         0000000010207EA5
  0000000010207E9E: 66 83 7E FE 00     cmp         word ptr [rsi-2],0
  0000000010207EA3: 75 D1              jne         0000000010207E76
  0000000010207EA5: 75 17              jne         0000000010207EBE
  0000000010207EA7: 48 8D 8B 40 FB FF  lea         rcx,[rbx+FFFFFFFFFFFFFB40h]
                    FF
  0000000010207EAE: BA 14 00 00 00     mov         edx,14h
  0000000010207EB3: FF 93 00 FF FF FF  call        qword ptr [rbx+FFFFFFFFFFFFFF00h]
  0000000010207EB9: E9 E1 00 00 00     jmp         0000000010207F9F
  0000000010207EBE: 48 83 7D B0 00     cmp         qword ptr [rbp-50h],0
  0000000010207EC3: 0F 84 D6 00 00 00  je          0000000010207F9F
  0000000010207EC9: 48 8B 45 B0        mov         rax,qword ptr [rbp-50h]
  0000000010207ECD: 48 8B 80 A8 02 00  mov         rax,qword ptr [rax+00000000000002A8h]
                    00
  0000000010207ED4: 48 8B 8D 98 FE FF  mov         rcx,qword ptr [rbp+FFFFFFFFFFFFFE98h]
                    FF
  0000000010207EDB: 48 3B C1           cmp         rax,rcx
  0000000010207EDE: 75 1B              jne         0000000010207EFB
  0000000010207EE0: 48 8B 45 B0        mov         rax,qword ptr [rbp-50h]
  0000000010207EE4: 48 8B 80 B0 02 00  mov         rax,qword ptr [rax+00000000000002B0h]
                    00
  0000000010207EEB: 48 8B 8D A0 FE FF  mov         rcx,qword ptr [rbp+FFFFFFFFFFFFFEA0h]
                    FF
  0000000010207EF2: 48 3B C1           cmp         rax,rcx
  0000000010207EF5: 0F 84 A4 00 00 00  je          0000000010207F9F
  0000000010207EFB: 48 8D BD 98 FC FF  lea         rdi,[rbp+FFFFFFFFFFFFFC98h]
                    FF
  0000000010207F02: 48 8D B3 70 FB FF  lea         rsi,[rbx+FFFFFFFFFFFFFB70h]
                    FF
  0000000010207F09: B9 02 00 00 00     mov         ecx,2
  0000000010207F0E: F3 48 A5           rep movs    qword ptr [rdi],qword ptr [rsi]
  0000000010207F11: 48 8D 8D 30 FF FF  lea         rcx,[rbp+FFFFFFFFFFFFFF30h]
                    FF
  0000000010207F18: 4C 8D 85 98 FC FF  lea         r8,[rbp+FFFFFFFFFFFFFC98h]
                    FF
  0000000010207F1F: 41 B9 00 01 00 00  mov         r9d,100h
  0000000010207F25: BA 40 00 00 00     mov         edx,40h
  0000000010207F2A: E8 B1 D2 FF FF     call        00000000102051E0
  0000000010207F2F: 48 8D 8B 80 FB FF  lea         rcx,[rbx+FFFFFFFFFFFFFB80h]
                    FF
  0000000010207F36: 4C 8D 85 98 FC FF  lea         r8,[rbp+FFFFFFFFFFFFFC98h]
                    FF
  0000000010207F3D: 41 B9 00 01 00 00  mov         r9d,100h
  0000000010207F43: BA 12 00 00 00     mov         edx,12h
  0000000010207F48: E8 93 D2 FF FF     call        00000000102051E0
  0000000010207F4D: 48 8B 4D B8        mov         rcx,qword ptr [rbp-48h]
  0000000010207F51: 48 8D 89 28 02 00  lea         rcx,[rcx+0000000000000228h]
                    00
  0000000010207F58: 4C 8D 85 98 FC FF  lea         r8,[rbp+FFFFFFFFFFFFFC98h]
                    FF
  0000000010207F5F: 41 B9 00 01 00 00  mov         r9d,100h
  0000000010207F65: BA 40 00 00 00     mov         edx,40h
  0000000010207F6A: E8 71 D2 FF FF     call        00000000102051E0
  0000000010207F6F: 48 8D 8B B0 FB FF  lea         rcx,[rbx+FFFFFFFFFFFFFBB0h]
                    FF
  0000000010207F76: 4C 8D 85 98 FC FF  lea         r8,[rbp+FFFFFFFFFFFFFC98h]
                    FF
  0000000010207F7D: 41 B9 00 01 00 00  mov         r9d,100h
  0000000010207F83: BA 16 00 00 00     mov         edx,16h
  0000000010207F88: E8 53 D2 FF FF     call        00000000102051E0
  0000000010207F8D: 48 8D 8D 98 FC FF  lea         rcx,[rbp+FFFFFFFFFFFFFC98h]
                    FF
  0000000010207F94: BA 00 01 00 00     mov         edx,100h
  0000000010207F99: FF 93 00 FF FF FF  call        qword ptr [rbx+FFFFFFFFFFFFFF00h]
  0000000010207F9F: 48 8D 8B D0 ED FF  lea         rcx,[rbx+FFFFFFFFFFFFEDD0h]
                    FF
  0000000010207FA6: 4C 8D 45 E8        lea         r8,[rbp-18h]
  0000000010207FAA: 48 8B 93 18 FF FF  mov         rdx,qword ptr [rbx+FFFFFFFFFFFFFF18h]
                    FF
  0000000010207FB1: E8 DA D0 FF FF     call        0000000010205090
  0000000010207FB6: E9 7C FB FF FF     jmp         0000000010207B37
  0000000010207FBB: 48 8B 45 B8        mov         rax,qword ptr [rbp-48h]
  0000000010207FBF: 48 8B 8B A0 EE FF  mov         rcx,qword ptr [rbx+FFFFFFFFFFFFEEA0h]
                    FF
  0000000010207FC6: 48 8B 09           mov         rcx,qword ptr [rcx]
  0000000010207FC9: 48 89 88 C8 02 00  mov         qword ptr [rax+00000000000002C8h],rcx
                    00
  0000000010207FD0: E8 5B DE FF FF     call        0000000010205E30
  0000000010207FD5: 48 FF 45 E0        inc         qword ptr [rbp-20h]
  0000000010207FD9: E9 94 FA FF FF     jmp         0000000010207A72
  0000000010207FDE: 48 8D 8B D0 ED FF  lea         rcx,[rbx+FFFFFFFFFFFFEDD0h]
                    FF
  0000000010207FE5: 48 8B 93 18 FF FF  mov         rdx,qword ptr [rbx+FFFFFFFFFFFFFF18h]
                    FF
  0000000010207FEC: FF 93 A8 FE FF FF  call        qword ptr [rbx+FFFFFFFFFFFFFEA8h]
  0000000010207FF2: 31 C0              xor         eax,eax
  0000000010207FF4: 48 89 83 88 EE FF  mov         qword ptr [rbx+FFFFFFFFFFFFEE88h],rax
                    FF
  0000000010207FFB: 48 8B 9D 80 FC FF  mov         rbx,qword ptr [rbp+FFFFFFFFFFFFFC80h]
                    FF
  0000000010208002: 48 8B B5 88 FC FF  mov         rsi,qword ptr [rbp+FFFFFFFFFFFFFC88h]
                    FF
  0000000010208009: 48 8B BD 90 FC FF  mov         rdi,qword ptr [rbp+FFFFFFFFFFFFFC90h]
                    FF
  0000000010208010: C9                 leave
  0000000010208011: C3                 ret
  0000000010208012: 90                 nop
  0000000010208013: 90                 nop
  0000000010208014: 90                 nop
  0000000010208015: 90                 nop
  0000000010208016: 90                 nop
  0000000010208017: 90                 nop
  0000000010208018: 90                 nop
  0000000010208019: 90                 nop
  000000001020801A: 90                 nop
  000000001020801B: 90                 nop
  000000001020801C: 90                 nop
  000000001020801D: 90                 nop
  000000001020801E: 90                 nop
  000000001020801F: 90                 nop
  0000000010208020: 55                 push        rbp
  0000000010208021: 48 8B EC           mov         rbp,rsp
  0000000010208024: 48 81 EC 40 02 00  sub         rsp,240h
                    00
  000000001020802B: 48 89 9D E0 FD FF  mov         qword ptr [rbp+FFFFFFFFFFFFFDE0h],rbx
                    FF
  0000000010208032: 48 89 B5 E8 FD FF  mov         qword ptr [rbp+FFFFFFFFFFFFFDE8h],rsi
                    FF
  0000000010208039: 48 89 BD F0 FD FF  mov         qword ptr [rbp+FFFFFFFFFFFFFDF0h],rdi
                    FF
  0000000010208040: 48 8D 1D B9 CF FF  lea         rbx,[0000000010205000h]
                    FF
  0000000010208047: 48 89 4D 10        mov         qword ptr [rbp+10h],rcx
  000000001020804B: 48 89 55 18        mov         qword ptr [rbp+18h],rdx
  000000001020804F: 48 C7 85 F8 FD FF  mov         qword ptr [rbp+FFFFFFFFFFFFFDF8h],0
                    FF 00 00 00 00
  000000001020805A: 31 C0              xor         eax,eax
  000000001020805C: 66 89 85 00 FE FF  mov         word ptr [rbp+FFFFFFFFFFFFFE00h],ax
                    FF
  0000000010208063: 48 8B 4D 18        mov         rcx,qword ptr [rbp+18h]
  0000000010208067: 4C 8D 85 00 FE FF  lea         r8,[rbp+FFFFFFFFFFFFFE00h]
                    FF
  000000001020806E: 41 B9 00 01 00 00  mov         r9d,100h
  0000000010208074: BA 40 00 00 00     mov         edx,40h
  0000000010208079: E8 62 D1 FF FF     call        00000000102051E0
  000000001020807E: 48 8D 8B F0 FB FF  lea         rcx,[rbx+FFFFFFFFFFFFFBF0h]
                    FF
  0000000010208085: 4C 8D 85 00 FE FF  lea         r8,[rbp+FFFFFFFFFFFFFE00h]
                    FF
  000000001020808C: 41 B9 00 01 00 00  mov         r9d,100h
  0000000010208092: BA 05 00 00 00     mov         edx,5
  0000000010208097: E8 44 D1 FF FF     call        00000000102051E0
  000000001020809C: 48 8B 75 18        mov         rsi,qword ptr [rbp+18h]
  00000000102080A0: 48 8D BB 00 FC FF  lea         rdi,[rbx+FFFFFFFFFFFFFC00h]
                    FF
  00000000102080A7: 31 C0              xor         eax,eax
  00000000102080A9: 48 83 C0 01        add         rax,1
  00000000102080AD: 48 83 F8 40        cmp         rax,40h
  00000000102080B1: 77 02              ja          00000000102080B5
  00000000102080B3: EB 08              jmp         00000000102080BD
  00000000102080B5: B0 07              mov         al,7
  00000000102080B7: B9 48 52 00 00     mov         ecx,5248h
  00000000102080BC: CC                 int         3
  00000000102080BD: 48 83 F8 07        cmp         rax,7
  00000000102080C1: 77 02              ja          00000000102080C5
  00000000102080C3: EB 08              jmp         00000000102080CD
  00000000102080C5: B0 07              mov         al,7
  00000000102080C7: B9 48 52 00 00     mov         ecx,5248h
  00000000102080CC: CC                 int         3
  00000000102080CD: 66 A7              cmps        word ptr [rsi],word ptr [rdi]
  00000000102080CF: 75 07              jne         00000000102080D8
  00000000102080D1: 66 83 7E FE 00     cmp         word ptr [rsi-2],0
  00000000102080D6: 75 D1              jne         00000000102080A9
  00000000102080D8: 0F 85 C9 00 00 00  jne         00000000102081A7
  00000000102080DE: 48 8B 4B C0        mov         rcx,qword ptr [rbx-40h]
  00000000102080E2: BA 08 00 00 00     mov         edx,8
  00000000102080E7: 41 B8 F0 02 00 00  mov         r8d,2F0h
  00000000102080ED: FF 53 E8           call        qword ptr [rbx-18h]
  00000000102080F0: 48 83 C0 10        add         rax,10h
  00000000102080F4: 48 8D 8B 00 F7 FF  lea         rcx,[rbx+FFFFFFFFFFFFF700h]
                    FF
  00000000102080FB: 48 89 48 F8        mov         qword ptr [rax-8],rcx
  00000000102080FF: 48 89 85 F8 FD FF  mov         qword ptr [rbp+FFFFFFFFFFFFFDF8h],rax
                    FF
  0000000010208106: 48 8B BD F8 FD FF  mov         rdi,qword ptr [rbp+FFFFFFFFFFFFFDF8h]
                    FF
  000000001020810D: 48 8D BF 28 02 00  lea         rdi,[rdi+0000000000000228h]
                    00
  0000000010208114: 48 8B 75 18        mov         rsi,qword ptr [rbp+18h]
  0000000010208118: 31 C9              xor         ecx,ecx
  000000001020811A: 31 C0              xor         eax,eax
  000000001020811C: 48 83 C1 01        add         rcx,1
  0000000010208120: BA 40 00 00 00     mov         edx,40h
  0000000010208125: 48 3B CA           cmp         rcx,rdx
  0000000010208128: 77 02              ja          000000001020812C
  000000001020812A: EB 08              jmp         0000000010208134
  000000001020812C: B0 07              mov         al,7
  000000001020812E: B9 64 52 00 00     mov         ecx,5264h
  0000000010208133: CC                 int         3
  0000000010208134: BA 40 00 00 00     mov         edx,40h
  0000000010208139: 48 3B CA           cmp         rcx,rdx
  000000001020813C: 77 02              ja          0000000010208140
  000000001020813E: EB 08              jmp         0000000010208148
  0000000010208140: B0 07              mov         al,7
  0000000010208142: B9 64 52 00 00     mov         ecx,5264h
  0000000010208147: CC                 int         3
  0000000010208148: 66 AD              lods        word ptr [rsi]
  000000001020814A: 66 AB              stos        word ptr [rdi]
  000000001020814C: 85 C0              test        eax,eax
  000000001020814E: 75 CC              jne         000000001020811C
  0000000010208150: 48 8B 85 F8 FD FF  mov         rax,qword ptr [rbp+FFFFFFFFFFFFFDF8h]
                    FF
  0000000010208157: 48 C7 80 B8 02 00  mov         qword ptr [rax+00000000000002B8h],0FFFFFFFFFFFFFFFFh
                    00 FF FF FF FF
  0000000010208162: 48 8B 85 F8 FD FF  mov         rax,qword ptr [rbp+FFFFFFFFFFFFFDF8h]
                    FF
  0000000010208169: 48 8B 8B 90 EE FF  mov         rcx,qword ptr [rbx+FFFFFFFFFFFFEE90h]
                    FF
  0000000010208170: 48 8B 09           mov         rcx,qword ptr [rcx]
  0000000010208173: 48 89 88 C8 02 00  mov         qword ptr [rax+00000000000002C8h],rcx
                    00
  000000001020817A: 48 83 7D 10 00     cmp         qword ptr [rbp+10h],0
  000000001020817F: 74 21              je          00000000102081A2
  0000000010208181: 48 8B 45 10        mov         rax,qword ptr [rbp+10h]
  0000000010208185: 48 8B 8D F8 FD FF  mov         rcx,qword ptr [rbp+FFFFFFFFFFFFFDF8h]
                    FF
  000000001020818C: 48 89 88 88 00 00  mov         qword ptr [rax+0000000000000088h],rcx
                    00
  0000000010208193: 48 8B 85 F8 FD FF  mov         rax,qword ptr [rbp+FFFFFFFFFFFFFDF8h]
                    FF
  000000001020819A: 48 8B 4D 10        mov         rcx,qword ptr [rbp+10h]
  000000001020819E: 48 89 48 10        mov         qword ptr [rax+10h],rcx
  00000000102081A2: E9 26 02 00 00     jmp         00000000102083CD
  00000000102081A7: 48 8D 8D 00 FE FF  lea         rcx,[rbp+FFFFFFFFFFFFFE00h]
                    FF
  00000000102081AE: BA 00 01 00 00     mov         edx,100h
  00000000102081B3: FF 93 70 FE FF FF  call        qword ptr [rbx+FFFFFFFFFFFFFE70h]
  00000000102081B9: 85 C0              test        eax,eax
  00000000102081BB: 0F 84 FA 01 00 00  je          00000000102083BB
  00000000102081C1: 48 8B 4B C0        mov         rcx,qword ptr [rbx-40h]
  00000000102081C5: BA 08 00 00 00     mov         edx,8
  00000000102081CA: 41 B8 F0 02 00 00  mov         r8d,2F0h
  00000000102081D0: FF 53 E8           call        qword ptr [rbx-18h]
  00000000102081D3: 48 83 C0 10        add         rax,10h
  00000000102081D7: 48 8D 8B 00 F7 FF  lea         rcx,[rbx+FFFFFFFFFFFFF700h]
                    FF
  00000000102081DE: 48 89 48 F8        mov         qword ptr [rax-8],rcx
  00000000102081E2: 48 89 85 F8 FD FF  mov         qword ptr [rbp+FFFFFFFFFFFFFDF8h],rax
                    FF
  00000000102081E9: 48 8B BD F8 FD FF  mov         rdi,qword ptr [rbp+FFFFFFFFFFFFFDF8h]
                    FF
  00000000102081F0: 48 8D BF 28 02 00  lea         rdi,[rdi+0000000000000228h]
                    00
  00000000102081F7: 48 8B 75 18        mov         rsi,qword ptr [rbp+18h]
  00000000102081FB: 31 C9              xor         ecx,ecx
  00000000102081FD: 31 C0              xor         eax,eax
  00000000102081FF: 48 83 C1 01        add         rcx,1
  0000000010208203: BA 40 00 00 00     mov         edx,40h
  0000000010208208: 48 3B CA           cmp         rcx,rdx
  000000001020820B: 77 02              ja          000000001020820F
  000000001020820D: EB 08              jmp         0000000010208217
  000000001020820F: B0 07              mov         al,7
  0000000010208211: B9 39 53 00 00     mov         ecx,5339h
  0000000010208216: CC                 int         3
  0000000010208217: BA 40 00 00 00     mov         edx,40h
  000000001020821C: 48 3B CA           cmp         rcx,rdx
  000000001020821F: 77 02              ja          0000000010208223
  0000000010208221: EB 08              jmp         000000001020822B
  0000000010208223: B0 07              mov         al,7
  0000000010208225: B9 39 53 00 00     mov         ecx,5339h
  000000001020822A: CC                 int         3
  000000001020822B: 66 AD              lods        word ptr [rsi]
  000000001020822D: 66 AB              stos        word ptr [rdi]
  000000001020822F: 85 C0              test        eax,eax
  0000000010208231: 75 CC              jne         00000000102081FF
  0000000010208233: 48 8B BD F8 FD FF  mov         rdi,qword ptr [rbp+FFFFFFFFFFFFFDF8h]
                    FF
  000000001020823A: 48 8D 7F 28        lea         rdi,[rdi+28h]
  000000001020823E: 48 8D B5 00 FE FF  lea         rsi,[rbp+FFFFFFFFFFFFFE00h]
                    FF
  0000000010208245: 31 C9              xor         ecx,ecx
  0000000010208247: 31 C0              xor         eax,eax
  0000000010208249: 48 83 C1 01        add         rcx,1
  000000001020824D: BA 00 01 00 00     mov         edx,100h
  0000000010208252: 48 3B CA           cmp         rcx,rdx
  0000000010208255: 77 02              ja          0000000010208259
  0000000010208257: EB 08              jmp         0000000010208261
  0000000010208259: B0 07              mov         al,7
  000000001020825B: B9 54 53 00 00     mov         ecx,5354h
  0000000010208260: CC                 int         3
  0000000010208261: BA 00 01 00 00     mov         edx,100h
  0000000010208266: 48 3B CA           cmp         rcx,rdx
  0000000010208269: 77 02              ja          000000001020826D
  000000001020826B: EB 08              jmp         0000000010208275
  000000001020826D: B0 07              mov         al,7
  000000001020826F: B9 54 53 00 00     mov         ecx,5354h
  0000000010208274: CC                 int         3
  0000000010208275: 66 AD              lods        word ptr [rsi]
  0000000010208277: 66 AB              stos        word ptr [rdi]
  0000000010208279: 85 C0              test        eax,eax
  000000001020827B: 75 CC              jne         0000000010208249
  000000001020827D: 48 8B 85 F8 FD FF  mov         rax,qword ptr [rbp+FFFFFFFFFFFFFDF8h]
                    FF
  0000000010208284: 31 C9              xor         ecx,ecx
  0000000010208286: 48 89 88 B8 02 00  mov         qword ptr [rax+00000000000002B8h],rcx
                    00
  000000001020828D: 48 8B 85 F8 FD FF  mov         rax,qword ptr [rbp+FFFFFFFFFFFFFDF8h]
                    FF
  0000000010208294: 31 C9              xor         ecx,ecx
  0000000010208296: 48 89 88 C0 02 00  mov         qword ptr [rax+00000000000002C0h],rcx
                    00
  000000001020829D: 48 83 7D 10 00     cmp         qword ptr [rbp+10h],0
  00000000102082A2: 74 21              je          00000000102082C5
  00000000102082A4: 48 8B 45 10        mov         rax,qword ptr [rbp+10h]
  00000000102082A8: 48 8B 8D F8 FD FF  mov         rcx,qword ptr [rbp+FFFFFFFFFFFFFDF8h]
                    FF
  00000000102082AF: 48 89 88 88 00 00  mov         qword ptr [rax+0000000000000088h],rcx
                    00
  00000000102082B6: 48 8B 85 F8 FD FF  mov         rax,qword ptr [rbp+FFFFFFFFFFFFFDF8h]
                    FF
  00000000102082BD: 48 8B 4D 10        mov         rcx,qword ptr [rbp+10h]
  00000000102082C1: 48 89 48 10        mov         qword ptr [rax+10h],rcx
  00000000102082C5: 48 8D 83 B0 C5 FF  lea         rax,[rbx+FFFFFFFFFFFFC5B0h]
                    FF
  00000000102082CC: 48 8B 8B B0 ED FF  mov         rcx,qword ptr [rbx+FFFFFFFFFFFFEDB0h]
                    FF
  00000000102082D3: 48 81 F9 00 01 00  cmp         rcx,100h
                    00
  00000000102082DA: 73 02              jae         00000000102082DE
  00000000102082DC: EB 08              jmp         00000000102082E6
  00000000102082DE: B0 01              mov         al,1
  00000000102082E0: B9 E8 53 00 00     mov         ecx,53E8h
  00000000102082E5: CC                 int         3
  00000000102082E6: 48 C1 E1 03        shl         rcx,3
  00000000102082EA: 48 03 C1           add         rax,rcx
  00000000102082ED: 48 8B 8D F8 FD FF  mov         rcx,qword ptr [rbp+FFFFFFFFFFFFFDF8h]
                    FF
  00000000102082F4: 48 89 08           mov         qword ptr [rax],rcx
  00000000102082F7: 48 FF 83 B0 ED FF  inc         qword ptr [rbx+FFFFFFFFFFFFEDB0h]
                    FF
  00000000102082FE: 48 8D 8B D0 ED FF  lea         rcx,[rbx+FFFFFFFFFFFFEDD0h]
                    FF
  0000000010208305: 4C 8D 85 00 FE FF  lea         r8,[rbp+FFFFFFFFFFFFFE00h]
                    FF
  000000001020830C: 41 B9 00 01 00 00  mov         r9d,100h
  0000000010208312: 48 8B 93 18 FF FF  mov         rdx,qword ptr [rbx+FFFFFFFFFFFFFF18h]
                    FF
  0000000010208319: FF 93 78 FE FF FF  call        qword ptr [rbx+FFFFFFFFFFFFFE78h]
  000000001020831F: 48 8B 8D F8 FD FF  mov         rcx,qword ptr [rbp+FFFFFFFFFFFFFDF8h]
                    FF
  0000000010208326: 48 8D 89 A8 02 00  lea         rcx,[rcx+00000000000002A8h]
                    00
  000000001020832D: E8 1E F5 FF FF     call        0000000010207850
  0000000010208332: 48 8D 8B D0 ED FF  lea         rcx,[rbx+FFFFFFFFFFFFEDD0h]
                    FF
  0000000010208339: 4C 8B 85 F8 FD FF  mov         r8,qword ptr [rbp+FFFFFFFFFFFFFDF8h]
                    FF
  0000000010208340: 4D 8D 80 B8 02 00  lea         r8,[r8+00000000000002B8h]
                    00
  0000000010208347: 48 8B 93 18 FF FF  mov         rdx,qword ptr [rbx+FFFFFFFFFFFFFF18h]
                    FF
  000000001020834E: E8 3D CD FF FF     call        0000000010205090
  0000000010208353: 48 8B 85 F8 FD FF  mov         rax,qword ptr [rbp+FFFFFFFFFFFFFDF8h]
                    FF
  000000001020835A: 48 8B 80 B8 02 00  mov         rax,qword ptr [rax+00000000000002B8h]
                    00
  0000000010208361: 48 8B 8B 80 EE FF  mov         rcx,qword ptr [rbx+FFFFFFFFFFFFEE80h]
                    FF
  0000000010208368: 48 3B C1           cmp         rax,rcx
  000000001020836B: 7C 38              jl          00000000102083A5
  000000001020836D: 48 8B 85 F8 FD FF  mov         rax,qword ptr [rbp+FFFFFFFFFFFFFDF8h]
                    FF
  0000000010208374: 48 8B 80 B8 02 00  mov         rax,qword ptr [rax+00000000000002B8h]
                    00
  000000001020837B: 48 83 C0 01        add         rax,1
  000000001020837F: 48 89 83 80 EE FF  mov         qword ptr [rbx+FFFFFFFFFFFFEE80h],rax
                    FF
  0000000010208386: 48 81 BB 80 EE FF  cmp         qword ptr [rbx+FFFFFFFFFFFFEE80h],0FFh
                    FF FF 00 00 00
  0000000010208391: 7E 12              jle         00000000102083A5
  0000000010208393: 48 8D 8B 10 FC FF  lea         rcx,[rbx+FFFFFFFFFFFFFC10h]
                    FF
  000000001020839A: BA 16 00 00 00     mov         edx,16h
  000000001020839F: FF 93 00 FF FF FF  call        qword ptr [rbx+FFFFFFFFFFFFFF00h]
  00000000102083A5: 48 8D 8B D0 ED FF  lea         rcx,[rbx+FFFFFFFFFFFFEDD0h]
                    FF
  00000000102083AC: 48 8B 93 18 FF FF  mov         rdx,qword ptr [rbx+FFFFFFFFFFFFFF18h]
                    FF
  00000000102083B3: FF 93 A8 FE FF FF  call        qword ptr [rbx+FFFFFFFFFFFFFEA8h]
  00000000102083B9: EB 12              jmp         00000000102083CD
  00000000102083BB: 48 8D 8B 40 FC FF  lea         rcx,[rbx+FFFFFFFFFFFFFC40h]
                    FF
  00000000102083C2: BA 18 00 00 00     mov         edx,18h
  00000000102083C7: FF 93 00 FF FF FF  call        qword ptr [rbx+FFFFFFFFFFFFFF00h]
  00000000102083CD: 48 8B 9D E0 FD FF  mov         rbx,qword ptr [rbp+FFFFFFFFFFFFFDE0h]
                    FF
  00000000102083D4: 48 8B B5 E8 FD FF  mov         rsi,qword ptr [rbp+FFFFFFFFFFFFFDE8h]
                    FF
  00000000102083DB: 48 8B BD F0 FD FF  mov         rdi,qword ptr [rbp+FFFFFFFFFFFFFDF0h]
                    FF
  00000000102083E2: C9                 leave
  00000000102083E3: C3                 ret
  00000000102083E4: 90                 nop
  00000000102083E5: 90                 nop
  00000000102083E6: 90                 nop
  00000000102083E7: 90                 nop
  00000000102083E8: 90                 nop
  00000000102083E9: 90                 nop
  00000000102083EA: 90                 nop
  00000000102083EB: 90                 nop
  00000000102083EC: 90                 nop
  00000000102083ED: 90                 nop
  00000000102083EE: 90                 nop
  00000000102083EF: 90                 nop
  00000000102083F0: 55                 push        rbp
  00000000102083F1: 48 8B EC           mov         rbp,rsp
  00000000102083F4: 48 83 EC 40        sub         rsp,40h
  00000000102083F8: 48 89 5D E0        mov         qword ptr [rbp-20h],rbx
  00000000102083FC: 48 89 75 E8        mov         qword ptr [rbp-18h],rsi
  0000000010208400: 48 89 7D F0        mov         qword ptr [rbp-10h],rdi
  0000000010208404: 48 8D 1D F5 CB FF  lea         rbx,[0000000010205000h]
                    FF
  000000001020840B: 48 89 4D 10        mov         qword ptr [rbp+10h],rcx
  000000001020840F: 48 8B 4B C0        mov         rcx,qword ptr [rbx-40h]
  0000000010208413: BA 08 00 00 00     mov         edx,8
  0000000010208418: 41 B8 20 00 00 00  mov         r8d,20h
  000000001020841E: FF 53 E8           call        qword ptr [rbx-18h]
  0000000010208421: 48 83 C0 10        add         rax,10h
  0000000010208425: 48 8D 8B 30 F8 FF  lea         rcx,[rbx+FFFFFFFFFFFFF830h]
                    FF
  000000001020842C: 48 89 48 F8        mov         qword ptr [rax-8],rcx
  0000000010208430: 48 89 83 98 EE FF  mov         qword ptr [rbx+FFFFFFFFFFFFEE98h],rax
                    FF
  0000000010208437: 48 8B 83 98 EE FF  mov         rax,qword ptr [rbx+FFFFFFFFFFFFEE98h]
                    FF
  000000001020843E: 48 89 83 A0 EE FF  mov         qword ptr [rbx+FFFFFFFFFFFFEEA0h],rax
                    FF
  0000000010208445: 48 C7 83 88 EE FF  mov         qword ptr [rbx+FFFFFFFFFFFFEE88h],0FFFFFFFFFFFFFFFFh
                    FF FF FF FF FF
  0000000010208450: 48 8D BB 00 EE FF  lea         rdi,[rbx+FFFFFFFFFFFFEE00h]
                    FF
  0000000010208457: 48 8B 75 10        mov         rsi,qword ptr [rbp+10h]
  000000001020845B: 31 C9              xor         ecx,ecx
  000000001020845D: 31 C0              xor         eax,eax
  000000001020845F: 48 83 C1 01        add         rcx,1
  0000000010208463: BA 40 00 00 00     mov         edx,40h
  0000000010208468: 48 3B CA           cmp         rcx,rdx
  000000001020846B: 77 02              ja          000000001020846F
  000000001020846D: EB 08              jmp         0000000010208477
  000000001020846F: B0 07              mov         al,7
  0000000010208471: B9 A0 55 00 00     mov         ecx,55A0h
  0000000010208476: CC                 int         3
  0000000010208477: BA 40 00 00 00     mov         edx,40h
  000000001020847C: 48 3B CA           cmp         rcx,rdx
  000000001020847F: 77 02              ja          0000000010208483
  0000000010208481: EB 08              jmp         000000001020848B
  0000000010208483: B0 07              mov         al,7
  0000000010208485: B9 A0 55 00 00     mov         ecx,55A0h
  000000001020848A: CC                 int         3
  000000001020848B: 66 AD              lods        word ptr [rsi]
  000000001020848D: 66 AB              stos        word ptr [rdi]
  000000001020848F: 85 C0              test        eax,eax
  0000000010208491: 75 CC              jne         000000001020845F
  0000000010208493: 31 C0              xor         eax,eax
  0000000010208495: 48 89 83 B0 ED FF  mov         qword ptr [rbx+FFFFFFFFFFFFEDB0h],rax
                    FF
  000000001020849C: 31 C0              xor         eax,eax
  000000001020849E: 48 89 83 A8 C5 DF  mov         qword ptr [rbx+FFFFFFFFFFDFC5A8h],rax
                    FF
  00000000102084A5: 48 8B 8B F8 EF FF  mov         rcx,qword ptr [rbx+FFFFFFFFFFFFEFF8h]
                    FF
  00000000102084AC: E8 CF D4 FF FF     call        0000000010205980
  00000000102084B1: 48 8D 93 70 FC FF  lea         rdx,[rbx+FFFFFFFFFFFFFC70h]
                    FF
  00000000102084B8: 48 8B C8           mov         rcx,rax
  00000000102084BB: E8 E0 D9 FF FF     call        0000000010205EA0
  00000000102084C0: 48 8B 8B F0 EF FF  mov         rcx,qword ptr [rbx+FFFFFFFFFFFFEFF0h]
                    FF
  00000000102084C7: E8 B4 D4 FF FF     call        0000000010205980
  00000000102084CC: 48 8D 93 80 FC FF  lea         rdx,[rbx+FFFFFFFFFFFFFC80h]
                    FF
  00000000102084D3: 48 8B C8           mov         rcx,rax
  00000000102084D6: E8 C5 D9 FF FF     call        0000000010205EA0
  00000000102084DB: 48 8B 8B E8 EF FF  mov         rcx,qword ptr [rbx+FFFFFFFFFFFFEFE8h]
                    FF
  00000000102084E2: E8 99 D4 FF FF     call        0000000010205980
  00000000102084E7: 48 8D 93 90 FC FF  lea         rdx,[rbx+FFFFFFFFFFFFFC90h]
                    FF
  00000000102084EE: 48 8B C8           mov         rcx,rax
  00000000102084F1: E8 AA D9 FF FF     call        0000000010205EA0
  00000000102084F6: 48 8B 8B D8 EF FF  mov         rcx,qword ptr [rbx+FFFFFFFFFFFFEFD8h]
                    FF
  00000000102084FD: E8 7E D4 FF FF     call        0000000010205980
  0000000010208502: 48 8D 93 A8 FC FF  lea         rdx,[rbx+FFFFFFFFFFFFFCA8h]
                    FF
  0000000010208509: 48 8B C8           mov         rcx,rax
  000000001020850C: E8 8F D9 FF FF     call        0000000010205EA0
  0000000010208511: 48 8B 8B E0 EF FF  mov         rcx,qword ptr [rbx+FFFFFFFFFFFFEFE0h]
                    FF
  0000000010208518: E8 63 D4 FF FF     call        0000000010205980
  000000001020851D: 48 8D 93 B0 FC FF  lea         rdx,[rbx+FFFFFFFFFFFFFCB0h]
                    FF
  0000000010208524: 48 8B C8           mov         rcx,rax
  0000000010208527: E8 74 D9 FF FF     call        0000000010205EA0
  000000001020852C: 48 8B 8B D0 EF FF  mov         rcx,qword ptr [rbx+FFFFFFFFFFFFEFD0h]
                    FF
  0000000010208533: E8 48 D4 FF FF     call        0000000010205980
  0000000010208538: 48 8D 93 C0 FC FF  lea         rdx,[rbx+FFFFFFFFFFFFFCC0h]
                    FF
  000000001020853F: 48 8B C8           mov         rcx,rax
  0000000010208542: E8 59 D9 FF FF     call        0000000010205EA0
  0000000010208547: B9 82 00 00 00     mov         ecx,82h
  000000001020854C: BA 07 00 00 00     mov         edx,7
  0000000010208551: E8 AA D4 FF FF     call        0000000010205A00
  0000000010208556: 48 8D 93 D0 FC FF  lea         rdx,[rbx+FFFFFFFFFFFFFCD0h]
                    FF
  000000001020855D: 48 8B C8           mov         rcx,rax
  0000000010208560: E8 3B D9 FF FF     call        0000000010205EA0
  0000000010208565: B9 83 00 00 00     mov         ecx,83h
  000000001020856A: BA 07 00 00 00     mov         edx,7
  000000001020856F: E8 8C D4 FF FF     call        0000000010205A00
  0000000010208574: 48 8D 93 D8 FC FF  lea         rdx,[rbx+FFFFFFFFFFFFFCD8h]
                    FF
  000000001020857B: 48 8B C8           mov         rcx,rax
  000000001020857E: E8 1D D9 FF FF     call        0000000010205EA0
  0000000010208583: B9 84 00 00 00     mov         ecx,84h
  0000000010208588: BA 07 00 00 00     mov         edx,7
  000000001020858D: E8 6E D4 FF FF     call        0000000010205A00
  0000000010208592: 48 8D 93 E0 FC FF  lea         rdx,[rbx+FFFFFFFFFFFFFCE0h]
                    FF
  0000000010208599: 48 8B C8           mov         rcx,rax
  000000001020859C: E8 FF D8 FF FF     call        0000000010205EA0
  00000000102085A1: B9 85 00 00 00     mov         ecx,85h
  00000000102085A6: BA 07 00 00 00     mov         edx,7
  00000000102085AB: E8 50 D4 FF FF     call        0000000010205A00
  00000000102085B0: 48 8D 93 F0 FC FF  lea         rdx,[rbx+FFFFFFFFFFFFFCF0h]
                    FF
  00000000102085B7: 48 8B C8           mov         rcx,rax
  00000000102085BA: E8 E1 D8 FF FF     call        0000000010205EA0
  00000000102085BF: B9 04 00 00 00     mov         ecx,4
  00000000102085C4: BA 07 00 00 00     mov         edx,7
  00000000102085C9: E8 32 D4 FF FF     call        0000000010205A00
  00000000102085CE: 48 8D 93 08 FD FF  lea         rdx,[rbx+FFFFFFFFFFFFFD08h]
                    FF
  00000000102085D5: 48 8B C8           mov         rcx,rax
  00000000102085D8: E8 C3 D8 FF FF     call        0000000010205EA0
  00000000102085DD: B9 05 00 00 00     mov         ecx,5
  00000000102085E2: BA 07 00 00 00     mov         edx,7
  00000000102085E7: E8 14 D4 FF FF     call        0000000010205A00
  00000000102085EC: 48 8D 93 10 FD FF  lea         rdx,[rbx+FFFFFFFFFFFFFD10h]
                    FF
  00000000102085F3: 48 8B C8           mov         rcx,rax
  00000000102085F6: E8 A5 D8 FF FF     call        0000000010205EA0
  00000000102085FB: B9 06 00 00 00     mov         ecx,6
  0000000010208600: BA 07 00 00 00     mov         edx,7
  0000000010208605: E8 F6 D3 FF FF     call        0000000010205A00
  000000001020860A: 48 8D 93 20 FD FF  lea         rdx,[rbx+FFFFFFFFFFFFFD20h]
                    FF
  0000000010208611: 48 8B C8           mov         rcx,rax
  0000000010208614: E8 87 D8 FF FF     call        0000000010205EA0
  0000000010208619: B9 07 00 00 00     mov         ecx,7
  000000001020861E: BA 07 00 00 00     mov         edx,7
  0000000010208623: E8 D8 D3 FF FF     call        0000000010205A00
  0000000010208628: 48 8D 93 30 FD FF  lea         rdx,[rbx+FFFFFFFFFFFFFD30h]
                    FF
  000000001020862F: 48 8B C8           mov         rcx,rax
  0000000010208632: E8 69 D8 FF FF     call        0000000010205EA0
  0000000010208637: B9 08 00 00 00     mov         ecx,8
  000000001020863C: BA 08 00 00 00     mov         edx,8
  0000000010208641: E8 BA D3 FF FF     call        0000000010205A00
  0000000010208646: 48 8D 93 40 FD FF  lea         rdx,[rbx+FFFFFFFFFFFFFD40h]
                    FF
  000000001020864D: 48 8B C8           mov         rcx,rax
  0000000010208650: E8 4B D8 FF FF     call        0000000010205EA0
  0000000010208655: B9 09 00 00 00     mov         ecx,9
  000000001020865A: BA 08 00 00 00     mov         edx,8
  000000001020865F: E8 9C D3 FF FF     call        0000000010205A00
  0000000010208664: 48 8D 93 48 FD FF  lea         rdx,[rbx+FFFFFFFFFFFFFD48h]
                    FF
  000000001020866B: 48 8B C8           mov         rcx,rax
  000000001020866E: E8 2D D8 FF FF     call        0000000010205EA0
  0000000010208673: B9 0A 00 00 00     mov         ecx,0Ah
  0000000010208678: BA 08 00 00 00     mov         edx,8
  000000001020867D: E8 7E D3 FF FF     call        0000000010205A00
  0000000010208682: 48 8D 93 50 FD FF  lea         rdx,[rbx+FFFFFFFFFFFFFD50h]
                    FF
  0000000010208689: 48 8B C8           mov         rcx,rax
  000000001020868C: E8 0F D8 FF FF     call        0000000010205EA0
  0000000010208691: B9 71 00 00 00     mov         ecx,71h
  0000000010208696: BA 08 00 00 00     mov         edx,8
  000000001020869B: E8 60 D3 FF FF     call        0000000010205A00
  00000000102086A0: 48 8D 93 58 FD FF  lea         rdx,[rbx+FFFFFFFFFFFFFD58h]
                    FF
  00000000102086A7: 48 8B C8           mov         rcx,rax
  00000000102086AA: E8 F1 D7 FF FF     call        0000000010205EA0
  00000000102086AF: B9 72 00 00 00     mov         ecx,72h
  00000000102086B4: BA 08 00 00 00     mov         edx,8
  00000000102086B9: E8 42 D3 FF FF     call        0000000010205A00
  00000000102086BE: 48 8D 93 60 FD FF  lea         rdx,[rbx+FFFFFFFFFFFFFD60h]
                    FF
  00000000102086C5: 48 8B C8           mov         rcx,rax
  00000000102086C8: E8 D3 D7 FF FF     call        0000000010205EA0
  00000000102086CD: B9 73 00 00 00     mov         ecx,73h
  00000000102086D2: BA 08 00 00 00     mov         edx,8
  00000000102086D7: E8 24 D3 FF FF     call        0000000010205A00
  00000000102086DC: 48 8D 93 68 FD FF  lea         rdx,[rbx+FFFFFFFFFFFFFD68h]
                    FF
  00000000102086E3: 48 8B C8           mov         rcx,rax
  00000000102086E6: E8 B5 D7 FF FF     call        0000000010205EA0
  00000000102086EB: B9 0E 00 00 00     mov         ecx,0Eh
  00000000102086F0: BA 08 00 00 00     mov         edx,8
  00000000102086F5: E8 06 D3 FF FF     call        0000000010205A00
  00000000102086FA: 48 8D 93 70 FD FF  lea         rdx,[rbx+FFFFFFFFFFFFFD70h]
                    FF
  0000000010208701: 48 8B C8           mov         rcx,rax
  0000000010208704: E8 97 D7 FF FF     call        0000000010205EA0
  0000000010208709: B9 0F 00 00 00     mov         ecx,0Fh
  000000001020870E: BA 08 00 00 00     mov         edx,8
  0000000010208713: E8 E8 D2 FF FF     call        0000000010205A00
  0000000010208718: 48 8D 93 88 FD FF  lea         rdx,[rbx+FFFFFFFFFFFFFD88h]
                    FF
  000000001020871F: 48 8B C8           mov         rcx,rax
  0000000010208722: E8 79 D7 FF FF     call        0000000010205EA0
  0000000010208727: B9 10 00 00 00     mov         ecx,10h
  000000001020872C: BA 08 00 00 00     mov         edx,8
  0000000010208731: E8 CA D2 FF FF     call        0000000010205A00
  0000000010208736: 48 8D 93 90 FD FF  lea         rdx,[rbx+FFFFFFFFFFFFFD90h]
                    FF
  000000001020873D: 48 8B C8           mov         rcx,rax
  0000000010208740: E8 5B D7 FF FF     call        0000000010205EA0
  0000000010208745: B9 11 00 00 00     mov         ecx,11h
  000000001020874A: BA 08 00 00 00     mov         edx,8
  000000001020874F: E8 AC D2 FF FF     call        0000000010205A00
  0000000010208754: 48 8D 93 98 FD FF  lea         rdx,[rbx+FFFFFFFFFFFFFD98h]
                    FF
  000000001020875B: 48 8B C8           mov         rcx,rax
  000000001020875E: E8 3D D7 FF FF     call        0000000010205EA0
  0000000010208763: E8 68 D6 FF FF     call        0000000010205DD0
  0000000010208768: B9 12 00 00 00     mov         ecx,12h
  000000001020876D: BA 07 00 00 00     mov         edx,7
  0000000010208772: E8 89 D2 FF FF     call        0000000010205A00
  0000000010208777: 48 8D 93 A0 FD FF  lea         rdx,[rbx+FFFFFFFFFFFFFDA0h]
                    FF
  000000001020877E: 48 8B C8           mov         rcx,rax
  0000000010208781: E8 1A D7 FF FF     call        0000000010205EA0
  0000000010208786: B9 13 00 00 00     mov         ecx,13h
  000000001020878B: BA 07 00 00 00     mov         edx,7
  0000000010208790: E8 6B D2 FF FF     call        0000000010205A00
  0000000010208795: 48 8D 93 A8 FD FF  lea         rdx,[rbx+FFFFFFFFFFFFFDA8h]
                    FF
  000000001020879C: 48 8B C8           mov         rcx,rax
  000000001020879F: E8 FC D6 FF FF     call        0000000010205EA0
  00000000102087A4: B9 14 00 00 00     mov         ecx,14h
  00000000102087A9: BA 07 00 00 00     mov         edx,7
  00000000102087AE: E8 4D D2 FF FF     call        0000000010205A00
  00000000102087B3: 48 8D 93 B0 FD FF  lea         rdx,[rbx+FFFFFFFFFFFFFDB0h]
                    FF
  00000000102087BA: 48 8B C8           mov         rcx,rax
  00000000102087BD: E8 DE D6 FF FF     call        0000000010205EA0
  00000000102087C2: B9 15 00 00 00     mov         ecx,15h
  00000000102087C7: BA 07 00 00 00     mov         edx,7
  00000000102087CC: E8 2F D2 FF FF     call        0000000010205A00
  00000000102087D1: 48 8D 93 C0 FD FF  lea         rdx,[rbx+FFFFFFFFFFFFFDC0h]
                    FF
  00000000102087D8: 48 8B C8           mov         rcx,rax
  00000000102087DB: E8 C0 D6 FF FF     call        0000000010205EA0
  00000000102087E0: B9 16 00 00 00     mov         ecx,16h
  00000000102087E5: BA 07 00 00 00     mov         edx,7
  00000000102087EA: E8 11 D2 FF FF     call        0000000010205A00
  00000000102087EF: 48 8D 93 E0 FD FF  lea         rdx,[rbx+FFFFFFFFFFFFFDE0h]
                    FF
  00000000102087F6: 48 8B C8           mov         rcx,rax
  00000000102087F9: E8 A2 D6 FF FF     call        0000000010205EA0
  00000000102087FE: B9 8D 00 00 00     mov         ecx,8Dh
  0000000010208803: BA 07 00 00 00     mov         edx,7
  0000000010208808: E8 F3 D1 FF FF     call        0000000010205A00
  000000001020880D: 48 8D 93 00 FE FF  lea         rdx,[rbx+FFFFFFFFFFFFFE00h]
                    FF
  0000000010208814: 48 8B C8           mov         rcx,rax
  0000000010208817: E8 84 D6 FF FF     call        0000000010205EA0
  000000001020881C: B9 17 00 00 00     mov         ecx,17h
  0000000010208821: BA 08 00 00 00     mov         edx,8
  0000000010208826: E8 D5 D1 FF FF     call        0000000010205A00
  000000001020882B: 48 8D 93 18 FE FF  lea         rdx,[rbx+FFFFFFFFFFFFFE18h]
                    FF
  0000000010208832: 48 8B C8           mov         rcx,rax
  0000000010208835: E8 66 D6 FF FF     call        0000000010205EA0
  000000001020883A: B9 18 00 00 00     mov         ecx,18h
  000000001020883F: BA 08 00 00 00     mov         edx,8
  0000000010208844: E8 B7 D1 FF FF     call        0000000010205A00
  0000000010208849: 48 8D 93 20 FE FF  lea         rdx,[rbx+FFFFFFFFFFFFFE20h]
                    FF
  0000000010208850: 48 8B C8           mov         rcx,rax
  0000000010208853: E8 48 D6 FF FF     call        0000000010205EA0
  0000000010208858: B9 19 00 00 00     mov         ecx,19h
  000000001020885D: BA 08 00 00 00     mov         edx,8
  0000000010208862: E8 99 D1 FF FF     call        0000000010205A00
  0000000010208867: 48 8D 93 30 FE FF  lea         rdx,[rbx+FFFFFFFFFFFFFE30h]
                    FF
  000000001020886E: 48 8B C8           mov         rcx,rax
  0000000010208871: E8 2A D6 FF FF     call        0000000010205EA0
  0000000010208876: B9 1A 00 00 00     mov         ecx,1Ah
  000000001020887B: BA 08 00 00 00     mov         edx,8
  0000000010208880: E8 7B D1 FF FF     call        0000000010205A00
  0000000010208885: 48 8D 93 38 FE FF  lea         rdx,[rbx+FFFFFFFFFFFFFE38h]
                    FF
  000000001020888C: 48 8B C8           mov         rcx,rax
  000000001020888F: E8 0C D6 FF FF     call        0000000010205EA0
  0000000010208894: 48 8B 8B F0 EF FF  mov         rcx,qword ptr [rbx+FFFFFFFFFFFFEFF0h]
                    FF
  000000001020889B: E8 E0 D0 FF FF     call        0000000010205980
  00000000102088A0: 48 8D 93 40 FE FF  lea         rdx,[rbx+FFFFFFFFFFFFFE40h]
                    FF
  00000000102088A7: 48 8B C8           mov         rcx,rax
  00000000102088AA: E8 F1 D5 FF FF     call        0000000010205EA0
  00000000102088AF: 48 8B 83 A0 EE FF  mov         rax,qword ptr [rbx+FFFFFFFFFFFFEEA0h]
                    FF
  00000000102088B6: 48 89 83 90 EE FF  mov         qword ptr [rbx+FFFFFFFFFFFFEE90h],rax
                    FF
  00000000102088BD: E8 6E D5 FF FF     call        0000000010205E30
  00000000102088C2: E8 49 D0 FF FF     call        0000000010205910
  00000000102088C7: 48 89 83 B0 EE FF  mov         qword ptr [rbx+FFFFFFFFFFFFEEB0h],rax
                    FF
  00000000102088CE: 48 8B B3 B0 EE FF  mov         rsi,qword ptr [rbx+FFFFFFFFFFFFEEB0h]
                    FF
  00000000102088D5: E8 46 D4 FF FF     call        0000000010205D20
  00000000102088DA: 48 89 46 08        mov         qword ptr [rsi+8],rax
  00000000102088DE: E8 ED D4 FF FF     call        0000000010205DD0
  00000000102088E3: 48 8B 8B B0 EE FF  mov         rcx,qword ptr [rbx+FFFFFFFFFFFFEEB0h]
                    FF
  00000000102088EA: 48 8B 49 08        mov         rcx,qword ptr [rcx+8]
  00000000102088EE: 48 8B 93 C0 EF FF  mov         rdx,qword ptr [rbx+FFFFFFFFFFFFEFC0h]
                    FF
  00000000102088F5: 45 31 C0           xor         r8d,r8d
  00000000102088F8: E8 E3 CC FF FF     call        00000000102055E0
  00000000102088FD: 48 8D 93 5C FE FF  lea         rdx,[rbx+FFFFFFFFFFFFFE5Ch]
                    FF
  0000000010208904: 48 8B C8           mov         rcx,rax
  0000000010208907: E8 94 D5 FF FF     call        0000000010205EA0
  000000001020890C: 48 8B 83 B0 EE FF  mov         rax,qword ptr [rbx+FFFFFFFFFFFFEEB0h]
                    FF
  0000000010208913: 48 8B 40 08        mov         rax,qword ptr [rax+8]
  0000000010208917: 48 8B 8B A0 EE FF  mov         rcx,qword ptr [rbx+FFFFFFFFFFFFEEA0h]
                    FF
  000000001020891E: 48 8B 09           mov         rcx,qword ptr [rcx]
  0000000010208921: 48 89 48 48        mov         qword ptr [rax+48h],rcx
  0000000010208925: E8 06 D5 FF FF     call        0000000010205E30
  000000001020892A: 48 8B 83 B0 EE FF  mov         rax,qword ptr [rbx+FFFFFFFFFFFFEEB0h]
                    FF
  0000000010208931: 48 8B 40 08        mov         rax,qword ptr [rax+8]
  0000000010208935: 48 C7 40 50 08 00  mov         qword ptr [rax+50h],8
                    00 00
  000000001020893D: 48 8B 83 B0 EE FF  mov         rax,qword ptr [rbx+FFFFFFFFFFFFEEB0h]
                    FF
  0000000010208944: 48 8B 40 08        mov         rax,qword ptr [rax+8]
  0000000010208948: 48 8B 8B F8 EF FF  mov         rcx,qword ptr [rbx+FFFFFFFFFFFFEFF8h]
                    FF
  000000001020894F: 48 89 48 40        mov         qword ptr [rax+40h],rcx
  0000000010208953: 48 8B 83 B0 EE FF  mov         rax,qword ptr [rbx+FFFFFFFFFFFFEEB0h]
                    FF
  000000001020895A: 48 C7 40 28 D0 FF  mov         qword ptr [rax+28h],0FFFFFFFFFFFFFFD0h
                    FF FF
  0000000010208962: E8 A9 CF FF FF     call        0000000010205910
  0000000010208967: 48 89 83 A8 EE FF  mov         qword ptr [rbx+FFFFFFFFFFFFEEA8h],rax
                    FF
  000000001020896E: 48 8B B3 A8 EE FF  mov         rsi,qword ptr [rbx+FFFFFFFFFFFFEEA8h]
                    FF
  0000000010208975: E8 A6 D3 FF FF     call        0000000010205D20
  000000001020897A: 48 89 46 08        mov         qword ptr [rsi+8],rax
  000000001020897E: E8 4D D4 FF FF     call        0000000010205DD0
  0000000010208983: 48 8B 8B A8 EE FF  mov         rcx,qword ptr [rbx+FFFFFFFFFFFFEEA8h]
                    FF
  000000001020898A: 48 8B 49 08        mov         rcx,qword ptr [rcx+8]
  000000001020898E: 48 8B 93 F8 EF FF  mov         rdx,qword ptr [rbx+FFFFFFFFFFFFEFF8h]
                    FF
  0000000010208995: 45 31 C0           xor         r8d,r8d
  0000000010208998: E8 43 CC FF FF     call        00000000102055E0
  000000001020899D: 48 8D 93 60 FE FF  lea         rdx,[rbx+FFFFFFFFFFFFFE60h]
                    FF
  00000000102089A4: 48 8B C8           mov         rcx,rax
  00000000102089A7: E8 F4 D4 FF FF     call        0000000010205EA0
  00000000102089AC: 48 8B 8B A8 EE FF  mov         rcx,qword ptr [rbx+FFFFFFFFFFFFEEA8h]
                    FF
  00000000102089B3: 48 8B 49 08        mov         rcx,qword ptr [rcx+8]
  00000000102089B7: 48 8B 93 F8 EF FF  mov         rdx,qword ptr [rbx+FFFFFFFFFFFFEFF8h]
                    FF
  00000000102089BE: 45 31 C0           xor         r8d,r8d
  00000000102089C1: E8 1A CC FF FF     call        00000000102055E0
  00000000102089C6: 48 8D 93 64 FE FF  lea         rdx,[rbx+FFFFFFFFFFFFFE64h]
                    FF
  00000000102089CD: 48 8B C8           mov         rcx,rax
  00000000102089D0: E8 CB D4 FF FF     call        0000000010205EA0
  00000000102089D5: 48 8B 83 A8 EE FF  mov         rax,qword ptr [rbx+FFFFFFFFFFFFEEA8h]
                    FF
  00000000102089DC: 48 8B 40 08        mov         rax,qword ptr [rax+8]
  00000000102089E0: 48 8B 8B A0 EE FF  mov         rcx,qword ptr [rbx+FFFFFFFFFFFFEEA0h]
                    FF
  00000000102089E7: 48 8B 09           mov         rcx,qword ptr [rcx]
  00000000102089EA: 48 89 48 48        mov         qword ptr [rax+48h],rcx
  00000000102089EE: E8 3D D4 FF FF     call        0000000010205E30
  00000000102089F3: 48 8B 83 A8 EE FF  mov         rax,qword ptr [rbx+FFFFFFFFFFFFEEA8h]
                    FF
  00000000102089FA: 48 8B 40 08        mov         rax,qword ptr [rax+8]
  00000000102089FE: 48 C7 40 50 10 00  mov         qword ptr [rax+50h],10h
                    00 00
  0000000010208A06: 48 8B 83 A8 EE FF  mov         rax,qword ptr [rbx+FFFFFFFFFFFFEEA8h]
                    FF
  0000000010208A0D: 48 8B 40 08        mov         rax,qword ptr [rax+8]
  0000000010208A11: 48 8B 8B F8 EF FF  mov         rcx,qword ptr [rbx+FFFFFFFFFFFFEFF8h]
                    FF
  0000000010208A18: 48 89 48 40        mov         qword ptr [rax+40h],rcx
  0000000010208A1C: 48 8B 83 A8 EE FF  mov         rax,qword ptr [rbx+FFFFFFFFFFFFEEA8h]
                    FF
  0000000010208A23: 48 C7 40 28 D8 FF  mov         qword ptr [rax+28h],0FFFFFFFFFFFFFFD8h
                    FF FF
  0000000010208A2B: 31 C0              xor         eax,eax
  0000000010208A2D: 48 89 83 88 EE FF  mov         qword ptr [rbx+FFFFFFFFFFFFEE88h],rax
                    FF
  0000000010208A34: 48 8B 5D E0        mov         rbx,qword ptr [rbp-20h]
  0000000010208A38: 48 8B 75 E8        mov         rsi,qword ptr [rbp-18h]
  0000000010208A3C: 48 8B 7D F0        mov         rdi,qword ptr [rbp-10h]
  0000000010208A40: C9                 leave
  0000000010208A41: C3                 ret
  0000000010208A42: 90                 nop
  0000000010208A43: 90                 nop
  0000000010208A44: 90                 nop
  0000000010208A45: 90                 nop
  0000000010208A46: 90                 nop
  0000000010208A47: 90                 nop
  0000000010208A48: 90                 nop
  0000000010208A49: 90                 nop
  0000000010208A4A: 90                 nop
  0000000010208A4B: 90                 nop
  0000000010208A4C: 90                 nop
  0000000010208A4D: 90                 nop
  0000000010208A4E: 90                 nop
  0000000010208A4F: 90                 nop
  0000000010208A50: 55                 push        rbp
  0000000010208A51: 48 8B EC           mov         rbp,rsp
  0000000010208A54: 48 83 EC 20        sub         rsp,20h
  0000000010208A58: 48 8D 05 91 D8 FF  lea         rax,[00000000102062F0h]
                    FF
  0000000010208A5F: 48 89 83 98 C5 DF  mov         qword ptr [rbx+FFFFFFFFFFDFC598h],rax
                    FF
  0000000010208A66: 48 8D 05 63 EA FF  lea         rax,[00000000102074D0h]
                    FF
  0000000010208A6D: 48 89 83 90 C5 DF  mov         qword ptr [rbx+FFFFFFFFFFDFC590h],rax
                    FF
  0000000010208A74: 48 8D 0D 75 C8 FF  lea         rcx,[00000000102052F0h]
                    FF
  0000000010208A7B: FF 93 68 FE FF FF  call        qword ptr [rbx+FFFFFFFFFFFFFE68h]
  0000000010208A81: 31 C0              xor         eax,eax
  0000000010208A83: 48 89 83 C0 ED FF  mov         qword ptr [rbx+FFFFFFFFFFFFEDC0h],rax
                    FF
  0000000010208A8A: 31 C0              xor         eax,eax
  0000000010208A8C: 48 89 83 B8 EE FF  mov         qword ptr [rbx+FFFFFFFFFFFFEEB8h],rax
                    FF
  0000000010208A93: 48 C7 83 88 EE FF  mov         qword ptr [rbx+FFFFFFFFFFFFEE88h],0FFFFFFFFFFFFFFFFh
                    FF FF FF FF FF
  0000000010208A9E: 48 8D 8B F8 EF FF  lea         rcx,[rbx+FFFFFFFFFFFFEFF8h]
                    FF
  0000000010208AA5: 31 D2              xor         edx,edx
  0000000010208AA7: E8 B4 D2 FF FF     call        0000000010205D60
  0000000010208AAC: 48 8D 8B F0 EF FF  lea         rcx,[rbx+FFFFFFFFFFFFEFF0h]
                    FF
  0000000010208AB3: 31 D2              xor         edx,edx
  0000000010208AB5: E8 A6 D2 FF FF     call        0000000010205D60
  0000000010208ABA: 48 8D 8B E0 EF FF  lea         rcx,[rbx+FFFFFFFFFFFFEFE0h]
                    FF
  0000000010208AC1: BA 01 00 00 00     mov         edx,1
  0000000010208AC6: E8 95 D2 FF FF     call        0000000010205D60
  0000000010208ACB: 48 8D 8B D8 EF FF  lea         rcx,[rbx+FFFFFFFFFFFFEFD8h]
                    FF
  0000000010208AD2: BA 02 00 00 00     mov         edx,2
  0000000010208AD7: E8 84 D2 FF FF     call        0000000010205D60
  0000000010208ADC: 48 8D 8B D0 EF FF  lea         rcx,[rbx+FFFFFFFFFFFFEFD0h]
                    FF
  0000000010208AE3: BA 03 00 00 00     mov         edx,3
  0000000010208AE8: E8 73 D2 FF FF     call        0000000010205D60
  0000000010208AED: 48 8D 8B C8 EF FF  lea         rcx,[rbx+FFFFFFFFFFFFEFC8h]
                    FF
  0000000010208AF4: BA 0A 00 00 00     mov         edx,0Ah
  0000000010208AF9: E8 62 D2 FF FF     call        0000000010205D60
  0000000010208AFE: 48 8D 8B E8 EF FF  lea         rcx,[rbx+FFFFFFFFFFFFEFE8h]
                    FF
  0000000010208B05: BA 04 00 00 00     mov         edx,4
  0000000010208B0A: E8 51 D2 FF FF     call        0000000010205D60
  0000000010208B0F: 48 8D 8B C0 EF FF  lea         rcx,[rbx+FFFFFFFFFFFFEFC0h]
                    FF
  0000000010208B16: BA 09 00 00 00     mov         edx,9
  0000000010208B1B: E8 40 D2 FF FF     call        0000000010205D60
  0000000010208B20: 48 8D 8B B8 EF FF  lea         rcx,[rbx+FFFFFFFFFFFFEFB8h]
                    FF
  0000000010208B27: BA 1F 00 00 00     mov         edx,1Fh
  0000000010208B2C: E8 2F D2 FF FF     call        0000000010205D60
  0000000010208B31: C9                 leave
  0000000010208B32: C3                 ret
  0000000010208B33: 90                 nop
  0000000010208B34: 90                 nop
  0000000010208B35: 90                 nop
  0000000010208B36: 90                 nop
  0000000010208B37: 90                 nop
  0000000010208B38: 90                 nop
  0000000010208B39: 90                 nop
  0000000010208B3A: 90                 nop
  0000000010208B3B: 90                 nop
  0000000010208B3C: 90                 nop
  0000000010208B3D: 90                 nop
  0000000010208B3E: 90                 nop
  0000000010208B3F: 90                 nop
  0000000010208B40: 83 FA 01           cmp         edx,1
  0000000010208B43: 74 01              je          0000000010208B46
  0000000010208B45: C3                 ret
  0000000010208B46: 56                 push        rsi
  0000000010208B47: 57                 push        rdi
  0000000010208B48: 53                 push        rbx
  0000000010208B49: 48 83 EC 20        sub         rsp,20h
  0000000010208B4D: 48 8D 1D AC C4 FF  lea         rbx,[0000000010205000h]
                    FF
  0000000010208B54: FF 53 E0           call        qword ptr [rbx-20h]
  0000000010208B57: 48 89 43 C0        mov         qword ptr [rbx-40h],rax
  0000000010208B5B: 48 8D 8B 60 FF FF  lea         rcx,[rbx+FFFFFFFFFFFFFF60h]
                    FF
  0000000010208B62: FF 53 D0           call        qword ptr [rbx-30h]
  0000000010208B65: 48 85 C0           test        rax,rax
  0000000010208B68: 74 02              je          0000000010208B6C
  0000000010208B6A: EB 08              jmp         0000000010208B74
  0000000010208B6C: B0 05              mov         al,5
  0000000010208B6E: B9 85 60 00 00     mov         ecx,6085h
  0000000010208B73: CC                 int         3
  0000000010208B74: 48 8B F0           mov         rsi,rax
  0000000010208B77: 48 B8 6B 60 F2 02  mov         rax,0B4F9D4EF02F2606Bh
                    EF D4 F9 B4
  0000000010208B81: 48 3B 86 F0 03 00  cmp         rax,qword ptr [rsi+00000000000003F0h]
                    00
  0000000010208B88: 75 02              jne         0000000010208B8C
  0000000010208B8A: EB 08              jmp         0000000010208B94
  0000000010208B8C: B0 05              mov         al,5
  0000000010208B8E: B9 85 60 00 00     mov         ecx,6085h
  0000000010208B93: CC                 int         3
  0000000010208B94: 48 B8 86 5E A9 E6  mov         rax,95BD889CE6A95E86h
                    9C 88 BD 95
  0000000010208B9E: 48 3B 86 F8 03 00  cmp         rax,qword ptr [rsi+00000000000003F8h]
                    00
  0000000010208BA5: 75 02              jne         0000000010208BA9
  0000000010208BA7: EB 08              jmp         0000000010208BB1
  0000000010208BA9: B0 05              mov         al,5
  0000000010208BAB: B9 85 60 00 00     mov         ecx,6085h
  0000000010208BB0: CC                 int         3
  0000000010208BB1: 48 8B CE           mov         rcx,rsi
  0000000010208BB4: BA 04 00 00 00     mov         edx,4
  0000000010208BB9: FF 53 D8           call        qword ptr [rbx-28h]
  0000000010208BBC: 48 89 83 70 FE FF  mov         qword ptr [rbx+FFFFFFFFFFFFFE70h],rax
                    FF
  0000000010208BC3: 48 8B CE           mov         rcx,rsi
  0000000010208BC6: BA 05 00 00 00     mov         edx,5
  0000000010208BCB: FF 53 D8           call        qword ptr [rbx-28h]
  0000000010208BCE: 48 89 83 78 FE FF  mov         qword ptr [rbx+FFFFFFFFFFFFFE78h],rax
                    FF
  0000000010208BD5: 48 8B CE           mov         rcx,rsi
  0000000010208BD8: BA 0E 00 00 00     mov         edx,0Eh
  0000000010208BDD: FF 53 D8           call        qword ptr [rbx-28h]
  0000000010208BE0: 48 89 83 80 FE FF  mov         qword ptr [rbx+FFFFFFFFFFFFFE80h],rax
                    FF
  0000000010208BE7: 48 8B CE           mov         rcx,rsi
  0000000010208BEA: BA 0C 00 00 00     mov         edx,0Ch
  0000000010208BEF: FF 53 D8           call        qword ptr [rbx-28h]
  0000000010208BF2: 48 89 83 88 FE FF  mov         qword ptr [rbx+FFFFFFFFFFFFFE88h],rax
                    FF
  0000000010208BF9: 48 8B CE           mov         rcx,rsi
  0000000010208BFC: BA 08 00 00 00     mov         edx,8
  0000000010208C01: FF 53 D8           call        qword ptr [rbx-28h]
  0000000010208C04: 48 89 83 90 FE FF  mov         qword ptr [rbx+FFFFFFFFFFFFFE90h],rax
                    FF
  0000000010208C0B: 48 8B CE           mov         rcx,rsi
  0000000010208C0E: BA 09 00 00 00     mov         edx,9
  0000000010208C13: FF 53 D8           call        qword ptr [rbx-28h]
  0000000010208C16: 48 89 83 98 FE FF  mov         qword ptr [rbx+FFFFFFFFFFFFFE98h],rax
                    FF
  0000000010208C1D: 48 8B CE           mov         rcx,rsi
  0000000010208C20: BA 07 00 00 00     mov         edx,7
  0000000010208C25: FF 53 D8           call        qword ptr [rbx-28h]
  0000000010208C28: 48 89 83 A8 FE FF  mov         qword ptr [rbx+FFFFFFFFFFFFFEA8h],rax
                    FF
  0000000010208C2F: 48 8B CE           mov         rcx,rsi
  0000000010208C32: BA 18 00 00 00     mov         edx,18h
  0000000010208C37: FF 53 D8           call        qword ptr [rbx-28h]
  0000000010208C3A: 48 89 83 D0 FE FF  mov         qword ptr [rbx+FFFFFFFFFFFFFED0h],rax
                    FF
  0000000010208C41: 48 8B CE           mov         rcx,rsi
  0000000010208C44: BA 19 00 00 00     mov         edx,19h
  0000000010208C49: FF 53 D8           call        qword ptr [rbx-28h]
  0000000010208C4C: 48 89 83 D8 FE FF  mov         qword ptr [rbx+FFFFFFFFFFFFFED8h],rax
                    FF
  0000000010208C53: 48 8B CE           mov         rcx,rsi
  0000000010208C56: BA 06 00 00 00     mov         edx,6
  0000000010208C5B: FF 53 D8           call        qword ptr [rbx-28h]
  0000000010208C5E: 48 89 83 E0 FE FF  mov         qword ptr [rbx+FFFFFFFFFFFFFEE0h],rax
                    FF
  0000000010208C65: 48 8B CE           mov         rcx,rsi
  0000000010208C68: BA 15 00 00 00     mov         edx,15h
  0000000010208C6D: FF 53 D8           call        qword ptr [rbx-28h]
  0000000010208C70: 48 89 83 F0 FE FF  mov         qword ptr [rbx+FFFFFFFFFFFFFEF0h],rax
                    FF
  0000000010208C77: 48 8B CE           mov         rcx,rsi
  0000000010208C7A: BA 12 00 00 00     mov         edx,12h
  0000000010208C7F: FF 53 D8           call        qword ptr [rbx-28h]
  0000000010208C82: 48 89 83 F8 FE FF  mov         qword ptr [rbx+FFFFFFFFFFFFFEF8h],rax
                    FF
  0000000010208C89: 48 8B CE           mov         rcx,rsi
  0000000010208C8C: BA 0A 00 00 00     mov         edx,0Ah
  0000000010208C91: FF 53 D8           call        qword ptr [rbx-28h]
  0000000010208C94: 48 89 83 08 FF FF  mov         qword ptr [rbx+FFFFFFFFFFFFFF08h],rax
                    FF
  0000000010208C9B: 48 8B CE           mov         rcx,rsi
  0000000010208C9E: BA 10 00 00 00     mov         edx,10h
  0000000010208CA3: FF 53 D8           call        qword ptr [rbx-28h]
  0000000010208CA6: 48 89 83 10 FF FF  mov         qword ptr [rbx+FFFFFFFFFFFFFF10h],rax
                    FF
  0000000010208CAD: 48 8B CE           mov         rcx,rsi
  0000000010208CB0: BA 01 00 00 00     mov         edx,1
  0000000010208CB5: FF 53 D8           call        qword ptr [rbx-28h]
  0000000010208CB8: 48 89 83 18 FF FF  mov         qword ptr [rbx+FFFFFFFFFFFFFF18h],rax
                    FF
  0000000010208CBF: 48 8D 8B 40 FF FF  lea         rcx,[rbx+FFFFFFFFFFFFFF40h]
                    FF
  0000000010208CC6: FF 53 D0           call        qword ptr [rbx-30h]
  0000000010208CC9: 48 85 C0           test        rax,rax
  0000000010208CCC: 74 02              je          0000000010208CD0
  0000000010208CCE: EB 08              jmp         0000000010208CD8
  0000000010208CD0: B0 05              mov         al,5
  0000000010208CD2: B9 85 60 00 00     mov         ecx,6085h
  0000000010208CD7: CC                 int         3
  0000000010208CD8: 48 8B F0           mov         rsi,rax
  0000000010208CDB: 48 B8 EC 70 F0 AE  mov         rax,0B36F7297AEF070ECh
                    97 72 6F B3
  0000000010208CE5: 48 3B 86 F0 03 00  cmp         rax,qword ptr [rsi+00000000000003F0h]
                    00
  0000000010208CEC: 75 02              jne         0000000010208CF0
  0000000010208CEE: EB 08              jmp         0000000010208CF8
  0000000010208CF0: B0 05              mov         al,5
  0000000010208CF2: B9 85 60 00 00     mov         ecx,6085h
  0000000010208CF7: CC                 int         3
  0000000010208CF8: 48 B8 6F 2D 25 B7  mov         rax,8E9365A8B7252D6Fh
                    A8 65 93 8E
  0000000010208D02: 48 3B 86 F8 03 00  cmp         rax,qword ptr [rsi+00000000000003F8h]
                    00
  0000000010208D09: 75 02              jne         0000000010208D0D
  0000000010208D0B: EB 08              jmp         0000000010208D15
  0000000010208D0D: B0 05              mov         al,5
  0000000010208D0F: B9 85 60 00 00     mov         ecx,6085h
  0000000010208D14: CC                 int         3
  0000000010208D15: 48 8B CE           mov         rcx,rsi
  0000000010208D18: BA 06 00 00 00     mov         edx,6
  0000000010208D1D: FF 53 D8           call        qword ptr [rbx-28h]
  0000000010208D20: 48 89 83 B0 FE FF  mov         qword ptr [rbx+FFFFFFFFFFFFFEB0h],rax
                    FF
  0000000010208D27: 48 8B CE           mov         rcx,rsi
  0000000010208D2A: BA 05 00 00 00     mov         edx,5
  0000000010208D2F: FF 53 D8           call        qword ptr [rbx-28h]
  0000000010208D32: 48 89 83 B8 FE FF  mov         qword ptr [rbx+FFFFFFFFFFFFFEB8h],rax
                    FF
  0000000010208D39: 48 8B CE           mov         rcx,rsi
  0000000010208D3C: BA 03 00 00 00     mov         edx,3
  0000000010208D41: FF 53 D8           call        qword ptr [rbx-28h]
  0000000010208D44: 48 89 83 C0 FE FF  mov         qword ptr [rbx+FFFFFFFFFFFFFEC0h],rax
                    FF
  0000000010208D4B: 48 8B CE           mov         rcx,rsi
  0000000010208D4E: BA 02 00 00 00     mov         edx,2
  0000000010208D53: FF 53 D8           call        qword ptr [rbx-28h]
  0000000010208D56: 48 89 83 C8 FE FF  mov         qword ptr [rbx+FFFFFFFFFFFFFEC8h],rax
                    FF
  0000000010208D5D: 48 8B CE           mov         rcx,rsi
  0000000010208D60: BA 01 00 00 00     mov         edx,1
  0000000010208D65: FF 53 D8           call        qword ptr [rbx-28h]
  0000000010208D68: 48 89 83 E8 FE FF  mov         qword ptr [rbx+FFFFFFFFFFFFFEE8h],rax
                    FF
  0000000010208D6F: 48 8D 8B 20 FF FF  lea         rcx,[rbx+FFFFFFFFFFFFFF20h]
                    FF
  0000000010208D76: FF 53 D0           call        qword ptr [rbx-30h]
  0000000010208D79: 48 85 C0           test        rax,rax
  0000000010208D7C: 74 02              je          0000000010208D80
  0000000010208D7E: EB 08              jmp         0000000010208D88
  0000000010208D80: B0 05              mov         al,5
  0000000010208D82: B9 85 60 00 00     mov         ecx,6085h
  0000000010208D87: CC                 int         3
  0000000010208D88: 48 8B F0           mov         rsi,rax
  0000000010208D8B: 48 B8 0E 2D C5 F8  mov         rax,6D74401DF8C52D0Eh
                    1D 40 74 6D
  0000000010208D95: 48 3B 86 F0 03 00  cmp         rax,qword ptr [rsi+00000000000003F0h]
                    00
  0000000010208D9C: 75 02              jne         0000000010208DA0
  0000000010208D9E: EB 08              jmp         0000000010208DA8
  0000000010208DA0: B0 05              mov         al,5
  0000000010208DA2: B9 85 60 00 00     mov         ecx,6085h
  0000000010208DA7: CC                 int         3
  0000000010208DA8: 48 B8 52 5C 92 A6  mov         rax,8D5EB16FA6925C52h
                    6F B1 5E 8D
  0000000010208DB2: 48 3B 86 F8 03 00  cmp         rax,qword ptr [rsi+00000000000003F8h]
                    00
  0000000010208DB9: 75 02              jne         0000000010208DBD
  0000000010208DBB: EB 08              jmp         0000000010208DC5
  0000000010208DBD: B0 05              mov         al,5
  0000000010208DBF: B9 85 60 00 00     mov         ecx,6085h
  0000000010208DC4: CC                 int         3
  0000000010208DC5: 48 8B CE           mov         rcx,rsi
  0000000010208DC8: BA 0C 00 00 00     mov         edx,0Ch
  0000000010208DCD: FF 53 D8           call        qword ptr [rbx-28h]
  0000000010208DD0: 48 89 83 68 FE FF  mov         qword ptr [rbx+FFFFFFFFFFFFFE68h],rax
                    FF
  0000000010208DD7: 48 8B CE           mov         rcx,rsi
  0000000010208DDA: BA 07 00 00 00     mov         edx,7
  0000000010208DDF: FF 53 D8           call        qword ptr [rbx-28h]
  0000000010208DE2: 48 89 83 A0 FE FF  mov         qword ptr [rbx+FFFFFFFFFFFFFEA0h],rax
                    FF
  0000000010208DE9: 48 8B CE           mov         rcx,rsi
  0000000010208DEC: BA 09 00 00 00     mov         edx,9
  0000000010208DF1: FF 53 D8           call        qword ptr [rbx-28h]
  0000000010208DF4: 48 89 83 00 FF FF  mov         qword ptr [rbx+FFFFFFFFFFFFFF00h],rax
                    FF
  0000000010208DFB: 48 C7 83 60 F9 FF  mov         qword ptr [rbx+FFFFFFFFFFFFF960h],3
                    FF 03 00 00 00
  0000000010208E06: 48 C7 83 00 F9 FF  mov         qword ptr [rbx+FFFFFFFFFFFFF900h],70h
                    FF 70 00 00 00
  0000000010208E11: 48 C7 83 90 F8 FF  mov         qword ptr [rbx+FFFFFFFFFFFFF890h],50h
                    FF 50 00 00 00
  0000000010208E1C: 48 8D 83 90 F8 FF  lea         rax,[rbx+FFFFFFFFFFFFF890h]
                    FF
  0000000010208E23: 48 89 83 98 F8 FF  mov         qword ptr [rbx+FFFFFFFFFFFFF898h],rax
                    FF
  0000000010208E2A: 48 C7 83 30 F8 FF  mov         qword ptr [rbx+FFFFFFFFFFFFF830h],10h
                    FF 10 00 00 00
  0000000010208E35: 48 C7 83 D0 F7 FF  mov         qword ptr [rbx+FFFFFFFFFFFFF7D0h],98h
                    FF 98 00 00 00
  0000000010208E40: 48 C7 83 70 F7 FF  mov         qword ptr [rbx+FFFFFFFFFFFFF770h],30h
                    FF 30 00 00 00
  0000000010208E4B: 48 8D 83 70 F7 FF  lea         rax,[rbx+FFFFFFFFFFFFF770h]
                    FF
  0000000010208E52: 48 89 83 78 F7 FF  mov         qword ptr [rbx+FFFFFFFFFFFFF778h],rax
                    FF
  0000000010208E59: 48 C7 83 00 F7 FF  mov         qword ptr [rbx+FFFFFFFFFFFFF700h],2E0h
                    FF E0 02 00 00
  0000000010208E64: 48 8D 83 00 F7 FF  lea         rax,[rbx+FFFFFFFFFFFFF700h]
                    FF
  0000000010208E6B: 48 89 83 08 F7 FF  mov         qword ptr [rbx+FFFFFFFFFFFFF708h],rax
                    FF
  0000000010208E72: 48 C7 83 A0 F6 FF  mov         qword ptr [rbx+FFFFFFFFFFFFF6A0h],58h
                    FF 58 00 00 00
  0000000010208E7D: 48 8D 83 A0 F6 FF  lea         rax,[rbx+FFFFFFFFFFFFF6A0h]
                    FF
  0000000010208E84: 48 89 83 B0 F6 FF  mov         qword ptr [rbx+FFFFFFFFFFFFF6B0h],rax
                    FF
  0000000010208E8B: 48 8D 83 70 F5 FF  lea         rax,[rbx+FFFFFFFFFFFFF570h]
                    FF
  0000000010208E92: 48 89 83 A8 F6 FF  mov         qword ptr [rbx+FFFFFFFFFFFFF6A8h],rax
                    FF
  0000000010208E99: 48 C7 83 30 F6 FF  mov         qword ptr [rbx+FFFFFFFFFFFFF630h],60h
                    FF 60 00 00 00
  0000000010208EA4: 48 8D 83 30 F6 FF  lea         rax,[rbx+FFFFFFFFFFFFF630h]
                    FF
  0000000010208EAB: 48 89 83 38 F6 FF  mov         qword ptr [rbx+FFFFFFFFFFFFF638h],rax
                    FF
  0000000010208EB2: 48 C7 83 D0 F5 FF  mov         qword ptr [rbx+FFFFFFFFFFFFF5D0h],42h
                    FF 42 00 00 00
  0000000010208EBD: 48 8D 83 D0 F5 FF  lea         rax,[rbx+FFFFFFFFFFFFF5D0h]
                    FF
  0000000010208EC4: 48 89 83 E0 F5 FF  mov         qword ptr [rbx+FFFFFFFFFFFFF5E0h],rax
                    FF
  0000000010208ECB: 48 8D 83 70 F5 FF  lea         rax,[rbx+FFFFFFFFFFFFF570h]
                    FF
  0000000010208ED2: 48 89 83 D8 F5 FF  mov         qword ptr [rbx+FFFFFFFFFFFFF5D8h],rax
                    FF
  0000000010208ED9: 48 C7 83 70 F5 FF  mov         qword ptr [rbx+FFFFFFFFFFFFF570h],41h
                    FF 41 00 00 00
  0000000010208EE4: 48 8D 83 70 F5 FF  lea         rax,[rbx+FFFFFFFFFFFFF570h]
                    FF
  0000000010208EEB: 48 89 83 78 F5 FF  mov         qword ptr [rbx+FFFFFFFFFFFFF578h],rax
                    FF
  0000000010208EF2: 48 C7 83 10 F5 FF  mov         qword ptr [rbx+FFFFFFFFFFFFF510h],30h
                    FF 30 00 00 00
  0000000010208EFD: 48 8D 83 10 F5 FF  lea         rax,[rbx+FFFFFFFFFFFFF510h]
                    FF
  0000000010208F04: 48 89 83 18 F5 FF  mov         qword ptr [rbx+FFFFFFFFFFFFF518h],rax
                    FF
  0000000010208F0B: 48 C7 83 B0 F4 FF  mov         qword ptr [rbx+FFFFFFFFFFFFF4B0h],30h
                    FF 30 00 00 00
  0000000010208F16: 48 8D 83 B0 F4 FF  lea         rax,[rbx+FFFFFFFFFFFFF4B0h]
                    FF
  0000000010208F1D: 48 89 83 B8 F4 FF  mov         qword ptr [rbx+FFFFFFFFFFFFF4B8h],rax
                    FF
  0000000010208F24: 48 C7 83 50 F4 FF  mov         qword ptr [rbx+FFFFFFFFFFFFF450h],28h
                    FF 28 00 00 00
  0000000010208F2F: 48 C7 83 F0 F3 FF  mov         qword ptr [rbx+FFFFFFFFFFFFF3F0h],18h
                    FF 18 00 00 00
  0000000010208F3A: E8 11 FB FF FF     call        0000000010208A50
  0000000010208F3F: B8 01 00 00 00     mov         eax,1
  0000000010208F44: 48 83 C4 20        add         rsp,20h
  0000000010208F48: 5B                 pop         rbx
  0000000010208F49: 5F                 pop         rdi
  0000000010208F4A: 5E                 pop         rsi
  0000000010208F4B: C3                 ret

RAW DATA #3
  0000000010205000: 55 48 8B EC 48 83 EC 40 48 89 5D E0 48 8D 1D ED  UH.?H.?@H.]àH..í
  0000000010205010: FF FF FF 48 89 4D 10 48 89 55 18 4C 89 45 20 48  ÿÿÿH.M.H.U.L.E H
  0000000010205020: 8B 45 20 48 83 E0 7F 48 89 45 F0 48 83 7D 20 C0  .E H.à.H.E?H.} À
  0000000010205030: 7C 0E 48 83 7D 20 40 7D 07 B8 01 00 00 00 EB 02  |.H.} @}.¸....ë.
  0000000010205040: 31 C0 88 45 FF 0F B6 45 FF 85 C0 74 11 48 8B 45  1À.Eÿ.¶Eÿ.Àt.H.E
  0000000010205050: F0 48 81 C0 80 00 00 00 48 89 45 F0 EB 0C 48 8B  ?H.À....H.E?ë.H.
  0000000010205060: 45 20 48 C1 F8 07 48 89 45 20 48 8B 4D 10 4C 8B  E HÁø.H.E H.M.L.
  0000000010205070: 45 F0 48 8B 55 18 FF 93 10 FF FF FF 0F B6 45 FF  E?H.U.ÿ..ÿÿÿ.¶Eÿ
  0000000010205080: 85 C0 74 9B 48 8B 5D E0 C9 C3 90 90 90 90 90 90  .Àt.H.]àÉ?......
  0000000010205090: 55 48 8B EC 48 83 EC 50 48 89 5D D0 48 8D 1D 5D  UH.?H.?PH.]?H..]
  00000000102050A0: FF FF FF 48 89 4D 10 48 89 55 18 4C 89 45 20 31  ÿÿÿH.M.H.U.L.E 1
  00000000102050B0: C0 48 8B 4D 20 48 89 01 48 C7 45 F0 01 00 00 00  ÀH.M H..HÇE?....
  00000000102050C0: 48 C7 45 E0 01 00 00 00 48 8B 4D 10 4C 8D 45 E8  HÇEà....H.M.L.Eè
  00000000102050D0: 48 8B 55 18 FF 93 08 FF FF FF 48 83 7D F0 0A 0F  H.U.ÿ..ÿÿÿH.}?..
  00000000102050E0: 8D AC 00 00 00 48 81 7D E8 80 00 00 00 7C 07 B8  .¬...H.}è....|.¸
  00000000102050F0: 01 00 00 00 EB 02 31 C0 88 45 FF 48 8B 45 E8 48  ....ë.1À.EÿH.EèH
  0000000010205100: 83 E0 7F 48 89 45 E8 48 8B 45 20 48 8B 00 48 8B  .à.H.EèH.E H..H.
  0000000010205110: 4D E8 48 8B 55 E0 48 0F AF CA 48 03 C1 48 8B 4D  MèH.UàH.¯ÊH.ÁH.M
  0000000010205120: 20 48 89 01 48 83 7D F0 09 74 0C 48 8B 45 E0 48   H..H.}?.t.H.EàH
  0000000010205130: C1 E0 07 48 89 45 E0 48 FF 45 F0 0F B6 45 FF 85  Áà.H.EàHÿE?.¶Eÿ.
  0000000010205140: C0 74 4C 48 83 7D E8 40 7C 45 48 83 7D F0 09 74  ÀtLH.}è@|EH.}?.t
  0000000010205150: 23 48 8B 45 20 48 8B 00 B9 01 00 00 00 48 8B 55  #H.E H..¹....H.U
  0000000010205160: E0 48 0F AF CA 48 F7 D9 48 03 C1 48 8B 4D 20 48  àH.¯ÊH÷ÙH.ÁH.M H
  0000000010205170: 89 01 EB 1B 48 8B 45 20 48 8B 00 48 B9 00 00 00  ..ë.H.E H..H¹...
  0000000010205180: 00 00 00 00 80 48 03 C1 48 8B 4D 20 48 89 01 EB  .....H.ÁH.M H..ë
  0000000010205190: 37 48 83 7D F0 0A 75 28 C6 45 FF 01 48 83 7D E8  7H.}?.u(ÆEÿ.H.}è
  00000000102051A0: 7F 75 1B 48 8B 45 20 48 8B 00 48 B9 00 00 00 00  .u.H.E H..H¹....
  00000000102051B0: 00 00 00 80 48 03 C1 48 8B 4D 20 48 89 01 EB 08  ....H.ÁH.M H..ë.
  00000000102051C0: B0 03 B9 C6 12 00 00 CC 0F B6 45 FF 85 C0 0F 84  °.¹Æ...?.¶Eÿ.À..
  00000000102051D0: F4 FE FF FF 48 8B 5D D0 C9 C3 90 90 90 90 90 90  ô?ÿÿH.]?É?......
  00000000102051E0: 55 48 8B EC 48 83 EC 20 48 89 5D E0 48 8D 1D 0D  UH.?H.? H.]àH...
  00000000102051F0: FE FF FF 48 89 4D 10 48 89 55 18 4C 89 45 20 4C  ?ÿÿH.M.H.U.L.E L
  0000000010205200: 89 4D 28 31 C0 48 89 45 F8 48 8B 45 20 48 8B 4D  .M(1ÀH.EøH.E H.M
  0000000010205210: F8 48 3B 4D 28 73 02 EB 08 B0 01 B9 60 13 00 00  øH;M(s.ë.°.¹`...
  0000000010205220: CC 48 C1 E1 01 48 03 C1 66 83 38 00 74 06 48 FF  ?HÁá.H.Áf.8.t.Hÿ
  0000000010205230: 45 F8 EB D5 31 C0 48 89 45 F0 48 8B 45 10 48 8B  Eøë?1ÀH.E?H.E.H.
  0000000010205240: 4D F0 48 3B 4D 18 73 02 EB 08 B0 01 B9 8B 13 00  M?H;M.s.ë.°.¹...
  0000000010205250: 00 CC 48 C1 E1 01 48 03 C1 66 83 38 00 74 51 48  .?HÁá.H.Áf.8.tQH
  0000000010205260: 8B 45 20 48 8B 4D F8 48 8B 55 F0 48 03 CA 48 3B  .E H.MøH.U?H.ÊH;
  0000000010205270: 4D 28 73 02 EB 08 B0 01 B9 9C 13 00 00 CC 48 C1  M(s.ë.°.¹....?HÁ
  0000000010205280: E1 01 48 03 C1 48 8B 4D 10 48 8B 55 F0 48 3B 55  á.H.ÁH.M.H.U?H;U
  0000000010205290: 18 73 02 EB 08 B0 01 B9 A6 13 00 00 CC 48 C1 E2  .s.ë.°.¹¦...?HÁâ
  00000000102052A0: 01 48 03 CA 0F B7 09 66 89 08 48 FF 45 F0 EB 8A  .H.Ê.·.f..HÿE?ë.
  00000000102052B0: 48 8B 45 20 48 8B 4D F8 48 8B 55 F0 48 03 CA 48  H.E H.MøH.U?H.ÊH
  00000000102052C0: 3B 4D 28 73 02 EB 08 B0 01 B9 BE 13 00 00 CC 48  ;M(s.ë.°.¹¾...?H
  00000000102052D0: C1 E1 01 48 03 C1 31 C9 66 89 08 48 8B 5D E0 C9  Áá.H.Á1Éf..H.]àÉ
  00000000102052E0: C3 90 90 90 90 90 90 90 90 90 90 90 90 90 90 90  ?...............
  00000000102052F0: 55 48 8B EC 48 83 EC 20 48 89 5D E0 48 89 75 E8  UH.?H.? H.]àH.uè
  0000000010205300: 48 89 7D F0 48 8D 1D F5 FC FF FF 48 89 4D 10 48  H.}?H..?üÿÿH.M.H
  0000000010205310: 89 55 18 48 8B 75 10 48 8D BB C0 F9 FF FF 31 C0  .U.H.u.H.»Àùÿÿ1À
  0000000010205320: 48 83 C0 01 48 3B 45 18 77 02 EB 08 B0 07 B9 2B  H.À.H;E.w.ë.°.¹+
  0000000010205330: 14 00 00 CC 48 83 F8 05 77 02 EB 08 B0 07 B9 2B  ...?H.ø.w.ë.°.¹+
  0000000010205340: 14 00 00 CC 66 A7 75 07 66 83 7E FE 00 75 D1 75  ...?f§u.f.~?.uÑu
  0000000010205350: 0C C6 83 A5 C5 DF FF 01 E9 93 00 00 00 48 8B 75  .Æ.¥Åßÿ.é....H.u
  0000000010205360: 10 48 8D BB D0 F9 FF FF 31 C0 48 83 C0 01 48 3B  .H.»?ùÿÿ1ÀH.À.H;
  0000000010205370: 45 18 77 02 EB 08 B0 07 B9 60 14 00 00 CC 48 83  E.w.ë.°.¹`...?H.
  0000000010205380: F8 08 77 02 EB 08 B0 07 B9 60 14 00 00 CC 66 A7  ø.w.ë.°.¹`...?f§
  0000000010205390: 75 07 66 83 7E FE 00 75 D1 75 10 C6 83 A5 C5 DF  u.f.~?.uÑu.Æ.¥Åß
  00000000102053A0: FF 01 C6 83 A6 C5 DF FF 01 EB 45 48 8B 75 10 48  ÿ.Æ.¦Åßÿ.ëEH.u.H
  00000000102053B0: 8D BB E0 F9 FF FF 31 C0 48 83 C0 01 48 3B 45 18  .»àùÿÿ1ÀH.À.H;E.
  00000000102053C0: 77 02 EB 08 B0 07 B9 AF 14 00 00 CC 48 83 F8 06  w.ë.°.¹¯...?H.ø.
  00000000102053D0: 77 02 EB 08 B0 07 B9 AF 14 00 00 CC 66 A7 75 07  w.ë.°.¹¯...?f§u.
  00000000102053E0: 66 83 7E FE 00 75 D1 75 07 C6 83 A7 C5 DF FF 01  f.~?.uÑu.Æ.§Åßÿ.
  00000000102053F0: 48 8B 5D E0 48 8B 75 E8 48 8B 7D F0 C9 C3 90 90  H.]àH.uèH.}?É?..
  0000000010205400: 55 48 8B EC 48 83 EC 10 48 89 5D F0 48 8D 1D ED  UH.?H.?.H.]?H..í
  0000000010205410: FB FF FF 48 89 4D 10 48 8B 45 10 48 83 38 07 75  ûÿÿH.M.H.E.H.8.u
  0000000010205420: 12 48 8B 45 10 48 83 78 20 00 7D 07 B8 01 00 00  .H.E.H.x .}.¸...
  0000000010205430: 00 EB 02 31 C0 48 8B 5D F0 C9 C3 90 90 90 90 90  .ë.1ÀH.]?É?.....
  0000000010205440: 55 48 8B EC 48 83 EC 10 48 89 5D F0 48 8D 1D AD  UH.?H.?.H.]?H..­
  0000000010205450: FB FF FF 48 89 4D 10 48 8B 4D 10 48 83 39 07 75  ûÿÿH.M.H.M.H.9.u
  0000000010205460: 12 48 8B 4D 10 48 83 79 20 00 7C 07 B9 01 00 00  .H.M.H.y .|.¹...
  0000000010205470: 00 EB 02 31 C9 48 8B C1 48 8B 5D F0 C9 C3 90 90  .ë.1ÉH.ÁH.]?É?..
  0000000010205480: 55 48 8B EC 48 83 EC 10 48 89 5D F0 48 8D 1D 6D  UH.?H.?.H.]?H..m
  0000000010205490: FB FF FF 48 89 4D 10 48 8B 4D 10 48 8B 93 C0 EF  ûÿÿH.M.H.M.H..Àï
  00000000102054A0: FF FF 48 3B CA 74 18 48 8B 4D 10 48 83 39 07 75  ÿÿH;Êt.H.M.H.9.u
  00000000102054B0: 15 48 8B 4D 10 48 8B 49 40 48 83 39 03 75 07 B9  .H.M.H.I@H.9.u.¹
  00000000102054C0: 01 00 00 00 EB 02 31 C9 48 8B C1 48 8B 5D F0 C9  ....ë.1ÉH.ÁH.]?É
  00000000102054D0: C3 90 90 90 90 90 90 90 90 90 90 90 90 90 90 90  ?...............
  00000000102054E0: 55 48 8B EC 48 83 EC 30 48 89 5D F0 48 8D 1D 0D  UH.?H.?0H.]?H...
  00000000102054F0: FB FF FF 48 89 4D 10 48 C7 45 F8 00 00 00 00 48  ûÿÿH.M.HÇEø....H
  0000000010205500: 8B 4B C0 BA 08 00 00 00 41 B8 51 00 00 00 FF 53  .KÀº....A¸Q...ÿS
  0000000010205510: E8 48 83 C0 10 48 8D 8B 70 F5 FF FF 48 89 48 F8  èH.À.H..p?ÿÿH.Hø
  0000000010205520: 48 89 45 F8 48 8B 45 F8 48 C7 00 03 00 00 00 48  H.EøH.EøHÇ.....H
  0000000010205530: 8B 45 F8 31 C9 88 48 40 48 8B 45 F8 48 8B 4D 10  .Eø1É.H@H.EøH.M.
  0000000010205540: 48 89 48 08 48 8B 45 F8 48 8B 8B 88 EE FF FF 48  H.H.H.EøH...îÿÿH
  0000000010205550: 89 48 38 48 8B 45 F8 48 8B 5D F0 C9 C3 90 90 90  .H8H.EøH.]?É?...
  0000000010205560: 55 48 8B EC 48 83 EC 30 48 89 5D F0 48 8D 1D 8D  UH.?H.?0H.]?H...
  0000000010205570: FA FF FF 48 89 4D 10 48 89 55 18 48 C7 45 F8 00  úÿÿH.M.H.U.HÇEø.
  0000000010205580: 00 00 00 48 8B 4B C0 BA 08 00 00 00 41 B8 40 00  ...H.KÀº....A¸@.
  0000000010205590: 00 00 FF 53 E8 48 83 C0 10 48 8D 8B B0 F4 FF FF  ..ÿSèH.À.H..°ôÿÿ
  00000000102055A0: 48 89 48 F8 48 89 45 F8 48 8B 45 F8 48 C7 00 04  H.HøH.EøH.EøHÇ..
  00000000102055B0: 00 00 00 48 8B 45 F8 48 8B 4D 10 48 89 48 08 48  ...H.EøH.M.H.H.H
  00000000102055C0: 8B 45 F8 48 8B 4D 18 48 89 48 28 48 8B 45 F8 48  .EøH.M.H.H(H.EøH
  00000000102055D0: 8B 5D F0 C9 C3 90 90 90 90 90 90 90 90 90 90 90  .]?É?...........
  00000000102055E0: 55 48 8B EC 48 83 EC 30 48 89 5D F0 48 8D 1D 0D  UH.?H.?0H.]?H...
  00000000102055F0: FA FF FF 48 89 4D 10 48 89 55 18 4C 89 45 20 48  úÿÿH.M.H.U.L.E H
  0000000010205600: C7 45 F8 00 00 00 00 48 8B 4B C0 BA 08 00 00 00  ÇEø....H.KÀº....
  0000000010205610: 41 B8 52 00 00 00 FF 53 E8 48 83 C0 10 48 8D 8B  A¸R...ÿSèH.À.H..
  0000000010205620: D0 F5 FF FF 48 89 48 F8 48 89 45 F8 48 8B 45 F8  ??ÿÿH.HøH.EøH.Eø
  0000000010205630: 48 C7 00 03 00 00 00 48 8B 45 F8 48 8B 4D 18 48  HÇ.....H.EøH.M.H
  0000000010205640: 89 48 08 48 8B 45 F8 48 8B 8B 88 EE FF FF 48 89  .H.H.EøH...îÿÿH.
  0000000010205650: 48 38 48 8B 45 F8 0F B6 4D 20 88 48 41 48 8B 45  H8H.Eø.¶M .HAH.E
  0000000010205660: 10 48 FF 40 58 48 8B 45 F8 0F B6 4D 20 85 C9 75  .Hÿ@XH.Eø.¶M .Éu
  0000000010205670: 19 48 8B 4D 18 48 8B 09 BA 80 01 00 00 48 0F A3  .H.M.H..º....H.£
  0000000010205680: CA 73 07 B9 01 00 00 00 EB 02 31 C9 88 48 40 48  Ês.¹....ë.1É.H@H
  0000000010205690: 8B 45 F8 48 8B 5D F0 C9 C3 90 90 90 90 90 90 90  .EøH.]?É?.......
  00000000102056A0: 55 48 8B EC 48 83 EC 30 48 89 5D F0 48 8D 1D 4D  UH.?H.?0H.]?H..M
  00000000102056B0: F9 FF FF 48 89 4D 10 48 89 55 18 48 C7 45 F8 00  ùÿÿH.M.H.U.HÇEø.
  00000000102056C0: 00 00 00 48 8B 4B C0 BA 08 00 00 00 41 B8 40 00  ...H.KÀº....A¸@.
  00000000102056D0: 00 00 FF 53 E8 48 83 C0 10 48 8D 8B 10 F5 FF FF  ..ÿSèH.À.H...?ÿÿ
  00000000102056E0: 48 89 48 F8 48 89 45 F8 48 8B 45 F8 48 C7 00 06  H.HøH.EøH.EøHÇ..
  00000000102056F0: 00 00 00 48 8B 45 F8 48 8B 4D 18 48 89 48 08 48  ...H.EøH.M.H.H.H
  0000000010205700: 8B 45 10 48 8B 4D 10 48 8B 49 18 48 8B 55 18 48  .E.H.M.H.I.H.U.H
  0000000010205710: 8B 52 18 48 03 CA 48 89 48 18 48 8B 45 F8 48 8B  .R.H.ÊH.H.H.EøH.
  0000000010205720: 5D F0 C9 C3 90 90 90 90 90 90 90 90 90 90 90 90  ]?É?............
  0000000010205730: 55 48 8B EC 48 83 EC 40 48 89 5D E0 48 8D 1D BD  UH.?H.?@H.]àH..½
  0000000010205740: F8 FF FF 48 89 4D 10 48 89 55 18 48 C7 45 F8 00  øÿÿH.M.H.U.HÇEø.
  0000000010205750: 00 00 00 48 C7 45 E8 00 00 00 00 48 8B 4B C0 BA  ...HÇEè....H.KÀº
  0000000010205760: 08 00 00 00 41 B8 68 00 00 00 FF 53 E8 48 83 C0  ....A¸h...ÿSèH.À
  0000000010205770: 10 48 8D 8B A0 F6 FF FF 48 89 48 F8 48 89 45 F8  .H...öÿÿH.HøH.Eø
  0000000010205780: 48 8B 45 F8 48 C7 00 03 00 00 00 48 8B 45 F8 C6  H.EøHÇ.....H.EøÆ
  0000000010205790: 40 40 01 48 8B 45 F8 48 8B 8B C0 EF FF FF 48 89  @@.H.EøH..ÀïÿÿH.
  00000000102057A0: 48 08 48 8B 45 F8 48 8B 8B 88 EE FF FF 48 89 48  H.H.EøH...îÿÿH.H
  00000000102057B0: 38 48 8B 45 F8 48 8B 4D 18 48 89 48 50 48 8B 45  8H.EøH.M.H.HPH.E
  00000000102057C0: F8 48 83 78 38 FF 0F 8C 25 01 00 00 48 8B 83 A8  øH.x8ÿ..%...H..¨
  00000000102057D0: C5 DF FF 48 8B 4D 18 48 03 C1 48 81 F8 00 00 10  ÅßÿH.M.H.ÁH.ø...
  00000000102057E0: 00 7C 23 48 8D 8B F0 F9 FF FF BA 11 00 00 00 FF  .|#H..?ùÿÿº....ÿ
  00000000102057F0: 93 00 FF FF FF 48 8B 45 F8 48 C7 40 48 FF FF FF  ..ÿÿÿH.EøHÇ@Hÿÿÿ
  0000000010205800: FF E9 E9 00 00 00 48 8B 45 F8 48 8B 8B A8 C5 DF  ÿéé...H.EøH..¨Åß
  0000000010205810: FF 48 89 48 48 48 8B 83 A8 C5 DF FF 48 8B 4D 18  ÿH.HHH..¨ÅßÿH.M.
  0000000010205820: 48 03 C1 48 89 83 A8 C5 DF FF 48 C7 45 F0 00 00  H.ÁH..¨ÅßÿHÇE?..
  0000000010205830: 00 00 48 8B 45 18 48 83 E8 01 48 39 45 F0 7F 5E  ..H.E.H.è.H9E?.^
  0000000010205840: 48 8D 83 B0 C5 DF FF 48 8B 4D F8 48 8B 49 48 48  H..°ÅßÿH.MøH.IHH
  0000000010205850: 8B 55 F0 48 03 CA 48 81 F9 00 00 10 00 73 02 EB  .U?H.ÊH.ù....s.ë
  0000000010205860: 08 B0 01 B9 35 1C 00 00 CC 48 C1 E1 01 48 03 C1  .°.¹5...?HÁá.H.Á
  0000000010205870: 48 8B 4D 10 48 8B 55 F0 48 81 FA 00 01 00 00 73  H.M.H.U?H.ú....s
  0000000010205880: 02 EB 08 B0 01 B9 42 1C 00 00 CC 48 C1 E2 01 48  .ë.°.¹B...?HÁâ.H
  0000000010205890: 03 CA 0F B7 09 66 89 08 48 FF 45 F0 EB 94 48 8B  .Ê.·.f..HÿE?ë.H.
  00000000102058A0: 4B C0 BA 08 00 00 00 41 B8 A8 00 00 00 FF 53 E8  KÀº....A¸¨...ÿSè
  00000000102058B0: 48 83 C0 10 48 8D 8B D0 F7 FF FF 48 89 48 F8 48  H.À.H..?÷ÿÿH.HøH
  00000000102058C0: 89 45 E8 48 8B 45 E8 48 8B 4D F8 48 89 88 88 00  .EèH.EèH.MøH....
  00000000102058D0: 00 00 48 8B 45 E8 48 8B 8B E0 ED FF FF 48 89 88  ..H.EèH..àíÿÿH..
  00000000102058E0: 90 00 00 00 48 8B 45 E8 48 89 83 E0 ED FF FF EB  ....H.EèH..àíÿÿë
  00000000102058F0: 0C 48 8B 45 F8 48 C7 40 48 FF FF FF FF 48 8B 45  .H.EøHÇ@HÿÿÿÿH.E
  0000000010205900: F8 48 8B 5D E0 C9 C3 90 90 90 90 90 90 90 90 90  øH.]àÉ?.........
  0000000010205910: 55 48 8B EC 48 83 EC 30 48 89 5D F0 48 8D 1D DD  UH.?H.?0H.]?H..?
  0000000010205920: F6 FF FF 48 C7 45 F8 00 00 00 00 48 8B 4B C0 BA  öÿÿHÇEø....H.KÀº
  0000000010205930: 08 00 00 00 41 B8 70 00 00 00 FF 53 E8 48 83 C0  ....A¸p...ÿSèH.À
  0000000010205940: 10 48 8D 8B 30 F6 FF FF 48 89 48 F8 48 89 45 F8  .H..0öÿÿH.HøH.Eø
  0000000010205950: 48 8B 45 F8 48 C7 00 05 00 00 00 48 8B 45 F8 48  H.EøHÇ.....H.EøH
  0000000010205960: 8B 8B 88 EE FF FF 48 89 48 38 48 8B 45 F8 48 8B  ...îÿÿH.H8H.EøH.
  0000000010205970: 5D F0 C9 C3 90 90 90 90 90 90 90 90 90 90 90 90  ]?É?............
  0000000010205980: 55 48 8B EC 48 83 EC 30 48 89 5D F0 48 8D 1D 6D  UH.?H.?0H.]?H..m
  0000000010205990: F6 FF FF 48 89 4D 10 48 C7 45 F8 00 00 00 00 48  öÿÿH.M.HÇEø....H
  00000000102059A0: 8B 4B C0 BA 08 00 00 00 41 B8 38 00 00 00 FF 53  .KÀº....A¸8...ÿS
  00000000102059B0: E8 48 83 C0 10 48 8D 8B 50 F4 FF FF 48 89 48 F8  èH.À.H..PôÿÿH.Hø
  00000000102059C0: 48 89 45 F8 48 8B 45 F8 48 C7 00 01 00 00 00 48  H.EøH.EøHÇ.....H
  00000000102059D0: 8B 45 F8 48 8B 4D 10 48 89 48 08 48 8B 45 10 48  .EøH.M.H.H.H.E.H
  00000000102059E0: 83 78 60 00 75 0C 48 8B 45 10 48 8B 4D F8 48 89  .x`.u.H.E.H.MøH.
  00000000102059F0: 48 60 48 8B 45 F8 48 8B 5D F0 C9 C3 90 90 90 90  H`H.EøH.]?É?....
  0000000010205A00: 55 48 8B EC 48 83 EC 30 48 89 5D F0 48 8D 1D ED  UH.?H.?0H.]?H..í
  0000000010205A10: F5 FF FF 48 89 4D 10 48 89 55 18 48 C7 45 F8 00  ?ÿÿH.M.H.U.HÇEø.
  0000000010205A20: 00 00 00 48 8B 4B C0 BA 08 00 00 00 41 B8 40 00  ...H.KÀº....A¸@.
  0000000010205A30: 00 00 FF 53 E8 48 83 C0 10 48 8D 8B 70 F7 FF FF  ..ÿSèH.À.H..p÷ÿÿ
  0000000010205A40: 48 89 48 F8 48 89 45 F8 48 8B 45 F8 48 8B 4D 18  H.HøH.EøH.EøH.M.
  0000000010205A50: 48 89 08 48 8B 45 F8 48 8B 4D 10 48 89 48 28 48  H..H.EøH.M.H.H(H
  0000000010205A60: 8B 45 F8 48 8B 8B B8 EF FF FF 48 89 48 08 48 8B  .EøH..¸ïÿÿH.H.H.
  0000000010205A70: 45 F8 48 8B 5D F0 C9 C3 90 90 90 90 90 90 90 90  EøH.]?É?........
  0000000010205A80: 55 48 8B EC 48 83 EC 30 48 89 5D F0 48 8D 1D 6D  UH.?H.?0H.]?H..m
  0000000010205A90: F5 FF FF 48 89 4D 10 48 89 55 18 48 8B 4B C0 BA  ?ÿÿH.M.H.U.H.KÀº
  0000000010205AA0: 08 00 00 00 41 B8 80 00 00 00 FF 53 E8 48 83 C0  ....A¸....ÿSèH.À
  0000000010205AB0: 10 48 8D 8B 00 F9 FF FF 48 89 48 F8 48 8B 4D 10  .H...ùÿÿH.HøH.M.
  0000000010205AC0: 48 89 01 48 8B 45 10 48 8B 00 48 8B 4D 18 48 89  H..H.E.H..H.M.H.
  0000000010205AD0: 08 48 8B 45 10 48 8B 00 31 C9 48 89 48 18 48 8B  .H.E.H..1ÉH.H.H.
  0000000010205AE0: 45 10 48 8B 00 31 C9 48 89 48 08 48 8B 45 10 48  E.H..1ÉH.H.H.E.H
  0000000010205AF0: 8B 00 31 C9 48 89 48 10 48 8B 45 10 48 8B 00 48  ..1ÉH.H.H.E.H..H
  0000000010205B00: 8B 8B 88 EE FF FF 48 89 48 30 48 8B 45 10 48 8B  ...îÿÿH.H0H.E.H.
  0000000010205B10: 00 48 C7 40 68 FF FF FF FF 48 8B 5D F0 C9 C3 90  .HÇ@hÿÿÿÿH.]?É?.
  0000000010205B20: 55 48 8B EC 48 83 EC 30 48 89 5D F0 48 8D 1D CD  UH.?H.?0H.]?H..Í
  0000000010205B30: F4 FF FF 48 89 4D 10 48 C7 45 F8 00 00 00 00 48  ôÿÿH.M.HÇEø....H
  0000000010205B40: 8D 4D F8 BA 07 00 00 00 E8 33 FF FF FF 48 8B 45  .Møº....è3ÿÿÿH.E
  0000000010205B50: F8 48 8B 4D 10 48 89 48 20 48 8B 45 F8 48 8B 5D  øH.M.H.H H.EøH.]
  0000000010205B60: F0 C9 C3 90 90 90 90 90 90 90 90 90 90 90 90 90  ?É?.............
  0000000010205B70: 55 48 8B EC 48 83 EC 30 48 89 5D F0 48 8D 1D 7D  UH.?H.?0H.]?H..}
  0000000010205B80: F4 FF FF 48 89 4D 10 48 8B 45 10 48 8B 40 40 48  ôÿÿH.M.H.E.H.@@H
  0000000010205B90: 83 38 07 75 09 48 8B 4D 10 E8 D2 FF FF FF 48 8B  .8.u.H.M.è?ÿÿÿH.
  0000000010205BA0: 45 10 48 8B 4D 10 48 8B 49 20 48 8B 55 10 48 8B  E.H.M.H.I H.U.H.
  0000000010205BB0: 52 40 48 8B 52 18 48 0F AF CA 48 89 48 18 48 8B  R@H.R.H.¯ÊH.H.H.
  0000000010205BC0: 5D F0 C9 C3 90 90 90 90 90 90 90 90 90 90 90 90  ]?É?............
  0000000010205BD0: 55 48 8B EC 48 83 EC 40 48 89 5D E0 48 8D 1D 1D  UH.?H.?@H.]àH...
  0000000010205BE0: F4 FF FF 48 C7 45 F8 00 00 00 00 48 C7 45 F0 00  ôÿÿHÇEø....HÇE?.
  0000000010205BF0: 00 00 00 48 8D 4D F8 BA 08 00 00 00 E8 7F FE FF  ...H.Møº....è.?ÿ
  0000000010205C00: FF 48 8B 45 F8 31 C9 48 89 48 20 48 83 BB 88 EE  ÿH.Eø1ÉH.H H.».î
  0000000010205C10: FF FF 00 7C 4C 48 8B 4B C0 BA 08 00 00 00 41 B8  ÿÿ.|LH.KÀº....A¸
  0000000010205C20: 28 00 00 00 FF 53 E8 48 83 C0 10 48 8D 8B F0 F3  (...ÿSèH.À.H..?ó
  0000000010205C30: FF FF 48 89 48 F8 48 89 45 F0 48 8B 45 F0 48 8B  ÿÿH.HøH.E?H.E?H.
  0000000010205C40: 4D F8 48 89 08 48 8B 45 F0 48 8B 8B D8 ED FF FF  MøH..H.E?H..Øíÿÿ
  0000000010205C50: 48 89 48 10 48 8B 45 F0 48 89 83 D8 ED FF FF EB  H.H.H.E?H..Øíÿÿë
  0000000010205C60: 12 48 83 BB 88 EE FF FF FF 75 08 B0 03 B9 E2 21  .H.».îÿÿÿu.°.¹â!
  0000000010205C70: 00 00 CC 48 8B 45 F8 48 8B 5D E0 C9 C3 90 90 90  ..?H.EøH.]àÉ?...
  0000000010205C80: 55 48 8B EC 48 83 EC 10 48 89 5D F0 48 8D 1D 6D  UH.?H.?.H.]?H..m
  0000000010205C90: F3 FF FF 48 89 4D 10 48 8B 45 10 48 83 78 40 00  óÿÿH.M.H.E.H.x@.
  0000000010205CA0: 74 2C 48 8B 45 10 48 8B 4D 10 48 8B 49 40 48 8B  t,H.E.H.M.H.I@H.
  0000000010205CB0: 49 20 48 83 C1 01 48 89 48 20 48 8B 45 10 48 8B  I H.Á.H.H H.E.H.
  0000000010205CC0: 4D 10 48 8B 49 40 48 8B 49 18 48 89 48 18 48 8B  M.H.I@H.I.H.H.H.
  0000000010205CD0: 5D F0 C9 C3 90 90 90 90 90 90 90 90 90 90 90 90  ]?É?............
  0000000010205CE0: 55 48 8B EC 48 83 EC 30 48 89 5D F0 48 8D 1D 0D  UH.?H.?0H.]?H...
  0000000010205CF0: F3 FF FF 48 C7 45 F8 00 00 00 00 48 8D 4D F8 BA  óÿÿHÇEø....H.Møº
  0000000010205D00: 05 00 00 00 E8 77 FD FF FF 48 8B 45 F8 48 C7 40  ....èw?ÿÿH.EøHÇ@
  0000000010205D10: 18 01 00 00 00 48 8B 45 F8 48 8B 5D F0 C9 C3 90  .....H.EøH.]?É?.
  0000000010205D20: 55 48 8B EC 48 83 EC 30 48 89 5D F0 48 8D 1D CD  UH.?H.?0H.]?H..Í
  0000000010205D30: F2 FF FF 48 C7 45 F8 00 00 00 00 48 8D 4D F8 BA  ?ÿÿHÇEø....H.Møº
  0000000010205D40: 06 00 00 00 E8 37 FD FF FF 48 8B 45 F8 31 C9 48  ....è7?ÿÿH.Eø1ÉH
  0000000010205D50: 89 48 58 48 8B 45 F8 48 8B 5D F0 C9 C3 90 90 90  .HXH.EøH.]?É?...
  0000000010205D60: 55 48 8B EC 48 83 EC 20 48 89 4D 10 48 89 55 18  UH.?H.? H.M.H.U.
  0000000010205D70: 48 8B 4D 10 48 8B 55 18 E8 03 FD FF FF 48 FF 83  H.M.H.U.è.?ÿÿHÿ.
  0000000010205D80: C0 ED FF FF 48 8B 45 10 48 8B 00 48 8B 8B C0 ED  ÀíÿÿH.E.H..H..Àí
  0000000010205D90: FF FF 48 89 48 68 48 8D 83 B8 EE FF FF 48 8B 8B  ÿÿH.HhH..¸îÿÿH..
  0000000010205DA0: C0 ED FF FF 48 83 F9 20 73 02 EB 08 B0 01 B9 4E  ÀíÿÿH.ù s.ë.°.¹N
  0000000010205DB0: 24 00 00 CC 48 C1 E1 03 48 03 C1 48 8B 4D 10 48  $..?HÁá.H.ÁH.M.H
  0000000010205DC0: 8B 09 48 89 08 C9 C3 90 90 90 90 90 90 90 90 90  ..H..É?.........
  0000000010205DD0: 55 48 8B EC 48 83 EC 30 48 89 5D F0 48 8D 1D 1D  UH.?H.?0H.]?H...
  0000000010205DE0: F2 FF FF 48 C7 45 F8 00 00 00 00 48 8B 4B C0 BA  ?ÿÿHÇEø....H.KÀº
  0000000010205DF0: 08 00 00 00 41 B8 20 00 00 00 FF 53 E8 48 83 C0  ....A¸ ...ÿSèH.À
  0000000010205E00: 10 48 8D 8B 30 F8 FF FF 48 89 48 F8 48 89 45 F8  .H..0øÿÿH.HøH.Eø
  0000000010205E10: 48 8B 45 F8 48 8B 8B A0 EE FF FF 48 89 48 08 48  H.EøH...îÿÿH.H.H
  0000000010205E20: 8B 45 F8 48 89 83 A0 EE FF FF 48 8B 5D F0 C9 C3  .EøH...îÿÿH.]?É?
  0000000010205E30: 55 48 8B EC 48 83 EC 10 48 89 5D F0 48 8D 1D BD  UH.?H.?.H.]?H..½
  0000000010205E40: F1 FF FF 48 8B 83 A0 EE FF FF 48 8B 40 08 48 89  ñÿÿH...îÿÿH.@.H.
  0000000010205E50: 83 A0 EE FF FF 48 8B 5D F0 C9 C3 90 90 90 90 90  ..îÿÿH.]?É?.....
  0000000010205E60: 55 48 8B EC 48 83 EC 10 48 89 5D F0 48 8D 1D 8D  UH.?H.?.H.]?H...
  0000000010205E70: F1 FF FF 48 89 4D 10 48 8B 83 88 EE FF FF 48 8B  ñÿÿH.M.H...îÿÿH.
  0000000010205E80: 4D 10 48 03 C1 48 89 83 88 EE FF FF 48 8B 5D F0  M.H.ÁH...îÿÿH.]?
  0000000010205E90: C9 C3 90 90 90 90 90 90 90 90 90 90 90 90 90 90  É?..............
  0000000010205EA0: 55 48 8B EC 48 83 EC 40 48 89 75 E0 48 89 7D E8  UH.?H.?@H.uàH.}è
  0000000010205EB0: 48 89 4D 10 48 89 55 18 48 C7 45 F8 00 00 00 00  H.M.H.U.HÇEø....
  0000000010205EC0: 48 8B 4B C0 BA 08 00 00 00 41 B8 A8 00 00 00 FF  H.KÀº....A¸¨...ÿ
  0000000010205ED0: 53 E8 48 83 C0 10 48 8D 8B D0 F7 FF FF 48 89 48  SèH.À.H..?÷ÿÿH.H
  0000000010205EE0: F8 48 89 45 F8 48 8B 7D F8 48 8D 7F 02 48 8B 75  øH.EøH.}øH...H.u
  0000000010205EF0: 18 31 C9 31 C0 48 83 C1 01 BA 40 00 00 00 48 3B  .1É1ÀH.Á.º@...H;
  0000000010205F00: CA 77 02 EB 08 B0 07 B9 7A 26 00 00 CC BA 40 00  Êw.ë.°.¹z&..?º@.
  0000000010205F10: 00 00 48 3B CA 77 02 EB 08 B0 07 B9 7A 26 00 00  ..H;Êw.ë.°.¹z&..
  0000000010205F20: CC 66 AD 66 AB 85 C0 75 CC 48 8B 45 F8 31 C9 88  ?f­f«.Àu?H.Eø1É.
  0000000010205F30: 08 48 8B 45 F8 48 8B 4D 10 48 89 88 88 00 00 00  .H.EøH.M.H......
  0000000010205F40: 48 8B 45 10 48 8B 4D F8 48 89 48 10 48 8B 45 F8  H.E.H.MøH.H.H.Eø
  0000000010205F50: 48 8B 8B A0 EE FF FF 48 8B 09 48 89 88 90 00 00  H...îÿÿH..H.....
  0000000010205F60: 00 48 8B 83 A0 EE FF FF 48 8B 4D F8 48 89 08 48  .H...îÿÿH.MøH..H
  0000000010205F70: 8B 75 E0 48 8B 7D E8 C9 C3 90 90 90 90 90 90 90  .uàH.}èÉ?.......
  0000000010205F80: 55 48 8B EC 48 83 EC 10 48 89 5D F0 48 8D 1D 6D  UH.?H.?.H.]?H..m
  0000000010205F90: F0 FF FF 48 89 4D 10 48 8D 83 B0 C5 FF FF 48 8B  ?ÿÿH.M.H..°ÅÿÿH.
  0000000010205FA0: 4D 10 48 F7 D9 48 83 E9 02 48 81 F9 00 01 00 00  M.H÷ÙH.é.H.ù....
  0000000010205FB0: 73 02 EB 08 B0 01 B9 07 28 00 00 CC 48 C1 E1 03  s.ë.°.¹.(..?HÁá.
  0000000010205FC0: 48 03 C1 48 8B 00 48 8B 5D F0 C9 C3 90 90 90 90  H.ÁH..H.]?É?....
  0000000010205FD0: 55 48 8B EC 48 83 EC 30 48 89 4D 10 48 C7 45 F8  UH.?H.?0H.M.HÇEø
  0000000010205FE0: 00 00 00 00 48 8B 4B C0 BA 08 00 00 00 41 B8 A8  ....H.KÀº....A¸¨
  0000000010205FF0: 00 00 00 FF 53 E8 48 83 C0 10 48 8D 8B D0 F7 FF  ...ÿSèH.À.H..?÷ÿ
  0000000010206000: FF 48 89 48 F8 48 8B 4D 10 48 89 01 48 FF 83 B8  ÿH.HøH.M.H..Hÿ.¸
  0000000010206010: ED FF FF 48 83 BB E8 ED FF FF 00 75 10 48 8B 45  íÿÿH.»èíÿÿ.u.H.E
  0000000010206020: 10 48 8B 00 48 89 83 E8 ED FF FF EB 3C 48 8B 83  .H..H..èíÿÿë<H..
  0000000010206030: E8 ED FF FF 48 89 45 F8 48 8B 45 F8 48 83 B8 90  èíÿÿH.EøH.EøH.¸.
  0000000010206040: 00 00 00 00 74 11 48 8B 45 F8 48 8B 80 90 00 00  ....t.H.EøH.....
  0000000010206050: 00 48 89 45 F8 EB E1 48 8B 45 F8 48 8B 4D 10 48  .H.EøëáH.EøH.M.H
  0000000010206060: 8B 09 48 89 88 90 00 00 00 C9 C3 90 90 90 90 90  ..H......É?.....
  0000000010206070: 55 48 8B EC 48 83 EC 20 48 89 4D 10 48 83 7D 10  UH.?H.? H.M.H.}.
  0000000010206080: 00 0F 84 D1 00 00 00 48 8D 8B D0 ED FF FF 4C 8B  ...Ñ...H..?íÿÿL.
  0000000010206090: 45 10 4D 8B 40 30 48 8B 93 18 FF FF FF E8 5E EF  E.M.@0H...ÿÿÿè^ï
  00000000102060A0: FF FF 48 8D 8B D0 ED FF FF 4C 8B 45 10 4D 8B 40  ÿÿH..?íÿÿL.E.M.@
  00000000102060B0: 68 48 8B 93 18 FF FF FF E8 43 EF FF FF 48 8B 45  hH...ÿÿÿèCïÿÿH.E
  00000000102060C0: 10 48 83 78 30 FF 7D 56 48 8D 8B D0 ED FF FF 4C  .H.x0ÿ}VH..?íÿÿL
  00000000102060D0: 8D 83 B0 C5 FF FF 48 8B 45 10 48 8B 40 30 48 F7  ..°ÅÿÿH.E.H.@0H÷
  00000000102060E0: D8 48 83 E8 02 48 81 F8 00 01 00 00 73 02 EB 08  ØH.è.H.ø....s.ë.
  00000000102060F0: B0 01 B9 BB 29 00 00 CC 48 C1 E0 03 4C 03 C0 4D  °.¹»)..?HÁà.L.ÀM
  0000000010206100: 8B 00 4D 8D 80 28 02 00 00 41 B9 40 00 00 00 48  ..M..(...A¹@...H
  0000000010206110: 8B 93 18 FF FF FF FF 93 F8 FE FF FF EB 38 48 8B  ...ÿÿÿÿ.ø?ÿÿë8H.
  0000000010206120: 45 10 48 83 78 30 00 75 1A 48 8B 45 10 48 83 78  E.H.x0.u.H.E.H.x
  0000000010206130: 68 00 7D 0D 48 8B 83 98 C5 DF FF 48 8B 4D 10 FF  h.}.H...ÅßÿH.M.ÿ
  0000000010206140: D0 EB 13 48 8B 45 10 48 83 78 30 FF 74 08 B0 03  ?ë.H.E.H.x0ÿt.°.
  0000000010206150: B9 22 2A 00 00 CC EB 30 48 8D 8B D0 ED FF FF 45  ¹"*..?ë0H..?íÿÿE
  0000000010206160: 31 C0 49 83 C0 FF 48 8B 93 18 FF FF FF E8 8E EE  1ÀI.ÀÿH...ÿÿÿè.î
  0000000010206170: FF FF 48 8D 8B D0 ED FF FF 45 31 C0 48 8B 93 18  ÿÿH..?íÿÿE1ÀH...
  0000000010206180: FF FF FF E8 78 EE FF FF C9 C3 90 90 90 90 90 90  ÿÿÿèxîÿÿÉ?......
  0000000010206190: 55 48 8B EC 48 83 EC 30 48 89 4D 10 48 C7 45 F8  UH.?H.?0H.M.HÇEø
  00000000102061A0: 00 00 00 00 48 C7 45 F0 00 00 00 00 48 8D 8B D0  ....HÇE?....H..?
  00000000102061B0: ED FF FF 4C 8B 45 10 4D 8B 40 08 48 8B 93 18 FF  íÿÿL.E.M.@.H...ÿ
  00000000102061C0: FF FF E8 39 EE FF FF 48 8D 8B D0 ED FF FF 4C 8B  ÿÿè9îÿÿH..?íÿÿL.
  00000000102061D0: 45 10 4D 8B 40 10 48 8B 93 18 FF FF FF E8 1E EE  E.M.@.H...ÿÿÿè.î
  00000000102061E0: FF FF 48 8D 8B D0 ED FF FF 4C 8B 45 10 4D 8B 40  ÿÿH..?íÿÿL.E.M.@
  00000000102061F0: 50 48 8B 93 18 FF FF FF E8 03 EE FF FF 48 8B 4D  PH...ÿÿÿè.îÿÿH.M
  0000000010206200: 10 48 8B 49 40 E8 66 FE FF FF 48 8B 45 10 48 8B  .H.I@èf?ÿÿH.E.H.
  0000000010206210: 40 48 48 89 45 F8 48 83 7D F8 00 0F 84 AA 00 00  @HH.EøH.}ø...ª..
  0000000010206220: 00 48 8B 45 F8 48 8D 8B D0 F5 FF FF 48 8B 90 88  .H.EøH..??ÿÿH...
  0000000010206230: 00 00 00 48 8B 52 F8 48 39 4A 10 75 02 EB 08 B0  ...H.RøH9J.u.ë.°
  0000000010206240: 02 B9 6D 2B 00 00 CC 48 8B 80 88 00 00 00 48 89  .¹m+..?H......H.
  0000000010206250: 45 F0 48 8D 8B D0 ED FF FF 4C 8B 45 F0 4D 8B 00  E?H..?íÿÿL.E?M..
  0000000010206260: 48 8B 93 18 FF FF FF E8 94 ED FF FF 48 8D 8B D0  H...ÿÿÿè.íÿÿH..?
  0000000010206270: ED FF FF 4C 8B 45 F8 4D 8D 40 02 41 B9 40 00 00  íÿÿL.EøM.@.A¹@..
  0000000010206280: 00 48 8B 93 18 FF FF FF FF 93 F8 FE FF FF 48 8D  .H...ÿÿÿÿ.ø?ÿÿH.
  0000000010206290: 8B D0 ED FF FF 4C 8B 45 F0 45 0F B6 40 41 48 8B  .?íÿÿL.E?E.¶@AH.
  00000000102062A0: 93 18 FF FF FF E8 56 ED FF FF 48 8B 4D F0 48 8B  ..ÿÿÿèVíÿÿH.M?H.
  00000000102062B0: 49 08 E8 B9 FD FF FF 48 8B 45 F8 48 8B 80 90 00  I.è¹?ÿÿH.EøH....
  00000000102062C0: 00 00 48 89 45 F8 E9 4B FF FF FF 48 8D 8B D0 ED  ..H.EøéKÿÿÿH..?í
  00000000102062D0: FF FF 41 B8 01 00 00 00 48 8B 93 18 FF FF FF E8  ÿÿA¸....H...ÿÿÿè
  00000000102062E0: 1C ED FF FF C9 C3 90 90 90 90 90 90 90 90 90 90  .íÿÿÉ?..........
  00000000102062F0: 55 48 8B EC 48 81 EC 30 02 00 00 48 89 4D 10 48  UH.?H.?0...H.M.H
  0000000010206300: C7 45 F8 00 00 00 00 48 C7 45 F0 00 00 00 00 48  ÇEø....HÇE?....H
  0000000010206310: 81 BB C8 ED FF FF 00 04 00 00 7D 18 48 8B 45 10  .»Èíÿÿ....}.H.E.
  0000000010206320: 48 8B 8B C8 ED FF FF 48 89 48 68 48 FF 83 C8 ED  H..ÈíÿÿH.HhHÿ.Èí
  0000000010206330: FF FF EB 12 48 8D 8B 20 FA FF FF BA 18 00 00 00  ÿÿë.H.. úÿÿº....
  0000000010206340: FF 93 00 FF FF FF 48 8D 8B D0 ED FF FF 4C 8B 45  ÿ..ÿÿÿH..?íÿÿL.E
  0000000010206350: 10 4D 8B 40 68 48 8B 93 18 FF FF FF E8 9F EC FF  .M.@hH...ÿÿÿè.?ÿ
  0000000010206360: FF 48 8B 45 10 48 83 38 08 75 76 48 8D 4D F0 E8  ÿH.E.H.8.uvH.M?è
  0000000010206370: 5C FC FF FF 48 8B 4B C0 BA 08 00 00 00 41 B8 38  \üÿÿH.KÀº....A¸8
  0000000010206380: 00 00 00 FF 53 E8 48 83 C0 10 48 8D 8B 50 F4 FF  ...ÿSèH.À.H..Pôÿ
  0000000010206390: FF 48 89 48 F8 48 8B 4D F0 48 89 81 88 00 00 00  ÿH.HøH.M?H......
  00000000102063A0: 48 8B 45 F0 48 8B 80 88 00 00 00 48 C7 00 01 00  H.E?H......HÇ...
  00000000102063B0: 00 00 48 8B 45 F0 48 8B 80 88 00 00 00 48 8B 4D  ..H.E?H......H.M
  00000000102063C0: 10 48 89 48 08 48 8D 8B D0 ED FF FF 4C 8B 83 B8  .H.H.H..?íÿÿL..¸
  00000000102063D0: ED FF FF 48 8B 93 18 FF FF FF E8 21 EC FF FF EB  íÿÿH...ÿÿÿè!?ÿÿë
  00000000102063E0: 16 48 8D 8B D0 ED FF FF 45 31 C0 48 8B 93 18 FF  .H..?íÿÿE1ÀH...ÿ
  00000000102063F0: FF FF E8 09 EC FF FF 48 8D 8B D0 ED FF FF 4C 8B  ÿÿè.?ÿÿH..?íÿÿL.
  0000000010206400: 45 10 4D 8B 00 48 8B 93 18 FF FF FF E8 EF EB FF  E.M..H...ÿÿÿèïëÿ
  0000000010206410: FF 48 8B 45 10 48 83 38 08 0F 85 56 01 00 00 48  ÿH.E.H.8...V...H
  0000000010206420: 8D 8B D0 ED FF FF 4C 8B 45 10 4D 8B 40 08 48 8B  ..?íÿÿL.E.M.@.H.
  0000000010206430: 93 18 FF FF FF E8 C6 EB FF FF 48 8D 8B D0 ED FF  ..ÿÿÿèÆëÿÿH..?íÿ
  0000000010206440: FF 4C 8B 45 10 4D 8B 40 10 48 8B 93 18 FF FF FF  ÿL.E.M.@.H...ÿÿÿ
  0000000010206450: E8 AB EB FF FF 48 8B 4D 10 48 8B 49 40 E8 0E FC  è«ëÿÿH.M.H.I@è.ü
  0000000010206460: FF FF 48 8B 45 10 48 8B 40 48 48 89 45 F8 48 83  ÿÿH.E.H.@HH.EøH.
  0000000010206470: 7D F8 00 0F 84 DE 00 00 00 48 8D 8B D0 ED FF FF  }ø...?...H..?íÿÿ
  0000000010206480: 41 B8 06 00 00 00 48 8B 93 18 FF FF FF E8 6E EB  A¸....H...ÿÿÿènë
  0000000010206490: FF FF 48 8B 45 F8 0F B6 00 85 C0 75 2C 31 C0 66  ÿÿH.Eø.¶..Àu,1Àf
  00000000102064A0: 89 85 F0 FD FF FF 48 8D 8B D0 ED FF FF 4C 8D 85  ..??ÿÿH..?íÿÿL..
  00000000102064B0: F0 FD FF FF 41 B9 00 01 00 00 48 8B 93 18 FF FF  ??ÿÿA¹....H...ÿÿ
  00000000102064C0: FF FF 93 F8 FE FF FF EB 22 48 8D 8B D0 ED FF FF  ÿÿ.ø?ÿÿë"H..?íÿÿ
  00000000102064D0: 4C 8B 45 F8 4D 8D 40 02 41 B9 40 00 00 00 48 8B  L.EøM.@.A¹@...H.
  00000000102064E0: 93 18 FF FF FF FF 93 F8 FE FF FF 48 8B 4D F8 48  ..ÿÿÿÿ.ø?ÿÿH.MøH
  00000000102064F0: 8B 89 88 00 00 00 48 8B 49 08 E8 71 FB FF FF 48  ......H.I.èqûÿÿH
  0000000010206500: 8D 8B D0 ED FF FF 4C 8B 45 F8 48 8D 83 10 F5 FF  ..?íÿÿL.EøH...?ÿ
  0000000010206510: FF 49 8B 90 88 00 00 00 48 8B 52 F8 48 39 42 08  ÿI......H.RøH9B.
  0000000010206520: 75 02 EB 08 B0 02 B9 44 2F 00 00 CC 4D 8B 80 88  u.ë.°.¹D/..?M...
  0000000010206530: 00 00 00 4D 8B 40 28 48 8B 93 18 FF FF FF E8 BD  ...M.@(H...ÿÿÿè½
  0000000010206540: EA FF FF 48 8B 45 F8 48 8B 80 90 00 00 00 48 89  êÿÿH.EøH......H.
  0000000010206550: 45 F8 E9 17 FF FF FF 48 8D 8B D0 ED FF FF 41 B8  Eøé.ÿÿÿH..?íÿÿA¸
  0000000010206560: 01 00 00 00 48 8B 93 18 FF FF FF E8 90 EA FF FF  ....H...ÿÿÿè.êÿÿ
  0000000010206570: E9 CC 00 00 00 48 8B 45 10 48 83 38 07 75 60 48  é?...H.E.H.8.u`H
  0000000010206580: 8D 8B D0 ED FF FF 4C 8B 45 10 4D 8B 40 20 48 8B  ..?íÿÿL.E.M.@ H.
  0000000010206590: 93 18 FF FF FF E8 66 EA FF FF 48 8D 8B D0 ED FF  ..ÿÿÿèfêÿÿH..?íÿ
  00000000102065A0: FF 4C 8B 45 10 4D 8B 40 08 48 8B 93 18 FF FF FF  ÿL.E.M.@.H...ÿÿÿ
  00000000102065B0: E8 4B EA FF FF 48 8D 8B D0 ED FF FF 4C 8B 45 10  èKêÿÿH..?íÿÿL.E.
  00000000102065C0: 4D 8B 40 10 48 8B 93 18 FF FF FF E8 30 EA FF FF  M.@.H...ÿÿÿè0êÿÿ
  00000000102065D0: 48 8B 4D 10 48 8B 49 40 E8 93 FA FF FF EB 62 48  H.M.H.I@è.úÿÿëbH
  00000000102065E0: 8B 45 10 48 83 38 05 75 45 48 8D 8B D0 ED FF FF  .E.H.8.uEH..?íÿÿ
  00000000102065F0: 4C 8B 45 10 4D 8B 40 08 48 8B 93 18 FF FF FF E8  L.E.M.@.H...ÿÿÿè
  0000000010206600: FC E9 FF FF 48 8D 8B D0 ED FF FF 4C 8B 45 10 4D  üéÿÿH..?íÿÿL.E.M
  0000000010206610: 8B 40 10 48 8B 93 18 FF FF FF E8 E1 E9 FF FF 48  .@.H...ÿÿÿèáéÿÿH
  0000000010206620: 8B 4D 10 48 8B 49 40 E8 44 FA FF FF EB 13 48 8B  .M.H.I@èDúÿÿë.H.
  0000000010206630: 45 10 48 83 38 06 75 09 48 8B 4D 10 E8 4F FB FF  E.H.8.u.H.M.èOûÿ
  0000000010206640: FF C9 C3 90 90 90 90 90 90 90 90 90 90 90 90 90  ÿÉ?.............
  0000000010206650: 55 48 8B EC 48 83 EC 20 48 89 4D 10 48 8D 8B D0  UH.?H.? H.M.H..?
  0000000010206660: ED FF FF 4C 8B 45 10 4D 8B 00 48 8B 93 18 FF FF  íÿÿL.E.M..H...ÿÿ
  0000000010206670: FF FF 93 F0 FE FF FF 48 8D 8B D0 ED FF FF 4C 8B  ÿÿ.??ÿÿH..?íÿÿL.
  0000000010206680: 45 10 4D 8B 40 08 48 8B 93 18 FF FF FF FF 93 F0  E.M.@.H...ÿÿÿÿ.?
  0000000010206690: FE FF FF C9 C3 90 90 90 90 90 90 90 90 90 90 90  ?ÿÿÉ?...........
  00000000102066A0: 55 48 8B EC 48 81 EC D0 02 00 00 48 89 9D 50 FD  UH.?H.??...H..P?
  00000000102066B0: FF FF 48 8D 1D 47 E9 FF FF 48 C7 45 F8 00 00 00  ÿÿH..GéÿÿHÇEø...
  00000000102066C0: 00 48 C7 45 F0 00 00 00 00 48 C7 45 C8 00 00 00  .HÇE?....HÇEÈ...
  00000000102066D0: 00 31 C0 48 89 83 C8 ED FF FF 31 C0 48 89 83 B8  .1ÀH..Èíÿÿ1ÀH..¸
  00000000102066E0: ED FF FF 48 8D 8B D0 ED FF FF 4C 8D 83 60 FA FF  íÿÿH..?íÿÿL..`úÿ
  00000000102066F0: FF 41 B9 0A 00 00 00 48 8B 93 18 FF FF FF FF 93  ÿA¹....H...ÿÿÿÿ.
  0000000010206700: E0 FE FF FF 48 8D 8B D0 ED FF FF 41 B8 10 00 00  à?ÿÿH..?íÿÿA¸...
  0000000010206710: 00 48 8B 93 18 FF FF FF FF 93 D8 FE FF FF 48 8D  .H...ÿÿÿÿ.Ø?ÿÿH.
  0000000010206720: 8B D0 ED FF FF 4C 8B 83 80 EE FF FF 48 8B 93 18  .?íÿÿL...îÿÿH...
  0000000010206730: FF FF FF E8 C8 E8 FF FF 48 C7 45 E8 00 00 00 00  ÿÿÿèÈèÿÿHÇEè....
  0000000010206740: 48 8B 83 B0 ED FF FF 48 83 E8 01 48 39 45 E8 0F  H..°íÿÿH.è.H9Eè.
  0000000010206750: 8F 80 00 00 00 48 8D 83 B0 C5 FF FF 48 8B 4D E8  .....H..°ÅÿÿH.Mè
  0000000010206760: 48 81 F9 00 01 00 00 73 02 EB 08 B0 01 B9 A8 32  H.ù....s.ë.°.¹¨2
  0000000010206770: 00 00 CC 48 C1 E1 03 48 03 C1 48 8B 00 48 89 45  ..?HÁá.H.ÁH..H.E
  0000000010206780: C8 48 8D 8B D0 ED FF FF 45 31 C0 48 8B 93 18 FF  ÈH..?íÿÿE1ÀH...ÿ
  0000000010206790: FF FF E8 69 E8 FF FF 48 8D 8B D0 ED FF FF 4C 8B  ÿÿèièÿÿH..?íÿÿL.
  00000000102067A0: 45 C8 4D 8D 80 28 02 00 00 41 B9 40 00 00 00 48  EÈM..(...A¹@...H
  00000000102067B0: 8B 93 18 FF FF FF FF 93 F8 FE FF FF 48 8B 4D C8  ...ÿÿÿÿ.ø?ÿÿH.MÈ
  00000000102067C0: 48 8D 89 A8 02 00 00 E8 84 FE FF FF 48 FF 45 E8  H..¨...è.?ÿÿHÿEè
  00000000102067D0: E9 6B FF FF FF 48 8B 83 98 EE FF FF 48 8B 00 48  ékÿÿÿH...îÿÿH..H
  00000000102067E0: 89 45 F8 48 83 7D F8 00 0F 84 DD 02 00 00 48 8B  .EøH.}ø...?...H.
  00000000102067F0: 45 F8 0F B6 00 85 C0 0F 84 BA 02 00 00 48 8B 45  Eø.¶..À..º...H.E
  0000000010206800: F8 48 8B 80 88 00 00 00 48 83 38 04 0F 85 98 00  øH......H.8.....
  0000000010206810: 00 00 48 8D 8B D0 ED FF FF 41 B8 04 00 00 00 48  ..H..?íÿÿA¸....H
  0000000010206820: 8B 93 18 FF FF FF E8 D5 E7 FF FF 48 8D 8B D0 ED  ...ÿÿÿè?çÿÿH..?í
  0000000010206830: FF FF 4C 8B 45 F8 4D 8D 40 02 41 B9 40 00 00 00  ÿÿL.EøM.@.A¹@...
  0000000010206840: 48 8B 93 18 FF FF FF FF 93 F8 FE FF FF 48 8D 8B  H...ÿÿÿÿ.ø?ÿÿH..
  0000000010206850: D0 ED FF FF 4C 8B 45 F8 48 8D 83 B0 F4 FF FF 49  ?íÿÿL.EøH..°ôÿÿI
  0000000010206860: 8B 90 88 00 00 00 48 8B 52 F8 48 39 42 08 75 02  ......H.RøH9B.u.
  0000000010206870: EB 08 B0 02 B9 E6 33 00 00 CC 4D 8B 80 88 00 00  ë.°.¹æ3..?M.....
  0000000010206880: 00 4D 8B 40 28 48 8B 93 18 FF FF FF E8 6F E7 FF  .M.@(H...ÿÿÿèoçÿ
  0000000010206890: FF 48 8B 4D F8 48 8B 89 88 00 00 00 48 8B 49 08  ÿH.MøH......H.I.
  00000000102068A0: E8 CB F7 FF FF E9 0D 02 00 00 48 8B 45 F8 48 8B  èË÷ÿÿé....H.EøH.
  00000000102068B0: 80 88 00 00 00 48 83 38 01 75 54 48 8D 8B D0 ED  .....H.8.uTH..?í
  00000000102068C0: FF FF 41 B8 01 00 00 00 48 8B 93 18 FF FF FF E8  ÿÿA¸....H...ÿÿÿè
  00000000102068D0: 2C E7 FF FF 48 8D 8B D0 ED FF FF 4C 8B 45 F8 4D  ,çÿÿH..?íÿÿL.EøM
  00000000102068E0: 8D 40 02 41 B9 40 00 00 00 48 8B 93 18 FF FF FF  .@.A¹@...H...ÿÿÿ
  00000000102068F0: FF 93 F8 FE FF FF 48 8B 4D F8 48 8B 89 88 00 00  ÿ.ø?ÿÿH.MøH.....
  0000000010206900: 00 48 8B 49 08 E8 66 F7 FF FF E9 A8 01 00 00 48  .H.I.èf÷ÿÿé¨...H
  0000000010206910: 8B 45 F8 48 8B 80 88 00 00 00 48 83 38 03 0F 85  .EøH......H.8...
  0000000010206920: EC 00 00 00 48 8D 8B D0 ED FF FF 41 B8 03 00 00  ?...H..?íÿÿA¸...
  0000000010206930: 00 48 8B 93 18 FF FF FF E8 C3 E6 FF FF 48 8D 8B  .H...ÿÿÿè?æÿÿH..
  0000000010206940: D0 ED FF FF 4C 8B 45 F8 4D 8D 40 02 41 B9 40 00  ?íÿÿL.EøM.@.A¹@.
  0000000010206950: 00 00 48 8B 93 18 FF FF FF FF 93 F8 FE FF FF 48  ..H...ÿÿÿÿ.ø?ÿÿH
  0000000010206960: 8D 4D F0 E8 68 F6 FF FF 48 8B 45 F0 48 8B 4D F8  .M?èhöÿÿH.E?H.Mø
  0000000010206970: 48 8B 89 88 00 00 00 48 89 88 88 00 00 00 48 8D  H......H......H.
  0000000010206980: 8B D0 ED FF FF 4C 8B 83 B8 ED FF FF 48 8B 93 18  .?íÿÿL..¸íÿÿH...
  0000000010206990: FF FF FF E8 68 E6 FF FF 48 8B 4D F8 48 8B 89 88  ÿÿÿèhæÿÿH.MøH...
  00000000102069A0: 00 00 00 48 8B 49 08 E8 C4 F6 FF FF 48 8B 45 F8  ...H.I.èÄöÿÿH.Eø
  00000000102069B0: 48 8B 80 88 00 00 00 48 8B 40 08 48 8B 8B C0 EF  H......H.@.H..Àï
  00000000102069C0: FF FF 48 3B C1 75 44 48 8D 8B D0 ED FF FF 4C 8B  ÿÿH;ÁuDH..?íÿÿL.
  00000000102069D0: 45 F8 48 8D 83 A0 F6 FF FF 49 8B 90 88 00 00 00  EøH...öÿÿI......
  00000000102069E0: 48 8B 52 F8 48 39 42 10 75 02 EB 08 B0 02 B9 C0  H.RøH9B.u.ë.°.¹À
  00000000102069F0: 35 00 00 CC 4D 8B 80 88 00 00 00 4D 8B 40 50 48  5..?M......M.@PH
  0000000010206A00: 8B 93 18 FF FF FF E8 F5 E5 FF FF E9 A7 00 00 00  ...ÿÿÿè?åÿÿé§...
  0000000010206A10: 48 8B 45 F8 48 8B 80 88 00 00 00 48 83 38 05 0F  H.EøH......H.8..
  0000000010206A20: 85 8A 00 00 00 48 8D 8B D0 ED FF FF 41 B8 05 00  .....H..?íÿÿA¸..
  0000000010206A30: 00 00 48 8B 93 18 FF FF FF E8 C2 E5 FF FF 48 8D  ..H...ÿÿÿèÂåÿÿH.
  0000000010206A40: 8B D0 ED FF FF 4C 8B 45 F8 4D 8D 40 02 41 B9 40  .?íÿÿL.EøM.@.A¹@
  0000000010206A50: 00 00 00 48 8B 93 18 FF FF FF FF 93 F8 FE FF FF  ...H...ÿÿÿÿ.ø?ÿÿ
  0000000010206A60: 48 8D 4D F0 E8 67 F5 FF FF 48 8B 45 F0 48 8B 4D  H.M?èg?ÿÿH.E?H.M
  0000000010206A70: F8 48 8B 89 88 00 00 00 48 89 88 88 00 00 00 48  øH......H......H
  0000000010206A80: 8D 8B D0 ED FF FF 4C 8B 83 B8 ED FF FF 48 8B 93  ..?íÿÿL..¸íÿÿH..
  0000000010206A90: 18 FF FF FF E8 67 E5 FF FF 48 8B 4D F8 48 8B 89  .ÿÿÿègåÿÿH.MøH..
  0000000010206AA0: 88 00 00 00 48 8B 49 08 E8 E3 F6 FF FF EB 08 B0  ....H.I.è?öÿÿë.°
  0000000010206AB0: 03 B9 C2 36 00 00 CC 48 8B 45 F8 48 8B 80 90 00  .¹Â6..?H.EøH....
  0000000010206AC0: 00 00 48 89 45 F8 E9 18 FD FF FF 48 8D 8B D0 ED  ..H.Eøé.?ÿÿH..?í
  0000000010206AD0: FF FF 45 31 C0 49 83 C0 FF 48 8B 93 18 FF FF FF  ÿÿE1ÀI.ÀÿH...ÿÿÿ
  0000000010206AE0: E8 1B E5 FF FF 48 8D 8B D0 ED FF FF 48 8B 93 18  è.åÿÿH..?íÿÿH...
  0000000010206AF0: FF FF FF FF 93 D0 FE FF FF 48 89 45 D0 48 8D 8B  ÿÿÿÿ.??ÿÿH.E?H..
  0000000010206B00: D0 ED FF FF 45 31 C0 48 8B 93 18 FF FF FF FF 93  ?íÿÿE1ÀH...ÿÿÿÿ.
  0000000010206B10: D8 FE FF FF 48 8D 4D A0 48 8B 93 E8 FE FF FF FF  Ø?ÿÿH.M.H..è?ÿÿÿ
  0000000010206B20: 93 C8 FE FF FF 31 C0 48 89 45 E8 31 C0 48 89 45  .È?ÿÿ1ÀH.Eè1ÀH.E
  0000000010206B30: E0 48 8D 8B D0 ED FF FF 4C 8D 45 D8 48 8B 93 18  àH..?íÿÿL.EØH...
  0000000010206B40: FF FF FF FF 93 08 FF FF FF 48 8D 85 60 FF FF FF  ÿÿÿÿ..ÿÿÿH..`ÿÿÿ
  0000000010206B50: 48 8B 4D E0 48 83 F9 40 73 02 EB 08 B0 01 B9 A3  H.MàH.ù@s.ë.°.¹£
  0000000010206B60: 37 00 00 CC 48 03 C1 48 8B 4D D8 88 08 48 FF 45  7..?H.ÁH.MØ..HÿE
  0000000010206B70: E8 48 FF 45 E0 48 8B 45 E8 48 8B 4D D0 48 3B C1  èHÿEàH.EèH.M?H;Á
  0000000010206B80: 74 07 48 83 7D E0 40 75 A8 48 8D 4D A0 4C 8D 85  t.H.}à@u¨H.M.L..
  0000000010206B90: 60 FF FF FF 4C 8B 4D E0 48 8B 93 E8 FE FF FF FF  `ÿÿÿL.MàH..è?ÿÿÿ
  0000000010206BA0: 93 C0 FE FF FF 48 8B 45 E8 48 8B 4D D0 48 3B C1  .À?ÿÿH.EèH.M?H;Á
  0000000010206BB0: 0F 85 75 FF FF FF 48 8D 8B D0 ED FF FF 45 31 C0  ..uÿÿÿH..?íÿÿE1À
  0000000010206BC0: 48 8B 93 18 FF FF FF FF 93 D8 FE FF FF 48 8D 4D  H...ÿÿÿÿ.Ø?ÿÿH.M
  0000000010206BD0: A0 48 8B 93 E8 FE FF FF FF 93 B8 FE FF FF 48 89  .H..è?ÿÿÿ.¸?ÿÿH.
  0000000010206BE0: 83 F0 ED FF FF 48 8D 4D A0 48 8B 93 E8 FE FF FF  .?íÿÿH.M.H..è?ÿÿ
  0000000010206BF0: FF 93 B0 FE FF FF 48 89 83 F8 ED FF FF 48 8D 8B  ÿ.°?ÿÿH..øíÿÿH..
  0000000010206C00: F0 ED FF FF E8 47 FA FF FF 48 8D 8B D0 ED FF FF  ?íÿÿèGúÿÿH..?íÿÿ
  0000000010206C10: 48 8B 93 18 FF FF FF FF 93 A8 FE FF FF 48 8B 83  H...ÿÿÿÿ.¨?ÿÿH..
  0000000010206C20: A0 FE FF FF 48 83 38 00 75 78 31 C0 66 89 85 60  .?ÿÿH.8.ux1Àf..`
  0000000010206C30: FD FF FF 48 8D 8B 00 EE FF FF 4C 8D 85 60 FD FF  ?ÿÿH...îÿÿL..`?ÿ
  0000000010206C40: FF 41 B9 00 01 00 00 BA 40 00 00 00 E8 8F E5 FF  ÿA¹....º@...è.åÿ
  0000000010206C50: FF 48 8D 8B 90 FA FF FF 4C 8D 85 60 FD FF FF 41  ÿH...úÿÿL..`?ÿÿA
  0000000010206C60: B9 00 01 00 00 BA 05 00 00 00 E8 71 E5 FF FF 48  ¹....º....èqåÿÿH
  0000000010206C70: 8D 8D 60 FD FF FF BA 00 01 00 00 FF 93 98 FE FF  ..`?ÿÿº....ÿ..?ÿ
  0000000010206C80: FF 48 8D 8B A0 FA FF FF 4C 8D 85 60 FD FF FF 41  ÿH...úÿÿL..`?ÿÿA
  0000000010206C90: B9 00 01 00 00 BA 0A 00 00 00 FF 93 90 FE FF FF  ¹....º....ÿ..?ÿÿ
  0000000010206CA0: EB 12 48 8D 8B C0 FA FF FF BA 0A 00 00 00 FF 93  ë.H..Àúÿÿº....ÿ.
  0000000010206CB0: 98 FE FF FF 48 8B 9D 50 FD FF FF C9 C3 90 90 90  .?ÿÿH..P?ÿÿÉ?...
  0000000010206CC0: 55 48 8B EC 48 83 EC 20 48 89 75 E0 48 89 7D E8  UH.?H.? H.uàH.}è
  0000000010206CD0: 48 89 4D 10 48 C7 45 F0 00 00 00 00 31 C0 48 89  H.M.HÇE?....1ÀH.
  0000000010206CE0: 45 F0 48 C7 45 F8 00 00 00 00 48 8B 83 B0 ED FF  E?HÇEø....H..°íÿ
  0000000010206CF0: FF 48 83 E8 01 48 39 45 F8 0F 8F 9B 00 00 00 48  ÿH.è.H9Eø......H
  0000000010206D00: 8D B3 B0 C5 FF FF 48 8B 45 F8 48 81 F8 00 01 00  .³°ÅÿÿH.EøH.ø...
  0000000010206D10: 00 73 02 EB 08 B0 01 B9 F2 3A 00 00 CC 48 C1 E0  .s.ë.°.¹?:..?HÁà
  0000000010206D20: 03 48 03 F0 48 8B 36 48 8D B6 28 02 00 00 48 8B  .H.?H.6H.¶(...H.
  0000000010206D30: 7D 10 31 C0 48 83 C0 01 48 83 F8 40 77 02 EB 08  }.1ÀH.À.H.ø@w.ë.
  0000000010206D40: B0 07 B9 F2 3A 00 00 CC 48 83 F8 40 77 02 EB 08  °.¹?:..?H.ø@w.ë.
  0000000010206D50: B0 07 B9 F2 3A 00 00 CC 66 A7 75 07 66 83 7E FE  °.¹?:..?f§u.f.~?
  0000000010206D60: 00 75 D1 75 2C 48 8D 83 B0 C5 FF FF 48 8B 4D F8  .uÑu,H..°ÅÿÿH.Mø
  0000000010206D70: 48 81 F9 00 01 00 00 73 02 EB 08 B0 01 B9 1B 3B  H.ù....s.ë.°.¹.;
  0000000010206D80: 00 00 CC 48 C1 E1 03 48 03 C1 48 8B 00 48 89 45  ..?HÁá.H.ÁH..H.E
  0000000010206D90: F0 48 FF 45 F8 E9 50 FF FF FF 48 8B 45 F0 48 8B  ?HÿEøéPÿÿÿH.E?H.
  0000000010206DA0: 75 E0 48 8B 7D E8 C9 C3 90 90 90 90 90 90 90 90  uàH.}èÉ?........
  0000000010206DB0: 55 48 8B EC 48 83 EC 30 48 89 75 F0 48 89 7D F8  UH.?H.?0H.u?H.}ø
  0000000010206DC0: 48 89 4D 10 48 89 55 18 4C 89 45 20 48 83 7D 10  H.M.H.U.L.E H.}.
  0000000010206DD0: 00 74 3D 48 8B 4B C0 BA 08 00 00 00 41 B8 A8 00  .t=H.KÀº....A¸¨.
  0000000010206DE0: 00 00 FF 53 E8 48 83 C0 10 48 8D 8B D0 F7 FF FF  ..ÿSèH.À.H..?÷ÿÿ
  0000000010206DF0: 48 89 48 F8 48 8B 4D 10 48 89 81 90 00 00 00 48  H.HøH.M.H......H
  0000000010206E00: 8B 45 10 48 8B 80 90 00 00 00 48 89 45 10 EB 39  .E.H......H.E.ë9
  0000000010206E10: 48 8B 4B C0 BA 08 00 00 00 41 B8 A8 00 00 00 FF  H.KÀº....A¸¨...ÿ
  0000000010206E20: 53 E8 48 83 C0 10 48 8D 8B D0 F7 FF FF 48 89 48  SèH.À.H..?÷ÿÿH.H
  0000000010206E30: F8 48 8B 8B A0 EE FF FF 48 89 01 48 8B 83 A0 EE  øH...îÿÿH..H...î
  0000000010206E40: FF FF 48 8B 00 48 89 45 10 48 8B 45 10 31 C9 88  ÿÿH..H.E.H.E.1É.
  0000000010206E50: 08 48 8B 45 10 48 8B 4D 20 48 89 88 88 00 00 00  .H.E.H.M H......
  0000000010206E60: 48 8B 7D 10 48 8D 7F 02 48 8B 75 18 31 C9 31 C0  H.}.H...H.u.1É1À
  0000000010206E70: 48 83 C1 01 BA 40 00 00 00 48 3B CA 77 02 EB 08  H.Á.º@...H;Êw.ë.
  0000000010206E80: B0 07 B9 42 3C 00 00 CC BA 40 00 00 00 48 3B CA  °.¹B<..?º@...H;Ê
  0000000010206E90: 77 02 EB 08 B0 07 B9 42 3C 00 00 CC 66 AD 66 AB  w.ë.°.¹B<..?f­f«
  0000000010206EA0: 85 C0 75 CC 48 8B 45 20 48 83 78 10 00 75 0C 48  .Àu?H.E H.x..u.H
  0000000010206EB0: 8B 45 20 48 8B 4D 10 48 89 48 10 48 8B 45 10 48  .E H.M.H.H.H.E.H
  0000000010206EC0: 8B 75 F0 48 8B 7D F8 C9 C3 90 90 90 90 90 90 90  .u?H.}øÉ?.......
  0000000010206ED0: 55 48 8B EC 48 81 EC E0 02 00 00 48 89 B5 40 FD  UH.?H.?à...H.µ@?
  0000000010206EE0: FF FF 48 89 BD 48 FD FF FF 48 89 4D 10 48 C7 85  ÿÿH.½H?ÿÿH.M.HÇ.
  0000000010206EF0: 60 FD FF FF 00 00 00 00 48 C7 85 58 FD FF FF 00  `?ÿÿ....HÇ.X?ÿÿ.
  0000000010206F00: 00 00 00 48 8D 8B D0 ED FF FF 4C 8D 45 F8 48 8B  ...H..?íÿÿL.EøH.
  0000000010206F10: 93 18 FF FF FF E8 76 E1 FF FF 48 8D 8B D0 ED FF  ..ÿÿÿèváÿÿH..?íÿ
  0000000010206F20: FF 4C 8D 45 F0 48 8B 93 18 FF FF FF E8 5F E1 FF  ÿL.E?H...ÿÿÿè_áÿ
  0000000010206F30: FF 48 83 7D F8 FF 75 31 48 8D 83 B8 EE FF FF 48  ÿH.}øÿu1H..¸îÿÿH
  0000000010206F40: 8B 4D F0 48 83 F9 20 73 02 EB 08 B0 01 B9 85 3D  .M?H.ù s.ë.°.¹.=
  0000000010206F50: 00 00 CC 48 C1 E1 03 48 03 C1 48 8B 00 48 8B 4D  ..?HÁá.H.ÁH..H.M
  0000000010206F60: 10 48 89 01 E9 27 02 00 00 48 83 7D F8 00 0F 85  .H..é'...H.}ø...
  0000000010206F70: AD 00 00 00 48 83 7D F0 00 0F 8C 90 00 00 00 48  ­...H.}?.......H
  0000000010206F80: 8B 83 88 EE FF FF 48 83 C0 02 48 F7 D8 48 89 45  ...îÿÿH.À.H÷ØH.E
  0000000010206F90: E8 48 8D 83 B0 C5 FF FF 48 8B 4D E8 48 81 F9 00  èH..°ÅÿÿH.MèH.ù.
  0000000010206FA0: 01 00 00 73 02 EB 08 B0 01 B9 D4 3D 00 00 CC 48  ...s.ë.°.¹Ô=..?H
  0000000010206FB0: C1 E1 03 48 03 C1 48 8B 00 48 8B 80 D8 02 00 00  Áá.H.ÁH..H..Ø...
  0000000010206FC0: 48 89 85 58 FD FF FF 48 83 BD 58 FD FF FF 00 74  H..X?ÿÿH.½X?ÿÿ.t
  0000000010206FD0: 2B 48 8B 85 58 FD FF FF 48 8B 00 48 8B 40 68 48  +H..X?ÿÿH..H.@hH
  0000000010206FE0: 8B 4D F0 48 3B C1 74 14 48 8B 85 58 FD FF FF 48  .M?H;Át.H..X?ÿÿH
  0000000010206FF0: 8B 40 10 48 89 85 58 FD FF FF EB CB 48 8B 85 58  .@.H..X?ÿÿëËH..X
  0000000010207000: FD FF FF 48 8B 00 48 8B 4D 10 48 89 01 EB 0D 48  ?ÿÿH..H.M.H..ë.H
  0000000010207010: 8B 83 90 C5 DF FF 48 8B 4D 10 FF D0 E9 6F 01 00  ...ÅßÿH.M.ÿ?éo..
  0000000010207020: 00 48 83 7D F8 FF 0F 8D 5C 01 00 00 48 8D 8B D0  .H.}øÿ..\...H..?
  0000000010207030: ED FF FF 4C 8D 85 68 FF FF FF 41 B9 40 00 00 00  íÿÿL..hÿÿÿA¹@...
  0000000010207040: 48 8B 93 18 FF FF FF FF 93 88 FE FF FF 48 8D 8D  H...ÿÿÿÿ..?ÿÿH..
  0000000010207050: 68 FF FF FF E8 67 FC FF FF 48 89 85 60 FD FF FF  hÿÿÿègüÿÿH..`?ÿÿ
  0000000010207060: 48 83 BD 60 FD FF FF 00 74 60 48 8B 85 60 FD FF  H.½`?ÿÿ.t`H..`?ÿ
  0000000010207070: FF 48 8B 80 D8 02 00 00 48 89 85 58 FD FF FF 48  ÿH..Ø...H..X?ÿÿH
  0000000010207080: 83 BD 58 FD FF FF 00 74 2B 48 8B 85 58 FD FF FF  .½X?ÿÿ.t+H..X?ÿÿ
  0000000010207090: 48 8B 00 48 8B 40 68 48 8B 4D F0 48 3B C1 74 14  H..H.@hH.M?H;Át.
  00000000102070A0: 48 8B 85 58 FD FF FF 48 8B 40 10 48 89 85 58 FD  H..X?ÿÿH.@.H..X?
  00000000102070B0: FF FF EB CB 48 8B 85 58 FD FF FF 48 8B 00 48 8B  ÿÿëËH..X?ÿÿH..H.
  00000000102070C0: 4D 10 48 89 01 E9 BC 00 00 00 48 8D BD 68 FD FF  M.H..é¼...H.½h?ÿ
  00000000102070D0: FF 48 8D B3 E0 FA FF FF B9 04 00 00 00 F3 48 A5  ÿH.³àúÿÿ¹....óH¥
  00000000102070E0: 48 8D 8D 68 FF FF FF 4C 8D 85 68 FD FF FF 41 B9  H..hÿÿÿL..h?ÿÿA¹
  00000000102070F0: 00 01 00 00 BA 40 00 00 00 E8 E2 E0 FF FF 48 8D  ....º@...èâàÿÿH.
  0000000010207100: 8B 00 FB FF FF 4C 8D 85 68 FD FF FF 41 B9 00 01  ..ûÿÿL..h?ÿÿA¹..
  0000000010207110: 00 00 BA 15 00 00 00 E8 C4 E0 FF FF 48 8B 83 88  ..º....èÄàÿÿH...
  0000000010207120: EE FF FF 48 83 C0 02 48 F7 D8 48 89 45 E8 48 8D  îÿÿH.À.H÷ØH.EèH.
  0000000010207130: 8B B0 C5 FF FF 48 8B 45 E8 48 81 F8 00 01 00 00  .°ÅÿÿH.EèH.ø....
  0000000010207140: 73 02 EB 08 B0 01 B9 AD 3F 00 00 CC 48 C1 E0 03  s.ë.°.¹­?..?HÁà.
  0000000010207150: 48 03 C8 48 8B 09 48 8D 89 28 02 00 00 4C 8D 85  H.ÈH..H..(...L..
  0000000010207160: 68 FD FF FF 41 B9 00 01 00 00 BA 40 00 00 00 E8  h?ÿÿA¹....º@...è
  0000000010207170: 6C E0 FF FF 48 8D 8D 68 FD FF FF BA 00 01 00 00  làÿÿH..h?ÿÿº....
  0000000010207180: FF 93 00 FF FF FF EB 08 B0 03 B9 E1 3F 00 00 CC  ÿ..ÿÿÿë.°.¹á?..?
  0000000010207190: 48 8B B5 40 FD FF FF 48 8B BD 48 FD FF FF C9 C3  H.µ@?ÿÿH.½H?ÿÿÉ?
  00000000102071A0: 55 48 8B EC 48 83 EC 30 48 89 4D 10 48 C7 45 F0  UH.?H.?0H.M.HÇE?
  00000000102071B0: 00 00 00 00 48 8B 83 88 EE FF FF 48 83 C0 02 48  ....H...îÿÿH.À.H
  00000000102071C0: F7 D8 48 89 45 F8 48 8D 83 B0 C5 FF FF 48 8B 4D  ÷ØH.EøH..°ÅÿÿH.M
  00000000102071D0: F8 48 81 F9 00 01 00 00 73 02 EB 08 B0 01 B9 68  øH.ù....s.ë.°.¹h
  00000000102071E0: 40 00 00 CC 48 C1 E1 03 48 03 C1 48 8B 00 48 83  @..?HÁá.H.ÁH..H.
  00000000102071F0: B8 D8 02 00 00 00 0F 84 91 00 00 00 48 8D 83 B0  ¸Ø..........H..°
  0000000010207200: C5 FF FF 48 8B 4D F8 48 81 F9 00 01 00 00 73 02  ÅÿÿH.MøH.ù....s.
  0000000010207210: EB 08 B0 01 B9 89 40 00 00 CC 48 C1 E1 03 48 03  ë.°.¹.@..?HÁá.H.
  0000000010207220: C1 48 8B 00 48 8B 80 D8 02 00 00 48 89 45 F0 48  ÁH..H..Ø...H.E?H
  0000000010207230: 8B 45 F0 48 83 78 10 00 74 0E 48 8B 45 F0 48 8B  .E?H.x..t.H.E?H.
  0000000010207240: 40 10 48 89 45 F0 EB E7 48 8B 4B C0 BA 08 00 00  @.H.E?ëçH.KÀº...
  0000000010207250: 00 41 B8 28 00 00 00 FF 53 E8 48 83 C0 10 48 8D  .A¸(...ÿSèH.À.H.
  0000000010207260: 8B F0 F3 FF FF 48 89 48 F8 48 8B 4D F0 48 89 41  .?óÿÿH.HøH.M?H.A
  0000000010207270: 10 48 8B 45 F0 48 8B 40 10 48 89 45 F0 48 8B 45  .H.E?H.@.H.E?H.E
  0000000010207280: F0 48 8B 4D 10 48 89 08 E9 86 00 00 00 48 8B 4B  ?H.M.H..é....H.K
  0000000010207290: C0 BA 08 00 00 00 41 B8 28 00 00 00 FF 53 E8 48  Àº....A¸(...ÿSèH
  00000000102072A0: 83 C0 10 48 8D 8B F0 F3 FF FF 48 89 48 F8 48 8D  .À.H..?óÿÿH.HøH.
  00000000102072B0: 8B B0 C5 FF FF 48 8B 55 F8 48 81 FA 00 01 00 00  .°ÅÿÿH.UøH.ú....
  00000000102072C0: 73 02 EB 08 B0 01 B9 FB 40 00 00 CC 48 C1 E2 03  s.ë.°.¹û@..?HÁâ.
  00000000102072D0: 48 03 CA 48 8B 09 48 89 81 D8 02 00 00 48 8D 83  H.ÊH..H..Ø...H..
  00000000102072E0: B0 C5 FF FF 48 8B 4D F8 48 81 F9 00 01 00 00 73  °ÅÿÿH.MøH.ù....s
  00000000102072F0: 02 EB 08 B0 01 B9 0E 41 00 00 CC 48 C1 E1 03 48  .ë.°.¹.A..?HÁá.H
  0000000010207300: 03 C1 48 8B 00 48 8B 80 D8 02 00 00 48 8B 4D 10  .ÁH..H..Ø...H.M.
  0000000010207310: 48 89 08 C9 C3 90 90 90 90 90 90 90 90 90 90 90  H..É?...........
  0000000010207320: 55 48 8B EC 48 81 EC D0 00 00 00 48 89 4D 10 48  UH.?H.??...H.M.H
  0000000010207330: 89 55 18 48 C7 45 F8 00 00 00 00 48 C7 45 F0 00  .U.HÇEø....HÇE?.
  0000000010207340: 00 00 00 48 C7 45 E8 00 00 00 00 E8 D0 E9 FF FF  ...HÇEè....è?éÿÿ
  0000000010207350: 48 8B 4D 10 48 89 01 48 83 7D 18 FF 7E 1B 48 8B  H.M.H..H.}.ÿ~.H.
  0000000010207360: 45 10 48 8B 00 48 8B 4D 18 48 89 48 68 48 8B 4D  E.H..H.M.H.HhH.M
  0000000010207370: 10 48 8B 09 E8 27 FE FF FF 48 8D 8B D0 ED FF FF  .H..è'?ÿÿH..?íÿÿ
  0000000010207380: 4C 8B 45 10 4D 8B 00 4D 8D 40 08 48 8B 93 18 FF  L.E.M..M.@.H...ÿ
  0000000010207390: FF FF E8 F9 DC FF FF 48 8D 8B D0 ED FF FF 4C 8B  ÿÿèùÜÿÿH..?íÿÿL.
  00000000102073A0: 45 10 4D 8B 00 4D 8D 40 10 48 8B 93 18 FF FF FF  E.M..M.@.H...ÿÿÿ
  00000000102073B0: E8 DB DC FF FF 48 8D 8B D0 ED FF FF 4C 8B 45 10  èÛÜÿÿH..?íÿÿL.E.
  00000000102073C0: 4D 8B 00 4D 8D 40 50 48 8B 93 18 FF FF FF E8 BD  M..M.@PH...ÿÿÿè½
  00000000102073D0: DC FF FF 48 8B 4D 10 48 8B 09 48 8D 49 40 E8 ED  ÜÿÿH.M.H..H.I@èí
  00000000102073E0: FA FF FF 48 8D 8B D0 ED FF FF 4C 8D 45 E0 48 8B  úÿÿH..?íÿÿL.EàH.
  00000000102073F0: 93 18 FF FF FF E8 96 DC FF FF E8 D1 E9 FF FF 48  ..ÿÿÿè.ÜÿÿèÑéÿÿH
  0000000010207400: 83 7D E0 01 0F 84 A7 00 00 00 48 8D 8B D0 ED FF  .}à...§...H..?íÿ
  0000000010207410: FF 4C 8D 85 58 FF FF FF 41 B9 40 00 00 00 48 8B  ÿL..XÿÿÿA¹@...H.
  0000000010207420: 93 18 FF FF FF FF 93 88 FE FF FF 48 8D 8B D0 ED  ..ÿÿÿÿ..?ÿÿH..?í
  0000000010207430: FF FF 4C 8D 45 D8 48 8B 93 18 FF FF FF E8 4E DC  ÿÿL.EØH...ÿÿÿèNÜ
  0000000010207440: FF FF 48 83 7D D8 01 75 07 B8 01 00 00 00 EB 02  ÿÿH.}Ø.u.¸....ë.
  0000000010207450: 31 C0 88 85 57 FF FF FF 48 8D 4D E8 E8 6F FA FF  1À..WÿÿÿH.Mèèoúÿ
  0000000010207460: FF 48 8B 4D 10 48 8B 09 48 8B 55 E8 44 0F B6 85  ÿH.M.H..H.UèD.¶.
  0000000010207470: 57 FF FF FF E8 67 E1 FF FF 48 89 45 F0 48 8B 4D  WÿÿÿègáÿÿH.E?H.M
  0000000010207480: F8 48 8D 95 58 FF FF FF 4C 8B 45 F0 E8 1F F9 FF  øH..XÿÿÿL.E?è.ùÿ
  0000000010207490: FF 48 89 45 F8 48 8D 8B D0 ED FF FF 4C 8D 45 E0  ÿH.EøH..?íÿÿL.Eà
  00000000102074A0: 48 8B 93 18 FF FF FF E8 E4 DB FF FF E9 4E FF FF  H...ÿÿÿèäÛÿÿéNÿÿ
  00000000102074B0: FF 48 8B 45 10 48 8B 00 48 8B 8B A0 EE FF FF 48  ÿH.E.H..H...îÿÿH
  00000000102074C0: 8B 09 48 89 48 48 E8 65 E9 FF FF C9 C3 90 90 90  ..H.HHèeéÿÿÉ?...
  00000000102074D0: 55 48 8B EC 48 81 EC E0 00 00 00 48 89 4D 10 48  UH.?H.?à...H.M.H
  00000000102074E0: C7 45 F8 00 00 00 00 48 C7 45 F0 00 00 00 00 48  ÇEø....HÇE?....H
  00000000102074F0: C7 85 68 FF FF FF 00 00 00 00 48 8D 8B D0 ED FF  Ç.hÿÿÿ....H..?íÿ
  0000000010207500: FF 4C 8D 85 50 FF FF FF 48 8B 93 18 FF FF FF E8  ÿL..PÿÿÿH...ÿÿÿè
  0000000010207510: 7C DB FF FF 48 8D 8B D0 ED FF FF 4C 8D 85 48 FF  |ÛÿÿH..?íÿÿL..Hÿ
  0000000010207520: FF FF 48 8B 93 18 FF FF FF E8 62 DB FF FF 48 8D  ÿÿH...ÿÿÿèbÛÿÿH.
  0000000010207530: 8B D0 ED FF FF 4C 8D 85 58 FF FF FF 48 8B 93 18  .?íÿÿL..XÿÿÿH...
  0000000010207540: FF FF FF E8 48 DB FF FF 48 83 BD 58 FF FF FF 08  ÿÿÿèHÛÿÿH.½Xÿÿÿ.
  0000000010207550: 0F 85 A2 01 00 00 E8 75 E6 FF FF 48 8B 4D 10 48  ..¢...èuæÿÿH.M.H
  0000000010207560: 89 01 48 8B 4D 10 48 8B 09 E8 32 FC FF FF 48 8B  ..H.M.H..è2üÿÿH.
  0000000010207570: 45 10 48 8B 00 48 8B 8D 50 FF FF FF 48 89 48 68  E.H..H..PÿÿÿH.Hh
  0000000010207580: 48 8B 45 10 48 8B 00 48 8B 8D 48 FF FF FF 48 89  H.E.H..H..HÿÿÿH.
  0000000010207590: 48 38 48 8B 45 10 48 8B 00 31 C9 48 89 48 28 48  H8H.E.H..1ÉH.H(H
  00000000102075A0: 8D 8B D0 ED FF FF 4C 8B 45 10 4D 8B 00 4D 8D 40  ..?íÿÿL.E.M..M.@
  00000000102075B0: 08 48 8B 93 18 FF FF FF E8 D3 DA FF FF 48 8D 8B  .H...ÿÿÿèÓÚÿÿH..
  00000000102075C0: D0 ED FF FF 4C 8B 45 10 4D 8B 00 4D 8D 40 10 48  ?íÿÿL.E.M..M.@.H
  00000000102075D0: 8B 93 18 FF FF FF E8 B5 DA FF FF 48 8B 4D 10 48  ...ÿÿÿèµÚÿÿH.M.H
  00000000102075E0: 8B 09 48 8D 49 40 E8 E5 F8 FF FF 48 8B 4D 10 48  ..H.I@èåøÿÿH.M.H
  00000000102075F0: 8B 09 E8 89 E6 FF FF 48 8D 8B D0 ED FF FF 4C 8D  ..è.æÿÿH..?íÿÿL.
  0000000010207600: 85 60 FF FF FF 48 8B 93 18 FF FF FF E8 7F DA FF  .`ÿÿÿH...ÿÿÿè.Úÿ
  0000000010207610: FF E8 BA E7 FF FF 48 83 BD 60 FF FF FF 01 0F 84  ÿèºçÿÿH.½`ÿÿÿ...
  0000000010207620: B5 00 00 00 48 8D 8B D0 ED FF FF 4C 8D 85 70 FF  µ...H..?íÿÿL..pÿ
  0000000010207630: FF FF 41 B9 40 00 00 00 48 8B 93 18 FF FF FF FF  ÿÿA¹@...H...ÿÿÿÿ
  0000000010207640: 93 88 FE FF FF 48 8D 8D 68 FF FF FF E8 7F F8 FF  ..?ÿÿH..hÿÿÿè.øÿ
  0000000010207650: FF 48 8B 4D 10 48 8B 09 48 8B 95 68 FF FF FF E8  ÿH.M.H..H..hÿÿÿè
  0000000010207660: 3C E0 FF FF 48 89 45 F0 48 8D 8B D0 ED FF FF 48  <àÿÿH.E?H..?íÿÿH
  0000000010207670: 8D 83 10 F5 FF FF 48 8B 55 F0 48 8B 52 F8 48 39  ...?ÿÿH.U?H.RøH9
  0000000010207680: 42 08 75 02 EB 08 B0 02 B9 47 46 00 00 CC 4C 8B  B.u.ë.°.¹GF..?L.
  0000000010207690: 45 F0 4D 8D 40 28 48 8B 93 18 FF FF FF E8 EE D9  E?M.@(H...ÿÿÿèîÙ
  00000000102076A0: FF FF 48 8B 4D F8 48 8D 95 70 FF FF FF 4C 8B 45  ÿÿH.MøH..pÿÿÿL.E
  00000000102076B0: F0 E8 FA F6 FF FF 48 89 45 F8 48 8D 8B D0 ED FF  ?èúöÿÿH.EøH..?íÿ
  00000000102076C0: FF 4C 8D 85 60 FF FF FF 48 8B 93 18 FF FF FF E8  ÿL..`ÿÿÿH...ÿÿÿè
  00000000102076D0: BC D9 FF FF E9 3D FF FF FF 48 8B 45 10 48 8B 00  ¼Ùÿÿé=ÿÿÿH.E.H..
  00000000102076E0: 48 8B 8B A0 EE FF FF 48 8B 09 48 89 48 48 E8 3D  H...îÿÿH..H.HHè=
  00000000102076F0: E7 FF FF E9 52 01 00 00 48 83 BD 58 FF FF FF 07  çÿÿéR...H.½Xÿÿÿ.
  0000000010207700: 0F 85 A8 00 00 00 48 8D 8B D0 ED FF FF 4C 8D 85  ..¨...H..?íÿÿL..
  0000000010207710: 40 FF FF FF 48 8B 93 18 FF FF FF E8 70 D9 FF FF  @ÿÿÿH...ÿÿÿèpÙÿÿ
  0000000010207720: 48 8B 8D 40 FF FF FF E8 F4 E3 FF FF 48 8B 4D 10  H..@ÿÿÿèô?ÿÿH.M.
  0000000010207730: 48 89 01 48 8B 45 10 48 8B 00 48 8B 8D 50 FF FF  H..H.E.H..H..Pÿÿ
  0000000010207740: FF 48 89 48 68 48 8B 4D 10 48 8B 09 E8 4F FA FF  ÿH.HhH.M.H..èOúÿ
  0000000010207750: FF 48 8D 8B D0 ED FF FF 4C 8B 45 10 4D 8B 00 4D  ÿH..?íÿÿL.E.M..M
  0000000010207760: 8D 40 08 48 8B 93 18 FF FF FF E8 21 D9 FF FF 48  .@.H...ÿÿÿè!ÙÿÿH
  0000000010207770: 8D 8B D0 ED FF FF 4C 8B 45 10 4D 8B 00 4D 8D 40  ..?íÿÿL.E.M..M.@
  0000000010207780: 10 48 8B 93 18 FF FF FF E8 03 D9 FF FF 48 8B 4D  .H...ÿÿÿè.ÙÿÿH.M
  0000000010207790: 10 48 8B 09 48 8D 49 40 E8 33 F7 FF FF 48 8B 4D  .H..H.I@è3÷ÿÿH.M
  00000000102077A0: 10 48 8B 09 E8 C7 E3 FF FF E9 9C 00 00 00 48 83  .H..èÇ?ÿÿé....H.
  00000000102077B0: BD 58 FF FF FF 05 75 78 E8 23 E5 FF FF 48 8B 4D  ½Xÿÿÿ.uxè#åÿÿH.M
  00000000102077C0: 10 48 89 01 48 8B 45 10 48 8B 00 48 8B 8D 50 FF  .H..H.E.H..H..Pÿ
  00000000102077D0: FF FF 48 89 48 68 48 8B 4D 10 48 8B 09 E8 BE F9  ÿÿH.HhH.M.H..è¾ù
  00000000102077E0: FF FF 48 8D 8B D0 ED FF FF 4C 8B 45 10 4D 8B 00  ÿÿH..?íÿÿL.E.M..
  00000000102077F0: 4D 8D 40 08 48 8B 93 18 FF FF FF E8 90 D8 FF FF  M.@.H...ÿÿÿè.Øÿÿ
  0000000010207800: 48 8D 8B D0 ED FF FF 4C 8B 45 10 4D 8B 00 4D 8D  H..?íÿÿL.E.M..M.
  0000000010207810: 40 10 48 8B 93 18 FF FF FF E8 72 D8 FF FF 48 8B  @.H...ÿÿÿèrØÿÿH.
  0000000010207820: 4D 10 48 8B 09 48 8D 49 40 E8 A2 F6 FF FF EB 1A  M.H..H.I@è¢öÿÿë.
  0000000010207830: 48 83 BD 58 FF FF FF 06 75 10 48 8B 4D 10 48 8B  H.½Xÿÿÿ.u.H.M.H.
  0000000010207840: 95 50 FF FF FF E8 D6 FA FF FF C9 C3 90 90 90 90  .PÿÿÿèÖúÿÿÉ?....
  0000000010207850: 55 48 8B EC 48 83 EC 20 48 89 4D 10 48 8D 8B D0  UH.?H.? H.M.H..?
  0000000010207860: ED FF FF 4C 8B 45 10 48 8B 93 18 FF FF FF FF 93  íÿÿL.E.H...ÿÿÿÿ.
  0000000010207870: 80 FE FF FF 48 8D 8B D0 ED FF FF 4C 8B 45 10 4D  .?ÿÿH..?íÿÿL.E.M
  0000000010207880: 8D 40 08 48 8B 93 18 FF FF FF FF 93 80 FE FF FF  .@.H...ÿÿÿÿ..?ÿÿ
  0000000010207890: C9 C3 90 90 90 90 90 90 90 90 90 90 90 90 90 90  É?..............
  00000000102078A0: 55 48 8B EC 48 81 EC A0 03 00 00 48 89 9D 80 FC  UH.?H.?....H...ü
  00000000102078B0: FF FF 48 89 B5 88 FC FF FF 48 89 BD 90 FC FF FF  ÿÿH.µ.üÿÿH.½.üÿÿ
  00000000102078C0: 48 8D 1D 39 D7 FF FF 48 C7 45 F8 00 00 00 00 48  H..9×ÿÿHÇEø....H
  00000000102078D0: C7 45 F0 00 00 00 00 48 C7 45 B8 00 00 00 00 48  ÇE?....HÇE¸....H
  00000000102078E0: C7 45 B0 00 00 00 00 48 C7 85 A8 FE FF FF 00 00  ÇE°....HÇ.¨?ÿÿ..
  00000000102078F0: 00 00 48 C7 45 E0 00 00 00 00 48 8B 83 B0 ED FF  ..HÇEà....H..°íÿ
  0000000010207900: FF 48 83 E8 02 48 39 45 E0 0F 8F 5B 01 00 00 48  ÿH.è.H9Eà..[...H
  0000000010207910: 8B 45 E0 48 89 45 D0 48 8B 45 E0 48 83 C0 01 48  .EàH.E?H.EàH.À.H
  0000000010207920: 89 45 D8 48 8B 83 B0 ED FF FF 48 83 E8 01 48 39  .EØH..°íÿÿH.è.H9
  0000000010207930: 45 D8 7F 74 48 8D 83 B0 C5 FF FF 48 8B 4D D0 48  EØ.tH..°ÅÿÿH.M?H
  0000000010207940: 81 F9 00 01 00 00 73 02 EB 08 B0 01 B9 3F 4A 00  .ù....s.ë.°.¹?J.
  0000000010207950: 00 CC 48 C1 E1 03 48 03 C1 48 8B 00 48 8B 80 B8  .?HÁá.H.ÁH..H..¸
  0000000010207960: 02 00 00 48 8D 8B B0 C5 FF FF 48 8B 55 D8 48 81  ...H..°ÅÿÿH.UØH.
  0000000010207970: FA 00 01 00 00 73 02 EB 08 B0 01 B9 50 4A 00 00  ú....s.ë.°.¹PJ..
  0000000010207980: CC 48 C1 E2 03 48 03 CA 48 8B 09 48 8B 89 B8 02  ?HÁâ.H.ÊH..H..¸.
  0000000010207990: 00 00 48 3B C1 7E 08 48 8B 45 D8 48 89 45 D0 48  ..H;Á~.H.EØH.E?H
  00000000102079A0: FF 45 D8 E9 7B FF FF FF 48 8B 45 E0 48 8B 4D D0  ÿEØé{ÿÿÿH.EàH.M?
  00000000102079B0: 48 3B C1 0F 84 A8 00 00 00 48 8D 83 B0 C5 FF FF  H;Á..¨...H..°Åÿÿ
  00000000102079C0: 48 8B 4D E0 48 81 F9 00 01 00 00 73 02 EB 08 B0  H.MàH.ù....s.ë.°
  00000000102079D0: 01 B9 92 4A 00 00 CC 48 C1 E1 03 48 03 C1 48 8B  .¹.J..?HÁá.H.ÁH.
  00000000102079E0: 00 48 89 45 B8 48 8D 83 B0 C5 FF FF 48 8B 4D E0  .H.E¸H..°ÅÿÿH.Mà
  00000000102079F0: 48 81 F9 00 01 00 00 73 02 EB 08 B0 01 B9 A2 4A  H.ù....s.ë.°.¹¢J
  0000000010207A00: 00 00 CC 48 C1 E1 03 48 03 C1 48 8D 8B B0 C5 FF  ..?HÁá.H.ÁH..°Åÿ
  0000000010207A10: FF 48 8B 55 D0 48 81 FA 00 01 00 00 73 02 EB 08  ÿH.U?H.ú....s.ë.
  0000000010207A20: B0 01 B9 B0 4A 00 00 CC 48 C1 E2 03 48 03 CA 48  °.¹°J..?HÁâ.H.ÊH
  0000000010207A30: 8B 09 48 89 08 48 8D 83 B0 C5 FF FF 48 8B 4D D0  ..H..H..°ÅÿÿH.M?
  0000000010207A40: 48 81 F9 00 01 00 00 73 02 EB 08 B0 01 B9 BC 4A  H.ù....s.ë.°.¹¼J
  0000000010207A50: 00 00 CC 48 C1 E1 03 48 03 C1 48 8B 4D B8 48 89  ..?HÁá.H.ÁH.M¸H.
  0000000010207A60: 08 48 FF 45 E0 E9 90 FE FF FF 48 C7 45 E0 00 00  .HÿEàé.?ÿÿHÇEà..
  0000000010207A70: 00 00 48 8B 83 B0 ED FF FF 48 83 E8 01 48 39 45  ..H..°íÿÿH.è.H9E
  0000000010207A80: E0 0F 8F 57 05 00 00 48 8D 83 B0 C5 FF FF 48 8B  à..W...H..°ÅÿÿH.
  0000000010207A90: 4D E0 48 81 F9 00 01 00 00 73 02 EB 08 B0 01 B9  MàH.ù....s.ë.°.¹
  0000000010207AA0: 07 4B 00 00 CC 48 C1 E1 03 48 03 C1 48 8B 00 48  .K..?HÁá.H.ÁH..H
  0000000010207AB0: 89 45 B8 48 8D 8B D0 ED FF FF 4C 8B 45 B8 4D 8D  .E¸H..?íÿÿL.E¸M.
  0000000010207AC0: 40 28 41 B9 00 01 00 00 48 8B 93 18 FF FF FF FF  @(A¹....H...ÿÿÿÿ
  0000000010207AD0: 93 78 FE FF FF 48 8B 4D B8 48 8D 89 A8 02 00 00  .x?ÿÿH.M¸H..¨...
  0000000010207AE0: E8 6B FD FF FF 48 8D 8B D0 ED FF FF 4C 8B 45 B8  èk?ÿÿH..?íÿÿL.E¸
  0000000010207AF0: 4D 8D 80 B8 02 00 00 48 8B 93 18 FF FF FF E8 8D  M..¸...H...ÿÿÿè.
  0000000010207B00: D5 FF FF E8 C8 E2 FF FF 48 8B 45 E0 48 83 C0 02  ?ÿÿèÈâÿÿH.EàH.À.
  0000000010207B10: 48 F7 D8 48 89 83 88 EE FF FF 31 C0 48 89 45 F8  H÷ØH...îÿÿ1ÀH.Eø
  0000000010207B20: 48 8D 8B D0 ED FF FF 4C 8D 45 E8 48 8B 93 18 FF  H..?íÿÿL.EèH...ÿ
  0000000010207B30: FF FF E8 59 D5 FF FF 48 83 7D E8 FF 0F 84 79 04  ÿÿèY?ÿÿH.}èÿ..y.
  0000000010207B40: 00 00 48 83 7D E8 04 75 75 48 8D 8B D0 ED FF FF  ..H.}è.uuH..?íÿÿ
  0000000010207B50: 4C 8D 85 30 FF FF FF 41 B9 40 00 00 00 48 8B 93  L..0ÿÿÿA¹@...H..
  0000000010207B60: 18 FF FF FF FF 93 88 FE FF FF 48 8D 8B D0 ED FF  .ÿÿÿÿ..?ÿÿH..?íÿ
  0000000010207B70: FF 4C 8D 45 C8 48 8B 93 18 FF FF FF E8 0F D5 FF  ÿL.EÈH...ÿÿÿè.?ÿ
  0000000010207B80: FF 48 8D 8D A8 FE FF FF E8 43 F3 FF FF 48 8B 8D  ÿH..¨?ÿÿèCóÿÿH..
  0000000010207B90: A8 FE FF FF 48 8B 55 C8 E8 C3 D9 FF FF 48 89 45  ¨?ÿÿH.UÈè?ÙÿÿH.E
  0000000010207BA0: F0 48 8B 4D F8 48 8D 95 30 FF FF FF 4C 8B 45 F0  ?H.MøH..0ÿÿÿL.E?
  0000000010207BB0: E8 FB F1 FF FF 48 89 45 F8 E9 E1 03 00 00 48 83  èûñÿÿH.Eøéá...H.
  0000000010207BC0: 7D E8 01 75 5A 48 8D 8B D0 ED FF FF 4C 8D 85 30  }è.uZH..?íÿÿL..0
  0000000010207BD0: FF FF FF 41 B9 40 00 00 00 48 8B 93 18 FF FF FF  ÿÿÿA¹@...H...ÿÿÿ
  0000000010207BE0: FF 93 88 FE FF FF 48 8D 8D A8 FE FF FF E8 DE F2  ÿ..?ÿÿH..¨?ÿÿè??
  0000000010207BF0: FF FF 48 8B 8D A8 FE FF FF E8 82 DD FF FF 48 89  ÿÿH..¨?ÿÿè.?ÿÿH.
  0000000010207C00: 45 F0 48 8B 4D F8 48 8D 95 30 FF FF FF 4C 8B 45  E?H.MøH..0ÿÿÿL.E
  0000000010207C10: F0 E8 9A F1 FF FF 48 89 45 F8 E9 80 03 00 00 48  ?è.ñÿÿH.Eøé....H
  0000000010207C20: 83 7D E8 03 0F 85 2C 01 00 00 48 8D 8B D0 ED FF  .}è...,...H..?íÿ
  0000000010207C30: FF 4C 8D 85 30 FF FF FF 41 B9 40 00 00 00 48 8B  ÿL..0ÿÿÿA¹@...H.
  0000000010207C40: 93 18 FF FF FF FF 93 88 FE FF FF 48 8D 8B D0 ED  ..ÿÿÿÿ..?ÿÿH..?í
  0000000010207C50: FF FF 4C 8D 45 C8 48 8B 93 18 FF FF FF E8 2E D4  ÿÿL.EÈH...ÿÿÿè.Ô
  0000000010207C60: FF FF 48 8D 8D A8 FE FF FF E8 62 F2 FF FF 48 8B  ÿÿH..¨?ÿÿèb?ÿÿH.
  0000000010207C70: 85 A8 FE FF FF 48 8B 8B C0 EF FF FF 48 3B C1 74  .¨?ÿÿH..ÀïÿÿH;Át
  0000000010207C80: 39 48 8B 8D A8 FE FF FF E8 53 D8 FF FF 48 89 45  9H..¨?ÿÿèSØÿÿH.E
  0000000010207C90: F0 48 8D 83 70 F5 FF FF 48 8B 4D F0 48 8B 49 F8  ?H..p?ÿÿH.M?H.Iø
  0000000010207CA0: 48 39 41 08 75 02 EB 08 B0 02 B9 A4 4D 00 00 CC  H9A.u.ë.°.¹¤M..?
  0000000010207CB0: 48 8B 45 F0 C6 40 40 01 EB 2B 48 8D 8B D0 ED FF  H.E?Æ@@.ë+H..?íÿ
  0000000010207CC0: FF 4C 8D 45 C0 48 8B 93 18 FF FF FF E8 BF D3 FF  ÿL.EÀH...ÿÿÿè¿Óÿ
  0000000010207CD0: FF 48 8D 8B 3E FB FF FF 48 8B 55 C0 E8 4F DA FF  ÿH..>ûÿÿH.UÀèOÚÿ
  0000000010207CE0: FF 48 89 45 F0 48 8D 83 70 F5 FF FF 48 8B 4D F0  ÿH.E?H..p?ÿÿH.M?
  0000000010207CF0: 48 8B 49 F8 48 39 41 08 75 02 EB 08 B0 02 B9 00  H.IøH9A.u.ë.°.¹.
  0000000010207D00: 4E 00 00 CC 48 8B 45 F0 48 8B 4D C8 48 89 48 30  N..?H.E?H.MÈH.H0
  0000000010207D10: 48 8D 83 70 F5 FF FF 48 8B 4D F0 48 8B 49 F8 48  H..p?ÿÿH.M?H.IøH
  0000000010207D20: 39 41 08 75 02 EB 08 B0 02 B9 15 4E 00 00 CC 48  9A.u.ë.°.¹.N..?H
  0000000010207D30: 8B 45 F0 31 C9 48 89 48 28 48 8B 4D F8 48 8D 95  .E?1ÉH.H(H.MøH..
  0000000010207D40: 30 FF FF FF 4C 8B 45 F0 E8 63 F0 FF FF 48 89 45  0ÿÿÿL.E?èc?ÿÿH.E
  0000000010207D50: F8 E9 49 02 00 00 48 83 7D E8 05 0F 85 BD 00 00  øéI...H.}è...½..
  0000000010207D60: 00 48 8D 8B D0 ED FF FF 4C 8D 85 30 FF FF FF 41  .H..?íÿÿL..0ÿÿÿA
  0000000010207D70: B9 40 00 00 00 48 8B 93 18 FF FF FF FF 93 88 FE  ¹@...H...ÿÿÿÿ..?
  0000000010207D80: FF FF E8 89 DB FF FF 48 89 45 F0 48 8D 8B D0 ED  ÿÿè.ÛÿÿH.E?H..?í
  0000000010207D90: FF FF 48 8D 83 30 F6 FF FF 48 8B 55 F0 48 8B 52  ÿÿH..0öÿÿH.U?H.R
  0000000010207DA0: F8 48 39 42 08 75 02 EB 08 B0 02 B9 B6 4E 00 00  øH9B.u.ë.°.¹¶N..
  0000000010207DB0: CC 4C 8B 45 F0 4D 8D 40 30 48 8B 93 18 FF FF FF  ?L.E?M.@0H...ÿÿÿ
  0000000010207DC0: E8 CB D2 FF FF 48 8D 83 30 F6 FF FF 48 8B 4D F0  èË?ÿÿH..0öÿÿH.M?
  0000000010207DD0: 48 8B 49 F8 48 39 41 08 75 02 EB 08 B0 02 B9 CB  H.IøH9A.u.ë.°.¹Ë
  0000000010207DE0: 4E 00 00 CC 48 8B 45 F0 31 C9 48 89 48 28 48 8B  N..?H.E?1ÉH.H(H.
  0000000010207DF0: 4D F0 48 8D 49 08 31 D2 48 83 C2 FF E8 1F F5 FF  M?H.I.1?H.Âÿè.?ÿ
  0000000010207E00: FF 48 8B 4D F8 48 8D 95 30 FF FF FF 4C 8B 45 F0  ÿH.MøH..0ÿÿÿL.E?
  0000000010207E10: E8 9B EF FF FF 48 89 45 F8 E9 81 01 00 00 48 83  è.ïÿÿH.Eøé....H.
  0000000010207E20: 7D E8 00 0F 85 76 01 00 00 48 8D 8B D0 ED FF FF  }è...v...H..?íÿÿ
  0000000010207E30: 4C 8D 85 30 FF FF FF 41 B9 40 00 00 00 48 8B 93  L..0ÿÿÿA¹@...H..
  0000000010207E40: 18 FF FF FF FF 93 88 FE FF FF 48 8D 8D 98 FE FF  .ÿÿÿÿ..?ÿÿH...?ÿ
  0000000010207E50: FF E8 FA F9 FF FF 48 8D 8D 30 FF FF FF E8 5E EE  ÿèúùÿÿH..0ÿÿÿè^î
  0000000010207E60: FF FF 48 89 45 B0 48 8D B5 30 FF FF FF 48 8D BB  ÿÿH.E°H.µ0ÿÿÿH.»
  0000000010207E70: 00 EE FF FF 31 C0 48 83 C0 01 48 83 F8 40 77 02  .îÿÿ1ÀH.À.H.ø@w.
  0000000010207E80: EB 08 B0 07 B9 A4 4F 00 00 CC 48 83 F8 40 77 02  ë.°.¹¤O..?H.ø@w.
  0000000010207E90: EB 08 B0 07 B9 A4 4F 00 00 CC 66 A7 75 07 66 83  ë.°.¹¤O..?f§u.f.
  0000000010207EA0: 7E FE 00 75 D1 75 17 48 8D 8B 40 FB FF FF BA 14  ~?.uÑu.H..@ûÿÿº.
  0000000010207EB0: 00 00 00 FF 93 00 FF FF FF E9 E1 00 00 00 48 83  ...ÿ..ÿÿÿéá...H.
  0000000010207EC0: 7D B0 00 0F 84 D6 00 00 00 48 8B 45 B0 48 8B 80  }°...Ö...H.E°H..
  0000000010207ED0: A8 02 00 00 48 8B 8D 98 FE FF FF 48 3B C1 75 1B  ¨...H...?ÿÿH;Áu.
  0000000010207EE0: 48 8B 45 B0 48 8B 80 B0 02 00 00 48 8B 8D A0 FE  H.E°H..°...H...?
  0000000010207EF0: FF FF 48 3B C1 0F 84 A4 00 00 00 48 8D BD 98 FC  ÿÿH;Á..¤...H.½.ü
  0000000010207F00: FF FF 48 8D B3 70 FB FF FF B9 02 00 00 00 F3 48  ÿÿH.³pûÿÿ¹....óH
  0000000010207F10: A5 48 8D 8D 30 FF FF FF 4C 8D 85 98 FC FF FF 41  ¥H..0ÿÿÿL...üÿÿA
  0000000010207F20: B9 00 01 00 00 BA 40 00 00 00 E8 B1 D2 FF FF 48  ¹....º@...è±?ÿÿH
  0000000010207F30: 8D 8B 80 FB FF FF 4C 8D 85 98 FC FF FF 41 B9 00  ...ûÿÿL...üÿÿA¹.
  0000000010207F40: 01 00 00 BA 12 00 00 00 E8 93 D2 FF FF 48 8B 4D  ...º....è.?ÿÿH.M
  0000000010207F50: B8 48 8D 89 28 02 00 00 4C 8D 85 98 FC FF FF 41  ¸H..(...L...üÿÿA
  0000000010207F60: B9 00 01 00 00 BA 40 00 00 00 E8 71 D2 FF FF 48  ¹....º@...èq?ÿÿH
  0000000010207F70: 8D 8B B0 FB FF FF 4C 8D 85 98 FC FF FF 41 B9 00  ..°ûÿÿL...üÿÿA¹.
  0000000010207F80: 01 00 00 BA 16 00 00 00 E8 53 D2 FF FF 48 8D 8D  ...º....èS?ÿÿH..
  0000000010207F90: 98 FC FF FF BA 00 01 00 00 FF 93 00 FF FF FF 48  .üÿÿº....ÿ..ÿÿÿH
  0000000010207FA0: 8D 8B D0 ED FF FF 4C 8D 45 E8 48 8B 93 18 FF FF  ..?íÿÿL.EèH...ÿÿ
  0000000010207FB0: FF E8 DA D0 FF FF E9 7C FB FF FF 48 8B 45 B8 48  ÿèÚ?ÿÿé|ûÿÿH.E¸H
  0000000010207FC0: 8B 8B A0 EE FF FF 48 8B 09 48 89 88 C8 02 00 00  ...îÿÿH..H..È...
  0000000010207FD0: E8 5B DE FF FF 48 FF 45 E0 E9 94 FA FF FF 48 8D  è[?ÿÿHÿEàé.úÿÿH.
  0000000010207FE0: 8B D0 ED FF FF 48 8B 93 18 FF FF FF FF 93 A8 FE  .?íÿÿH...ÿÿÿÿ.¨?
  0000000010207FF0: FF FF 31 C0 48 89 83 88 EE FF FF 48 8B 9D 80 FC  ÿÿ1ÀH...îÿÿH...ü
  0000000010208000: FF FF 48 8B B5 88 FC FF FF 48 8B BD 90 FC FF FF  ÿÿH.µ.üÿÿH.½.üÿÿ
  0000000010208010: C9 C3 90 90 90 90 90 90 90 90 90 90 90 90 90 90  É?..............
  0000000010208020: 55 48 8B EC 48 81 EC 40 02 00 00 48 89 9D E0 FD  UH.?H.?@...H..à?
  0000000010208030: FF FF 48 89 B5 E8 FD FF FF 48 89 BD F0 FD FF FF  ÿÿH.µè?ÿÿH.½??ÿÿ
  0000000010208040: 48 8D 1D B9 CF FF FF 48 89 4D 10 48 89 55 18 48  H..¹ÏÿÿH.M.H.U.H
  0000000010208050: C7 85 F8 FD FF FF 00 00 00 00 31 C0 66 89 85 00  Ç.ø?ÿÿ....1Àf...
  0000000010208060: FE FF FF 48 8B 4D 18 4C 8D 85 00 FE FF FF 41 B9  ?ÿÿH.M.L...?ÿÿA¹
  0000000010208070: 00 01 00 00 BA 40 00 00 00 E8 62 D1 FF FF 48 8D  ....º@...èbÑÿÿH.
  0000000010208080: 8B F0 FB FF FF 4C 8D 85 00 FE FF FF 41 B9 00 01  .?ûÿÿL...?ÿÿA¹..
  0000000010208090: 00 00 BA 05 00 00 00 E8 44 D1 FF FF 48 8B 75 18  ..º....èDÑÿÿH.u.
  00000000102080A0: 48 8D BB 00 FC FF FF 31 C0 48 83 C0 01 48 83 F8  H.».üÿÿ1ÀH.À.H.ø
  00000000102080B0: 40 77 02 EB 08 B0 07 B9 48 52 00 00 CC 48 83 F8  @w.ë.°.¹HR..?H.ø
  00000000102080C0: 07 77 02 EB 08 B0 07 B9 48 52 00 00 CC 66 A7 75  .w.ë.°.¹HR..?f§u
  00000000102080D0: 07 66 83 7E FE 00 75 D1 0F 85 C9 00 00 00 48 8B  .f.~?.uÑ..É...H.
  00000000102080E0: 4B C0 BA 08 00 00 00 41 B8 F0 02 00 00 FF 53 E8  KÀº....A¸?...ÿSè
  00000000102080F0: 48 83 C0 10 48 8D 8B 00 F7 FF FF 48 89 48 F8 48  H.À.H...÷ÿÿH.HøH
  0000000010208100: 89 85 F8 FD FF FF 48 8B BD F8 FD FF FF 48 8D BF  ..ø?ÿÿH.½ø?ÿÿH.¿
  0000000010208110: 28 02 00 00 48 8B 75 18 31 C9 31 C0 48 83 C1 01  (...H.u.1É1ÀH.Á.
  0000000010208120: BA 40 00 00 00 48 3B CA 77 02 EB 08 B0 07 B9 64  º@...H;Êw.ë.°.¹d
  0000000010208130: 52 00 00 CC BA 40 00 00 00 48 3B CA 77 02 EB 08  R..?º@...H;Êw.ë.
  0000000010208140: B0 07 B9 64 52 00 00 CC 66 AD 66 AB 85 C0 75 CC  °.¹dR..?f­f«.Àu?
  0000000010208150: 48 8B 85 F8 FD FF FF 48 C7 80 B8 02 00 00 FF FF  H..ø?ÿÿHÇ.¸...ÿÿ
  0000000010208160: FF FF 48 8B 85 F8 FD FF FF 48 8B 8B 90 EE FF FF  ÿÿH..ø?ÿÿH...îÿÿ
  0000000010208170: 48 8B 09 48 89 88 C8 02 00 00 48 83 7D 10 00 74  H..H..È...H.}..t
  0000000010208180: 21 48 8B 45 10 48 8B 8D F8 FD FF FF 48 89 88 88  !H.E.H..ø?ÿÿH...
  0000000010208190: 00 00 00 48 8B 85 F8 FD FF FF 48 8B 4D 10 48 89  ...H..ø?ÿÿH.M.H.
  00000000102081A0: 48 10 E9 26 02 00 00 48 8D 8D 00 FE FF FF BA 00  H.é&...H...?ÿÿº.
  00000000102081B0: 01 00 00 FF 93 70 FE FF FF 85 C0 0F 84 FA 01 00  ...ÿ.p?ÿÿ.À..ú..
  00000000102081C0: 00 48 8B 4B C0 BA 08 00 00 00 41 B8 F0 02 00 00  .H.KÀº....A¸?...
  00000000102081D0: FF 53 E8 48 83 C0 10 48 8D 8B 00 F7 FF FF 48 89  ÿSèH.À.H...÷ÿÿH.
  00000000102081E0: 48 F8 48 89 85 F8 FD FF FF 48 8B BD F8 FD FF FF  HøH..ø?ÿÿH.½ø?ÿÿ
  00000000102081F0: 48 8D BF 28 02 00 00 48 8B 75 18 31 C9 31 C0 48  H.¿(...H.u.1É1ÀH
  0000000010208200: 83 C1 01 BA 40 00 00 00 48 3B CA 77 02 EB 08 B0  .Á.º@...H;Êw.ë.°
  0000000010208210: 07 B9 39 53 00 00 CC BA 40 00 00 00 48 3B CA 77  .¹9S..?º@...H;Êw
  0000000010208220: 02 EB 08 B0 07 B9 39 53 00 00 CC 66 AD 66 AB 85  .ë.°.¹9S..?f­f«.
  0000000010208230: C0 75 CC 48 8B BD F8 FD FF FF 48 8D 7F 28 48 8D  Àu?H.½ø?ÿÿH..(H.
  0000000010208240: B5 00 FE FF FF 31 C9 31 C0 48 83 C1 01 BA 00 01  µ.?ÿÿ1É1ÀH.Á.º..
  0000000010208250: 00 00 48 3B CA 77 02 EB 08 B0 07 B9 54 53 00 00  ..H;Êw.ë.°.¹TS..
  0000000010208260: CC BA 00 01 00 00 48 3B CA 77 02 EB 08 B0 07 B9  ?º....H;Êw.ë.°.¹
  0000000010208270: 54 53 00 00 CC 66 AD 66 AB 85 C0 75 CC 48 8B 85  TS..?f­f«.Àu?H..
  0000000010208280: F8 FD FF FF 31 C9 48 89 88 B8 02 00 00 48 8B 85  ø?ÿÿ1ÉH..¸...H..
  0000000010208290: F8 FD FF FF 31 C9 48 89 88 C0 02 00 00 48 83 7D  ø?ÿÿ1ÉH..À...H.}
  00000000102082A0: 10 00 74 21 48 8B 45 10 48 8B 8D F8 FD FF FF 48  ..t!H.E.H..ø?ÿÿH
  00000000102082B0: 89 88 88 00 00 00 48 8B 85 F8 FD FF FF 48 8B 4D  ......H..ø?ÿÿH.M
  00000000102082C0: 10 48 89 48 10 48 8D 83 B0 C5 FF FF 48 8B 8B B0  .H.H.H..°ÅÿÿH..°
  00000000102082D0: ED FF FF 48 81 F9 00 01 00 00 73 02 EB 08 B0 01  íÿÿH.ù....s.ë.°.
  00000000102082E0: B9 E8 53 00 00 CC 48 C1 E1 03 48 03 C1 48 8B 8D  ¹èS..?HÁá.H.ÁH..
  00000000102082F0: F8 FD FF FF 48 89 08 48 FF 83 B0 ED FF FF 48 8D  ø?ÿÿH..Hÿ.°íÿÿH.
  0000000010208300: 8B D0 ED FF FF 4C 8D 85 00 FE FF FF 41 B9 00 01  .?íÿÿL...?ÿÿA¹..
  0000000010208310: 00 00 48 8B 93 18 FF FF FF FF 93 78 FE FF FF 48  ..H...ÿÿÿÿ.x?ÿÿH
  0000000010208320: 8B 8D F8 FD FF FF 48 8D 89 A8 02 00 00 E8 1E F5  ..ø?ÿÿH..¨...è.?
  0000000010208330: FF FF 48 8D 8B D0 ED FF FF 4C 8B 85 F8 FD FF FF  ÿÿH..?íÿÿL..ø?ÿÿ
  0000000010208340: 4D 8D 80 B8 02 00 00 48 8B 93 18 FF FF FF E8 3D  M..¸...H...ÿÿÿè=
  0000000010208350: CD FF FF 48 8B 85 F8 FD FF FF 48 8B 80 B8 02 00  ÍÿÿH..ø?ÿÿH..¸..
  0000000010208360: 00 48 8B 8B 80 EE FF FF 48 3B C1 7C 38 48 8B 85  .H...îÿÿH;Á|8H..
  0000000010208370: F8 FD FF FF 48 8B 80 B8 02 00 00 48 83 C0 01 48  ø?ÿÿH..¸...H.À.H
  0000000010208380: 89 83 80 EE FF FF 48 81 BB 80 EE FF FF FF 00 00  ...îÿÿH.».îÿÿÿ..
  0000000010208390: 00 7E 12 48 8D 8B 10 FC FF FF BA 16 00 00 00 FF  .~.H...üÿÿº....ÿ
  00000000102083A0: 93 00 FF FF FF 48 8D 8B D0 ED FF FF 48 8B 93 18  ..ÿÿÿH..?íÿÿH...
  00000000102083B0: FF FF FF FF 93 A8 FE FF FF EB 12 48 8D 8B 40 FC  ÿÿÿÿ.¨?ÿÿë.H..@ü
  00000000102083C0: FF FF BA 18 00 00 00 FF 93 00 FF FF FF 48 8B 9D  ÿÿº....ÿ..ÿÿÿH..
  00000000102083D0: E0 FD FF FF 48 8B B5 E8 FD FF FF 48 8B BD F0 FD  à?ÿÿH.µè?ÿÿH.½??
  00000000102083E0: FF FF C9 C3 90 90 90 90 90 90 90 90 90 90 90 90  ÿÿÉ?............
  00000000102083F0: 55 48 8B EC 48 83 EC 40 48 89 5D E0 48 89 75 E8  UH.?H.?@H.]àH.uè
  0000000010208400: 48 89 7D F0 48 8D 1D F5 CB FF FF 48 89 4D 10 48  H.}?H..?ËÿÿH.M.H
  0000000010208410: 8B 4B C0 BA 08 00 00 00 41 B8 20 00 00 00 FF 53  .KÀº....A¸ ...ÿS
  0000000010208420: E8 48 83 C0 10 48 8D 8B 30 F8 FF FF 48 89 48 F8  èH.À.H..0øÿÿH.Hø
  0000000010208430: 48 89 83 98 EE FF FF 48 8B 83 98 EE FF FF 48 89  H...îÿÿH...îÿÿH.
  0000000010208440: 83 A0 EE FF FF 48 C7 83 88 EE FF FF FF FF FF FF  ..îÿÿHÇ..îÿÿÿÿÿÿ
  0000000010208450: 48 8D BB 00 EE FF FF 48 8B 75 10 31 C9 31 C0 48  H.».îÿÿH.u.1É1ÀH
  0000000010208460: 83 C1 01 BA 40 00 00 00 48 3B CA 77 02 EB 08 B0  .Á.º@...H;Êw.ë.°
  0000000010208470: 07 B9 A0 55 00 00 CC BA 40 00 00 00 48 3B CA 77  .¹.U..?º@...H;Êw
  0000000010208480: 02 EB 08 B0 07 B9 A0 55 00 00 CC 66 AD 66 AB 85  .ë.°.¹.U..?f­f«.
  0000000010208490: C0 75 CC 31 C0 48 89 83 B0 ED FF FF 31 C0 48 89  Àu?1ÀH..°íÿÿ1ÀH.
  00000000102084A0: 83 A8 C5 DF FF 48 8B 8B F8 EF FF FF E8 CF D4 FF  .¨ÅßÿH..øïÿÿèÏÔÿ
  00000000102084B0: FF 48 8D 93 70 FC FF FF 48 8B C8 E8 E0 D9 FF FF  ÿH..püÿÿH.ÈèàÙÿÿ
  00000000102084C0: 48 8B 8B F0 EF FF FF E8 B4 D4 FF FF 48 8D 93 80  H..?ïÿÿè´ÔÿÿH...
  00000000102084D0: FC FF FF 48 8B C8 E8 C5 D9 FF FF 48 8B 8B E8 EF  üÿÿH.ÈèÅÙÿÿH..èï
  00000000102084E0: FF FF E8 99 D4 FF FF 48 8D 93 90 FC FF FF 48 8B  ÿÿè.ÔÿÿH...üÿÿH.
  00000000102084F0: C8 E8 AA D9 FF FF 48 8B 8B D8 EF FF FF E8 7E D4  ÈèªÙÿÿH..Øïÿÿè~Ô
  0000000010208500: FF FF 48 8D 93 A8 FC FF FF 48 8B C8 E8 8F D9 FF  ÿÿH..¨üÿÿH.Èè.Ùÿ
  0000000010208510: FF 48 8B 8B E0 EF FF FF E8 63 D4 FF FF 48 8D 93  ÿH..àïÿÿècÔÿÿH..
  0000000010208520: B0 FC FF FF 48 8B C8 E8 74 D9 FF FF 48 8B 8B D0  °üÿÿH.ÈètÙÿÿH..?
  0000000010208530: EF FF FF E8 48 D4 FF FF 48 8D 93 C0 FC FF FF 48  ïÿÿèHÔÿÿH..ÀüÿÿH
  0000000010208540: 8B C8 E8 59 D9 FF FF B9 82 00 00 00 BA 07 00 00  .ÈèYÙÿÿ¹....º...
  0000000010208550: 00 E8 AA D4 FF FF 48 8D 93 D0 FC FF FF 48 8B C8  .èªÔÿÿH..?üÿÿH.È
  0000000010208560: E8 3B D9 FF FF B9 83 00 00 00 BA 07 00 00 00 E8  è;Ùÿÿ¹....º....è
  0000000010208570: 8C D4 FF FF 48 8D 93 D8 FC FF FF 48 8B C8 E8 1D  .ÔÿÿH..ØüÿÿH.Èè.
  0000000010208580: D9 FF FF B9 84 00 00 00 BA 07 00 00 00 E8 6E D4  Ùÿÿ¹....º....ènÔ
  0000000010208590: FF FF 48 8D 93 E0 FC FF FF 48 8B C8 E8 FF D8 FF  ÿÿH..àüÿÿH.ÈèÿØÿ
  00000000102085A0: FF B9 85 00 00 00 BA 07 00 00 00 E8 50 D4 FF FF  ÿ¹....º....èPÔÿÿ
  00000000102085B0: 48 8D 93 F0 FC FF FF 48 8B C8 E8 E1 D8 FF FF B9  H..?üÿÿH.ÈèáØÿÿ¹
  00000000102085C0: 04 00 00 00 BA 07 00 00 00 E8 32 D4 FF FF 48 8D  ....º....è2ÔÿÿH.
  00000000102085D0: 93 08 FD FF FF 48 8B C8 E8 C3 D8 FF FF B9 05 00  ..?ÿÿH.Èè?Øÿÿ¹..
  00000000102085E0: 00 00 BA 07 00 00 00 E8 14 D4 FF FF 48 8D 93 10  ..º....è.ÔÿÿH...
  00000000102085F0: FD FF FF 48 8B C8 E8 A5 D8 FF FF B9 06 00 00 00  ?ÿÿH.Èè¥Øÿÿ¹....
  0000000010208600: BA 07 00 00 00 E8 F6 D3 FF FF 48 8D 93 20 FD FF  º....èöÓÿÿH.. ?ÿ
  0000000010208610: FF 48 8B C8 E8 87 D8 FF FF B9 07 00 00 00 BA 07  ÿH.Èè.Øÿÿ¹....º.
  0000000010208620: 00 00 00 E8 D8 D3 FF FF 48 8D 93 30 FD FF FF 48  ...èØÓÿÿH..0?ÿÿH
  0000000010208630: 8B C8 E8 69 D8 FF FF B9 08 00 00 00 BA 08 00 00  .ÈèiØÿÿ¹....º...
  0000000010208640: 00 E8 BA D3 FF FF 48 8D 93 40 FD FF FF 48 8B C8  .èºÓÿÿH..@?ÿÿH.È
  0000000010208650: E8 4B D8 FF FF B9 09 00 00 00 BA 08 00 00 00 E8  èKØÿÿ¹....º....è
  0000000010208660: 9C D3 FF FF 48 8D 93 48 FD FF FF 48 8B C8 E8 2D  .ÓÿÿH..H?ÿÿH.Èè-
  0000000010208670: D8 FF FF B9 0A 00 00 00 BA 08 00 00 00 E8 7E D3  Øÿÿ¹....º....è~Ó
  0000000010208680: FF FF 48 8D 93 50 FD FF FF 48 8B C8 E8 0F D8 FF  ÿÿH..P?ÿÿH.Èè.Øÿ
  0000000010208690: FF B9 71 00 00 00 BA 08 00 00 00 E8 60 D3 FF FF  ÿ¹q...º....è`Óÿÿ
  00000000102086A0: 48 8D 93 58 FD FF FF 48 8B C8 E8 F1 D7 FF FF B9  H..X?ÿÿH.Èèñ×ÿÿ¹
  00000000102086B0: 72 00 00 00 BA 08 00 00 00 E8 42 D3 FF FF 48 8D  r...º....èBÓÿÿH.
  00000000102086C0: 93 60 FD FF FF 48 8B C8 E8 D3 D7 FF FF B9 73 00  .`?ÿÿH.ÈèÓ×ÿÿ¹s.
  00000000102086D0: 00 00 BA 08 00 00 00 E8 24 D3 FF FF 48 8D 93 68  ..º....è$ÓÿÿH..h
  00000000102086E0: FD FF FF 48 8B C8 E8 B5 D7 FF FF B9 0E 00 00 00  ?ÿÿH.Èèµ×ÿÿ¹....
  00000000102086F0: BA 08 00 00 00 E8 06 D3 FF FF 48 8D 93 70 FD FF  º....è.ÓÿÿH..p?ÿ
  0000000010208700: FF 48 8B C8 E8 97 D7 FF FF B9 0F 00 00 00 BA 08  ÿH.Èè.×ÿÿ¹....º.
  0000000010208710: 00 00 00 E8 E8 D2 FF FF 48 8D 93 88 FD FF FF 48  ...èè?ÿÿH...?ÿÿH
  0000000010208720: 8B C8 E8 79 D7 FF FF B9 10 00 00 00 BA 08 00 00  .Èèy×ÿÿ¹....º...
  0000000010208730: 00 E8 CA D2 FF FF 48 8D 93 90 FD FF FF 48 8B C8  .èÊ?ÿÿH...?ÿÿH.È
  0000000010208740: E8 5B D7 FF FF B9 11 00 00 00 BA 08 00 00 00 E8  è[×ÿÿ¹....º....è
  0000000010208750: AC D2 FF FF 48 8D 93 98 FD FF FF 48 8B C8 E8 3D  ¬?ÿÿH...?ÿÿH.Èè=
  0000000010208760: D7 FF FF E8 68 D6 FF FF B9 12 00 00 00 BA 07 00  ×ÿÿèhÖÿÿ¹....º..
  0000000010208770: 00 00 E8 89 D2 FF FF 48 8D 93 A0 FD FF FF 48 8B  ..è.?ÿÿH...?ÿÿH.
  0000000010208780: C8 E8 1A D7 FF FF B9 13 00 00 00 BA 07 00 00 00  Èè.×ÿÿ¹....º....
  0000000010208790: E8 6B D2 FF FF 48 8D 93 A8 FD FF FF 48 8B C8 E8  èk?ÿÿH..¨?ÿÿH.Èè
  00000000102087A0: FC D6 FF FF B9 14 00 00 00 BA 07 00 00 00 E8 4D  üÖÿÿ¹....º....èM
  00000000102087B0: D2 FF FF 48 8D 93 B0 FD FF FF 48 8B C8 E8 DE D6  ?ÿÿH..°?ÿÿH.Èè?Ö
  00000000102087C0: FF FF B9 15 00 00 00 BA 07 00 00 00 E8 2F D2 FF  ÿÿ¹....º....è/?ÿ
  00000000102087D0: FF 48 8D 93 C0 FD FF FF 48 8B C8 E8 C0 D6 FF FF  ÿH..À?ÿÿH.ÈèÀÖÿÿ
  00000000102087E0: B9 16 00 00 00 BA 07 00 00 00 E8 11 D2 FF FF 48  ¹....º....è.?ÿÿH
  00000000102087F0: 8D 93 E0 FD FF FF 48 8B C8 E8 A2 D6 FF FF B9 8D  ..à?ÿÿH.Èè¢Öÿÿ¹.
  0000000010208800: 00 00 00 BA 07 00 00 00 E8 F3 D1 FF FF 48 8D 93  ...º....èóÑÿÿH..
  0000000010208810: 00 FE FF FF 48 8B C8 E8 84 D6 FF FF B9 17 00 00  .?ÿÿH.Èè.Öÿÿ¹...
  0000000010208820: 00 BA 08 00 00 00 E8 D5 D1 FF FF 48 8D 93 18 FE  .º....è?ÑÿÿH...?
  0000000010208830: FF FF 48 8B C8 E8 66 D6 FF FF B9 18 00 00 00 BA  ÿÿH.ÈèfÖÿÿ¹....º
  0000000010208840: 08 00 00 00 E8 B7 D1 FF FF 48 8D 93 20 FE FF FF  ....è·ÑÿÿH.. ?ÿÿ
  0000000010208850: 48 8B C8 E8 48 D6 FF FF B9 19 00 00 00 BA 08 00  H.ÈèHÖÿÿ¹....º..
  0000000010208860: 00 00 E8 99 D1 FF FF 48 8D 93 30 FE FF FF 48 8B  ..è.ÑÿÿH..0?ÿÿH.
  0000000010208870: C8 E8 2A D6 FF FF B9 1A 00 00 00 BA 08 00 00 00  Èè*Öÿÿ¹....º....
  0000000010208880: E8 7B D1 FF FF 48 8D 93 38 FE FF FF 48 8B C8 E8  è{ÑÿÿH..8?ÿÿH.Èè
  0000000010208890: 0C D6 FF FF 48 8B 8B F0 EF FF FF E8 E0 D0 FF FF  .ÖÿÿH..?ïÿÿèà?ÿÿ
  00000000102088A0: 48 8D 93 40 FE FF FF 48 8B C8 E8 F1 D5 FF FF 48  H..@?ÿÿH.Èèñ?ÿÿH
  00000000102088B0: 8B 83 A0 EE FF FF 48 89 83 90 EE FF FF E8 6E D5  ...îÿÿH...îÿÿèn?
  00000000102088C0: FF FF E8 49 D0 FF FF 48 89 83 B0 EE FF FF 48 8B  ÿÿèI?ÿÿH..°îÿÿH.
  00000000102088D0: B3 B0 EE FF FF E8 46 D4 FF FF 48 89 46 08 E8 ED  ³°îÿÿèFÔÿÿH.F.èí
  00000000102088E0: D4 FF FF 48 8B 8B B0 EE FF FF 48 8B 49 08 48 8B  ÔÿÿH..°îÿÿH.I.H.
  00000000102088F0: 93 C0 EF FF FF 45 31 C0 E8 E3 CC FF FF 48 8D 93  .ÀïÿÿE1Àè??ÿÿH..
  0000000010208900: 5C FE FF FF 48 8B C8 E8 94 D5 FF FF 48 8B 83 B0  \?ÿÿH.Èè.?ÿÿH..°
  0000000010208910: EE FF FF 48 8B 40 08 48 8B 8B A0 EE FF FF 48 8B  îÿÿH.@.H...îÿÿH.
  0000000010208920: 09 48 89 48 48 E8 06 D5 FF FF 48 8B 83 B0 EE FF  .H.HHè.?ÿÿH..°îÿ
  0000000010208930: FF 48 8B 40 08 48 C7 40 50 08 00 00 00 48 8B 83  ÿH.@.HÇ@P....H..
  0000000010208940: B0 EE FF FF 48 8B 40 08 48 8B 8B F8 EF FF FF 48  °îÿÿH.@.H..øïÿÿH
  0000000010208950: 89 48 40 48 8B 83 B0 EE FF FF 48 C7 40 28 D0 FF  .H@H..°îÿÿHÇ@(?ÿ
  0000000010208960: FF FF E8 A9 CF FF FF 48 89 83 A8 EE FF FF 48 8B  ÿÿè©ÏÿÿH..¨îÿÿH.
  0000000010208970: B3 A8 EE FF FF E8 A6 D3 FF FF 48 89 46 08 E8 4D  ³¨îÿÿè¦ÓÿÿH.F.èM
  0000000010208980: D4 FF FF 48 8B 8B A8 EE FF FF 48 8B 49 08 48 8B  ÔÿÿH..¨îÿÿH.I.H.
  0000000010208990: 93 F8 EF FF FF 45 31 C0 E8 43 CC FF FF 48 8D 93  .øïÿÿE1ÀèC?ÿÿH..
  00000000102089A0: 60 FE FF FF 48 8B C8 E8 F4 D4 FF FF 48 8B 8B A8  `?ÿÿH.ÈèôÔÿÿH..¨
  00000000102089B0: EE FF FF 48 8B 49 08 48 8B 93 F8 EF FF FF 45 31  îÿÿH.I.H..øïÿÿE1
  00000000102089C0: C0 E8 1A CC FF FF 48 8D 93 64 FE FF FF 48 8B C8  Àè.?ÿÿH..d?ÿÿH.È
  00000000102089D0: E8 CB D4 FF FF 48 8B 83 A8 EE FF FF 48 8B 40 08  èËÔÿÿH..¨îÿÿH.@.
  00000000102089E0: 48 8B 8B A0 EE FF FF 48 8B 09 48 89 48 48 E8 3D  H...îÿÿH..H.HHè=
  00000000102089F0: D4 FF FF 48 8B 83 A8 EE FF FF 48 8B 40 08 48 C7  ÔÿÿH..¨îÿÿH.@.HÇ
  0000000010208A00: 40 50 10 00 00 00 48 8B 83 A8 EE FF FF 48 8B 40  @P....H..¨îÿÿH.@
  0000000010208A10: 08 48 8B 8B F8 EF FF FF 48 89 48 40 48 8B 83 A8  .H..øïÿÿH.H@H..¨
  0000000010208A20: EE FF FF 48 C7 40 28 D8 FF FF FF 31 C0 48 89 83  îÿÿHÇ@(Øÿÿÿ1ÀH..
  0000000010208A30: 88 EE FF FF 48 8B 5D E0 48 8B 75 E8 48 8B 7D F0  .îÿÿH.]àH.uèH.}?
  0000000010208A40: C9 C3 90 90 90 90 90 90 90 90 90 90 90 90 90 90  É?..............
  0000000010208A50: 55 48 8B EC 48 83 EC 20 48 8D 05 91 D8 FF FF 48  UH.?H.? H...ØÿÿH
  0000000010208A60: 89 83 98 C5 DF FF 48 8D 05 63 EA FF FF 48 89 83  ...ÅßÿH..cêÿÿH..
  0000000010208A70: 90 C5 DF FF 48 8D 0D 75 C8 FF FF FF 93 68 FE FF  .ÅßÿH..uÈÿÿÿ.h?ÿ
  0000000010208A80: FF 31 C0 48 89 83 C0 ED FF FF 31 C0 48 89 83 B8  ÿ1ÀH..Àíÿÿ1ÀH..¸
  0000000010208A90: EE FF FF 48 C7 83 88 EE FF FF FF FF FF FF 48 8D  îÿÿHÇ..îÿÿÿÿÿÿH.
  0000000010208AA0: 8B F8 EF FF FF 31 D2 E8 B4 D2 FF FF 48 8D 8B F0  .øïÿÿ1?è´?ÿÿH..?
  0000000010208AB0: EF FF FF 31 D2 E8 A6 D2 FF FF 48 8D 8B E0 EF FF  ïÿÿ1?è¦?ÿÿH..àïÿ
  0000000010208AC0: FF BA 01 00 00 00 E8 95 D2 FF FF 48 8D 8B D8 EF  ÿº....è.?ÿÿH..Øï
  0000000010208AD0: FF FF BA 02 00 00 00 E8 84 D2 FF FF 48 8D 8B D0  ÿÿº....è.?ÿÿH..?
  0000000010208AE0: EF FF FF BA 03 00 00 00 E8 73 D2 FF FF 48 8D 8B  ïÿÿº....ès?ÿÿH..
  0000000010208AF0: C8 EF FF FF BA 0A 00 00 00 E8 62 D2 FF FF 48 8D  Èïÿÿº....èb?ÿÿH.
  0000000010208B00: 8B E8 EF FF FF BA 04 00 00 00 E8 51 D2 FF FF 48  .èïÿÿº....èQ?ÿÿH
  0000000010208B10: 8D 8B C0 EF FF FF BA 09 00 00 00 E8 40 D2 FF FF  ..Àïÿÿº....è@?ÿÿ
  0000000010208B20: 48 8D 8B B8 EF FF FF BA 1F 00 00 00 E8 2F D2 FF  H..¸ïÿÿº....è/?ÿ
  0000000010208B30: FF C9 C3 90 90 90 90 90 90 90 90 90 90 90 90 90  ÿÉ?.............
  0000000010208B40: 83 FA 01 74 01 C3 56 57 53 48 83 EC 20 48 8D 1D  .ú.t.?VWSH.? H..
  0000000010208B50: AC C4 FF FF FF 53 E0 48 89 43 C0 48 8D 8B 60 FF  ¬ÄÿÿÿSàH.CÀH..`ÿ
  0000000010208B60: FF FF FF 53 D0 48 85 C0 74 02 EB 08 B0 05 B9 85  ÿÿÿS?H.Àt.ë.°.¹.
  0000000010208B70: 60 00 00 CC 48 8B F0 48 B8 6B 60 F2 02 EF D4 F9  `..?H.?H¸k`?.ïÔù
  0000000010208B80: B4 48 3B 86 F0 03 00 00 75 02 EB 08 B0 05 B9 85  ´H;.?...u.ë.°.¹.
  0000000010208B90: 60 00 00 CC 48 B8 86 5E A9 E6 9C 88 BD 95 48 3B  `..?H¸.^©æ..½.H;
  0000000010208BA0: 86 F8 03 00 00 75 02 EB 08 B0 05 B9 85 60 00 00  .ø...u.ë.°.¹.`..
  0000000010208BB0: CC 48 8B CE BA 04 00 00 00 FF 53 D8 48 89 83 70  ?H.Îº....ÿSØH..p
  0000000010208BC0: FE FF FF 48 8B CE BA 05 00 00 00 FF 53 D8 48 89  ?ÿÿH.Îº....ÿSØH.
  0000000010208BD0: 83 78 FE FF FF 48 8B CE BA 0E 00 00 00 FF 53 D8  .x?ÿÿH.Îº....ÿSØ
  0000000010208BE0: 48 89 83 80 FE FF FF 48 8B CE BA 0C 00 00 00 FF  H...?ÿÿH.Îº....ÿ
  0000000010208BF0: 53 D8 48 89 83 88 FE FF FF 48 8B CE BA 08 00 00  SØH...?ÿÿH.Îº...
  0000000010208C00: 00 FF 53 D8 48 89 83 90 FE FF FF 48 8B CE BA 09  .ÿSØH...?ÿÿH.Îº.
  0000000010208C10: 00 00 00 FF 53 D8 48 89 83 98 FE FF FF 48 8B CE  ...ÿSØH...?ÿÿH.Î
  0000000010208C20: BA 07 00 00 00 FF 53 D8 48 89 83 A8 FE FF FF 48  º....ÿSØH..¨?ÿÿH
  0000000010208C30: 8B CE BA 18 00 00 00 FF 53 D8 48 89 83 D0 FE FF  .Îº....ÿSØH..??ÿ
  0000000010208C40: FF 48 8B CE BA 19 00 00 00 FF 53 D8 48 89 83 D8  ÿH.Îº....ÿSØH..Ø
  0000000010208C50: FE FF FF 48 8B CE BA 06 00 00 00 FF 53 D8 48 89  ?ÿÿH.Îº....ÿSØH.
  0000000010208C60: 83 E0 FE FF FF 48 8B CE BA 15 00 00 00 FF 53 D8  .à?ÿÿH.Îº....ÿSØ
  0000000010208C70: 48 89 83 F0 FE FF FF 48 8B CE BA 12 00 00 00 FF  H..??ÿÿH.Îº....ÿ
  0000000010208C80: 53 D8 48 89 83 F8 FE FF FF 48 8B CE BA 0A 00 00  SØH..ø?ÿÿH.Îº...
  0000000010208C90: 00 FF 53 D8 48 89 83 08 FF FF FF 48 8B CE BA 10  .ÿSØH...ÿÿÿH.Îº.
  0000000010208CA0: 00 00 00 FF 53 D8 48 89 83 10 FF FF FF 48 8B CE  ...ÿSØH...ÿÿÿH.Î
  0000000010208CB0: BA 01 00 00 00 FF 53 D8 48 89 83 18 FF FF FF 48  º....ÿSØH...ÿÿÿH
  0000000010208CC0: 8D 8B 40 FF FF FF FF 53 D0 48 85 C0 74 02 EB 08  ..@ÿÿÿÿS?H.Àt.ë.
  0000000010208CD0: B0 05 B9 85 60 00 00 CC 48 8B F0 48 B8 EC 70 F0  °.¹.`..?H.?H¸?p?
  0000000010208CE0: AE 97 72 6F B3 48 3B 86 F0 03 00 00 75 02 EB 08  ®.ro³H;.?...u.ë.
  0000000010208CF0: B0 05 B9 85 60 00 00 CC 48 B8 6F 2D 25 B7 A8 65  °.¹.`..?H¸o-%·¨e
  0000000010208D00: 93 8E 48 3B 86 F8 03 00 00 75 02 EB 08 B0 05 B9  ..H;.ø...u.ë.°.¹
  0000000010208D10: 85 60 00 00 CC 48 8B CE BA 06 00 00 00 FF 53 D8  .`..?H.Îº....ÿSØ
  0000000010208D20: 48 89 83 B0 FE FF FF 48 8B CE BA 05 00 00 00 FF  H..°?ÿÿH.Îº....ÿ
  0000000010208D30: 53 D8 48 89 83 B8 FE FF FF 48 8B CE BA 03 00 00  SØH..¸?ÿÿH.Îº...
  0000000010208D40: 00 FF 53 D8 48 89 83 C0 FE FF FF 48 8B CE BA 02  .ÿSØH..À?ÿÿH.Îº.
  0000000010208D50: 00 00 00 FF 53 D8 48 89 83 C8 FE FF FF 48 8B CE  ...ÿSØH..È?ÿÿH.Î
  0000000010208D60: BA 01 00 00 00 FF 53 D8 48 89 83 E8 FE FF FF 48  º....ÿSØH..è?ÿÿH
  0000000010208D70: 8D 8B 20 FF FF FF FF 53 D0 48 85 C0 74 02 EB 08  .. ÿÿÿÿS?H.Àt.ë.
  0000000010208D80: B0 05 B9 85 60 00 00 CC 48 8B F0 48 B8 0E 2D C5  °.¹.`..?H.?H¸.-Å
  0000000010208D90: F8 1D 40 74 6D 48 3B 86 F0 03 00 00 75 02 EB 08  ø.@tmH;.?...u.ë.
  0000000010208DA0: B0 05 B9 85 60 00 00 CC 48 B8 52 5C 92 A6 6F B1  °.¹.`..?H¸R\.¦o±
  0000000010208DB0: 5E 8D 48 3B 86 F8 03 00 00 75 02 EB 08 B0 05 B9  ^.H;.ø...u.ë.°.¹
  0000000010208DC0: 85 60 00 00 CC 48 8B CE BA 0C 00 00 00 FF 53 D8  .`..?H.Îº....ÿSØ
  0000000010208DD0: 48 89 83 68 FE FF FF 48 8B CE BA 07 00 00 00 FF  H..h?ÿÿH.Îº....ÿ
  0000000010208DE0: 53 D8 48 89 83 A0 FE FF FF 48 8B CE BA 09 00 00  SØH...?ÿÿH.Îº...
  0000000010208DF0: 00 FF 53 D8 48 89 83 00 FF FF FF 48 C7 83 60 F9  .ÿSØH...ÿÿÿHÇ.`ù
  0000000010208E00: FF FF 03 00 00 00 48 C7 83 00 F9 FF FF 70 00 00  ÿÿ....HÇ..ùÿÿp..
  0000000010208E10: 00 48 C7 83 90 F8 FF FF 50 00 00 00 48 8D 83 90  .HÇ..øÿÿP...H...
  0000000010208E20: F8 FF FF 48 89 83 98 F8 FF FF 48 C7 83 30 F8 FF  øÿÿH...øÿÿHÇ.0øÿ
  0000000010208E30: FF 10 00 00 00 48 C7 83 D0 F7 FF FF 98 00 00 00  ÿ....HÇ.?÷ÿÿ....
  0000000010208E40: 48 C7 83 70 F7 FF FF 30 00 00 00 48 8D 83 70 F7  HÇ.p÷ÿÿ0...H..p÷
  0000000010208E50: FF FF 48 89 83 78 F7 FF FF 48 C7 83 00 F7 FF FF  ÿÿH..x÷ÿÿHÇ..÷ÿÿ
  0000000010208E60: E0 02 00 00 48 8D 83 00 F7 FF FF 48 89 83 08 F7  à...H...÷ÿÿH...÷
  0000000010208E70: FF FF 48 C7 83 A0 F6 FF FF 58 00 00 00 48 8D 83  ÿÿHÇ..öÿÿX...H..
  0000000010208E80: A0 F6 FF FF 48 89 83 B0 F6 FF FF 48 8D 83 70 F5  .öÿÿH..°öÿÿH..p?
  0000000010208E90: FF FF 48 89 83 A8 F6 FF FF 48 C7 83 30 F6 FF FF  ÿÿH..¨öÿÿHÇ.0öÿÿ
  0000000010208EA0: 60 00 00 00 48 8D 83 30 F6 FF FF 48 89 83 38 F6  `...H..0öÿÿH..8ö
  0000000010208EB0: FF FF 48 C7 83 D0 F5 FF FF 42 00 00 00 48 8D 83  ÿÿHÇ.??ÿÿB...H..
  0000000010208EC0: D0 F5 FF FF 48 89 83 E0 F5 FF FF 48 8D 83 70 F5  ??ÿÿH..à?ÿÿH..p?
  0000000010208ED0: FF FF 48 89 83 D8 F5 FF FF 48 C7 83 70 F5 FF FF  ÿÿH..Ø?ÿÿHÇ.p?ÿÿ
  0000000010208EE0: 41 00 00 00 48 8D 83 70 F5 FF FF 48 89 83 78 F5  A...H..p?ÿÿH..x?
  0000000010208EF0: FF FF 48 C7 83 10 F5 FF FF 30 00 00 00 48 8D 83  ÿÿHÇ..?ÿÿ0...H..
  0000000010208F00: 10 F5 FF FF 48 89 83 18 F5 FF FF 48 C7 83 B0 F4  .?ÿÿH...?ÿÿHÇ.°ô
  0000000010208F10: FF FF 30 00 00 00 48 8D 83 B0 F4 FF FF 48 89 83  ÿÿ0...H..°ôÿÿH..
  0000000010208F20: B8 F4 FF FF 48 C7 83 50 F4 FF FF 28 00 00 00 48  ¸ôÿÿHÇ.Pôÿÿ(...H
  0000000010208F30: C7 83 F0 F3 FF FF 18 00 00 00 E8 11 FB FF FF B8  Ç.?óÿÿ....è.ûÿÿ¸
  0000000010208F40: 01 00 00 00 48 83 C4 20 5B 5F 5E C3              ....H.Ä [_^?

SECTION HEADER #4
  .idata name
     130 virtual size
  209000 virtual address (0000000010209000 to 000000001020912F)
     200 size of raw data
    4400 file pointer to raw data (00004400 to 000045FF)
       0 file pointer to relocation table
       0 file pointer to line numbers
       0 number of relocations
       0 number of line numbers
C0000040 flags
         Initialized Data
         Read Write

RAW DATA #4
  0000000010209000: 28 90 20 00 00 00 00 00 00 00 00 00 60 90 20 00  (. .........`. .
  0000000010209010: C8 4F 20 00 00 00 00 00 00 00 00 00 00 00 00 00  ÈO .............
  0000000010209020: 00 00 00 00 00 00 00 00 70 90 20 00 00 00 00 00  ........p. .....
  0000000010209030: 90 90 20 00 00 00 00 00 B0 90 20 00 00 00 00 00  .. .....°. .....
  0000000010209040: D0 90 20 00 00 00 00 00 F0 90 20 00 00 00 00 00  ?. .....?. .....
  0000000010209050: 10 91 20 00 00 00 00 00 00 00 00 00 00 00 00 00  .. .............
  0000000010209060: 4B 45 52 4E 45 4C 33 32 2E 44 4C 4C 00 00 00 00  KERNEL32.DLL....
  0000000010209070: 00 00 45 78 69 74 50 72 6F 63 65 73 73 00 00 00  ..ExitProcess...
  0000000010209080: 00 00 00 00 00 00 00 00 00 00 00 00 00 00 00 00  ................
  0000000010209090: 00 00 4C 6F 61 64 4C 69 62 72 61 72 79 57 00 00  ..LoadLibraryW..
  00000000102090A0: 00 00 00 00 00 00 00 00 00 00 00 00 00 00 00 00  ................
  00000000102090B0: 00 00 47 65 74 50 72 6F 63 41 64 64 72 65 73 73  ..GetProcAddress
  00000000102090C0: 00 00 00 00 00 00 00 00 00 00 00 00 00 00 00 00  ................
  00000000102090D0: 00 00 47 65 74 50 72 6F 63 65 73 73 48 65 61 70  ..GetProcessHeap
  00000000102090E0: 00 00 00 00 00 00 00 00 00 00 00 00 00 00 00 00  ................
  00000000102090F0: 00 00 48 65 61 70 41 6C 6C 6F 63 00 00 00 00 00  ..HeapAlloc.....
  0000000010209100: 00 00 00 00 00 00 00 00 00 00 00 00 00 00 00 00  ................
  0000000010209110: 00 00 48 65 61 70 46 72 65 65 00 00 00 00 00 00  ..HeapFree......
  0000000010209120: 00 00 00 00 00 00 00 00 00 00 00 00 00 00 00 00  ................

  Section contains the following imports:

    KERNEL32.DLL
              10204FC8 Import Address Table
              10209028 Import Name Table
                     0 time date stamp
                     0 Index of first forwarder reference

                           0 ExitProcess
                           0 LoadLibraryW
                           0 GetProcAddress
                           0 GetProcessHeap
                           0 HeapAlloc
                           0 HeapFree

SECTION HEADER #5
  .reloc name
       C virtual size
  20A000 virtual address (000000001020A000 to 000000001020A00B)
     200 size of raw data
    5600 file pointer to raw data (00005600 to 000057FF)
       0 file pointer to relocation table
       0 file pointer to line numbers
       0 number of relocations
       0 number of line numbers
42000040 flags
         Initialized Data
         Discardable
         Read Only

RAW DATA #5
  000000001020A000: 04 00 00 00 0C 00 00 00 00 00 00 00              ............

BASE RELOCATIONS #5
       4 RVA,        C SizeOfBlock
       0  ABS                        
       0  ABS                        

SECTION HEADER #6
  .edata name
     14E virtual size
  20B000 virtual address (000000001020B000 to 000000001020B14D)
     200 size of raw data
    5800 file pointer to raw data (00005800 to 000059FF)
       0 file pointer to relocation table
       0 file pointer to line numbers
       0 number of relocations
       0 number of line numbers
40000040 flags
         Initialized Data
         Read Only

RAW DATA #6
  000000001020B000: 00 00 00 00 00 00 00 00 00 00 00 00 44 B1 20 00  ............D± .
  000000001020B010: 01 00 00 00 47 00 00 00 00 00 00 00 28 B0 20 00  ....G.......(° .
  000000001020B020: 00 00 00 00 00 00 00 00 00 49 20 00 D0 47 20 00  .........I .?G .
  000000001020B030: 50 44 20 00 90 48 20 00 F0 43 20 00 B0 44 20 00  PD ..H .?C .°D .
  000000001020B040: 10 45 20 00 70 45 20 00 D0 45 20 00 30 46 20 00  .E .pE .?E .0F .
  000000001020B050: A0 46 20 00 00 47 20 00 70 47 20 00 30 48 20 00  .F ..G .pG .0H .
  000000001020B060: F8 3F 20 00 F0 3F 20 00 E8 3F 20 00 E0 3F 20 00  ø? .?? .è? .à? .
  000000001020B070: D8 3F 20 00 D0 3F 20 00 C8 3F 20 00 C0 3F 20 00  Ø? .?? .È? .À? .
  000000001020B080: B8 3F 20 00 B0 3E 20 00 A8 3E 20 00 A0 3E 20 00  ¸? .°> .¨> ..> .
  000000001020B090: 98 3E 20 00 88 3E 20 00 80 3E 20 00 00 3E 20 00  .> ..> ..> ..> .
  000000001020B0A0: F0 3D 20 00 E8 3D 20 00 E0 3D 20 00 D8 3D 20 00  ?= .è= .à= .Ø= .
  000000001020B0B0: B8 3D 20 00 B0 3D 20 00 B0 15 20 00 B0 15 00 00  ¸= .°= .°. .°...
  000000001020B0C0: A8 15 00 00 A5 15 00 00 60 49 20 00 00 50 20 00  ¨...¥...`I ..P .
  000000001020B0D0: 90 50 20 00 E0 51 20 00 F0 52 20 00 00 54 20 00  .P .àQ .?R ..T .
  000000001020B0E0: 40 54 20 00 80 54 20 00 E0 54 20 00 60 55 20 00  @T ..T .àT .`U .
  000000001020B0F0: E0 55 20 00 A0 56 20 00 30 57 20 00 10 59 20 00  àU ..V .0W ..Y .
  000000001020B100: 80 59 20 00 00 5A 20 00 80 5A 20 00 20 5B 20 00  .Y ..Z ..Z . [ .
  000000001020B110: 70 5B 20 00 D0 5B 20 00 80 5C 20 00 E0 5C 20 00  p[ .?[ ..\ .à\ .
  000000001020B120: 20 5D 20 00 D0 5D 20 00 30 5E 20 00 60 5E 20 00   ] .?] .0^ .`^ .
  000000001020B130: 80 5F 20 00 A0 66 20 00 A0 78 20 00 20 80 20 00  ._ ..f ..x . . .
  000000001020B140: F0 83 20 00 42 61 73 65 31 2E 64 6C 6C 00        ?. .Base1.dll.

  Section contains the following exports for Base1.dll

    00000000 characteristics
           0 time date stamp
        0.00 version
           1 ordinal base
          71 number of functions
           0 number of names

    ordinal hint RVA      name

          1      00204900 [NONAME]
          2      002047D0 [NONAME]
          3      00204450 [NONAME]
          4      00204890 [NONAME]
          5      002043F0 [NONAME]
          6      002044B0 [NONAME]
          7      00204510 [NONAME]
          8      00204570 [NONAME]
          9      002045D0 [NONAME]
         10      00204630 [NONAME]
         11      002046A0 [NONAME]
         12      00204700 [NONAME]
         13      00204770 [NONAME]
         14      00204830 [NONAME]
         15      00203FF8 [NONAME]
         16      00203FF0 [NONAME]
         17      00203FE8 [NONAME]
         18      00203FE0 [NONAME]
         19      00203FD8 [NONAME]
         20      00203FD0 [NONAME]
         21      00203FC8 [NONAME]
         22      00203FC0 [NONAME]
         23      00203FB8 [NONAME]
         24      00203EB0 [NONAME]
         25      00203EA8 [NONAME]
         26      00203EA0 [NONAME]
         27      00203E98 [NONAME]
         28      00203E88 [NONAME]
         29      00203E80 [NONAME]
         30      00203E00 [NONAME]
         31      00203DF0 [NONAME]
         32      00203DE8 [NONAME]
         33      00203DE0 [NONAME]
         34      00203DD8 [NONAME]
         35      00203DB8 [NONAME]
         36      00203DB0 [NONAME]
         37      002015B0 [NONAME]
         38      000015B0 [NONAME]
         39      000015A8 [NONAME]
         40      000015A5 [NONAME]
         41      00204960 [NONAME]
         42      00205000 [NONAME]
         43      00205090 [NONAME]
         44      002051E0 [NONAME]
         45      002052F0 [NONAME]
         46      00205400 [NONAME]
         47      00205440 [NONAME]
         48      00205480 [NONAME]
         49      002054E0 [NONAME]
         50      00205560 [NONAME]
         51      002055E0 [NONAME]
         52      002056A0 [NONAME]
         53      00205730 [NONAME]
         54      00205910 [NONAME]
         55      00205980 [NONAME]
         56      00205A00 [NONAME]
         57      00205A80 [NONAME]
         58      00205B20 [NONAME]
         59      00205B70 [NONAME]
         60      00205BD0 [NONAME]
         61      00205C80 [NONAME]
         62      00205CE0 [NONAME]
         63      00205D20 [NONAME]
         64      00205DD0 [NONAME]
         65      00205E30 [NONAME]
         66      00205E60 [NONAME]
         67      00205F80 [NONAME]
         68      002066A0 [NONAME]
         69      002078A0 [NONAME]
         70      00208020 [NONAME]
         71      002083F0 [NONAME]

  Summary

      203000 .bss
        1000 .data
        1000 .edata
        1000 .idata
        1000 .reloc
        4000 .text
