Microsoft (R) COFF/PE Dumper Version 14.00.24215.1
Copyright (C) Microsoft Corporation.  All rights reserved.


Dump of file Parser1.dll

PE signature found

File Type: DLL

FILE HEADER VALUES
            8664 machine (x64)
               6 number of sections
               0 time date stamp
               0 file pointer to symbol table
               0 number of symbols
              F0 size of optional header
            2022 characteristics
                   Executable
                   Application can handle large (>2GB) addresses
                   DLL

OPTIONAL HEADER VALUES
             20B magic # (PE32+)
            0.00 linker version
            6200 size of code
            2600 size of initialized data
            1000 size of uninitialized data
            99C0 entry point (00000000100099C0)
            4000 base of code
        10000000 image base (0000000010000000 to 000000001000DFFF)
            1000 section alignment
             200 file alignment
            5.00 operating system version
            0.00 image version
            5.00 subsystem version
               0 Win32 version
            E000 size of image
             400 size of headers
               0 checksum
               2 subsystem (Windows GUI)
             140 DLL characteristics
                   Dynamic base
                   NX compatible
            1000 size of stack reserve
            1000 size of stack commit
           10000 size of heap reserve
               0 size of heap commit
               0 loader flags
              10 number of directories
            D000 [      38] RVA [size] of Export Directory
            B000 [     130] RVA [size] of Import Directory
               0 [       0] RVA [size] of Resource Directory
               0 [       0] RVA [size] of Exception Directory
               0 [       0] RVA [size] of Certificates Directory
            C000 [       C] RVA [size] of Base Relocation Directory
               0 [       0] RVA [size] of Debug Directory
               0 [       0] RVA [size] of Architecture Directory
               0 [       0] RVA [size] of Global Pointer Directory
               0 [       0] RVA [size] of Thread Storage Directory
               0 [       0] RVA [size] of Load Configuration Directory
               0 [       0] RVA [size] of Bound Import Directory
               0 [       0] RVA [size] of Import Address Table Directory
               0 [       0] RVA [size] of Delay Import Directory
               0 [       0] RVA [size] of COM Descriptor Directory
               0 [       0] RVA [size] of Reserved Directory


SECTION HEADER #1
    .bss name
    1000 virtual size
    1000 virtual address (0000000010001000 to 0000000010001FFF)
       0 size of raw data
       0 file pointer to raw data
       0 file pointer to relocation table
       0 file pointer to line numbers
       0 number of relocations
       0 number of line numbers
C0000080 flags
         Uninitialized Data
         Read Write

SECTION HEADER #2
   .data name
    2000 virtual size
    2000 virtual address (0000000010002000 to 0000000010003FFF)
    2000 size of raw data
    6800 file pointer to raw data (00006800 to 000087FF)
       0 file pointer to relocation table
       0 file pointer to line numbers
       0 number of relocations
       0 number of line numbers
C0000040 flags
         Initialized Data
         Read Write

RAW DATA #2
  0000000010002000: 00 00 00 00 00 00 00 00 00 00 00 00 00 00 00 00  ................
  0000000010002010: 00 00 00 00 00 00 00 00 00 00 00 00 00 00 00 00  ................
  0000000010002020: 00 00 00 00 00 00 00 00 00 00 00 00 00 00 00 00  ................
  0000000010002030: 00 00 00 00 00 00 00 00 00 00 00 00 00 00 00 00  ................
  0000000010002040: 00 00 00 00 00 00 00 00 00 00 00 00 00 00 00 00  ................
  0000000010002050: 00 00 00 00 00 00 00 00 00 00 00 00 00 00 00 00  ................
  0000000010002060: 00 00 00 00 00 00 00 00 00 00 00 00 00 00 00 00  ................
  0000000010002070: 00 00 00 00 00 00 00 00 00 00 00 00 00 00 00 00  ................
  0000000010002080: 00 00 00 00 00 00 00 00 00 00 00 00 00 00 00 00  ................
  0000000010002090: 00 00 00 00 00 00 00 00 00 00 00 00 00 00 00 00  ................
  00000000100020A0: 00 00 00 00 00 00 00 00 00 00 00 00 00 00 00 00  ................
  00000000100020B0: 00 00 00 00 00 00 00 00 00 00 00 00 00 00 00 00  ................
  00000000100020C0: 00 00 00 00 00 00 00 00 00 00 00 00 00 00 00 00  ................
  00000000100020D0: 00 00 00 00 00 00 00 00 00 00 00 00 00 00 00 00  ................
  00000000100020E0: 00 00 00 00 00 00 00 00 00 00 00 00 00 00 00 00  ................
  00000000100020F0: 00 00 00 00 00 00 00 00 00 00 00 00 00 00 00 00  ................
  0000000010002100: 00 00 00 00 00 00 00 00 00 00 00 00 00 00 00 00  ................
  0000000010002110: 00 00 00 00 00 00 00 00 00 00 00 00 00 00 00 00  ................
  0000000010002120: 00 00 00 00 00 00 00 00 00 00 00 00 00 00 00 00  ................
  0000000010002130: 00 00 00 00 00 00 00 00 00 00 00 00 00 00 00 00  ................
  0000000010002140: 00 00 00 00 00 00 00 00 00 00 00 00 00 00 00 00  ................
  0000000010002150: 00 00 00 00 00 00 00 00 00 00 00 00 00 00 00 00  ................
  0000000010002160: 00 00 00 00 00 00 00 00 00 00 00 00 00 00 00 00  ................
  0000000010002170: 00 00 00 00 00 00 00 00 00 00 00 00 00 00 00 00  ................
  0000000010002180: 00 00 00 00 00 00 00 00 00 00 00 00 00 00 00 00  ................
  0000000010002190: 00 00 00 00 00 00 00 00 00 00 00 00 00 00 00 00  ................
  00000000100021A0: 00 00 00 00 00 00 00 00 00 00 00 00 00 00 00 00  ................
  00000000100021B0: 00 00 00 00 00 00 00 00 00 00 00 00 00 00 00 00  ................
  00000000100021C0: 00 00 00 00 00 00 00 00 00 00 00 00 00 00 00 00  ................
  00000000100021D0: 00 00 00 00 00 00 00 00 00 00 00 00 00 00 00 00  ................
  00000000100021E0: 00 00 00 00 00 00 00 00 00 00 00 00 00 00 00 00  ................
  00000000100021F0: 00 00 00 00 00 00 00 00 00 00 00 00 00 00 00 00  ................
  0000000010002200: 00 00 00 00 00 00 00 00 00 00 00 00 00 00 00 00  ................
  0000000010002210: 00 00 00 00 00 00 00 00 00 00 00 00 00 00 00 00  ................
  0000000010002220: 00 00 00 00 00 00 00 00 00 00 00 00 00 00 00 00  ................
  0000000010002230: 00 00 00 00 00 00 00 00 00 00 00 00 00 00 00 00  ................
  0000000010002240: 00 00 00 00 00 00 00 00 00 00 00 00 00 00 00 00  ................
  0000000010002250: 00 00 00 00 00 00 00 00 00 00 00 00 00 00 00 00  ................
  0000000010002260: 00 00 00 00 00 00 00 00 00 00 00 00 00 00 00 00  ................
  0000000010002270: 00 00 00 00 00 00 00 00 00 00 00 00 00 00 00 00  ................
  0000000010002280: 00 00 00 00 00 00 00 00 00 00 00 00 00 00 00 00  ................
  0000000010002290: 00 00 00 00 00 00 00 00 00 00 00 00 00 00 00 00  ................
  00000000100022A0: 00 00 00 00 00 00 00 00 00 00 00 00 00 00 00 00  ................
  00000000100022B0: 00 00 00 00 00 00 00 00 00 00 00 00 00 00 00 00  ................
  00000000100022C0: 00 00 00 00 00 00 00 00 00 00 00 00 00 00 00 00  ................
  00000000100022D0: 00 00 00 00 00 00 00 00 00 00 00 00 00 00 00 00  ................
  00000000100022E0: 00 00 00 00 00 00 00 00 00 00 00 00 00 00 00 00  ................
  00000000100022F0: 00 00 00 00 00 00 00 00 00 00 00 00 00 00 00 00  ................
  0000000010002300: 00 00 00 00 00 00 00 00 00 00 00 00 00 00 00 00  ................
  0000000010002310: 00 00 00 00 00 00 00 00 00 00 00 00 00 00 00 00  ................
  0000000010002320: 00 00 00 00 00 00 00 00 00 00 00 00 00 00 00 00  ................
  0000000010002330: 00 00 00 00 00 00 00 00 00 00 00 00 00 00 00 00  ................
  0000000010002340: 00 00 00 00 00 00 00 00 00 00 00 00 00 00 00 00  ................
  0000000010002350: 00 00 00 00 00 00 00 00 00 00 00 00 00 00 00 00  ................
  0000000010002360: 00 00 00 00 00 00 00 00 00 00 00 00 00 00 00 00  ................
  0000000010002370: 00 00 00 00 00 00 00 00 00 00 00 00 00 00 00 00  ................
  0000000010002380: 00 00 00 00 00 00 00 00 00 00 00 00 00 00 00 00  ................
  0000000010002390: 00 00 00 00 00 00 00 00 00 00 00 00 00 00 00 00  ................
  00000000100023A0: 00 00 00 00 00 00 00 00 00 00 00 00 00 00 00 00  ................
  00000000100023B0: 00 00 00 00 00 00 00 00 00 00 00 00 00 00 00 00  ................
  00000000100023C0: 00 00 00 00 00 00 00 00 00 00 00 00 00 00 00 00  ................
  00000000100023D0: 00 00 00 00 00 00 00 00 00 00 00 00 00 00 00 00  ................
  00000000100023E0: 00 00 00 00 00 00 00 00 00 00 00 00 00 00 00 00  ................
  00000000100023F0: 00 00 00 00 00 00 00 00 00 00 00 00 00 00 00 00  ................
  0000000010002400: 00 00 00 00 00 00 00 00 00 00 00 00 00 00 00 00  ................
  0000000010002410: 00 00 00 00 00 00 00 00 00 00 00 00 00 00 00 00  ................
  0000000010002420: 00 00 00 00 00 00 00 00 00 00 00 00 00 00 00 00  ................
  0000000010002430: 00 00 00 00 00 00 00 00 00 00 00 00 00 00 00 00  ................
  0000000010002440: 00 00 00 00 00 00 00 00 00 00 00 00 00 00 00 00  ................
  0000000010002450: 00 00 00 00 00 00 00 00 00 00 00 00 00 00 00 00  ................
  0000000010002460: 00 00 00 00 00 00 00 00 00 00 00 00 00 00 00 00  ................
  0000000010002470: 00 00 00 00 00 00 00 00 00 00 00 00 00 00 00 00  ................
  0000000010002480: 00 00 00 00 00 00 00 00 00 00 00 00 00 00 00 00  ................
  0000000010002490: 00 00 00 00 00 00 00 00 00 00 00 00 00 00 00 00  ................
  00000000100024A0: 00 00 00 00 00 00 00 00 00 00 00 00 00 00 00 00  ................
  00000000100024B0: 00 00 00 00 00 00 00 00 00 00 00 00 00 00 00 00  ................
  00000000100024C0: 00 00 00 00 00 00 00 00 00 00 00 00 00 00 00 00  ................
  00000000100024D0: 00 00 00 00 00 00 00 00 00 00 00 00 00 00 00 00  ................
  00000000100024E0: 00 00 00 00 00 00 00 00 00 00 00 00 00 00 00 00  ................
  00000000100024F0: 00 00 00 00 00 00 00 00 00 00 00 00 00 00 00 00  ................
  0000000010002500: 00 00 00 00 00 00 00 00 00 00 00 00 00 00 00 00  ................
  0000000010002510: 00 00 00 00 00 00 00 00 00 00 00 00 00 00 00 00  ................
  0000000010002520: 00 00 00 00 00 00 00 00 00 00 00 00 00 00 00 00  ................
  0000000010002530: 00 00 00 00 00 00 00 00 00 00 00 00 00 00 00 00  ................
  0000000010002540: 00 00 00 00 00 00 00 00 00 00 00 00 00 00 00 00  ................
  0000000010002550: 00 00 00 00 00 00 00 00 00 00 00 00 00 00 00 00  ................
  0000000010002560: 00 00 00 00 00 00 00 00 00 00 00 00 00 00 00 00  ................
  0000000010002570: 00 00 00 00 00 00 00 00 00 00 00 00 00 00 00 00  ................
  0000000010002580: 00 00 00 00 00 00 00 00 00 00 00 00 00 00 00 00  ................
  0000000010002590: 00 00 00 00 00 00 00 00 00 00 00 00 00 00 00 00  ................
  00000000100025A0: 00 00 00 00 00 00 00 00 00 00 00 00 00 00 00 00  ................
  00000000100025B0: 00 00 00 00 00 00 00 00 00 00 00 00 00 00 00 00  ................
  00000000100025C0: 00 00 00 00 00 00 00 00 00 00 00 00 00 00 00 00  ................
  00000000100025D0: 00 00 00 00 00 00 00 00 00 00 00 00 00 00 00 00  ................
  00000000100025E0: 00 00 00 00 00 00 00 00 00 00 00 00 00 00 00 00  ................
  00000000100025F0: 00 00 00 00 00 00 00 00 00 00 00 00 00 00 00 00  ................
  0000000010002600: 00 00 00 00 00 00 00 00 00 00 00 00 00 00 00 00  ................
  0000000010002610: 00 00 00 00 00 00 00 00 00 00 00 00 00 00 00 00  ................
  0000000010002620: 00 00 00 00 00 00 00 00 00 00 00 00 00 00 00 00  ................
  0000000010002630: 00 00 00 00 00 00 00 00 00 00 00 00 00 00 00 00  ................
  0000000010002640: 00 00 00 00 00 00 00 00 00 00 00 00 00 00 00 00  ................
  0000000010002650: 00 00 00 00 00 00 00 00 00 00 00 00 00 00 00 00  ................
  0000000010002660: 00 00 00 00 00 00 00 00 00 00 00 00 00 00 00 00  ................
  0000000010002670: 00 00 00 00 00 00 00 00 00 00 00 00 00 00 00 00  ................
  0000000010002680: 00 00 00 00 00 00 00 00 00 00 00 00 00 00 00 00  ................
  0000000010002690: 00 00 00 00 00 00 00 00 00 00 00 00 00 00 00 00  ................
  00000000100026A0: 00 00 00 00 00 00 00 00 00 00 00 00 00 00 00 00  ................
  00000000100026B0: 00 00 00 00 00 00 00 00 00 00 00 00 00 00 00 00  ................
  00000000100026C0: 00 00 00 00 00 00 00 00 00 00 00 00 00 00 00 00  ................
  00000000100026D0: 00 00 00 00 00 00 00 00 00 00 00 00 00 00 00 00  ................
  00000000100026E0: 00 00 00 00 00 00 00 00 00 00 00 00 00 00 00 00  ................
  00000000100026F0: 00 00 00 00 00 00 00 00 00 00 00 00 00 00 00 00  ................
  0000000010002700: 00 00 00 00 00 00 00 00 00 00 00 00 00 00 00 00  ................
  0000000010002710: 00 00 00 00 00 00 00 00 00 00 00 00 00 00 00 00  ................
  0000000010002720: 00 00 00 00 00 00 00 00 00 00 00 00 00 00 00 00  ................
  0000000010002730: 00 00 00 00 00 00 00 00 00 00 00 00 00 00 00 00  ................
  0000000010002740: 00 00 00 00 00 00 00 00 00 00 00 00 00 00 00 00  ................
  0000000010002750: 00 00 00 00 00 00 00 00 00 00 00 00 00 00 00 00  ................
  0000000010002760: 00 00 00 00 00 00 00 00 00 00 00 00 00 00 00 00  ................
  0000000010002770: 00 00 00 00 00 00 00 00 00 00 00 00 00 00 00 00  ................
  0000000010002780: 00 00 00 00 00 00 00 00 00 00 00 00 00 00 00 00  ................
  0000000010002790: 00 00 00 00 00 00 00 00 00 00 00 00 00 00 00 00  ................
  00000000100027A0: 00 00 00 00 00 00 00 00 00 00 00 00 00 00 00 00  ................
  00000000100027B0: 00 00 00 00 00 00 00 00 00 00 00 00 00 00 00 00  ................
  00000000100027C0: 00 00 00 00 00 00 00 00 00 00 00 00 00 00 00 00  ................
  00000000100027D0: 00 00 00 00 00 00 00 00 00 00 00 00 00 00 00 00  ................
  00000000100027E0: 00 00 00 00 00 00 00 00 00 00 00 00 00 00 00 00  ................
  00000000100027F0: 00 00 00 00 00 00 00 00 00 00 00 00 00 00 00 00  ................
  0000000010002800: 00 00 00 00 00 00 00 00 00 00 00 00 00 00 00 00  ................
  0000000010002810: 00 00 00 00 00 00 00 00 00 00 00 00 00 00 00 00  ................
  0000000010002820: 00 00 00 00 00 00 00 00 00 00 00 00 00 00 00 00  ................
  0000000010002830: 00 00 00 00 00 00 00 00 00 00 00 00 00 00 00 00  ................
  0000000010002840: 00 00 00 00 00 00 00 00 00 00 00 00 00 00 00 00  ................
  0000000010002850: 00 00 00 00 00 00 00 00 00 00 00 00 00 00 00 00  ................
  0000000010002860: 00 00 00 00 00 00 00 00 00 00 00 00 00 00 00 00  ................
  0000000010002870: 00 00 00 00 00 00 00 00 00 00 00 00 00 00 00 00  ................
  0000000010002880: 00 00 00 00 00 00 00 00 00 00 00 00 00 00 00 00  ................
  0000000010002890: 00 00 00 00 00 00 00 00 00 00 00 00 00 00 00 00  ................
  00000000100028A0: 00 00 00 00 00 00 00 00 00 00 00 00 00 00 00 00  ................
  00000000100028B0: 00 00 00 00 00 00 00 00 00 00 00 00 00 00 00 00  ................
  00000000100028C0: 00 00 00 00 00 00 00 00 00 00 00 00 00 00 00 00  ................
  00000000100028D0: 00 00 00 00 00 00 00 00 00 00 00 00 00 00 00 00  ................
  00000000100028E0: 00 00 00 00 00 00 00 00 00 00 00 00 00 00 00 00  ................
  00000000100028F0: 00 00 00 00 00 00 00 00 00 00 00 00 00 00 00 00  ................
  0000000010002900: 00 00 00 00 00 00 00 00 00 00 00 00 00 00 00 00  ................
  0000000010002910: 00 00 00 00 00 00 00 00 00 00 00 00 00 00 00 00  ................
  0000000010002920: 00 00 00 00 00 00 00 00 00 00 00 00 00 00 00 00  ................
  0000000010002930: 00 00 00 00 00 00 00 00 00 00 00 00 00 00 00 00  ................
  0000000010002940: 00 00 00 00 00 00 00 00 00 00 00 00 00 00 00 00  ................
  0000000010002950: 00 00 00 00 00 00 00 00 00 00 00 00 00 00 00 00  ................
  0000000010002960: 00 00 00 00 00 00 00 00 00 00 00 00 00 00 00 00  ................
  0000000010002970: 00 00 00 00 00 00 00 00 00 00 00 00 00 00 00 00  ................
  0000000010002980: 00 00 00 00 00 00 00 00 00 00 00 00 00 00 00 00  ................
  0000000010002990: 00 00 00 00 00 00 00 00 00 00 00 00 00 00 00 00  ................
  00000000100029A0: 00 00 00 00 00 00 00 00 00 00 00 00 00 00 00 00  ................
  00000000100029B0: 00 00 00 00 00 00 00 00 00 00 00 00 00 00 00 00  ................
  00000000100029C0: 00 00 00 00 00 00 00 00 00 00 00 00 00 00 00 00  ................
  00000000100029D0: 00 00 00 00 00 00 00 00 00 00 00 00 00 00 00 00  ................
  00000000100029E0: 00 00 00 00 00 00 00 00 00 00 00 00 00 00 00 00  ................
  00000000100029F0: 00 00 00 00 00 00 00 00 00 00 00 00 00 00 00 00  ................
  0000000010002A00: 00 00 00 00 00 00 00 00 00 00 00 00 00 00 00 00  ................
  0000000010002A10: 00 00 00 00 00 00 00 00 00 00 00 00 00 00 00 00  ................
  0000000010002A20: 00 00 00 00 00 00 00 00 00 00 00 00 00 00 00 00  ................
  0000000010002A30: 00 00 00 00 00 00 00 00 00 00 00 00 00 00 00 00  ................
  0000000010002A40: 00 00 00 00 00 00 00 00 00 00 00 00 00 00 00 00  ................
  0000000010002A50: 00 00 00 00 00 00 00 00 00 00 00 00 00 00 00 00  ................
  0000000010002A60: 00 00 00 00 00 00 00 00 00 00 00 00 00 00 00 00  ................
  0000000010002A70: 00 00 00 00 00 00 00 00 00 00 00 00 00 00 00 00  ................
  0000000010002A80: 00 00 00 00 00 00 00 00 00 00 00 00 00 00 00 00  ................
  0000000010002A90: 00 00 00 00 00 00 00 00 00 00 00 00 00 00 00 00  ................
  0000000010002AA0: 00 00 00 00 00 00 00 00 00 00 00 00 00 00 00 00  ................
  0000000010002AB0: 00 00 00 00 00 00 00 00 00 00 00 00 00 00 00 00  ................
  0000000010002AC0: 00 00 00 00 00 00 00 00 00 00 00 00 00 00 00 00  ................
  0000000010002AD0: 00 00 00 00 00 00 00 00 00 00 00 00 00 00 00 00  ................
  0000000010002AE0: 00 00 00 00 00 00 00 00 00 00 00 00 00 00 00 00  ................
  0000000010002AF0: 00 00 00 00 00 00 00 00 00 00 00 00 00 00 00 00  ................
  0000000010002B00: 00 00 00 00 00 00 00 00 00 00 00 00 00 00 00 00  ................
  0000000010002B10: 00 00 00 00 00 00 00 00 00 00 00 00 00 00 00 00  ................
  0000000010002B20: 00 00 00 00 00 00 00 00 00 00 00 00 00 00 00 00  ................
  0000000010002B30: 00 00 00 00 00 00 00 00 00 00 00 00 00 00 00 00  ................
  0000000010002B40: 00 00 00 00 00 00 00 00 00 00 00 00 00 00 00 00  ................
  0000000010002B50: 00 00 00 00 00 00 00 00 00 00 00 00 00 00 00 00  ................
  0000000010002B60: 00 00 00 00 00 00 00 00 00 00 00 00 00 00 00 00  ................
  0000000010002B70: 00 00 00 00 00 00 00 00 00 00 00 00 00 00 00 00  ................
  0000000010002B80: 00 00 00 00 00 00 00 00 00 00 00 00 00 00 00 00  ................
  0000000010002B90: 00 00 00 00 00 00 00 00 00 00 00 00 00 00 00 00  ................
  0000000010002BA0: 00 00 00 00 00 00 00 00 00 00 00 00 00 00 00 00  ................
  0000000010002BB0: 00 00 00 00 00 00 00 00 00 00 00 00 00 00 00 00  ................
  0000000010002BC0: 00 00 00 00 00 00 00 00 00 00 00 00 00 00 00 00  ................
  0000000010002BD0: 00 00 00 00 00 00 00 00 00 00 00 00 00 00 00 00  ................
  0000000010002BE0: 00 00 00 00 00 00 00 00 00 00 00 00 00 00 00 00  ................
  0000000010002BF0: 00 00 00 00 00 00 00 00 00 00 00 00 00 00 00 00  ................
  0000000010002C00: 00 00 00 00 00 00 00 00 00 00 00 00 00 00 00 00  ................
  0000000010002C10: 00 00 00 00 00 00 00 00 00 00 00 00 00 00 00 00  ................
  0000000010002C20: 00 00 00 00 00 00 00 00 00 00 00 00 00 00 00 00  ................
  0000000010002C30: 00 00 00 00 00 00 00 00 00 00 00 00 00 00 00 00  ................
  0000000010002C40: 00 00 00 00 00 00 00 00 00 00 00 00 00 00 00 00  ................
  0000000010002C50: 00 00 00 00 00 00 00 00 00 00 00 00 00 00 00 00  ................
  0000000010002C60: 00 00 00 00 00 00 00 00 00 00 00 00 00 00 00 00  ................
  0000000010002C70: 00 00 00 00 00 00 00 00 00 00 00 00 00 00 00 00  ................
  0000000010002C80: 00 00 00 00 00 00 00 00 00 00 00 00 00 00 00 00  ................
  0000000010002C90: 00 00 00 00 00 00 00 00 00 00 00 00 00 00 00 00  ................
  0000000010002CA0: 00 00 00 00 00 00 00 00 00 00 00 00 00 00 00 00  ................
  0000000010002CB0: 00 00 00 00 00 00 00 00 00 00 00 00 00 00 00 00  ................
  0000000010002CC0: 00 00 00 00 00 00 00 00 00 00 00 00 00 00 00 00  ................
  0000000010002CD0: 00 00 00 00 00 00 00 00 00 00 00 00 00 00 00 00  ................
  0000000010002CE0: 00 00 00 00 00 00 00 00 00 00 00 00 00 00 00 00  ................
  0000000010002CF0: 00 00 00 00 00 00 00 00 00 00 00 00 00 00 00 00  ................
  0000000010002D00: 00 00 00 00 00 00 00 00 00 00 00 00 00 00 00 00  ................
  0000000010002D10: 00 00 00 00 00 00 00 00 00 00 00 00 00 00 00 00  ................
  0000000010002D20: 00 00 00 00 00 00 00 00 00 00 00 00 00 00 00 00  ................
  0000000010002D30: 00 00 00 00 00 00 00 00 00 00 00 00 00 00 00 00  ................
  0000000010002D40: 00 00 00 00 00 00 00 00 00 00 00 00 00 00 00 00  ................
  0000000010002D50: 00 00 00 00 00 00 00 00 00 00 00 00 00 00 00 00  ................
  0000000010002D60: 00 00 00 00 00 00 00 00 00 00 00 00 00 00 00 00  ................
  0000000010002D70: 00 00 00 00 00 00 00 00 00 00 00 00 00 00 00 00  ................
  0000000010002D80: 00 00 00 00 00 00 00 00 00 00 00 00 00 00 00 00  ................
  0000000010002D90: 00 00 00 00 00 00 00 00 00 00 00 00 00 00 00 00  ................
  0000000010002DA0: 00 00 00 00 00 00 00 00 00 00 00 00 00 00 00 00  ................
  0000000010002DB0: 00 00 00 00 00 00 00 00 00 00 00 00 00 00 00 00  ................
  0000000010002DC0: 00 00 00 00 00 00 00 00 00 00 00 00 00 00 00 00  ................
  0000000010002DD0: 00 00 00 00 00 00 00 00 00 00 00 00 00 00 00 00  ................
  0000000010002DE0: 00 00 00 00 00 00 00 00 00 00 00 00 00 00 00 00  ................
  0000000010002DF0: 00 00 00 00 00 00 00 00 00 00 00 00 00 00 00 00  ................
  0000000010002E00: 00 00 00 00 00 00 00 00 00 00 00 00 00 00 00 00  ................
  0000000010002E10: 00 00 00 00 00 00 00 00 00 00 00 00 00 00 00 00  ................
  0000000010002E20: 00 00 00 00 00 00 00 00 00 00 00 00 00 00 00 00  ................
  0000000010002E30: 00 00 00 00 00 00 00 00 00 00 00 00 00 00 00 00  ................
  0000000010002E40: 00 00 00 00 00 00 00 00 00 00 00 00 00 00 00 00  ................
  0000000010002E50: 00 00 00 00 00 00 00 00 00 00 00 00 00 00 00 00  ................
  0000000010002E60: 00 00 00 00 00 00 00 00 00 00 00 00 00 00 00 00  ................
  0000000010002E70: 00 00 00 00 00 00 00 00 00 00 00 00 00 00 00 00  ................
  0000000010002E80: 00 00 00 00 00 00 00 00 00 00 00 00 00 00 00 00  ................
  0000000010002E90: 00 00 00 00 00 00 00 00 00 00 00 00 00 00 00 00  ................
  0000000010002EA0: 00 00 00 00 00 00 00 00 00 00 00 00 00 00 00 00  ................
  0000000010002EB0: 80 00 00 00 00 00 00 00 88 00 00 00 00 00 00 00  ................
  0000000010002EC0: FF FF FF FF FF FF FF FF 00 00 00 00 00 00 00 00  ÿÿÿÿÿÿÿÿ........
  0000000010002ED0: 4E 00 6F 00 20 00 3B 00 00 00 00 00 00 00 00 00  N.o. .;.........
  0000000010002EE0: 4E 00 6F 00 20 00 3D 00 00 00 00 00 00 00 00 00  N.o. .=.........
  0000000010002EF0: 4E 00 6F 00 20 00 3A 00 00 00 00 00 00 00 00 00  N.o. .:.........
  0000000010002F00: 4E 00 6F 00 20 00 4F 00 46 00 00 00 00 00 00 00  N.o. .O.F.......
  0000000010002F10: 4E 00 6F 00 20 00 45 00 4E 00 44 00 00 00 00 00  N.o. .E.N.D.....
  0000000010002F20: 4E 00 6F 00 20 00 54 00 4F 00 00 00 00 00 00 00  N.o. .T.O.......
  0000000010002F30: 4E 00 6F 00 20 00 29 00 00 00 00 00 00 00 00 00  N.o. .).........
  0000000010002F40: 4E 00 6F 00 20 00 5D 00 00 00 00 00 00 00 00 00  N.o. .].........
  0000000010002F50: 4E 00 6F 00 20 00 7D 00 00 00 00 00 00 00 00 00  N.o. .}.........
  0000000010002F60: 4E 00 6F 00 20 00 54 00 48 00 45 00 4E 00 00 00  N.o. .T.H.E.N...
  0000000010002F70: 4E 00 6F 00 20 00 44 00 4F 00 00 00 00 00 00 00  N.o. .D.O.......
  0000000010002F80: 4E 00 6F 00 20 00 55 00 4E 00 54 00 49 00 4C 00  N.o. .U.N.T.I.L.
  0000000010002F90: 00 00 00 00 00 00 00 00 00 00 00 00 00 00 00 00  ................
  0000000010002FA0: 4E 00 6F 00 20 00 3A 00 3D 00 00 00 00 00 00 00  N.o. .:.=.......
  0000000010002FB0: 4E 00 6F 00 20 00 2E 00 00 00 00 00 00 00 00 00  N.o. ...........
  0000000010002FC0: 4E 00 6F 00 20 00 2C 00 00 00 00 00 00 00 00 00  N.o. .,.........
  0000000010002FD0: 4E 00 6F 00 20 00 69 00 64 00 65 00 6E 00 74 00  N.o. .i.d.e.n.t.
  0000000010002FE0: 3F 00 00 00 00 00 00 00 00 00 00 00 00 00 00 00  ?...............
  0000000010002FF0: 4E 00 6F 00 20 00 52 00 45 00 54 00 55 00 52 00  N.o. .R.E.T.U.R.
  0000000010003000: 4E 00 3F 00 00 00 00 00 00 00 00 00 00 00 00 00  N.?.............
  0000000010003010: 6E 00 6F 00 20 00 2C 00 00 00 00 00 00 00 00 00  n.o. .,.........
  0000000010003020: 6E 00 6F 00 20 00 3B 00 00 00 00 00 00 00 00 00  n.o. .;.........
  0000000010003030: 6E 00 6F 00 74 00 20 00 69 00 6E 00 74 00 00 00  n.o.t. .i.n.t...
  0000000010003040: 6E 00 6F 00 74 00 20 00 49 00 4E 00 54 00 45 00  n.o.t. .I.N.T.E.
  0000000010003050: 47 00 45 00 52 00 00 00 00 00 00 00 00 00 00 00  G.E.R...........
  0000000010003060: 6E 00 6F 00 74 00 20 00 62 00 6F 00 6F 00 6C 00  n.o.t. .b.o.o.l.
  0000000010003070: 00 00 00 00 00 00 00 00 00 00 00 00 00 00 00 00  ................
  0000000010003080: 6E 00 6F 00 74 00 20 00 73 00 65 00 74 00 00 00  n.o.t. .s.e.t...
  0000000010003090: 6E 00 6F 00 74 00 20 00 72 00 65 00 61 00 6C 00  n.o.t. .r.e.a.l.
  00000000100030A0: 20 00 6E 00 75 00 6D 00 62 00 65 00 72 00 00 00   .n.u.m.b.e.r...
  00000000100030B0: 72 00 65 00 61 00 64 00 20 00 6F 00 6E 00 6C 00  r.e.a.d. .o.n.l.
  00000000100030C0: 79 00 00 00 00 00 00 00 00 00 00 00 00 00 00 00  y...............
  00000000100030D0: 72 00 65 00 61 00 64 00 20 00 6F 00 6E 00 6C 00  r.e.a.d. .o.n.l.
  00000000100030E0: 79 00 00 00 00 00 00 00 00 00 00 00 00 00 00 00  y...............
  00000000100030F0: 6E 00 6F 00 74 00 20 00 76 00 61 00 72 00 00 00  n.o.t. .v.a.r...
  0000000010003100: 69 00 6E 00 76 00 61 00 6C 00 69 00 64 00 20 00  i.n.v.a.l.i.d. .
  0000000010003110: 70 00 61 00 72 00 20 00 74 00 79 00 70 00 65 00  p.a.r. .t.y.p.e.
  0000000010003120: 00 00 00 00 00 00 00 00 00 00 00 00 00 00 00 00  ................
  0000000010003130: 69 00 6E 00 76 00 61 00 6C 00 69 00 64 00 20 00  i.n.v.a.l.i.d. .
  0000000010003140: 74 00 79 00 70 00 65 00 00 00 00 00 00 00 00 00  t.y.p.e.........
  0000000010003150: 69 00 6E 00 76 00 61 00 6C 00 69 00 64 00 20 00  i.n.v.a.l.i.d. .
  0000000010003160: 74 00 79 00 70 00 65 00 00 00 00 00 00 00 00 00  t.y.p.e.........
  0000000010003170: 69 00 6E 00 76 00 61 00 6C 00 69 00 64 00 20 00  i.n.v.a.l.i.d. .
  0000000010003180: 74 00 79 00 70 00 65 00 00 00 00 00 00 00 00 00  t.y.p.e.........
  0000000010003190: 49 00 64 00 65 00 6E 00 74 00 20 00 61 00 6C 00  I.d.e.n.t. .a.l.
  00000000100031A0: 72 00 65 00 61 00 64 00 79 00 20 00 75 00 73 00  r.e.a.d.y. .u.s.
  00000000100031B0: 65 00 64 00 00 00 00 00 00 00 00 00 00 00 00 00  e.d.............
  00000000100031C0: 69 00 64 00 65 00 6E 00 74 00 69 00 66 00 69 00  i.d.e.n.t.i.f.i.
  00000000100031D0: 65 00 72 00 20 00 75 00 6E 00 64 00 65 00 66 00  e.r. .u.n.d.e.f.
  00000000100031E0: 69 00 6E 00 65 00 64 00 00 00 00 00 00 00 00 00  i.n.e.d.........
  00000000100031F0: 41 00 63 00 63 00 65 00 73 00 73 00 20 00 74 00  A.c.c.e.s.s. .t.
  0000000010003200: 6F 00 20 00 6E 00 6F 00 6E 00 20 00 73 00 74 00  o. .n.o.n. .s.t.
  0000000010003210: 72 00 69 00 63 00 74 00 6C 00 79 00 20 00 6C 00  r.i.c.t.l.y. .l.
  0000000010003220: 6F 00 63 00 61 00 6C 00 20 00 76 00 61 00 72 00  o.c.a.l. .v.a.r.
  0000000010003230: 69 00 61 00 62 00 6C 00 65 00 00 00 00 00 00 00  i.a.b.l.e.......
  0000000010003240: 6E 00 6F 00 74 00 20 00 66 00 6F 00 75 00 6E 00  n.o.t. .f.o.u.n.
  0000000010003250: 64 00 00 00 00 00 00 00 00 00 00 00 00 00 00 00  d...............
  0000000010003260: 72 00 65 00 6D 00 6F 00 76 00 65 00 20 00 2C 00  r.e.m.o.v.e. .,.
  0000000010003270: 00 00 00 00 00 00 00 00 00 00 00 00 00 00 00 00  ................
  0000000010003280: 74 00 6F 00 6F 00 20 00 6D 00 61 00 6E 00 79 00  t.o.o. .m.a.n.y.
  0000000010003290: 20 00 70 00 61 00 72 00 61 00 6D 00 73 00 00 00   .p.a.r.a.m.s...
  00000000100032A0: 6E 00 6F 00 74 00 20 00 65 00 6E 00 6F 00 75 00  n.o.t. .e.n.o.u.
  00000000100032B0: 67 00 68 00 20 00 70 00 61 00 72 00 61 00 6D 00  g.h. .p.a.r.a.m.
  00000000100032C0: 73 00 00 00 00 00 00 00 00 00 00 00 00 00 00 00  s...............
  00000000100032D0: 6E 00 65 00 65 00 64 00 20 00 70 00 61 00 72 00  n.e.e.d. .p.a.r.
  00000000100032E0: 61 00 6D 00 73 00 00 00 00 00 00 00 00 00 00 00  a.m.s...........
  00000000100032F0: 69 00 6E 00 76 00 61 00 6C 00 69 00 64 00 20 00  i.n.v.a.l.i.d. .
  0000000010003300: 76 00 61 00 6C 00 75 00 65 00 00 00 00 00 00 00  v.a.l.u.e.......
  0000000010003310: 6E 00 6F 00 20 00 66 00 69 00 65 00 6C 00 64 00  n.o. .f.i.e.l.d.
  0000000010003320: 3F 00 00 00 00 00 00 00 00 00 00 00 00 00 00 00  ?...............
  0000000010003330: 46 00 69 00 65 00 6C 00 64 00 20 00 6E 00 6F 00  F.i.e.l.d. .n.o.
  0000000010003340: 74 00 20 00 66 00 6F 00 75 00 6E 00 64 00 00 00  t. .f.o.u.n.d...
  0000000010003350: 6E 00 6F 00 74 00 20 00 6D 00 75 00 6C 00 74 00  n.o.t. .m.u.l.t.
  0000000010003360: 69 00 2D 00 64 00 69 00 6D 00 65 00 6E 00 73 00  i.-.d.i.m.e.n.s.
  0000000010003370: 69 00 6F 00 6E 00 00 00 00 00 00 00 00 00 00 00  i.o.n...........
  0000000010003380: 6E 00 6F 00 74 00 20 00 74 00 79 00 70 00 65 00  n.o.t. .t.y.p.e.
  0000000010003390: 00 00 00 00 00 00 00 00 00 00 00 00 00 00 00 00  ................
  00000000100033A0: 69 00 6E 00 76 00 61 00 6C 00 69 00 64 00 20 00  i.n.v.a.l.i.d. .
  00000000100033B0: 74 00 79 00 70 00 65 00 00 00 00 00 00 00 00 00  t.y.p.e.........
  00000000100033C0: 6E 00 6F 00 74 00 20 00 74 00 79 00 70 00 65 00  n.o.t. .t.y.p.e.
  00000000100033D0: 00 00 00 00 00 00 00 00 00 00 00 00 00 00 00 00  ................
  00000000100033E0: 6E 00 6F 00 74 00 20 00 74 00 79 00 70 00 65 00  n.o.t. .t.y.p.e.
  00000000100033F0: 00 00 00 00 00 00 00 00 00 00 00 00 00 00 00 00  ................
  0000000010003400: 6E 00 6F 00 74 00 20 00 73 00 63 00 61 00 6C 00  n.o.t. .s.c.a.l.
  0000000010003410: 61 00 72 00 00 00 00 00 00 00 00 00 00 00 00 00  a.r.............
  0000000010003420: 6E 00 6F 00 74 00 20 00 73 00 63 00 61 00 6C 00  n.o.t. .s.c.a.l.
  0000000010003430: 61 00 72 00 00 00 00 00 00 00 00 00 00 00 00 00  a.r.............
  0000000010003440: 6E 00 6F 00 74 00 20 00 73 00 63 00 61 00 6C 00  n.o.t. .s.c.a.l.
  0000000010003450: 61 00 72 00 00 00 00 00 00 00 00 00 00 00 00 00  a.r.............
  0000000010003460: 72 00 65 00 6D 00 6F 00 76 00 65 00 20 00 2C 00  r.e.m.o.v.e. .,.
  0000000010003470: 00 00 00 00 00 00 00 00 00 00 00 00 00 00 00 00  ................
  0000000010003480: 6E 00 6F 00 74 00 20 00 66 00 75 00 6E 00 63 00  n.o.t. .f.u.n.c.
  0000000010003490: 74 00 69 00 6F 00 6E 00 00 00 00 00 00 00 00 00  t.i.o.n.........
  00000000100034A0: 69 00 6E 00 76 00 61 00 6C 00 69 00 64 00 20 00  i.n.v.a.l.i.d. .
  00000000100034B0: 66 00 61 00 63 00 74 00 6F 00 72 00 00 00 00 00  f.a.c.t.o.r.....
  00000000100034C0: 6E 00 6F 00 74 00 20 00 66 00 75 00 6E 00 63 00  n.o.t. .f.u.n.c.
  00000000100034D0: 74 00 69 00 6F 00 6E 00 00 00 00 00 00 00 00 00  t.i.o.n.........
  00000000100034E0: 49 00 6E 00 76 00 61 00 6C 00 69 00 64 00 20 00  I.n.v.a.l.i.d. .
  00000000100034F0: 66 00 61 00 63 00 74 00 6F 00 72 00 00 00 00 00  f.a.c.t.o.r.....
  0000000010003500: 69 00 6E 00 76 00 61 00 6C 00 69 00 64 00 20 00  i.n.v.a.l.i.d. .
  0000000010003510: 74 00 79 00 70 00 65 00 00 00 00 00 00 00 00 00  t.y.p.e.........
  0000000010003520: 69 00 6E 00 76 00 61 00 6C 00 69 00 64 00 20 00  i.n.v.a.l.i.d. .
  0000000010003530: 74 00 79 00 70 00 65 00 00 00 00 00 00 00 00 00  t.y.p.e.........
  0000000010003540: 69 00 6E 00 76 00 61 00 6C 00 69 00 64 00 20 00  i.n.v.a.l.i.d. .
  0000000010003550: 74 00 79 00 70 00 65 00 00 00 00 00 00 00 00 00  t.y.p.e.........
  0000000010003560: 69 00 6E 00 76 00 61 00 6C 00 69 00 64 00 20 00  i.n.v.a.l.i.d. .
  0000000010003570: 74 00 79 00 70 00 65 00 00 00 00 00 00 00 00 00  t.y.p.e.........
  0000000010003580: 69 00 6E 00 76 00 61 00 6C 00 69 00 64 00 20 00  i.n.v.a.l.i.d. .
  0000000010003590: 74 00 79 00 70 00 65 00 00 00 00 00 00 00 00 00  t.y.p.e.........
  00000000100035A0: 6E 00 6F 00 74 00 20 00 74 00 79 00 70 00 65 00  n.o.t. .t.y.p.e.
  00000000100035B0: 00 00 00 00 00 00 00 00 00 00 00 00 00 00 00 00  ................
  00000000100035C0: 6E 00 6F 00 74 00 20 00 63 00 6F 00 6E 00 73 00  n.o.t. .c.o.n.s.
  00000000100035D0: 74 00 00 00 00 00 00 00 00 00 00 00 00 00 00 00  t...............
  00000000100035E0: 69 00 6E 00 76 00 61 00 6C 00 69 00 64 00 20 00  i.n.v.a.l.i.d. .
  00000000100035F0: 74 00 79 00 70 00 65 00 00 00 00 00 00 00 00 00  t.y.p.e.........
  0000000010003600: 69 00 6E 00 76 00 61 00 6C 00 69 00 64 00 20 00  i.n.v.a.l.i.d. .
  0000000010003610: 74 00 79 00 70 00 65 00 00 00 00 00 00 00 00 00  t.y.p.e.........
  0000000010003620: 6E 00 6F 00 74 00 20 00 49 00 4E 00 54 00 45 00  n.o.t. .I.N.T.E.
  0000000010003630: 47 00 45 00 52 00 00 00 00 00 00 00 00 00 00 00  G.E.R...........
  0000000010003640: 6E 00 6F 00 74 00 20 00 73 00 74 00 72 00 69 00  n.o.t. .s.t.r.i.
  0000000010003650: 6E 00 67 00 00 00 00 00 00 00 00 00 00 00 00 00  n.g.............
  0000000010003660: 6E 00 6F 00 74 00 20 00 49 00 4E 00 54 00 45 00  n.o.t. .I.N.T.E.
  0000000010003670: 47 00 45 00 52 00 20 00 6F 00 72 00 20 00 70 00  G.E.R. .o.r. .p.
  0000000010003680: 72 00 6F 00 63 00 65 00 64 00 75 00 72 00 65 00  r.o.c.e.d.u.r.e.
  0000000010003690: 20 00 76 00 61 00 72 00 69 00 61 00 62 00 6C 00   .v.a.r.i.a.b.l.
  00000000100036A0: 65 00 00 00 00 00 00 00 00 00 00 00 00 00 00 00  e...............
  00000000100036B0: 75 00 6E 00 73 00 75 00 70 00 70 00 6F 00 72 00  u.n.s.u.p.p.o.r.
  00000000100036C0: 74 00 65 00 64 00 00 00 00 00 00 00 00 00 00 00  t.e.d...........
  00000000100036D0: 69 00 6E 00 76 00 61 00 6C 00 69 00 64 00 20 00  i.n.v.a.l.i.d. .
  00000000100036E0: 74 00 79 00 70 00 65 00 00 00 00 00 00 00 00 00  t.y.p.e.........
  00000000100036F0: 6E 00 6F 00 74 00 20 00 74 00 79 00 70 00 65 00  n.o.t. .t.y.p.e.
  0000000010003700: 00 00 00 00 00 00 00 00 00 00 00 00 00 00 00 00  ................
  0000000010003710: 69 00 6E 00 76 00 61 00 6C 00 69 00 64 00 20 00  i.n.v.a.l.i.d. .
  0000000010003720: 63 00 61 00 73 00 65 00 20 00 65 00 78 00 70 00  c.a.s.e. .e.x.p.
  0000000010003730: 72 00 65 00 73 00 73 00 69 00 6F 00 6E 00 00 00  r.e.s.s.i.o.n...
  0000000010003740: 53 00 74 00 61 00 74 00 65 00 6D 00 65 00 6E 00  S.t.a.t.e.m.e.n.
  0000000010003750: 74 00 3F 00 00 00 00 00 00 00 00 00 00 00 00 00  t.?.............
  0000000010003760: 49 00 6E 00 76 00 61 00 6C 00 69 00 64 00 20 00  I.n.v.a.l.i.d. .
  0000000010003770: 61 00 73 00 73 00 69 00 67 00 6E 00 6D 00 65 00  a.s.s.i.g.n.m.e.
  0000000010003780: 6E 00 74 00 00 00 00 00 00 00 00 00 00 00 00 00  n.t.............
  0000000010003790: 53 00 68 00 6F 00 75 00 6C 00 64 00 20 00 62 00  S.h.o.u.l.d. .b.
  00000000100037A0: 65 00 20 00 3A 00 3D 00 00 00 00 00 00 00 00 00  e. .:.=.........
  00000000100037B0: 4E 00 6F 00 74 00 20 00 70 00 72 00 6F 00 70 00  N.o.t. .p.r.o.p.
  00000000100037C0: 65 00 72 00 20 00 70 00 72 00 6F 00 63 00 65 00  e.r. .p.r.o.c.e.
  00000000100037D0: 64 00 75 00 72 00 65 00 00 00 00 00 00 00 00 00  d.u.r.e.........
  00000000100037E0: 49 00 6E 00 76 00 61 00 6C 00 69 00 64 00 20 00  I.n.v.a.l.i.d. .
  00000000100037F0: 73 00 74 00 61 00 74 00 65 00 6D 00 65 00 6E 00  s.t.a.t.e.m.e.n.
  0000000010003800: 74 00 00 00 00 00 00 00 00 00 00 00 00 00 00 00  t...............
  0000000010003810: 72 00 65 00 6D 00 6F 00 76 00 65 00 20 00 2A 00  r.e.m.o.v.e. .*.
  0000000010003820: 00 00 00 00 00 00 00 00 00 00 00 00 00 00 00 00  ................
  0000000010003830: 6E 00 6F 00 74 00 20 00 74 00 79 00 70 00 65 00  n.o.t. .t.y.p.e.
  0000000010003840: 00 00 00 00 00 00 00 00 00 00 00 00 00 00 00 00  ................
  0000000010003850: 4D 00 75 00 6C 00 74 00 69 00 2D 00 64 00 69 00  M.u.l.t.i.-.d.i.
  0000000010003860: 6D 00 20 00 6F 00 70 00 65 00 6E 00 20 00 61 00  m. .o.p.e.n. .a.
  0000000010003870: 72 00 72 00 61 00 79 00 20 00 6E 00 6F 00 74 00  r.r.a.y. .n.o.t.
  0000000010003880: 20 00 73 00 75 00 70 00 70 00 6F 00 72 00 74 00   .s.u.p.p.o.r.t.
  0000000010003890: 65 00 64 00 00 00 00 00 00 00 00 00 00 00 00 00  e.d.............
  00000000100038A0: 72 00 65 00 6D 00 6F 00 76 00 65 00 20 00 2C 00  r.e.m.o.v.e. .,.
  00000000100038B0: 00 00 00 00 00 00 00 00 00 00 00 00 00 00 00 00  ................
  00000000100038C0: 4E 00 6F 00 20 00 70 00 61 00 72 00 61 00 6D 00  N.o. .p.a.r.a.m.
  00000000100038D0: 73 00 3F 00 00 00 00 00 00 00 00 00 00 00 00 00  s.?.............
  00000000100038E0: 70 00 61 00 72 00 61 00 6D 00 20 00 73 00 65 00  p.a.r.a.m. .s.e.
  00000000100038F0: 63 00 74 00 69 00 6F 00 6E 00 3F 00 00 00 00 00  c.t.i.o.n.?.....
  0000000010003900: 69 00 6E 00 76 00 61 00 6C 00 69 00 64 00 20 00  i.n.v.a.l.i.d. .
  0000000010003910: 74 00 79 00 70 00 65 00 00 00 00 00 00 00 00 00  t.y.p.e.........
  0000000010003920: 6E 00 6F 00 74 00 20 00 74 00 79 00 70 00 65 00  n.o.t. .t.y.p.e.
  0000000010003930: 00 00 00 00 00 00 00 00 00 00 00 00 00 00 00 00  ................
  0000000010003940: 6E 00 6F 00 74 00 20 00 72 00 65 00 63 00 6F 00  n.o.t. .r.e.c.o.
  0000000010003950: 72 00 64 00 20 00 74 00 79 00 70 00 65 00 00 00  r.d. .t.y.p.e...
  0000000010003960: 62 00 61 00 73 00 65 00 20 00 74 00 79 00 70 00  b.a.s.e. .t.y.p.
  0000000010003970: 65 00 3F 00 00 00 00 00 00 00 00 00 00 00 00 00  e.?.............
  0000000010003980: 72 00 65 00 6D 00 6F 00 76 00 65 00 20 00 2C 00  r.e.m.o.v.e. .,.
  0000000010003990: 00 00 00 00 00 00 00 00 00 00 00 00 00 00 00 00  ................
  00000000100039A0: 74 00 68 00 69 00 73 00 20 00 74 00 79 00 70 00  t.h.i.s. .t.y.p.
  00000000100039B0: 65 00 20 00 69 00 73 00 20 00 6E 00 6F 00 74 00  e. .i.s. .n.o.t.
  00000000100039C0: 20 00 64 00 65 00 66 00 69 00 6E 00 65 00 64 00   .d.e.f.i.n.e.d.
  00000000100039D0: 20 00 79 00 65 00 74 00 00 00 00 00 00 00 00 00   .y.e.t.........
  00000000100039E0: 6E 00 6F 00 74 00 20 00 72 00 65 00 63 00 6F 00  n.o.t. .r.e.c.o.
  00000000100039F0: 72 00 64 00 20 00 74 00 79 00 70 00 65 00 00 00  r.d. .t.y.p.e...
  0000000010003A00: 6D 00 61 00 78 00 20 00 65 00 78 00 74 00 65 00  m.a.x. .e.x.t.e.
  0000000010003A10: 6E 00 73 00 69 00 6F 00 6E 00 20 00 6C 00 69 00  n.s.i.o.n. .l.i.
  0000000010003A20: 6D 00 69 00 74 00 20 00 72 00 65 00 61 00 63 00  m.i.t. .r.e.a.c.
  0000000010003A30: 68 00 65 00 64 00 00 00 00 00 00 00 00 00 00 00  h.e.d...........
  0000000010003A40: 6E 00 6F 00 74 00 20 00 69 00 6E 00 74 00 00 00  n.o.t. .i.n.t...
  0000000010003A50: 69 00 6E 00 76 00 61 00 6C 00 69 00 64 00 20 00  i.n.v.a.l.i.d. .
  0000000010003A60: 61 00 72 00 72 00 61 00 79 00 20 00 6C 00 65 00  a.r.r.a.y. .l.e.
  0000000010003A70: 6E 00 67 00 74 00 68 00 00 00 00 00 00 00 00 00  n.g.t.h.........
  0000000010003A80: 6E 00 6F 00 74 00 20 00 74 00 79 00 70 00 65 00  n.o.t. .t.y.p.e.
  0000000010003A90: 00 00 00 00 00 00 00 00 00 00 00 00 00 00 00 00  ................
  0000000010003AA0: 72 00 65 00 6D 00 6F 00 76 00 65 00 20 00 2C 00  r.e.m.o.v.e. .,.
  0000000010003AB0: 00 00 00 00 00 00 00 00 00 00 00 00 00 00 00 00  ................
  0000000010003AC0: 6E 00 6F 00 20 00 66 00 69 00 65 00 6C 00 64 00  n.o. .f.i.e.l.d.
  0000000010003AD0: 6C 00 69 00 73 00 74 00 2C 00 20 00 72 00 65 00  l.i.s.t.,. .r.e.
  0000000010003AE0: 6D 00 6F 00 76 00 65 00 20 00 3B 00 00 00 00 00  m.o.v.e. .;.....
  0000000010003AF0: 6E 00 6F 00 20 00 74 00 79 00 70 00 65 00 3F 00  n.o. .t.y.p.e.?.
  0000000010003B00: 00 00 00 00 00 00 00 00 00 00 00 00 00 00 00 00  ................
  0000000010003B10: 73 00 6F 00 6D 00 65 00 20 00 70 00 6F 00 69 00  s.o.m.e. .p.o.i.
  0000000010003B20: 6E 00 74 00 65 00 72 00 73 00 20 00 64 00 69 00  n.t.e.r.s. .d.i.
  0000000010003B30: 64 00 6E 00 74 00 20 00 68 00 61 00 76 00 65 00  d.n.t. .h.a.v.e.
  0000000010003B40: 20 00 62 00 61 00 73 00 65 00 20 00 74 00 79 00   .b.a.s.e. .t.y.
  0000000010003B50: 70 00 65 00 00 00 00 00 00 00 00 00 00 00 00 00  p.e.............
  0000000010003B60: 70 00 72 00 6F 00 63 00 20 00 6E 00 61 00 6D 00  p.r.o.c. .n.a.m.
  0000000010003B70: 65 00 3F 00 00 00 00 00 00 00 00 00 00 00 00 00  e.?.............
  0000000010003B80: 6E 00 6F 00 74 00 20 00 66 00 75 00 6E 00 63 00  n.o.t. .f.u.n.c.
  0000000010003B90: 74 00 69 00 6F 00 6E 00 20 00 70 00 72 00 6F 00  t.i.o.n. .p.r.o.
  0000000010003BA0: 63 00 00 00 00 00 00 00 00 00 00 00 00 00 00 00  c...............
  0000000010003BB0: 69 00 6E 00 76 00 61 00 6C 00 69 00 64 00 20 00  i.n.v.a.l.i.d. .
  0000000010003BC0: 74 00 79 00 70 00 65 00 00 00 00 00 00 00 00 00  t.y.p.e.........
  0000000010003BD0: 77 00 72 00 6F 00 6E 00 67 00 20 00 70 00 72 00  w.r.o.n.g. .p.r.
  0000000010003BE0: 6F 00 63 00 20 00 69 00 64 00 65 00 6E 00 74 00  o.c. .i.d.e.n.t.
  0000000010003BF0: 00 00 00 00 00 00 00 00 00 00 00 00 00 00 00 00  ................
  0000000010003C00: 00 00 00 00 00 00 00 00 00 00 00 00 00 00 00 00  ................
  0000000010003C10: 77 00 72 00 6F 00 6E 00 67 00 20 00 6D 00 6F 00  w.r.o.n.g. .m.o.
  0000000010003C20: 64 00 75 00 6C 00 65 00 20 00 6E 00 61 00 6D 00  d.u.l.e. .n.a.m.
  0000000010003C30: 65 00 00 00 00 00 00 00 00 00 00 00 00 00 00 00  e...............
  0000000010003C40: 43 00 72 00 65 00 61 00 74 00 65 00 64 00 20 00  C.r.e.a.t.e.d. .
  0000000010003C50: 73 00 79 00 6D 00 62 00 6F 00 6C 00 20 00 66 00  s.y.m.b.o.l. .f.
  0000000010003C60: 69 00 6C 00 65 00 3A 00 20 00 00 00 00 00 00 00  i.l.e.:. .......
  0000000010003C70: 2E 00 73 00 79 00 6D 00 00 00 00 00 00 00 00 00  ..s.y.m.........
  0000000010003C80: 00 00 00 00 00 00 00 00 00 00 00 00 00 00 00 00  ................
  0000000010003C90: 00 00 00 00 00 00 00 00 00 00 00 00 00 00 00 00  ................
  0000000010003CA0: 00 00 00 00 00 00 00 00 00 00 00 00 00 00 00 00  ................
  0000000010003CB0: 00 00 00 00 00 00 00 00 00 00 00 00 00 00 00 00  ................
  0000000010003CC0: 00 00 00 00 00 00 00 00 00 00 00 00 00 00 00 00  ................
  0000000010003CD0: 00 00 00 00 00 00 00 00 00 00 00 00 00 00 00 00  ................
  0000000010003CE0: 00 00 00 00 00 00 00 00 00 00 00 00 00 00 00 00  ................
  0000000010003CF0: 00 00 00 00 00 00 00 00 00 00 00 00 00 00 00 00  ................
  0000000010003D00: 00 00 00 00 00 00 00 00 00 00 00 00 00 00 00 00  ................
  0000000010003D10: 00 00 00 00 00 00 00 00 00 00 00 00 00 00 00 00  ................
  0000000010003D20: 00 00 00 00 00 00 00 00 00 00 00 00 00 00 00 00  ................
  0000000010003D30: 00 00 00 00 00 00 00 00 00 00 00 00 00 00 00 00  ................
  0000000010003D40: 00 00 00 00 00 00 00 00 00 00 00 00 00 00 00 00  ................
  0000000010003D50: 00 00 00 00 00 00 00 00 00 00 00 00 00 00 00 00  ................
  0000000010003D60: 00 00 00 00 00 00 00 00 00 00 00 00 00 00 00 00  ................
  0000000010003D70: 00 00 00 00 00 00 00 00 00 00 00 00 00 00 00 00  ................
  0000000010003D80: 00 00 00 00 00 00 00 00 00 00 00 00 00 00 00 00  ................
  0000000010003D90: 00 00 00 00 00 00 00 00 00 00 00 00 00 00 00 00  ................
  0000000010003DA0: 00 00 00 00 00 00 00 00 00 00 00 00 00 00 00 00  ................
  0000000010003DB0: 00 00 00 00 00 00 00 00 00 00 00 00 00 00 00 00  ................
  0000000010003DC0: 00 00 00 00 00 00 00 00 00 00 00 00 00 00 00 00  ................
  0000000010003DD0: 00 00 00 00 00 00 00 00 00 00 00 00 00 00 00 00  ................
  0000000010003DE0: 00 00 00 00 00 00 00 00 00 00 00 00 00 00 00 00  ................
  0000000010003DF0: 00 00 00 00 00 00 00 00 00 00 00 00 00 00 00 00  ................
  0000000010003E00: 00 00 00 00 00 00 00 00 00 00 00 00 00 00 00 00  ................
  0000000010003E10: 00 00 00 00 00 00 00 00 00 00 00 00 00 00 00 00  ................
  0000000010003E20: 00 00 00 00 00 00 00 00 00 00 00 00 00 00 00 00  ................
  0000000010003E30: 00 00 00 00 00 00 00 00 00 00 00 00 00 00 00 00  ................
  0000000010003E40: 00 00 00 00 00 00 00 00 00 00 00 00 00 00 00 00  ................
  0000000010003E50: 00 00 00 00 00 00 00 00 00 00 00 00 00 00 00 00  ................
  0000000010003E60: 00 00 00 00 00 00 00 00 00 00 00 00 00 00 00 00  ................
  0000000010003E70: 00 00 00 00 00 00 00 00 00 00 00 00 00 00 00 00  ................
  0000000010003E80: 00 00 00 00 00 00 00 00 00 00 00 00 00 00 00 00  ................
  0000000010003E90: 00 00 00 00 00 00 00 00 00 00 00 00 00 00 00 00  ................
  0000000010003EA0: 00 00 00 00 00 00 00 00 00 00 00 00 00 00 00 00  ................
  0000000010003EB0: 00 00 00 00 00 00 00 00 00 00 00 00 00 00 00 00  ................
  0000000010003EC0: 00 00 00 00 00 00 00 00 00 00 00 00 00 00 00 00  ................
  0000000010003ED0: 00 00 00 00 00 00 00 00 00 00 00 00 00 00 00 00  ................
  0000000010003EE0: 47 00 65 00 6E 00 65 00 72 00 61 00 74 00 6F 00  G.e.n.e.r.a.t.o.
  0000000010003EF0: 72 00 31 00 2E 00 64 00 6C 00 6C 00 00 00 00 00  r.1...d.l.l.....
  0000000010003F00: 42 00 61 00 73 00 65 00 31 00 2E 00 64 00 6C 00  B.a.s.e.1...d.l.
  0000000010003F10: 6C 00 00 00 00 00 00 00 00 00 00 00 00 00 00 00  l...............
  0000000010003F20: 53 00 63 00 61 00 6E 00 6E 00 65 00 72 00 31 00  S.c.a.n.n.e.r.1.
  0000000010003F30: 2E 00 64 00 6C 00 6C 00 00 00 00 00 00 00 00 00  ..d.l.l.........
  0000000010003F40: 43 00 72 00 79 00 70 00 74 00 2E 00 64 00 6C 00  C.r.y.p.t...d.l.
  0000000010003F50: 6C 00 00 00 00 00 00 00 00 00 00 00 00 00 00 00  l...............
  0000000010003F60: 42 00 61 00 73 00 65 00 53 00 79 00 73 00 2E 00  B.a.s.e.S.y.s...
  0000000010003F70: 64 00 6C 00 6C 00 00 00 00 00 00 00 00 00 00 00  d.l.l...........
  0000000010003F80: 00 00 00 00 00 00 00 00 00 00 00 00 00 00 00 00  ................
  0000000010003F90: 00 00 00 00 00 00 00 00 00 00 00 00 00 00 00 00  ................
  0000000010003FA0: 00 00 00 00 00 00 00 00 00 00 00 00 00 00 00 00  ................
  0000000010003FB0: 00 00 00 00 00 00 00 00 00 00 00 00 00 00 00 00  ................
  0000000010003FC0: 00 00 00 00 00 00 00 00 70 B0 00 00 00 00 00 00  ........p°......
  0000000010003FD0: 90 B0 00 00 00 00 00 00 B0 B0 00 00 00 00 00 00  .°......°°......
  0000000010003FE0: D0 B0 00 00 00 00 00 00 F0 B0 00 00 00 00 00 00  ?°......?°......
  0000000010003FF0: 10 B1 00 00 00 00 00 00 00 00 00 00 00 00 00 00  .±..............

SECTION HEADER #3
   .text name
    60FE virtual size
    4000 virtual address (0000000010004000 to 000000001000A0FD)
    6200 size of raw data
     400 file pointer to raw data (00000400 to 000065FF)
       0 file pointer to relocation table
       0 file pointer to line numbers
       0 number of relocations
       0 number of line numbers
60000020 flags
         Code
         Execute Read

  0000000010004000: 55                 push        rbp
  0000000010004001: 48 8B EC           mov         rbp,rsp
  0000000010004004: 48 83 EC 20        sub         rsp,20h
  0000000010004008: 48 8D 8B F8 DF FF  lea         rcx,[rbx+FFFFFFFFFFFFDFF8h]
                    FF
  000000001000400F: FF 93 B8 FE FF FF  call        qword ptr [rbx+FFFFFFFFFFFFFEB8h]
  0000000010004015: C9                 leave
  0000000010004016: C3                 ret
  0000000010004017: 90                 nop
  0000000010004018: 90                 nop
  0000000010004019: 90                 nop
  000000001000401A: 90                 nop
  000000001000401B: 90                 nop
  000000001000401C: 90                 nop
  000000001000401D: 90                 nop
  000000001000401E: 90                 nop
  000000001000401F: 90                 nop
  0000000010004020: 55                 push        rbp
  0000000010004021: 48 8B EC           mov         rbp,rsp
  0000000010004024: 48 83 EC 20        sub         rsp,20h
  0000000010004028: 48 89 4D 10        mov         qword ptr [rbp+10h],rcx
  000000001000402C: 48 89 55 18        mov         qword ptr [rbp+18h],rdx
  0000000010004030: 48 8B 4D 10        mov         rcx,qword ptr [rbp+10h]
  0000000010004034: 48 8B 55 18        mov         rdx,qword ptr [rbp+18h]
  0000000010004038: FF 93 B0 FE FF FF  call        qword ptr [rbx+FFFFFFFFFFFFFEB0h]
  000000001000403E: C9                 leave
  000000001000403F: C3                 ret
  0000000010004040: 55                 push        rbp
  0000000010004041: 48 8B EC           mov         rbp,rsp
  0000000010004044: 48 83 EC 20        sub         rsp,20h
  0000000010004048: 48 89 4D 10        mov         qword ptr [rbp+10h],rcx
  000000001000404C: 48 8B 83 F8 DF FF  mov         rax,qword ptr [rbx+FFFFFFFFFFFFDFF8h]
                    FF
  0000000010004053: 48 8B 4D 10        mov         rcx,qword ptr [rbp+10h]
  0000000010004057: 48 3B C1           cmp         rax,rcx
  000000001000405A: 75 0A              jne         0000000010004066
  000000001000405C: E8 9F FF FF FF     call        0000000010004000
  0000000010004061: E9 AC 01 00 00     jmp         0000000010004212
  0000000010004066: 48 83 7D 10 34     cmp         qword ptr [rbp+10h],34h
  000000001000406B: 75 16              jne         0000000010004083
  000000001000406D: 48 8D 8B D0 EE FF  lea         rcx,[rbx+FFFFFFFFFFFFEED0h]
                    FF
  0000000010004074: BA 05 00 00 00     mov         edx,5
  0000000010004079: E8 A2 FF FF FF     call        0000000010004020
  000000001000407E: E9 8F 01 00 00     jmp         0000000010004212
  0000000010004083: 48 83 7D 10 09     cmp         qword ptr [rbp+10h],9
  0000000010004088: 75 16              jne         00000000100040A0
  000000001000408A: 48 8D 8B E0 EE FF  lea         rcx,[rbx+FFFFFFFFFFFFEEE0h]
                    FF
  0000000010004091: BA 05 00 00 00     mov         edx,5
  0000000010004096: E8 85 FF FF FF     call        0000000010004020
  000000001000409B: E9 72 01 00 00     jmp         0000000010004212
  00000000100040A0: 48 83 7D 10 29     cmp         qword ptr [rbp+10h],29h
  00000000100040A5: 75 16              jne         00000000100040BD
  00000000100040A7: 48 8D 8B F0 EE FF  lea         rcx,[rbx+FFFFFFFFFFFFEEF0h]
                    FF
  00000000100040AE: BA 05 00 00 00     mov         edx,5
  00000000100040B3: E8 68 FF FF FF     call        0000000010004020
  00000000100040B8: E9 55 01 00 00     jmp         0000000010004212
  00000000100040BD: 48 83 7D 10 30     cmp         qword ptr [rbp+10h],30h
  00000000100040C2: 75 16              jne         00000000100040DA
  00000000100040C4: 48 8D 8B 00 EF FF  lea         rcx,[rbx+FFFFFFFFFFFFEF00h]
                    FF
  00000000100040CB: BA 06 00 00 00     mov         edx,6
  00000000100040D0: E8 4B FF FF FF     call        0000000010004020
  00000000100040D5: E9 38 01 00 00     jmp         0000000010004212
  00000000100040DA: 48 83 7D 10 35     cmp         qword ptr [rbp+10h],35h
  00000000100040DF: 75 16              jne         00000000100040F7
  00000000100040E1: 48 8D 8B 10 EF FF  lea         rcx,[rbx+FFFFFFFFFFFFEF10h]
                    FF
  00000000100040E8: BA 07 00 00 00     mov         edx,7
  00000000100040ED: E8 2E FF FF FF     call        0000000010004020
  00000000100040F2: E9 1B 01 00 00     jmp         0000000010004212
  00000000100040F7: 48 83 7D 10 32     cmp         qword ptr [rbp+10h],32h
  00000000100040FC: 75 16              jne         0000000010004114
  00000000100040FE: 48 8D 8B 20 EF FF  lea         rcx,[rbx+FFFFFFFFFFFFEF20h]
                    FF
  0000000010004105: BA 06 00 00 00     mov         edx,6
  000000001000410A: E8 11 FF FF FF     call        0000000010004020
  000000001000410F: E9 FE 00 00 00     jmp         0000000010004212
  0000000010004114: 48 83 7D 10 2C     cmp         qword ptr [rbp+10h],2Ch
  0000000010004119: 75 16              jne         0000000010004131
  000000001000411B: 48 8D 8B 30 EF FF  lea         rcx,[rbx+FFFFFFFFFFFFEF30h]
                    FF
  0000000010004122: BA 05 00 00 00     mov         edx,5
  0000000010004127: E8 F4 FE FF FF     call        0000000010004020
  000000001000412C: E9 E1 00 00 00     jmp         0000000010004212
  0000000010004131: 48 83 7D 10 2D     cmp         qword ptr [rbp+10h],2Dh
  0000000010004136: 75 16              jne         000000001000414E
  0000000010004138: 48 8D 8B 40 EF FF  lea         rcx,[rbx+FFFFFFFFFFFFEF40h]
                    FF
  000000001000413F: BA 05 00 00 00     mov         edx,5
  0000000010004144: E8 D7 FE FF FF     call        0000000010004020
  0000000010004149: E9 C4 00 00 00     jmp         0000000010004212
  000000001000414E: 48 83 7D 10 2E     cmp         qword ptr [rbp+10h],2Eh
  0000000010004153: 75 16              jne         000000001000416B
  0000000010004155: 48 8D 8B 50 EF FF  lea         rcx,[rbx+FFFFFFFFFFFFEF50h]
                    FF
  000000001000415C: BA 05 00 00 00     mov         edx,5
  0000000010004161: E8 BA FE FF FF     call        0000000010004020
  0000000010004166: E9 A7 00 00 00     jmp         0000000010004212
  000000001000416B: 48 83 7D 10 2F     cmp         qword ptr [rbp+10h],2Fh
  0000000010004170: 75 16              jne         0000000010004188
  0000000010004172: 48 8D 8B 60 EF FF  lea         rcx,[rbx+FFFFFFFFFFFFEF60h]
                    FF
  0000000010004179: BA 08 00 00 00     mov         edx,8
  000000001000417E: E8 9D FE FF FF     call        0000000010004020
  0000000010004183: E9 8A 00 00 00     jmp         0000000010004212
  0000000010004188: 48 83 7D 10 31     cmp         qword ptr [rbp+10h],31h
  000000001000418D: 75 13              jne         00000000100041A2
  000000001000418F: 48 8D 8B 70 EF FF  lea         rcx,[rbx+FFFFFFFFFFFFEF70h]
                    FF
  0000000010004196: BA 06 00 00 00     mov         edx,6
  000000001000419B: E8 80 FE FF FF     call        0000000010004020
  00000000100041A0: EB 70              jmp         0000000010004212
  00000000100041A2: 48 83 7D 10 39     cmp         qword ptr [rbp+10h],39h
  00000000100041A7: 75 13              jne         00000000100041BC
  00000000100041A9: 48 8D 8B 80 EF FF  lea         rcx,[rbx+FFFFFFFFFFFFEF80h]
                    FF
  00000000100041B0: BA 09 00 00 00     mov         edx,9
  00000000100041B5: E8 66 FE FF FF     call        0000000010004020
  00000000100041BA: EB 56              jmp         0000000010004212
  00000000100041BC: 48 83 7D 10 2A     cmp         qword ptr [rbp+10h],2Ah
  00000000100041C1: 75 13              jne         00000000100041D6
  00000000100041C3: 48 8D 8B A0 EF FF  lea         rcx,[rbx+FFFFFFFFFFFFEFA0h]
                    FF
  00000000100041CA: BA 06 00 00 00     mov         edx,6
  00000000100041CF: E8 4C FE FF FF     call        0000000010004020
  00000000100041D4: EB 3C              jmp         0000000010004212
  00000000100041D6: 48 83 7D 10 12     cmp         qword ptr [rbp+10h],12h
  00000000100041DB: 75 13              jne         00000000100041F0
  00000000100041DD: 48 8D 8B B0 EF FF  lea         rcx,[rbx+FFFFFFFFFFFFEFB0h]
                    FF
  00000000100041E4: BA 05 00 00 00     mov         edx,5
  00000000100041E9: E8 32 FE FF FF     call        0000000010004020
  00000000100041EE: EB 22              jmp         0000000010004212
  00000000100041F0: 48 83 7D 10 28     cmp         qword ptr [rbp+10h],28h
  00000000100041F5: 75 13              jne         000000001000420A
  00000000100041F7: 48 8D 8B C0 EF FF  lea         rcx,[rbx+FFFFFFFFFFFFEFC0h]
                    FF
  00000000100041FE: BA 05 00 00 00     mov         edx,5
  0000000010004203: E8 18 FE FF FF     call        0000000010004020
  0000000010004208: EB 08              jmp         0000000010004212
  000000001000420A: B0 03              mov         al,3
  000000001000420C: B9 99 05 00 00     mov         ecx,599h
  0000000010004211: CC                 int         3
  0000000010004212: C9                 leave
  0000000010004213: C3                 ret
  0000000010004214: 90                 nop
  0000000010004215: 90                 nop
  0000000010004216: 90                 nop
  0000000010004217: 90                 nop
  0000000010004218: 90                 nop
  0000000010004219: 90                 nop
  000000001000421A: 90                 nop
  000000001000421B: 90                 nop
  000000001000421C: 90                 nop
  000000001000421D: 90                 nop
  000000001000421E: 90                 nop
  000000001000421F: 90                 nop
  0000000010004220: 55                 push        rbp
  0000000010004221: 48 8B EC           mov         rbp,rsp
  0000000010004224: 48 83 EC 20        sub         rsp,20h
  0000000010004228: 48 89 4D 10        mov         qword ptr [rbp+10h],rcx
  000000001000422C: 48 83 7D 10 1F     cmp         qword ptr [rbp+10h],1Fh
  0000000010004231: 75 13              jne         0000000010004246
  0000000010004233: 48 8D 8B D0 EF FF  lea         rcx,[rbx+FFFFFFFFFFFFEFD0h]
                    FF
  000000001000423A: BA 0A 00 00 00     mov         edx,0Ah
  000000001000423F: E8 DC FD FF FF     call        0000000010004020
  0000000010004244: EB 56              jmp         000000001000429C
  0000000010004246: 48 83 7D 10 3A     cmp         qword ptr [rbp+10h],3Ah
  000000001000424B: 75 13              jne         0000000010004260
  000000001000424D: 48 8D 8B F0 EF FF  lea         rcx,[rbx+FFFFFFFFFFFFEFF0h]
                    FF
  0000000010004254: BA 0B 00 00 00     mov         edx,0Bh
  0000000010004259: E8 C2 FD FF FF     call        0000000010004020
  000000001000425E: EB 3C              jmp         000000001000429C
  0000000010004260: 48 83 7D 10 28     cmp         qword ptr [rbp+10h],28h
  0000000010004265: 75 13              jne         000000001000427A
  0000000010004267: 48 8D 8B 10 F0 FF  lea         rcx,[rbx+FFFFFFFFFFFFF010h]
                    FF
  000000001000426E: BA 05 00 00 00     mov         edx,5
  0000000010004273: E8 A8 FD FF FF     call        0000000010004020
  0000000010004278: EB 22              jmp         000000001000429C
  000000001000427A: 48 83 7D 10 34     cmp         qword ptr [rbp+10h],34h
  000000001000427F: 75 13              jne         0000000010004294
  0000000010004281: 48 8D 8B 20 F0 FF  lea         rcx,[rbx+FFFFFFFFFFFFF020h]
                    FF
  0000000010004288: BA 05 00 00 00     mov         edx,5
  000000001000428D: E8 8E FD FF FF     call        0000000010004020
  0000000010004292: EB 08              jmp         000000001000429C
  0000000010004294: B0 03              mov         al,3
  0000000010004296: B9 90 06 00 00     mov         ecx,690h
  000000001000429B: CC                 int         3
  000000001000429C: C9                 leave
  000000001000429D: C3                 ret
  000000001000429E: 90                 nop
  000000001000429F: 90                 nop
  00000000100042A0: 55                 push        rbp
  00000000100042A1: 48 8B EC           mov         rbp,rsp
  00000000100042A4: 48 89 4D 10        mov         qword ptr [rbp+10h],rcx
  00000000100042A8: 48 8B 45 10        mov         rax,qword ptr [rbp+10h]
  00000000100042AC: 48 8B 8B A8 FE FF  mov         rcx,qword ptr [rbx+FFFFFFFFFFFFFEA8h]
                    FF
  00000000100042B3: 48 8B 09           mov         rcx,qword ptr [rcx]
  00000000100042B6: 48 3B C1           cmp         rax,rcx
  00000000100042B9: 74 18              je          00000000100042D3
  00000000100042BB: 48 8B 45 10        mov         rax,qword ptr [rbp+10h]
  00000000100042BF: 48 83 38 07        cmp         qword ptr [rax],7
  00000000100042C3: 75 15              jne         00000000100042DA
  00000000100042C5: 48 8B 45 10        mov         rax,qword ptr [rbp+10h]
  00000000100042C9: 48 8B 40 40        mov         rax,qword ptr [rax+40h]
  00000000100042CD: 48 83 38 03        cmp         qword ptr [rax],3
  00000000100042D1: 75 07              jne         00000000100042DA
  00000000100042D3: B8 01 00 00 00     mov         eax,1
  00000000100042D8: EB 02              jmp         00000000100042DC
  00000000100042DA: 31 C0              xor         eax,eax
  00000000100042DC: C9                 leave
  00000000100042DD: C3                 ret
  00000000100042DE: 90                 nop
  00000000100042DF: 90                 nop
  00000000100042E0: 55                 push        rbp
  00000000100042E1: 48 8B EC           mov         rbp,rsp
  00000000100042E4: 48 83 EC 20        sub         rsp,20h
  00000000100042E8: 48 89 4D 10        mov         qword ptr [rbp+10h],rcx
  00000000100042EC: 48 89 55 18        mov         qword ptr [rbp+18h],rdx
  00000000100042F0: 48 8B 4D 10        mov         rcx,qword ptr [rbp+10h]
  00000000100042F4: 48 8B 55 18        mov         rdx,qword ptr [rbp+18h]
  00000000100042F8: 48 3B CA           cmp         rcx,rdx
  00000000100042FB: 74 2A              je          0000000010004327
  00000000100042FD: 48 8B 4D 10        mov         rcx,qword ptr [rbp+10h]
  0000000010004301: 48 8B 49 20        mov         rcx,qword ptr [rcx+20h]
  0000000010004305: 48 8B 55 18        mov         rdx,qword ptr [rbp+18h]
  0000000010004309: 48 8B 52 20        mov         rdx,qword ptr [rdx+20h]
  000000001000430D: 48 3B CA           cmp         rcx,rdx
  0000000010004310: 7E 1C              jle         000000001000432E
  0000000010004312: 48 8B 4D 10        mov         rcx,qword ptr [rbp+10h]
  0000000010004316: 48 8B 49 40        mov         rcx,qword ptr [rcx+40h]
  000000001000431A: 48 8B 55 18        mov         rdx,qword ptr [rbp+18h]
  000000001000431E: E8 BD FF FF FF     call        00000000100042E0
  0000000010004323: 85 C0              test        eax,eax
  0000000010004325: 74 07              je          000000001000432E
  0000000010004327: B8 01 00 00 00     mov         eax,1
  000000001000432C: EB 02              jmp         0000000010004330
  000000001000432E: 31 C0              xor         eax,eax
  0000000010004330: C9                 leave
  0000000010004331: C3                 ret
  0000000010004332: 90                 nop
  0000000010004333: 90                 nop
  0000000010004334: 90                 nop
  0000000010004335: 90                 nop
  0000000010004336: 90                 nop
  0000000010004337: 90                 nop
  0000000010004338: 90                 nop
  0000000010004339: 90                 nop
  000000001000433A: 90                 nop
  000000001000433B: 90                 nop
  000000001000433C: 90                 nop
  000000001000433D: 90                 nop
  000000001000433E: 90                 nop
  000000001000433F: 90                 nop
  0000000010004340: 55                 push        rbp
  0000000010004341: 48 8B EC           mov         rbp,rsp
  0000000010004344: 48 83 EC 20        sub         rsp,20h
  0000000010004348: 48 89 4D 10        mov         qword ptr [rbp+10h],rcx
  000000001000434C: 48 89 55 18        mov         qword ptr [rbp+18h],rdx
  0000000010004350: 48 8B 45 10        mov         rax,qword ptr [rbp+10h]
  0000000010004354: 48 83 38 05        cmp         qword ptr [rax],5
  0000000010004358: 75 0C              jne         0000000010004366
  000000001000435A: 48 8B 45 10        mov         rax,qword ptr [rbp+10h]
  000000001000435E: 48 8B 40 40        mov         rax,qword ptr [rax+40h]
  0000000010004362: 48 89 45 10        mov         qword ptr [rbp+10h],rax
  0000000010004366: 48 8B 45 18        mov         rax,qword ptr [rbp+18h]
  000000001000436A: 48 83 38 05        cmp         qword ptr [rax],5
  000000001000436E: 75 0C              jne         000000001000437C
  0000000010004370: 48 8B 45 18        mov         rax,qword ptr [rbp+18h]
  0000000010004374: 48 8B 40 40        mov         rax,qword ptr [rax+40h]
  0000000010004378: 48 89 45 18        mov         qword ptr [rbp+18h],rax
  000000001000437C: 48 8B 4D 10        mov         rcx,qword ptr [rbp+10h]
  0000000010004380: 48 8B 55 18        mov         rdx,qword ptr [rbp+18h]
  0000000010004384: E8 57 FF FF FF     call        00000000100042E0
  0000000010004389: C9                 leave
  000000001000438A: C3                 ret
  000000001000438B: 90                 nop
  000000001000438C: 90                 nop
  000000001000438D: 90                 nop
  000000001000438E: 90                 nop
  000000001000438F: 90                 nop
  0000000010004390: 55                 push        rbp
  0000000010004391: 48 8B EC           mov         rbp,rsp
  0000000010004394: 48 89 4D 10        mov         qword ptr [rbp+10h],rcx
  0000000010004398: 48 8B 4D 10        mov         rcx,qword ptr [rbp+10h]
  000000001000439C: 48 8B 49 F8        mov         rcx,qword ptr [rcx-8]
  00000000100043A0: 48 8B 93 A0 FE FF  mov         rdx,qword ptr [rbx+FFFFFFFFFFFFFEA0h]
                    FF
  00000000100043A7: 48 39 51 10        cmp         qword ptr [rcx+10h],rdx
  00000000100043AB: 75 32              jne         00000000100043DF
  00000000100043AD: 48 8B 8B A0 FE FF  mov         rcx,qword ptr [rbx+FFFFFFFFFFFFFEA0h]
                    FF
  00000000100043B4: 48 8B 55 10        mov         rdx,qword ptr [rbp+10h]
  00000000100043B8: 48 8B 52 F8        mov         rdx,qword ptr [rdx-8]
  00000000100043BC: 48 39 4A 10        cmp         qword ptr [rdx+10h],rcx
  00000000100043C0: 75 02              jne         00000000100043C4
  00000000100043C2: EB 08              jmp         00000000100043CC
  00000000100043C4: B0 02              mov         al,2
  00000000100043C6: B9 9D 08 00 00     mov         ecx,89Dh
  00000000100043CB: CC                 int         3
  00000000100043CC: 48 8B 4D 10        mov         rcx,qword ptr [rbp+10h]
  00000000100043D0: 0F B6 49 41        movzx       ecx,byte ptr [rcx+41h]
  00000000100043D4: 85 C9              test        ecx,ecx
  00000000100043D6: 74 07              je          00000000100043DF
  00000000100043D8: B9 01 00 00 00     mov         ecx,1
  00000000100043DD: EB 02              jmp         00000000100043E1
  00000000100043DF: 31 C9              xor         ecx,ecx
  00000000100043E1: 48 8B C1           mov         rax,rcx
  00000000100043E4: C9                 leave
  00000000100043E5: C3                 ret
  00000000100043E6: 90                 nop
  00000000100043E7: 90                 nop
  00000000100043E8: 90                 nop
  00000000100043E9: 90                 nop
  00000000100043EA: 90                 nop
  00000000100043EB: 90                 nop
  00000000100043EC: 90                 nop
  00000000100043ED: 90                 nop
  00000000100043EE: 90                 nop
  00000000100043EF: 90                 nop
  00000000100043F0: 55                 push        rbp
  00000000100043F1: 48 8B EC           mov         rbp,rsp
  00000000100043F4: 48 89 4D 10        mov         qword ptr [rbp+10h],rcx
  00000000100043F8: 48 8B 4D 10        mov         rcx,qword ptr [rbp+10h]
  00000000100043FC: 48 8B 49 F8        mov         rcx,qword ptr [rcx-8]
  0000000010004400: 48 8B 93 98 FE FF  mov         rdx,qword ptr [rbx+FFFFFFFFFFFFFE98h]
                    FF
  0000000010004407: 48 39 51 08        cmp         qword ptr [rcx+8],rdx
  000000001000440B: 74 3F              je          000000001000444C
  000000001000440D: 48 8B 4D 10        mov         rcx,qword ptr [rbp+10h]
  0000000010004411: 48 8B 49 F8        mov         rcx,qword ptr [rcx-8]
  0000000010004415: 48 8B 93 90 FE FF  mov         rdx,qword ptr [rbx+FFFFFFFFFFFFFE90h]
                    FF
  000000001000441C: 48 39 51 10        cmp         qword ptr [rcx+10h],rdx
  0000000010004420: 75 31              jne         0000000010004453
  0000000010004422: 48 8B 8B 90 FE FF  mov         rcx,qword ptr [rbx+FFFFFFFFFFFFFE90h]
                    FF
  0000000010004429: 48 8B 55 10        mov         rdx,qword ptr [rbp+10h]
  000000001000442D: 48 8B 52 F8        mov         rdx,qword ptr [rdx-8]
  0000000010004431: 48 39 4A 10        cmp         qword ptr [rdx+10h],rcx
  0000000010004435: 75 02              jne         0000000010004439
  0000000010004437: EB 08              jmp         0000000010004441
  0000000010004439: B0 02              mov         al,2
  000000001000443B: B9 13 09 00 00     mov         ecx,913h
  0000000010004440: CC                 int         3
  0000000010004441: 48 8B 4D 10        mov         rcx,qword ptr [rbp+10h]
  0000000010004445: 48 83 79 48 00     cmp         qword ptr [rcx+48h],0
  000000001000444A: 7C 07              jl          0000000010004453
  000000001000444C: B9 01 00 00 00     mov         ecx,1
  0000000010004451: EB 02              jmp         0000000010004455
  0000000010004453: 31 C9              xor         ecx,ecx
  0000000010004455: 48 8B C1           mov         rax,rcx
  0000000010004458: C9                 leave
  0000000010004459: C3                 ret
  000000001000445A: 90                 nop
  000000001000445B: 90                 nop
  000000001000445C: 90                 nop
  000000001000445D: 90                 nop
  000000001000445E: 90                 nop
  000000001000445F: 90                 nop
  0000000010004460: 55                 push        rbp
  0000000010004461: 48 8B EC           mov         rbp,rsp
  0000000010004464: 48 89 4D 10        mov         qword ptr [rbp+10h],rcx
  0000000010004468: 48 8B 4D 10        mov         rcx,qword ptr [rbp+10h]
  000000001000446C: 48 83 39 07        cmp         qword ptr [rcx],7
  0000000010004470: 75 12              jne         0000000010004484
  0000000010004472: 48 8B 4D 10        mov         rcx,qword ptr [rbp+10h]
  0000000010004476: 48 83 79 20 00     cmp         qword ptr [rcx+20h],0
  000000001000447B: 7D 07              jge         0000000010004484
  000000001000447D: B9 01 00 00 00     mov         ecx,1
  0000000010004482: EB 02              jmp         0000000010004486
  0000000010004484: 31 C9              xor         ecx,ecx
  0000000010004486: 48 8B C1           mov         rax,rcx
  0000000010004489: C9                 leave
  000000001000448A: C3                 ret
  000000001000448B: 90                 nop
  000000001000448C: 90                 nop
  000000001000448D: 90                 nop
  000000001000448E: 90                 nop
  000000001000448F: 90                 nop
  0000000010004490: 55                 push        rbp
  0000000010004491: 48 8B EC           mov         rbp,rsp
  0000000010004494: 48 83 EC 20        sub         rsp,20h
  0000000010004498: 48 89 4D 10        mov         qword ptr [rbp+10h],rcx
  000000001000449C: 48 89 55 18        mov         qword ptr [rbp+18h],rdx
  00000000100044A0: 48 83 7D 10 00     cmp         qword ptr [rbp+10h],0
  00000000100044A5: 75 0B              jne         00000000100044B2
  00000000100044A7: 48 83 7D 18 00     cmp         qword ptr [rbp+18h],0
  00000000100044AC: 0F 84 50 01 00 00  je          0000000010004602
  00000000100044B2: 48 83 7D 10 00     cmp         qword ptr [rbp+10h],0
  00000000100044B7: 0F 84 4C 01 00 00  je          0000000010004609
  00000000100044BD: 48 83 7D 18 00     cmp         qword ptr [rbp+18h],0
  00000000100044C2: 0F 84 41 01 00 00  je          0000000010004609
  00000000100044C8: 48 8B 4D 10        mov         rcx,qword ptr [rbp+10h]
  00000000100044CC: 48 8B 93 A0 FE FF  mov         rdx,qword ptr [rbx+FFFFFFFFFFFFFEA0h]
                    FF
  00000000100044D3: 4C 8B 81 88 00 00  mov         r8,qword ptr [rcx+0000000000000088h]
                    00
  00000000100044DA: 4D 8B 40 F8        mov         r8,qword ptr [r8-8]
  00000000100044DE: 49 39 50 10        cmp         qword ptr [r8+10h],rdx
  00000000100044E2: 75 02              jne         00000000100044E6
  00000000100044E4: EB 08              jmp         00000000100044EE
  00000000100044E6: B0 02              mov         al,2
  00000000100044E8: B9 18 0A 00 00     mov         ecx,0A18h
  00000000100044ED: CC                 int         3
  00000000100044EE: 48 8B 89 88 00 00  mov         rcx,qword ptr [rcx+0000000000000088h]
                    00
  00000000100044F5: 0F B6 49 41        movzx       ecx,byte ptr [rcx+41h]
  00000000100044F9: 48 8B 55 18        mov         rdx,qword ptr [rbp+18h]
  00000000100044FD: 4C 8B 83 A0 FE FF  mov         r8,qword ptr [rbx+FFFFFFFFFFFFFEA0h]
                    FF
  0000000010004504: 4C 8B 8A 88 00 00  mov         r9,qword ptr [rdx+0000000000000088h]
                    00
  000000001000450B: 4D 8B 49 F8        mov         r9,qword ptr [r9-8]
  000000001000450F: 4D 39 41 10        cmp         qword ptr [r9+10h],r8
  0000000010004513: 75 02              jne         0000000010004517
  0000000010004515: EB 08              jmp         000000001000451F
  0000000010004517: B0 02              mov         al,2
  0000000010004519: B9 2F 0A 00 00     mov         ecx,0A2Fh
  000000001000451E: CC                 int         3
  000000001000451F: 48 8B 92 88 00 00  mov         rdx,qword ptr [rdx+0000000000000088h]
                    00
  0000000010004526: 0F B6 52 41        movzx       edx,byte ptr [rdx+41h]
  000000001000452A: 48 3B CA           cmp         rcx,rdx
  000000001000452D: 0F 85 D6 00 00 00  jne         0000000010004609
  0000000010004533: 48 8B 4D 10        mov         rcx,qword ptr [rbp+10h]
  0000000010004537: 48 8B 89 88 00 00  mov         rcx,qword ptr [rcx+0000000000000088h]
                    00
  000000001000453E: 48 8B 49 08        mov         rcx,qword ptr [rcx+8]
  0000000010004542: 48 8B 55 18        mov         rdx,qword ptr [rbp+18h]
  0000000010004546: 48 8B 92 88 00 00  mov         rdx,qword ptr [rdx+0000000000000088h]
                    00
  000000001000454D: 48 8B 52 08        mov         rdx,qword ptr [rdx+8]
  0000000010004551: 48 3B CA           cmp         rcx,rdx
  0000000010004554: 0F 84 89 00 00 00  je          00000000100045E3
  000000001000455A: 48 8B 4D 10        mov         rcx,qword ptr [rbp+10h]
  000000001000455E: 48 8B 89 88 00 00  mov         rcx,qword ptr [rcx+0000000000000088h]
                    00
  0000000010004565: 48 8B 49 08        mov         rcx,qword ptr [rcx+8]
  0000000010004569: 48 83 39 07        cmp         qword ptr [rcx],7
  000000001000456D: 0F 85 96 00 00 00  jne         0000000010004609
  0000000010004573: 48 8B 4D 18        mov         rcx,qword ptr [rbp+18h]
  0000000010004577: 48 8B 89 88 00 00  mov         rcx,qword ptr [rcx+0000000000000088h]
                    00
  000000001000457E: 48 8B 49 08        mov         rcx,qword ptr [rcx+8]
  0000000010004582: 48 83 39 07        cmp         qword ptr [rcx],7
  0000000010004586: 0F 85 7D 00 00 00  jne         0000000010004609
  000000001000458C: 48 8B 4D 10        mov         rcx,qword ptr [rbp+10h]
  0000000010004590: 48 8B 89 88 00 00  mov         rcx,qword ptr [rcx+0000000000000088h]
                    00
  0000000010004597: 48 8B 49 08        mov         rcx,qword ptr [rcx+8]
  000000001000459B: 48 83 79 20 00     cmp         qword ptr [rcx+20h],0
  00000000100045A0: 7D 67              jge         0000000010004609
  00000000100045A2: 48 8B 4D 18        mov         rcx,qword ptr [rbp+18h]
  00000000100045A6: 48 8B 89 88 00 00  mov         rcx,qword ptr [rcx+0000000000000088h]
                    00
  00000000100045AD: 48 8B 49 08        mov         rcx,qword ptr [rcx+8]
  00000000100045B1: 48 83 79 20 00     cmp         qword ptr [rcx+20h],0
  00000000100045B6: 7D 51              jge         0000000010004609
  00000000100045B8: 48 8B 4D 10        mov         rcx,qword ptr [rbp+10h]
  00000000100045BC: 48 8B 89 88 00 00  mov         rcx,qword ptr [rcx+0000000000000088h]
                    00
  00000000100045C3: 48 8B 49 08        mov         rcx,qword ptr [rcx+8]
  00000000100045C7: 48 8B 49 40        mov         rcx,qword ptr [rcx+40h]
  00000000100045CB: 48 8B 55 18        mov         rdx,qword ptr [rbp+18h]
  00000000100045CF: 48 8B 92 88 00 00  mov         rdx,qword ptr [rdx+0000000000000088h]
                    00
  00000000100045D6: 48 8B 52 08        mov         rdx,qword ptr [rdx+8]
  00000000100045DA: 48 8B 52 40        mov         rdx,qword ptr [rdx+40h]
  00000000100045DE: 48 3B CA           cmp         rcx,rdx
  00000000100045E1: 75 26              jne         0000000010004609
  00000000100045E3: 48 8B 4D 10        mov         rcx,qword ptr [rbp+10h]
  00000000100045E7: 48 8B 89 90 00 00  mov         rcx,qword ptr [rcx+0000000000000090h]
                    00
  00000000100045EE: 48 8B 55 18        mov         rdx,qword ptr [rbp+18h]
  00000000100045F2: 48 8B 92 90 00 00  mov         rdx,qword ptr [rdx+0000000000000090h]
                    00
  00000000100045F9: E8 92 FE FF FF     call        0000000010004490
  00000000100045FE: 85 C0              test        eax,eax
  0000000010004600: 74 07              je          0000000010004609
  0000000010004602: B8 01 00 00 00     mov         eax,1
  0000000010004607: EB 02              jmp         000000001000460B
  0000000010004609: 31 C0              xor         eax,eax
  000000001000460B: C9                 leave
  000000001000460C: C3                 ret
  000000001000460D: 90                 nop
  000000001000460E: 90                 nop
  000000001000460F: 90                 nop
  0000000010004610: 55                 push        rbp
  0000000010004611: 48 8B EC           mov         rbp,rsp
  0000000010004614: 48 83 EC 20        sub         rsp,20h
  0000000010004618: 48 89 4D 10        mov         qword ptr [rbp+10h],rcx
  000000001000461C: 48 89 55 18        mov         qword ptr [rbp+18h],rdx
  0000000010004620: 48 8B 4D 10        mov         rcx,qword ptr [rbp+10h]
  0000000010004624: 48 8B 49 40        mov         rcx,qword ptr [rcx+40h]
  0000000010004628: 48 8B 55 18        mov         rdx,qword ptr [rbp+18h]
  000000001000462C: 48 8B 52 40        mov         rdx,qword ptr [rdx+40h]
  0000000010004630: 48 3B CA           cmp         rcx,rdx
  0000000010004633: 75 35              jne         000000001000466A
  0000000010004635: 48 8B 4D 10        mov         rcx,qword ptr [rbp+10h]
  0000000010004639: 48 8B 49 58        mov         rcx,qword ptr [rcx+58h]
  000000001000463D: 48 8B 55 18        mov         rdx,qword ptr [rbp+18h]
  0000000010004641: 48 8B 52 58        mov         rdx,qword ptr [rdx+58h]
  0000000010004645: 48 3B CA           cmp         rcx,rdx
  0000000010004648: 75 20              jne         000000001000466A
  000000001000464A: 48 8B 4D 10        mov         rcx,qword ptr [rbp+10h]
  000000001000464E: 48 8B 49 48        mov         rcx,qword ptr [rcx+48h]
  0000000010004652: 48 8B 55 18        mov         rdx,qword ptr [rbp+18h]
  0000000010004656: 48 8B 52 48        mov         rdx,qword ptr [rdx+48h]
  000000001000465A: E8 31 FE FF FF     call        0000000010004490
  000000001000465F: 85 C0              test        eax,eax
  0000000010004661: 74 07              je          000000001000466A
  0000000010004663: B8 01 00 00 00     mov         eax,1
  0000000010004668: EB 02              jmp         000000001000466C
  000000001000466A: 31 C0              xor         eax,eax
  000000001000466C: C9                 leave
  000000001000466D: C3                 ret
  000000001000466E: 90                 nop
  000000001000466F: 90                 nop
  0000000010004670: 55                 push        rbp
  0000000010004671: 48 8B EC           mov         rbp,rsp
  0000000010004674: 48 83 EC 20        sub         rsp,20h
  0000000010004678: 48 89 4D 10        mov         qword ptr [rbp+10h],rcx
  000000001000467C: 48 89 55 18        mov         qword ptr [rbp+18h],rdx
  0000000010004680: 48 8B 4D 10        mov         rcx,qword ptr [rbp+10h]
  0000000010004684: 48 8B 55 18        mov         rdx,qword ptr [rbp+18h]
  0000000010004688: 48 3B CA           cmp         rcx,rdx
  000000001000468B: 0F 84 DC 00 00 00  je          000000001000476D
  0000000010004691: 48 8B 4D 10        mov         rcx,qword ptr [rbp+10h]
  0000000010004695: 48 83 39 00        cmp         qword ptr [rcx],0
  0000000010004699: 75 0E              jne         00000000100046A9
  000000001000469B: 48 8B 4D 18        mov         rcx,qword ptr [rbp+18h]
  000000001000469F: 48 83 39 00        cmp         qword ptr [rcx],0
  00000000100046A3: 0F 84 C4 00 00 00  je          000000001000476D
  00000000100046A9: 48 8B 4D 10        mov         rcx,qword ptr [rbp+10h]
  00000000100046AD: 48 83 39 03        cmp         qword ptr [rcx],3
  00000000100046B1: 75 1C              jne         00000000100046CF
  00000000100046B3: 48 8B 4D 18        mov         rcx,qword ptr [rbp+18h]
  00000000100046B7: E8 E4 FB FF FF     call        00000000100042A0
  00000000100046BC: 85 C0              test        eax,eax
  00000000100046BE: 74 0F              je          00000000100046CF
  00000000100046C0: 48 8B 45 18        mov         rax,qword ptr [rbp+18h]
  00000000100046C4: 48 83 78 20 02     cmp         qword ptr [rax+20h],2
  00000000100046C9: 0F 8E 9E 00 00 00  jle         000000001000476D
  00000000100046CF: 48 8B 4D 10        mov         rcx,qword ptr [rbp+10h]
  00000000100046D3: E8 C8 FB FF FF     call        00000000100042A0
  00000000100046D8: 85 C0              test        eax,eax
  00000000100046DA: 74 11              je          00000000100046ED
  00000000100046DC: 48 8B 4D 18        mov         rcx,qword ptr [rbp+18h]
  00000000100046E0: E8 BB FB FF FF     call        00000000100042A0
  00000000100046E5: 85 C0              test        eax,eax
  00000000100046E7: 0F 85 80 00 00 00  jne         000000001000476D
  00000000100046ED: 48 8B 45 10        mov         rax,qword ptr [rbp+10h]
  00000000100046F1: 48 8B 00           mov         rax,qword ptr [rax]
  00000000100046F4: B9 60 00 00 00     mov         ecx,60h
  00000000100046F9: 48 0F A3 C1        bt          rcx,rax
  00000000100046FD: 73 13              jae         0000000010004712
  00000000100046FF: 48 8B 45 18        mov         rax,qword ptr [rbp+18h]
  0000000010004703: 48 8B 8B 88 FE FF  mov         rcx,qword ptr [rbx+FFFFFFFFFFFFFE88h]
                    FF
  000000001000470A: 48 8B 09           mov         rcx,qword ptr [rcx]
  000000001000470D: 48 3B C1           cmp         rax,rcx
  0000000010004710: 74 5B              je          000000001000476D
  0000000010004712: 48 8B 45 10        mov         rax,qword ptr [rbp+10h]
  0000000010004716: 48 8B 00           mov         rax,qword ptr [rax]
  0000000010004719: B9 20 01 00 00     mov         ecx,120h
  000000001000471E: 48 0F A3 C1        bt          rcx,rax
  0000000010004722: 73 24              jae         0000000010004748
  0000000010004724: 48 8B 45 10        mov         rax,qword ptr [rbp+10h]
  0000000010004728: 48 8B 00           mov         rax,qword ptr [rax]
  000000001000472B: 48 8B 4D 18        mov         rcx,qword ptr [rbp+18h]
  000000001000472F: 48 8B 09           mov         rcx,qword ptr [rcx]
  0000000010004732: 48 3B C1           cmp         rax,rcx
  0000000010004735: 75 11              jne         0000000010004748
  0000000010004737: 48 8B 4D 18        mov         rcx,qword ptr [rbp+18h]
  000000001000473B: 48 8B 55 10        mov         rdx,qword ptr [rbp+10h]
  000000001000473F: E8 FC FB FF FF     call        0000000010004340
  0000000010004744: 85 C0              test        eax,eax
  0000000010004746: 75 25              jne         000000001000476D
  0000000010004748: 48 8B 45 10        mov         rax,qword ptr [rbp+10h]
  000000001000474C: 48 83 38 06        cmp         qword ptr [rax],6
  0000000010004750: 75 22              jne         0000000010004774
  0000000010004752: 48 8B 45 18        mov         rax,qword ptr [rbp+18h]
  0000000010004756: 48 83 38 06        cmp         qword ptr [rax],6
  000000001000475A: 75 18              jne         0000000010004774
  000000001000475C: 48 8B 4D 10        mov         rcx,qword ptr [rbp+10h]
  0000000010004760: 48 8B 55 18        mov         rdx,qword ptr [rbp+18h]
  0000000010004764: E8 A7 FE FF FF     call        0000000010004610
  0000000010004769: 85 C0              test        eax,eax
  000000001000476B: 74 07              je          0000000010004774
  000000001000476D: B8 01 00 00 00     mov         eax,1
  0000000010004772: EB 02              jmp         0000000010004776
  0000000010004774: 31 C0              xor         eax,eax
  0000000010004776: C9                 leave
  0000000010004777: C3                 ret
  0000000010004778: 90                 nop
  0000000010004779: 90                 nop
  000000001000477A: 90                 nop
  000000001000477B: 90                 nop
  000000001000477C: 90                 nop
  000000001000477D: 90                 nop
  000000001000477E: 90                 nop
  000000001000477F: 90                 nop
  0000000010004780: 55                 push        rbp
  0000000010004781: 48 8B EC           mov         rbp,rsp
  0000000010004784: 48 83 EC 20        sub         rsp,20h
  0000000010004788: 48 89 4D 10        mov         qword ptr [rbp+10h],rcx
  000000001000478C: 48 89 55 18        mov         qword ptr [rbp+18h],rdx
  0000000010004790: 48 8B 4D 10        mov         rcx,qword ptr [rbp+10h]
  0000000010004794: 48 8B 55 18        mov         rdx,qword ptr [rbp+18h]
  0000000010004798: E8 D3 FE FF FF     call        0000000010004670
  000000001000479D: 85 C0              test        eax,eax
  000000001000479F: 75 11              jne         00000000100047B2
  00000000100047A1: 48 8B 4D 18        mov         rcx,qword ptr [rbp+18h]
  00000000100047A5: 48 8B 55 10        mov         rdx,qword ptr [rbp+10h]
  00000000100047A9: E8 C2 FE FF FF     call        0000000010004670
  00000000100047AE: 85 C0              test        eax,eax
  00000000100047B0: 74 07              je          00000000100047B9
  00000000100047B2: B8 01 00 00 00     mov         eax,1
  00000000100047B7: EB 02              jmp         00000000100047BB
  00000000100047B9: 31 C0              xor         eax,eax
  00000000100047BB: C9                 leave
  00000000100047BC: C3                 ret
  00000000100047BD: 90                 nop
  00000000100047BE: 90                 nop
  00000000100047BF: 90                 nop
  00000000100047C0: 55                 push        rbp
  00000000100047C1: 48 8B EC           mov         rbp,rsp
  00000000100047C4: 48 83 EC 20        sub         rsp,20h
  00000000100047C8: 48 89 4D 10        mov         qword ptr [rbp+10h],rcx
  00000000100047CC: 48 8B 45 10        mov         rax,qword ptr [rbp+10h]
  00000000100047D0: 48 8B 40 08        mov         rax,qword ptr [rax+8]
  00000000100047D4: 48 83 38 00        cmp         qword ptr [rax],0
  00000000100047D8: 74 11              je          00000000100047EB
  00000000100047DA: 48 8D 8B 30 F0 FF  lea         rcx,[rbx+FFFFFFFFFFFFF030h]
                    FF
  00000000100047E1: BA 08 00 00 00     mov         edx,8
  00000000100047E6: E8 35 F8 FF FF     call        0000000010004020
  00000000100047EB: C9                 leave
  00000000100047EC: C3                 ret
  00000000100047ED: 90                 nop
  00000000100047EE: 90                 nop
  00000000100047EF: 90                 nop
  00000000100047F0: 55                 push        rbp
  00000000100047F1: 48 8B EC           mov         rbp,rsp
  00000000100047F4: 48 83 EC 20        sub         rsp,20h
  00000000100047F8: 48 89 4D 10        mov         qword ptr [rbp+10h],rcx
  00000000100047FC: 48 8B 45 10        mov         rax,qword ptr [rbp+10h]
  0000000010004800: 48 8B 40 08        mov         rax,qword ptr [rax+8]
  0000000010004804: 48 8B 8B 80 FE FF  mov         rcx,qword ptr [rbx+FFFFFFFFFFFFFE80h]
                    FF
  000000001000480B: 48 8B 09           mov         rcx,qword ptr [rcx]
  000000001000480E: 48 3B C1           cmp         rax,rcx
  0000000010004811: 74 11              je          0000000010004824
  0000000010004813: 48 8D 8B 40 F0 FF  lea         rcx,[rbx+FFFFFFFFFFFFF040h]
                    FF
  000000001000481A: BA 0C 00 00 00     mov         edx,0Ch
  000000001000481F: E8 FC F7 FF FF     call        0000000010004020
  0000000010004824: C9                 leave
  0000000010004825: C3                 ret
  0000000010004826: 90                 nop
  0000000010004827: 90                 nop
  0000000010004828: 90                 nop
  0000000010004829: 90                 nop
  000000001000482A: 90                 nop
  000000001000482B: 90                 nop
  000000001000482C: 90                 nop
  000000001000482D: 90                 nop
  000000001000482E: 90                 nop
  000000001000482F: 90                 nop
  0000000010004830: 55                 push        rbp
  0000000010004831: 48 8B EC           mov         rbp,rsp
  0000000010004834: 48 83 EC 20        sub         rsp,20h
  0000000010004838: 48 89 4D 10        mov         qword ptr [rbp+10h],rcx
  000000001000483C: 48 8B 45 10        mov         rax,qword ptr [rbp+10h]
  0000000010004840: 48 8B 40 08        mov         rax,qword ptr [rax+8]
  0000000010004844: 48 8B 8B 78 FE FF  mov         rcx,qword ptr [rbx+FFFFFFFFFFFFFE78h]
                    FF
  000000001000484B: 48 8B 09           mov         rcx,qword ptr [rcx]
  000000001000484E: 48 3B C1           cmp         rax,rcx
  0000000010004851: 74 11              je          0000000010004864
  0000000010004853: 48 8D 8B 60 F0 FF  lea         rcx,[rbx+FFFFFFFFFFFFF060h]
                    FF
  000000001000485A: BA 09 00 00 00     mov         edx,9
  000000001000485F: E8 BC F7 FF FF     call        0000000010004020
  0000000010004864: C9                 leave
  0000000010004865: C3                 ret
  0000000010004866: 90                 nop
  0000000010004867: 90                 nop
  0000000010004868: 90                 nop
  0000000010004869: 90                 nop
  000000001000486A: 90                 nop
  000000001000486B: 90                 nop
  000000001000486C: 90                 nop
  000000001000486D: 90                 nop
  000000001000486E: 90                 nop
  000000001000486F: 90                 nop
  0000000010004870: 55                 push        rbp
  0000000010004871: 48 8B EC           mov         rbp,rsp
  0000000010004874: 48 83 EC 20        sub         rsp,20h
  0000000010004878: 48 89 4D 10        mov         qword ptr [rbp+10h],rcx
  000000001000487C: 48 8B 45 10        mov         rax,qword ptr [rbp+10h]
  0000000010004880: 48 8B 40 08        mov         rax,qword ptr [rax+8]
  0000000010004884: 48 8B 8B 70 FE FF  mov         rcx,qword ptr [rbx+FFFFFFFFFFFFFE70h]
                    FF
  000000001000488B: 48 8B 09           mov         rcx,qword ptr [rcx]
  000000001000488E: 48 3B C1           cmp         rax,rcx
  0000000010004891: 74 11              je          00000000100048A4
  0000000010004893: 48 8D 8B 80 F0 FF  lea         rcx,[rbx+FFFFFFFFFFFFF080h]
                    FF
  000000001000489A: BA 08 00 00 00     mov         edx,8
  000000001000489F: E8 7C F7 FF FF     call        0000000010004020
  00000000100048A4: C9                 leave
  00000000100048A5: C3                 ret
  00000000100048A6: 90                 nop
  00000000100048A7: 90                 nop
  00000000100048A8: 90                 nop
  00000000100048A9: 90                 nop
  00000000100048AA: 90                 nop
  00000000100048AB: 90                 nop
  00000000100048AC: 90                 nop
  00000000100048AD: 90                 nop
  00000000100048AE: 90                 nop
  00000000100048AF: 90                 nop
  00000000100048B0: 55                 push        rbp
  00000000100048B1: 48 8B EC           mov         rbp,rsp
  00000000100048B4: 48 83 EC 20        sub         rsp,20h
  00000000100048B8: 48 89 4D 10        mov         qword ptr [rbp+10h],rcx
  00000000100048BC: 48 8B 45 10        mov         rax,qword ptr [rbp+10h]
  00000000100048C0: 48 8B 40 08        mov         rax,qword ptr [rax+8]
  00000000100048C4: 48 83 38 04        cmp         qword ptr [rax],4
  00000000100048C8: 74 11              je          00000000100048DB
  00000000100048CA: 48 8D 8B 90 F0 FF  lea         rcx,[rbx+FFFFFFFFFFFFF090h]
                    FF
  00000000100048D1: BA 10 00 00 00     mov         edx,10h
  00000000100048D6: E8 45 F7 FF FF     call        0000000010004020
  00000000100048DB: C9                 leave
  00000000100048DC: C3                 ret
  00000000100048DD: 90                 nop
  00000000100048DE: 90                 nop
  00000000100048DF: 90                 nop
  00000000100048E0: 55                 push        rbp
  00000000100048E1: 48 8B EC           mov         rbp,rsp
  00000000100048E4: 48 83 EC 20        sub         rsp,20h
  00000000100048E8: 48 89 4D 10        mov         qword ptr [rbp+10h],rcx
  00000000100048EC: 48 8B 45 10        mov         rax,qword ptr [rbp+10h]
  00000000100048F0: 48 8B 40 08        mov         rax,qword ptr [rax+8]
  00000000100048F4: 48 83 38 05        cmp         qword ptr [rax],5
  00000000100048F8: 75 0F              jne         0000000010004909
  00000000100048FA: 48 8B 45 10        mov         rax,qword ptr [rbp+10h]
  00000000100048FE: 48 8B 40 08        mov         rax,qword ptr [rax+8]
  0000000010004902: 48 83 78 40 00     cmp         qword ptr [rax+40h],0
  0000000010004907: 75 1B              jne         0000000010004924
  0000000010004909: 48 8B 45 10        mov         rax,qword ptr [rbp+10h]
  000000001000490D: 48 8B 40 08        mov         rax,qword ptr [rax+8]
  0000000010004911: 48 83 38 08        cmp         qword ptr [rax],8
  0000000010004915: 75 14              jne         000000001000492B
  0000000010004917: 48 8B 4D 10        mov         rcx,qword ptr [rbp+10h]
  000000001000491B: E8 70 FA FF FF     call        0000000010004390
  0000000010004920: 85 C0              test        eax,eax
  0000000010004922: 74 07              je          000000001000492B
  0000000010004924: B8 01 00 00 00     mov         eax,1
  0000000010004929: EB 02              jmp         000000001000492D
  000000001000492B: 31 C0              xor         eax,eax
  000000001000492D: C9                 leave
  000000001000492E: C3                 ret
  000000001000492F: 90                 nop
  0000000010004930: 55                 push        rbp
  0000000010004931: 48 8B EC           mov         rbp,rsp
  0000000010004934: 48 83 EC 30        sub         rsp,30h
  0000000010004938: 48 89 4D 10        mov         qword ptr [rbp+10h],rcx
  000000001000493C: 48 89 55 18        mov         qword ptr [rbp+18h],rdx
  0000000010004940: 48 8B 45 10        mov         rax,qword ptr [rbp+10h]
  0000000010004944: 48 83 38 02        cmp         qword ptr [rax],2
  0000000010004948: 75 2B              jne         0000000010004975
  000000001000494A: 48 8B 83 C0 FE FF  mov         rax,qword ptr [rbx+FFFFFFFFFFFFFEC0h]
                    FF
  0000000010004951: 48 8B 4D 10        mov         rcx,qword ptr [rbp+10h]
  0000000010004955: 48 8B 49 F8        mov         rcx,qword ptr [rcx-8]
  0000000010004959: 48 39 41 08        cmp         qword ptr [rcx+8],rax
  000000001000495D: 75 02              jne         0000000010004961
  000000001000495F: EB 08              jmp         0000000010004969
  0000000010004961: B0 02              mov         al,2
  0000000010004963: B9 23 11 00 00     mov         ecx,1123h
  0000000010004968: CC                 int         3
  0000000010004969: 48 8B 45 10        mov         rax,qword ptr [rbp+10h]
  000000001000496D: 48 8B 40 28        mov         rax,qword ptr [rax+28h]
  0000000010004971: 48 89 45 F8        mov         qword ptr [rbp-8],rax
  0000000010004975: 48 8B 45 10        mov         rax,qword ptr [rbp+10h]
  0000000010004979: 48 8B 40 F8        mov         rax,qword ptr [rax-8]
  000000001000497D: 48 8B 8B 68 FE FF  mov         rcx,qword ptr [rbx+FFFFFFFFFFFFFE68h]
                    FF
  0000000010004984: 48 39 48 08        cmp         qword ptr [rax+8],rcx
  0000000010004988: 75 46              jne         00000000100049D0
  000000001000498A: 0F B6 45 18        movzx       eax,byte ptr [rbp+18h]
  000000001000498E: 85 C0              test        eax,eax
  0000000010004990: 75 3C              jne         00000000100049CE
  0000000010004992: 48 8B 83 68 FE FF  mov         rax,qword ptr [rbx+FFFFFFFFFFFFFE68h]
                    FF
  0000000010004999: 48 8B 4D 10        mov         rcx,qword ptr [rbp+10h]
  000000001000499D: 48 8B 49 F8        mov         rcx,qword ptr [rcx-8]
  00000000100049A1: 48 39 41 08        cmp         qword ptr [rcx+8],rax
  00000000100049A5: 75 02              jne         00000000100049A9
  00000000100049A7: EB 08              jmp         00000000100049B1
  00000000100049A9: B0 02              mov         al,2
  00000000100049AB: B9 58 11 00 00     mov         ecx,1158h
  00000000100049B0: CC                 int         3
  00000000100049B1: 48 8B 45 10        mov         rax,qword ptr [rbp+10h]
  00000000100049B5: 0F B6 40 40        movzx       eax,byte ptr [rax+40h]
  00000000100049B9: 85 C0              test        eax,eax
  00000000100049BB: 74 11              je          00000000100049CE
  00000000100049BD: 48 8D 8B B0 F0 FF  lea         rcx,[rbx+FFFFFFFFFFFFF0B0h]
                    FF
  00000000100049C4: BA 0A 00 00 00     mov         edx,0Ah
  00000000100049C9: E8 52 F6 FF FF     call        0000000010004020
  00000000100049CE: EB 7D              jmp         0000000010004A4D
  00000000100049D0: 48 8B 45 10        mov         rax,qword ptr [rbp+10h]
  00000000100049D4: 48 83 38 02        cmp         qword ptr [rax],2
  00000000100049D8: 75 62              jne         0000000010004A3C
  00000000100049DA: 48 83 7D F8 11     cmp         qword ptr [rbp-8],11h
  00000000100049DF: 74 15              je          00000000100049F6
  00000000100049E1: 48 83 7D F8 12     cmp         qword ptr [rbp-8],12h
  00000000100049E6: 74 0E              je          00000000100049F6
  00000000100049E8: 48 83 7D F8 1C     cmp         qword ptr [rbp-8],1Ch
  00000000100049ED: 74 07              je          00000000100049F6
  00000000100049EF: 48 83 7D F8 1D     cmp         qword ptr [rbp-8],1Dh
  00000000100049F4: 75 46              jne         0000000010004A3C
  00000000100049F6: 0F B6 45 18        movzx       eax,byte ptr [rbp+18h]
  00000000100049FA: 85 C0              test        eax,eax
  00000000100049FC: 75 3C              jne         0000000010004A3A
  00000000100049FE: 48 8B 83 C0 FE FF  mov         rax,qword ptr [rbx+FFFFFFFFFFFFFEC0h]
                    FF
  0000000010004A05: 48 8B 4D 10        mov         rcx,qword ptr [rbp+10h]
  0000000010004A09: 48 8B 49 F8        mov         rcx,qword ptr [rcx-8]
  0000000010004A0D: 48 39 41 08        cmp         qword ptr [rcx+8],rax
  0000000010004A11: 75 02              jne         0000000010004A15
  0000000010004A13: EB 08              jmp         0000000010004A1D
  0000000010004A15: B0 02              mov         al,2
  0000000010004A17: B9 06 12 00 00     mov         ecx,1206h
  0000000010004A1C: CC                 int         3
  0000000010004A1D: 48 8B 45 10        mov         rax,qword ptr [rbp+10h]
  0000000010004A21: 0F B6 40 40        movzx       eax,byte ptr [rax+40h]
  0000000010004A25: 85 C0              test        eax,eax
  0000000010004A27: 74 11              je          0000000010004A3A
  0000000010004A29: 48 8D 8B D0 F0 FF  lea         rcx,[rbx+FFFFFFFFFFFFF0D0h]
                    FF
  0000000010004A30: BA 0A 00 00 00     mov         edx,0Ah
  0000000010004A35: E8 E6 F5 FF FF     call        0000000010004020
  0000000010004A3A: EB 11              jmp         0000000010004A4D
  0000000010004A3C: 48 8D 8B F0 F0 FF  lea         rcx,[rbx+FFFFFFFFFFFFF0F0h]
                    FF
  0000000010004A43: BA 08 00 00 00     mov         edx,8
  0000000010004A48: E8 D3 F5 FF FF     call        0000000010004020
  0000000010004A4D: C9                 leave
  0000000010004A4E: C3                 ret
  0000000010004A4F: 90                 nop
  0000000010004A50: 55                 push        rbp
  0000000010004A51: 48 8B EC           mov         rbp,rsp
  0000000010004A54: 48 83 EC 40        sub         rsp,40h
  0000000010004A58: 48 89 4D 10        mov         qword ptr [rbp+10h],rcx
  0000000010004A5C: 48 89 55 18        mov         qword ptr [rbp+18h],rdx
  0000000010004A60: 48 C7 45 F8 00 00  mov         qword ptr [rbp-8],0
                    00 00
  0000000010004A68: 48 C7 45 F0 00 00  mov         qword ptr [rbp-10h],0
                    00 00
  0000000010004A70: 48 8B 45 18        mov         rax,qword ptr [rbp+18h]
  0000000010004A74: 48 8B 40 08        mov         rax,qword ptr [rax+8]
  0000000010004A78: 48 89 45 F8        mov         qword ptr [rbp-8],rax
  0000000010004A7C: 48 8B 45 10        mov         rax,qword ptr [rbp+10h]
  0000000010004A80: 48 8B 40 08        mov         rax,qword ptr [rax+8]
  0000000010004A84: 48 89 45 F0        mov         qword ptr [rbp-10h],rax
  0000000010004A88: 48 8B 45 10        mov         rax,qword ptr [rbp+10h]
  0000000010004A8C: 0F B6 40 41        movzx       eax,byte ptr [rax+41h]
  0000000010004A90: 85 C0              test        eax,eax
  0000000010004A92: 75 27              jne         0000000010004ABB
  0000000010004A94: 48 8B 4D F0        mov         rcx,qword ptr [rbp-10h]
  0000000010004A98: 48 8B 55 F8        mov         rdx,qword ptr [rbp-8]
  0000000010004A9C: E8 CF FB FF FF     call        0000000010004670
  0000000010004AA1: 85 C0              test        eax,eax
  0000000010004AA3: 75 11              jne         0000000010004AB6
  0000000010004AA5: 48 8D 8B 00 F1 FF  lea         rcx,[rbx+FFFFFFFFFFFFF100h]
                    FF
  0000000010004AAC: BA 11 00 00 00     mov         edx,11h
  0000000010004AB1: E8 6A F5 FF FF     call        0000000010004020
  0000000010004AB6: E9 1D 01 00 00     jmp         0000000010004BD8
  0000000010004ABB: 48 8B 45 10        mov         rax,qword ptr [rbp+10h]
  0000000010004ABF: 0F B6 40 41        movzx       eax,byte ptr [rax+41h]
  0000000010004AC3: 85 C0              test        eax,eax
  0000000010004AC5: 0F 84 0D 01 00 00  je          0000000010004BD8
  0000000010004ACB: 48 8B 4D 18        mov         rcx,qword ptr [rbp+18h]
  0000000010004ACF: 48 8B 55 10        mov         rdx,qword ptr [rbp+10h]
  0000000010004AD3: 0F B6 52 40        movzx       edx,byte ptr [rdx+40h]
  0000000010004AD7: E8 54 FE FF FF     call        0000000010004930
  0000000010004ADC: 48 8B 45 F8        mov         rax,qword ptr [rbp-8]
  0000000010004AE0: 48 8B 00           mov         rax,qword ptr [rax]
  0000000010004AE3: 48 89 45 E8        mov         qword ptr [rbp-18h],rax
  0000000010004AE7: 48 8B 45 F0        mov         rax,qword ptr [rbp-10h]
  0000000010004AEB: 48 8B 00           mov         rax,qword ptr [rax]
  0000000010004AEE: 48 89 45 E0        mov         qword ptr [rbp-20h],rax
  0000000010004AF2: 48 8B 45 F8        mov         rax,qword ptr [rbp-8]
  0000000010004AF6: 48 8B 4D F0        mov         rcx,qword ptr [rbp-10h]
  0000000010004AFA: 48 3B C1           cmp         rax,rcx
  0000000010004AFD: 0F 84 C2 00 00 00  je          0000000010004BC5
  0000000010004B03: 48 83 7D E0 08     cmp         qword ptr [rbp-20h],8
  0000000010004B08: 75 1C              jne         0000000010004B26
  0000000010004B0A: 48 83 7D E8 08     cmp         qword ptr [rbp-18h],8
  0000000010004B0F: 75 15              jne         0000000010004B26
  0000000010004B11: 48 8B 4D F8        mov         rcx,qword ptr [rbp-8]
  0000000010004B15: 48 8B 55 F0        mov         rdx,qword ptr [rbp-10h]
  0000000010004B19: E8 22 F8 FF FF     call        0000000010004340
  0000000010004B1E: 85 C0              test        eax,eax
  0000000010004B20: 0F 85 9F 00 00 00  jne         0000000010004BC5
  0000000010004B26: 48 8B 4D F0        mov         rcx,qword ptr [rbp-10h]
  0000000010004B2A: E8 31 F9 FF FF     call        0000000010004460
  0000000010004B2F: 85 C0              test        eax,eax
  0000000010004B31: 74 1C              je          0000000010004B4F
  0000000010004B33: 48 83 7D E8 07     cmp         qword ptr [rbp-18h],7
  0000000010004B38: 75 15              jne         0000000010004B4F
  0000000010004B3A: 48 8B 45 F0        mov         rax,qword ptr [rbp-10h]
  0000000010004B3E: 48 8B 40 40        mov         rax,qword ptr [rax+40h]
  0000000010004B42: 48 8B 4D F8        mov         rcx,qword ptr [rbp-8]
  0000000010004B46: 48 8B 49 40        mov         rcx,qword ptr [rcx+40h]
  0000000010004B4A: 48 3B C1           cmp         rax,rcx
  0000000010004B4D: 74 76              je          0000000010004BC5
  0000000010004B4F: 48 83 7D E0 07     cmp         qword ptr [rbp-20h],7
  0000000010004B54: 75 31              jne         0000000010004B87
  0000000010004B56: 48 83 7D E8 07     cmp         qword ptr [rbp-18h],7
  0000000010004B5B: 75 2A              jne         0000000010004B87
  0000000010004B5D: 48 8B 45 F0        mov         rax,qword ptr [rbp-10h]
  0000000010004B61: 48 8B 40 40        mov         rax,qword ptr [rax+40h]
  0000000010004B65: 48 8B 4D F8        mov         rcx,qword ptr [rbp-8]
  0000000010004B69: 48 8B 49 40        mov         rcx,qword ptr [rcx+40h]
  0000000010004B6D: 48 3B C1           cmp         rax,rcx
  0000000010004B70: 75 15              jne         0000000010004B87
  0000000010004B72: 48 8B 45 F0        mov         rax,qword ptr [rbp-10h]
  0000000010004B76: 48 8B 40 20        mov         rax,qword ptr [rax+20h]
  0000000010004B7A: 48 8B 4D F8        mov         rcx,qword ptr [rbp-8]
  0000000010004B7E: 48 8B 49 20        mov         rcx,qword ptr [rcx+20h]
  0000000010004B82: 48 3B C1           cmp         rax,rcx
  0000000010004B85: 74 3E              je          0000000010004BC5
  0000000010004B87: 48 8B 4D F0        mov         rcx,qword ptr [rbp-10h]
  0000000010004B8B: E8 D0 F8 FF FF     call        0000000010004460
  0000000010004B90: 85 C0              test        eax,eax
  0000000010004B92: 74 17              je          0000000010004BAB
  0000000010004B94: 48 8B 45 F0        mov         rax,qword ptr [rbp-10h]
  0000000010004B98: 48 8B 40 40        mov         rax,qword ptr [rax+40h]
  0000000010004B9C: 48 8B 8B 60 FE FF  mov         rcx,qword ptr [rbx+FFFFFFFFFFFFFE60h]
                    FF
  0000000010004BA3: 48 8B 09           mov         rcx,qword ptr [rcx]
  0000000010004BA6: 48 3B C1           cmp         rax,rcx
  0000000010004BA9: 74 1A              je          0000000010004BC5
  0000000010004BAB: 48 8B 4D F8        mov         rcx,qword ptr [rbp-8]
  0000000010004BAF: E8 EC F6 FF FF     call        00000000100042A0
  0000000010004BB4: 85 C0              test        eax,eax
  0000000010004BB6: 74 0F              je          0000000010004BC7
  0000000010004BB8: 48 8B 4D F0        mov         rcx,qword ptr [rbp-10h]
  0000000010004BBC: E8 DF F6 FF FF     call        00000000100042A0
  0000000010004BC1: 85 C0              test        eax,eax
  0000000010004BC3: 74 02              je          0000000010004BC7
  0000000010004BC5: EB 11              jmp         0000000010004BD8
  0000000010004BC7: 48 8D 8B 30 F1 FF  lea         rcx,[rbx+FFFFFFFFFFFFF130h]
                    FF
  0000000010004BCE: BA 0D 00 00 00     mov         edx,0Dh
  0000000010004BD3: E8 48 F4 FF FF     call        0000000010004020
  0000000010004BD8: C9                 leave
  0000000010004BD9: C3                 ret
  0000000010004BDA: 90                 nop
  0000000010004BDB: 90                 nop
  0000000010004BDC: 90                 nop
  0000000010004BDD: 90                 nop
  0000000010004BDE: 90                 nop
  0000000010004BDF: 90                 nop
  0000000010004BE0: 55                 push        rbp
  0000000010004BE1: 48 8B EC           mov         rbp,rsp
  0000000010004BE4: 48 83 EC 20        sub         rsp,20h
  0000000010004BE8: 48 89 4D 10        mov         qword ptr [rbp+10h],rcx
  0000000010004BEC: 48 89 55 18        mov         qword ptr [rbp+18h],rdx
  0000000010004BF0: 48 83 7D 18 09     cmp         qword ptr [rbp+18h],9
  0000000010004BF5: 7C 60              jl          0000000010004C57
  0000000010004BF7: 48 83 7D 18 0E     cmp         qword ptr [rbp+18h],0Eh
  0000000010004BFC: 7F 59              jg          0000000010004C57
  0000000010004BFE: 48 8B 45 10        mov         rax,qword ptr [rbp+10h]
  0000000010004C02: 48 8B 40 08        mov         rax,qword ptr [rax+8]
  0000000010004C06: 48 8B 00           mov         rax,qword ptr [rax]
  0000000010004C09: B9 19 02 00 00     mov         ecx,219h
  0000000010004C0E: 48 0F A3 C1        bt          rcx,rax
  0000000010004C12: 72 2E              jb          0000000010004C42
  0000000010004C14: 48 8B 4D 10        mov         rcx,qword ptr [rbp+10h]
  0000000010004C18: 48 8B 49 08        mov         rcx,qword ptr [rcx+8]
  0000000010004C1C: E8 7F F6 FF FF     call        00000000100042A0
  0000000010004C21: 85 C0              test        eax,eax
  0000000010004C23: 75 1D              jne         0000000010004C42
  0000000010004C25: 48 83 7D 18 0A     cmp         qword ptr [rbp+18h],0Ah
  0000000010004C2A: 7F 18              jg          0000000010004C44
  0000000010004C2C: 48 8B 45 10        mov         rax,qword ptr [rbp+10h]
  0000000010004C30: 48 8B 40 08        mov         rax,qword ptr [rax+8]
  0000000010004C34: 48 8B 00           mov         rax,qword ptr [rax]
  0000000010004C37: B9 66 04 00 00     mov         ecx,466h
  0000000010004C3C: 48 0F A3 C1        bt          rcx,rax
  0000000010004C40: 73 02              jae         0000000010004C44
  0000000010004C42: EB 11              jmp         0000000010004C55
  0000000010004C44: 48 8D 8B 50 F1 FF  lea         rcx,[rbx+FFFFFFFFFFFFF150h]
                    FF
  0000000010004C4B: BA 0D 00 00 00     mov         edx,0Dh
  0000000010004C50: E8 CB F3 FF FF     call        0000000010004020
  0000000010004C55: EB 27              jmp         0000000010004C7E
  0000000010004C57: 48 83 7D 18 10     cmp         qword ptr [rbp+18h],10h
  0000000010004C5C: 75 20              jne         0000000010004C7E
  0000000010004C5E: 48 8B 4D 10        mov         rcx,qword ptr [rbp+10h]
  0000000010004C62: E8 79 FC FF FF     call        00000000100048E0
  0000000010004C67: 85 C0              test        eax,eax
  0000000010004C69: 74 02              je          0000000010004C6D
  0000000010004C6B: EB 11              jmp         0000000010004C7E
  0000000010004C6D: 48 8D 8B 50 F1 FF  lea         rcx,[rbx+FFFFFFFFFFFFF150h]
                    FF
  0000000010004C74: BA 0D 00 00 00     mov         edx,0Dh
  0000000010004C79: E8 A2 F3 FF FF     call        0000000010004020
  0000000010004C7E: C9                 leave
  0000000010004C7F: C3                 ret
  0000000010004C80: 55                 push        rbp
  0000000010004C81: 48 8B EC           mov         rbp,rsp
  0000000010004C84: 48 83 EC 20        sub         rsp,20h
  0000000010004C88: 48 89 4D 10        mov         qword ptr [rbp+10h],rcx
  0000000010004C8C: 48 89 55 18        mov         qword ptr [rbp+18h],rdx
  0000000010004C90: 48 8B 45 10        mov         rax,qword ptr [rbp+10h]
  0000000010004C94: 48 8B 40 08        mov         rax,qword ptr [rax+8]
  0000000010004C98: 48 8B 00           mov         rax,qword ptr [rax]
  0000000010004C9B: 48 8B 4D 18        mov         rcx,qword ptr [rbp+18h]
  0000000010004C9F: 48 0F A3 C1        bt          rcx,rax
  0000000010004CA3: 72 11              jb          0000000010004CB6
  0000000010004CA5: 48 8D 8B 70 F1 FF  lea         rcx,[rbx+FFFFFFFFFFFFF170h]
                    FF
  0000000010004CAC: BA 0D 00 00 00     mov         edx,0Dh
  0000000010004CB1: E8 6A F3 FF FF     call        0000000010004020
  0000000010004CB6: C9                 leave
  0000000010004CB7: C3                 ret
  0000000010004CB8: 90                 nop
  0000000010004CB9: 90                 nop
  0000000010004CBA: 90                 nop
  0000000010004CBB: 90                 nop
  0000000010004CBC: 90                 nop
  0000000010004CBD: 90                 nop
  0000000010004CBE: 90                 nop
  0000000010004CBF: 90                 nop
  0000000010004CC0: 55                 push        rbp
  0000000010004CC1: 48 8B EC           mov         rbp,rsp
  0000000010004CC4: 48 83 EC 20        sub         rsp,20h
  0000000010004CC8: 48 89 4D 10        mov         qword ptr [rbp+10h],rcx
  0000000010004CCC: 48 89 55 18        mov         qword ptr [rbp+18h],rdx
  0000000010004CD0: 48 8B 45 10        mov         rax,qword ptr [rbp+10h]
  0000000010004CD4: 48 8B 00           mov         rax,qword ptr [rax]
  0000000010004CD7: 48 8B 40 08        mov         rax,qword ptr [rax+8]
  0000000010004CDB: 48 8B 8B 58 FE FF  mov         rcx,qword ptr [rbx+FFFFFFFFFFFFFE58h]
                    FF
  0000000010004CE2: 48 8B 09           mov         rcx,qword ptr [rcx]
  0000000010004CE5: 48 3B C1           cmp         rax,rcx
  0000000010004CE8: 0F 85 B9 00 00 00  jne         0000000010004DA7
  0000000010004CEE: 48 8B 45 18        mov         rax,qword ptr [rbp+18h]
  0000000010004CF2: 48 8B 00           mov         rax,qword ptr [rax]
  0000000010004CF5: 48 8B 40 F8        mov         rax,qword ptr [rax-8]
  0000000010004CF9: 48 8B 8B 90 FE FF  mov         rcx,qword ptr [rbx+FFFFFFFFFFFFFE90h]
                    FF
  0000000010004D00: 48 39 48 10        cmp         qword ptr [rax+10h],rcx
  0000000010004D04: 0F 85 9D 00 00 00  jne         0000000010004DA7
  0000000010004D0A: 48 8B 83 90 FE FF  mov         rax,qword ptr [rbx+FFFFFFFFFFFFFE90h]
                    FF
  0000000010004D11: 48 8B 4D 18        mov         rcx,qword ptr [rbp+18h]
  0000000010004D15: 48 8B 09           mov         rcx,qword ptr [rcx]
  0000000010004D18: 48 8B 49 F8        mov         rcx,qword ptr [rcx-8]
  0000000010004D1C: 48 39 41 10        cmp         qword ptr [rcx+10h],rax
  0000000010004D20: 75 02              jne         0000000010004D24
  0000000010004D22: EB 08              jmp         0000000010004D2C
  0000000010004D24: B0 02              mov         al,2
  0000000010004D26: B9 C5 17 00 00     mov         ecx,17C5h
  0000000010004D2B: CC                 int         3
  0000000010004D2C: 48 8B 45 18        mov         rax,qword ptr [rbp+18h]
  0000000010004D30: 48 8B 00           mov         rax,qword ptr [rax]
  0000000010004D33: 48 83 78 50 02     cmp         qword ptr [rax+50h],2
  0000000010004D38: 7F 6D              jg          0000000010004DA7
  0000000010004D3A: 48 8B 8B 58 FE FF  mov         rcx,qword ptr [rbx+FFFFFFFFFFFFFE58h]
                    FF
  0000000010004D41: 48 8B 09           mov         rcx,qword ptr [rcx]
  0000000010004D44: 48 8B 93 48 FE FF  mov         rdx,qword ptr [rbx+FFFFFFFFFFFFFE48h]
                    FF
  0000000010004D4B: 48 8B 83 90 FE FF  mov         rax,qword ptr [rbx+FFFFFFFFFFFFFE90h]
                    FF
  0000000010004D52: 4C 8B 45 18        mov         r8,qword ptr [rbp+18h]
  0000000010004D56: 4D 8B 00           mov         r8,qword ptr [r8]
  0000000010004D59: 4D 8B 40 F8        mov         r8,qword ptr [r8-8]
  0000000010004D5D: 49 39 40 10        cmp         qword ptr [r8+10h],rax
  0000000010004D61: 75 02              jne         0000000010004D65
  0000000010004D63: EB 08              jmp         0000000010004D6D
  0000000010004D65: B0 02              mov         al,2
  0000000010004D67: B9 09 18 00 00     mov         ecx,1809h
  0000000010004D6C: CC                 int         3
  0000000010004D6D: 48 8B 45 18        mov         rax,qword ptr [rbp+18h]
  0000000010004D71: 48 8B 00           mov         rax,qword ptr [rax]
  0000000010004D74: 48 8B 40 48        mov         rax,qword ptr [rax+48h]
  0000000010004D78: 48 81 F8 00 00 10  cmp         rax,100000h
                    00
  0000000010004D7F: 73 02              jae         0000000010004D83
  0000000010004D81: EB 08              jmp         0000000010004D8B
  0000000010004D83: B0 01              mov         al,1
  0000000010004D85: B9 09 18 00 00     mov         ecx,1809h
  0000000010004D8A: CC                 int         3
  0000000010004D8B: 48 C1 E0 01        shl         rax,1
  0000000010004D8F: 48 03 D0           add         rdx,rax
  0000000010004D92: 0F B7 12           movzx       edx,word ptr [rdx]
  0000000010004D95: FF 93 50 FE FF FF  call        qword ptr [rbx+FFFFFFFFFFFFFE50h]
  0000000010004D9B: 48 8B 4D 18        mov         rcx,qword ptr [rbp+18h]
  0000000010004D9F: 48 89 01           mov         qword ptr [rcx],rax
  0000000010004DA2: E9 D2 00 00 00     jmp         0000000010004E79
  0000000010004DA7: 48 8B 45 18        mov         rax,qword ptr [rbp+18h]
  0000000010004DAB: 48 8B 00           mov         rax,qword ptr [rax]
  0000000010004DAE: 48 8B 40 08        mov         rax,qword ptr [rax+8]
  0000000010004DB2: 48 8B 8B 58 FE FF  mov         rcx,qword ptr [rbx+FFFFFFFFFFFFFE58h]
                    FF
  0000000010004DB9: 48 8B 09           mov         rcx,qword ptr [rcx]
  0000000010004DBC: 48 3B C1           cmp         rax,rcx
  0000000010004DBF: 0F 85 B4 00 00 00  jne         0000000010004E79
  0000000010004DC5: 48 8B 45 10        mov         rax,qword ptr [rbp+10h]
  0000000010004DC9: 48 8B 00           mov         rax,qword ptr [rax]
  0000000010004DCC: 48 8B 40 F8        mov         rax,qword ptr [rax-8]
  0000000010004DD0: 48 8B 8B 90 FE FF  mov         rcx,qword ptr [rbx+FFFFFFFFFFFFFE90h]
                    FF
  0000000010004DD7: 48 39 48 10        cmp         qword ptr [rax+10h],rcx
  0000000010004DDB: 0F 85 98 00 00 00  jne         0000000010004E79
  0000000010004DE1: 48 8B 83 90 FE FF  mov         rax,qword ptr [rbx+FFFFFFFFFFFFFE90h]
                    FF
  0000000010004DE8: 48 8B 4D 10        mov         rcx,qword ptr [rbp+10h]
  0000000010004DEC: 48 8B 09           mov         rcx,qword ptr [rcx]
  0000000010004DEF: 48 8B 49 F8        mov         rcx,qword ptr [rcx-8]
  0000000010004DF3: 48 39 41 10        cmp         qword ptr [rcx+10h],rax
  0000000010004DF7: 75 02              jne         0000000010004DFB
  0000000010004DF9: EB 08              jmp         0000000010004E03
  0000000010004DFB: B0 02              mov         al,2
  0000000010004DFD: B9 4C 18 00 00     mov         ecx,184Ch
  0000000010004E02: CC                 int         3
  0000000010004E03: 48 8B 45 10        mov         rax,qword ptr [rbp+10h]
  0000000010004E07: 48 8B 00           mov         rax,qword ptr [rax]
  0000000010004E0A: 48 83 78 50 02     cmp         qword ptr [rax+50h],2
  0000000010004E0F: 7F 68              jg          0000000010004E79
  0000000010004E11: 48 8B 8B 58 FE FF  mov         rcx,qword ptr [rbx+FFFFFFFFFFFFFE58h]
                    FF
  0000000010004E18: 48 8B 09           mov         rcx,qword ptr [rcx]
  0000000010004E1B: 48 8B 93 48 FE FF  mov         rdx,qword ptr [rbx+FFFFFFFFFFFFFE48h]
                    FF
  0000000010004E22: 48 8B 83 90 FE FF  mov         rax,qword ptr [rbx+FFFFFFFFFFFFFE90h]
                    FF
  0000000010004E29: 4C 8B 45 10        mov         r8,qword ptr [rbp+10h]
  0000000010004E2D: 4D 8B 00           mov         r8,qword ptr [r8]
  0000000010004E30: 4D 8B 40 F8        mov         r8,qword ptr [r8-8]
  0000000010004E34: 49 39 40 10        cmp         qword ptr [r8+10h],rax
  0000000010004E38: 75 02              jne         0000000010004E3C
  0000000010004E3A: EB 08              jmp         0000000010004E44
  0000000010004E3C: B0 02              mov         al,2
  0000000010004E3E: B9 90 18 00 00     mov         ecx,1890h
  0000000010004E43: CC                 int         3
  0000000010004E44: 48 8B 45 10        mov         rax,qword ptr [rbp+10h]
  0000000010004E48: 48 8B 00           mov         rax,qword ptr [rax]
  0000000010004E4B: 48 8B 40 48        mov         rax,qword ptr [rax+48h]
  0000000010004E4F: 48 81 F8 00 00 10  cmp         rax,100000h
                    00
  0000000010004E56: 73 02              jae         0000000010004E5A
  0000000010004E58: EB 08              jmp         0000000010004E62
  0000000010004E5A: B0 01              mov         al,1
  0000000010004E5C: B9 90 18 00 00     mov         ecx,1890h
  0000000010004E61: CC                 int         3
  0000000010004E62: 48 C1 E0 01        shl         rax,1
  0000000010004E66: 48 03 D0           add         rdx,rax
  0000000010004E69: 0F B7 12           movzx       edx,word ptr [rdx]
  0000000010004E6C: FF 93 50 FE FF FF  call        qword ptr [rbx+FFFFFFFFFFFFFE50h]
  0000000010004E72: 48 8B 4D 10        mov         rcx,qword ptr [rbp+10h]
  0000000010004E76: 48 89 01           mov         qword ptr [rcx],rax
  0000000010004E79: C9                 leave
  0000000010004E7A: C3                 ret
  0000000010004E7B: 90                 nop
  0000000010004E7C: 90                 nop
  0000000010004E7D: 90                 nop
  0000000010004E7E: 90                 nop
  0000000010004E7F: 90                 nop
  0000000010004E80: 55                 push        rbp
  0000000010004E81: 48 8B EC           mov         rbp,rsp
  0000000010004E84: 48 83 EC 40        sub         rsp,40h
  0000000010004E88: 48 89 75 E0        mov         qword ptr [rbp-20h],rsi
  0000000010004E8C: 48 89 7D E8        mov         qword ptr [rbp-18h],rdi
  0000000010004E90: 48 89 4D 10        mov         qword ptr [rbp+10h],rcx
  0000000010004E94: 48 C7 45 F8 00 00  mov         qword ptr [rbp-8],0
                    00 00
  0000000010004E9C: 48 C7 45 F0 00 00  mov         qword ptr [rbp-10h],0
                    00 00
  0000000010004EA4: 48 8B 4B C0        mov         rcx,qword ptr [rbx-40h]
  0000000010004EA8: BA 08 00 00 00     mov         edx,8
  0000000010004EAD: 41 B8 A8 00 00 00  mov         r8d,0A8h
  0000000010004EB3: FF 53 E8           call        qword ptr [rbx-18h]
  0000000010004EB6: 48 83 C0 10        add         rax,10h
  0000000010004EBA: 48 8B 8B D0 FE FF  mov         rcx,qword ptr [rbx+FFFFFFFFFFFFFED0h]
                    FF
  0000000010004EC1: 48 89 48 F8        mov         qword ptr [rax-8],rcx
  0000000010004EC5: 48 89 45 F8        mov         qword ptr [rbp-8],rax
  0000000010004EC9: 48 8B 7D F8        mov         rdi,qword ptr [rbp-8]
  0000000010004ECD: 48 8D 7F 02        lea         rdi,[rdi+2]
  0000000010004ED1: 48 8B 75 10        mov         rsi,qword ptr [rbp+10h]
  0000000010004ED5: 31 C9              xor         ecx,ecx
  0000000010004ED7: 31 C0              xor         eax,eax
  0000000010004ED9: 48 83 C1 01        add         rcx,1
  0000000010004EDD: BA 40 00 00 00     mov         edx,40h
  0000000010004EE2: 48 3B CA           cmp         rcx,rdx
  0000000010004EE5: 77 02              ja          0000000010004EE9
  0000000010004EE7: EB 08              jmp         0000000010004EF1
  0000000010004EE9: B0 07              mov         al,7
  0000000010004EEB: B9 C4 19 00 00     mov         ecx,19C4h
  0000000010004EF0: CC                 int         3
  0000000010004EF1: BA 40 00 00 00     mov         edx,40h
  0000000010004EF6: 48 3B CA           cmp         rcx,rdx
  0000000010004EF9: 77 02              ja          0000000010004EFD
  0000000010004EFB: EB 08              jmp         0000000010004F05
  0000000010004EFD: B0 07              mov         al,7
  0000000010004EFF: B9 C4 19 00 00     mov         ecx,19C4h
  0000000010004F04: CC                 int         3
  0000000010004F05: 66 AD              lods        word ptr [rsi]
  0000000010004F07: 66 AB              stos        word ptr [rdi]
  0000000010004F09: 85 C0              test        eax,eax
  0000000010004F0B: 75 CC              jne         0000000010004ED9
  0000000010004F0D: 48 8B 45 F8        mov         rax,qword ptr [rbp-8]
  0000000010004F11: 31 C9              xor         ecx,ecx
  0000000010004F13: 48 89 88 90 00 00  mov         qword ptr [rax+0000000000000090h],rcx
                    00
  0000000010004F1A: 48 8B 45 F8        mov         rax,qword ptr [rbp-8]
  0000000010004F1E: 31 C9              xor         ecx,ecx
  0000000010004F20: 88 08              mov         byte ptr [rax],cl
  0000000010004F22: 48 8B 83 40 FE FF  mov         rax,qword ptr [rbx+FFFFFFFFFFFFFE40h]
                    FF
  0000000010004F29: 48 8B 00           mov         rax,qword ptr [rax]
  0000000010004F2C: 48 83 38 00        cmp         qword ptr [rax],0
  0000000010004F30: 75 16              jne         0000000010004F48
  0000000010004F32: 48 8B 83 40 FE FF  mov         rax,qword ptr [rbx+FFFFFFFFFFFFFE40h]
                    FF
  0000000010004F39: 48 8B 00           mov         rax,qword ptr [rax]
  0000000010004F3C: 48 8B 4D F8        mov         rcx,qword ptr [rbp-8]
  0000000010004F40: 48 89 08           mov         qword ptr [rax],rcx
  0000000010004F43: E9 D6 00 00 00     jmp         000000001000501E
  0000000010004F48: 48 8B 83 40 FE FF  mov         rax,qword ptr [rbx+FFFFFFFFFFFFFE40h]
                    FF
  0000000010004F4F: 48 8B 00           mov         rax,qword ptr [rax]
  0000000010004F52: 48 8B 00           mov         rax,qword ptr [rax]
  0000000010004F55: 48 89 45 F0        mov         qword ptr [rbp-10h],rax
  0000000010004F59: 48 8B 45 F0        mov         rax,qword ptr [rbp-10h]
  0000000010004F5D: 48 83 B8 90 00 00  cmp         qword ptr [rax+0000000000000090h],0
                    00 00
  0000000010004F65: 74 50              je          0000000010004FB7
  0000000010004F67: 48 8B 75 F0        mov         rsi,qword ptr [rbp-10h]
  0000000010004F6B: 48 8D 76 02        lea         rsi,[rsi+2]
  0000000010004F6F: 48 8B 7D 10        mov         rdi,qword ptr [rbp+10h]
  0000000010004F73: 31 C0              xor         eax,eax
  0000000010004F75: 48 83 C0 01        add         rax,1
  0000000010004F79: 48 83 F8 40        cmp         rax,40h
  0000000010004F7D: 77 02              ja          0000000010004F81
  0000000010004F7F: EB 08              jmp         0000000010004F89
  0000000010004F81: B0 07              mov         al,7
  0000000010004F83: B9 72 1A 00 00     mov         ecx,1A72h
  0000000010004F88: CC                 int         3
  0000000010004F89: 48 83 F8 40        cmp         rax,40h
  0000000010004F8D: 77 02              ja          0000000010004F91
  0000000010004F8F: EB 08              jmp         0000000010004F99
  0000000010004F91: B0 07              mov         al,7
  0000000010004F93: B9 72 1A 00 00     mov         ecx,1A72h
  0000000010004F98: CC                 int         3
  0000000010004F99: 66 A7              cmps        word ptr [rsi],word ptr [rdi]
  0000000010004F9B: 75 07              jne         0000000010004FA4
  0000000010004F9D: 66 83 7E FE 00     cmp         word ptr [rsi-2],0
  0000000010004FA2: 75 D1              jne         0000000010004F75
  0000000010004FA4: 74 11              je          0000000010004FB7
  0000000010004FA6: 48 8B 45 F0        mov         rax,qword ptr [rbp-10h]
  0000000010004FAA: 48 8B 80 90 00 00  mov         rax,qword ptr [rax+0000000000000090h]
                    00
  0000000010004FB1: 48 89 45 F0        mov         qword ptr [rbp-10h],rax
  0000000010004FB5: EB A2              jmp         0000000010004F59
  0000000010004FB7: 48 8B 75 F0        mov         rsi,qword ptr [rbp-10h]
  0000000010004FBB: 48 8D 76 02        lea         rsi,[rsi+2]
  0000000010004FBF: 48 8B 7D 10        mov         rdi,qword ptr [rbp+10h]
  0000000010004FC3: 31 C0              xor         eax,eax
  0000000010004FC5: 48 83 C0 01        add         rax,1
  0000000010004FC9: 48 83 F8 40        cmp         rax,40h
  0000000010004FCD: 77 02              ja          0000000010004FD1
  0000000010004FCF: EB 08              jmp         0000000010004FD9
  0000000010004FD1: B0 07              mov         al,7
  0000000010004FD3: B9 9B 1A 00 00     mov         ecx,1A9Bh
  0000000010004FD8: CC                 int         3
  0000000010004FD9: 48 83 F8 40        cmp         rax,40h
  0000000010004FDD: 77 02              ja          0000000010004FE1
  0000000010004FDF: EB 08              jmp         0000000010004FE9
  0000000010004FE1: B0 07              mov         al,7
  0000000010004FE3: B9 9B 1A 00 00     mov         ecx,1A9Bh
  0000000010004FE8: CC                 int         3
  0000000010004FE9: 66 A7              cmps        word ptr [rsi],word ptr [rdi]
  0000000010004FEB: 75 07              jne         0000000010004FF4
  0000000010004FED: 66 83 7E FE 00     cmp         word ptr [rsi-2],0
  0000000010004FF2: 75 D1              jne         0000000010004FC5
  0000000010004FF4: 75 19              jne         000000001000500F
  0000000010004FF6: 48 8D 8B 90 F1 FF  lea         rcx,[rbx+FFFFFFFFFFFFF190h]
                    FF
  0000000010004FFD: BA 13 00 00 00     mov         edx,13h
  0000000010005002: E8 19 F0 FF FF     call        0000000010004020
  0000000010005007: 31 C0              xor         eax,eax
  0000000010005009: 48 89 45 F8        mov         qword ptr [rbp-8],rax
  000000001000500D: EB 0F              jmp         000000001000501E
  000000001000500F: 48 8B 45 F0        mov         rax,qword ptr [rbp-10h]
  0000000010005013: 48 8B 4D F8        mov         rcx,qword ptr [rbp-8]
  0000000010005017: 48 89 88 90 00 00  mov         qword ptr [rax+0000000000000090h],rcx
                    00
  000000001000501E: 48 8B 45 F8        mov         rax,qword ptr [rbp-8]
  0000000010005022: 48 8B 75 E0        mov         rsi,qword ptr [rbp-20h]
  0000000010005026: 48 8B 7D E8        mov         rdi,qword ptr [rbp-18h]
  000000001000502A: C9                 leave
  000000001000502B: C3                 ret
  000000001000502C: 90                 nop
  000000001000502D: 90                 nop
  000000001000502E: 90                 nop
  000000001000502F: 90                 nop
  0000000010005030: 55                 push        rbp
  0000000010005031: 48 8B EC           mov         rbp,rsp
  0000000010005034: 48 83 EC 30        sub         rsp,30h
  0000000010005038: 48 89 75 F0        mov         qword ptr [rbp-10h],rsi
  000000001000503C: 48 89 4D 10        mov         qword ptr [rbp+10h],rcx
  0000000010005040: 48 89 55 18        mov         qword ptr [rbp+18h],rdx
  0000000010005044: 4C 89 45 20        mov         qword ptr [rbp+20h],r8
  0000000010005048: 48 C7 45 F8 00 00  mov         qword ptr [rbp-8],0
                    00 00
  0000000010005050: 48 8B 4B C0        mov         rcx,qword ptr [rbx-40h]
  0000000010005054: BA 08 00 00 00     mov         edx,8
  0000000010005059: 41 B8 60 00 00 00  mov         r8d,60h
  000000001000505F: FF 53 E8           call        qword ptr [rbx-18h]
  0000000010005062: 48 83 C0 10        add         rax,10h
  0000000010005066: 48 8B 8B C0 FE FF  mov         rcx,qword ptr [rbx+FFFFFFFFFFFFFEC0h]
                    FF
  000000001000506D: 48 89 48 F8        mov         qword ptr [rax-8],rcx
  0000000010005071: 48 89 45 F8        mov         qword ptr [rbp-8],rax
  0000000010005075: 48 8B 45 F8        mov         rax,qword ptr [rbp-8]
  0000000010005079: 48 C7 00 02 00 00  mov         qword ptr [rax],2
                    00
  0000000010005080: 48 8B 45 F8        mov         rax,qword ptr [rbp-8]
  0000000010005084: 48 8B 4D 10        mov         rcx,qword ptr [rbp+10h]
  0000000010005088: 48 89 48 28        mov         qword ptr [rax+28h],rcx
  000000001000508C: 48 8B 75 F8        mov         rsi,qword ptr [rbp-8]
  0000000010005090: FF 93 38 FE FF FF  call        qword ptr [rbx+FFFFFFFFFFFFFE38h]
  0000000010005096: 48 89 46 48        mov         qword ptr [rsi+48h],rax
  000000001000509A: 48 8B 45 F8        mov         rax,qword ptr [rbp-8]
  000000001000509E: 48 8B 4D 18        mov         rcx,qword ptr [rbp+18h]
  00000000100050A2: 48 89 48 30        mov         qword ptr [rax+30h],rcx
  00000000100050A6: 48 8B 45 F8        mov         rax,qword ptr [rbp-8]
  00000000100050AA: 48 8B 4D 20        mov         rcx,qword ptr [rbp+20h]
  00000000100050AE: 48 89 48 38        mov         qword ptr [rax+38h],rcx
  00000000100050B2: 48 8B 45 F8        mov         rax,qword ptr [rbp-8]
  00000000100050B6: 31 C9              xor         ecx,ecx
  00000000100050B8: 88 48 40           mov         byte ptr [rax+40h],cl
  00000000100050BB: 48 8B 45 F8        mov         rax,qword ptr [rbp-8]
  00000000100050BF: 48 8B 75 F0        mov         rsi,qword ptr [rbp-10h]
  00000000100050C3: C9                 leave
  00000000100050C4: C3                 ret
  00000000100050C5: 90                 nop
  00000000100050C6: 90                 nop
  00000000100050C7: 90                 nop
  00000000100050C8: 90                 nop
  00000000100050C9: 90                 nop
  00000000100050CA: 90                 nop
  00000000100050CB: 90                 nop
  00000000100050CC: 90                 nop
  00000000100050CD: 90                 nop
  00000000100050CE: 90                 nop
  00000000100050CF: 90                 nop
  00000000100050D0: 55                 push        rbp
  00000000100050D1: 48 8B EC           mov         rbp,rsp
  00000000100050D4: 48 83 EC 60        sub         rsp,60h
  00000000100050D8: 48 89 75 C0        mov         qword ptr [rbp-40h],rsi
  00000000100050DC: 48 89 7D C8        mov         qword ptr [rbp-38h],rdi
  00000000100050E0: 48 C7 45 E8 00 00  mov         qword ptr [rbp-18h],0
                    00 00
  00000000100050E8: 48 C7 45 E0 00 00  mov         qword ptr [rbp-20h],0
                    00 00
  00000000100050F0: 48 C7 45 D8 00 00  mov         qword ptr [rbp-28h],0
                    00 00
  00000000100050F8: 48 8B 83 40 FE FF  mov         rax,qword ptr [rbx+FFFFFFFFFFFFFE40h]
                    FF
  00000000100050FF: 48 8B 00           mov         rax,qword ptr [rax]
  0000000010005102: 48 89 45 D8        mov         qword ptr [rbp-28h],rax
  0000000010005106: 31 C0              xor         eax,eax
  0000000010005108: 88 45 FF           mov         byte ptr [rbp-1],al
  000000001000510B: 48 83 7D D8 00     cmp         qword ptr [rbp-28h],0
  0000000010005110: 0F 84 27 01 00 00  je          000000001000523D
  0000000010005116: 0F B6 45 FF        movzx       eax,byte ptr [rbp-1]
  000000001000511A: 85 C0              test        eax,eax
  000000001000511C: 0F 85 1B 01 00 00  jne         000000001000523D
  0000000010005122: 48 8B 45 D8        mov         rax,qword ptr [rbp-28h]
  0000000010005126: 48 8B 00           mov         rax,qword ptr [rax]
  0000000010005129: 48 89 45 E0        mov         qword ptr [rbp-20h],rax
  000000001000512D: 48 83 7D E0 00     cmp         qword ptr [rbp-20h],0
  0000000010005132: 74 53              je          0000000010005187
  0000000010005134: 48 8B 75 E0        mov         rsi,qword ptr [rbp-20h]
  0000000010005138: 48 8D 76 02        lea         rsi,[rsi+2]
  000000001000513C: 48 8B BB 28 FE FF  mov         rdi,qword ptr [rbx+FFFFFFFFFFFFFE28h]
                    FF
  0000000010005143: 31 C0              xor         eax,eax
  0000000010005145: 48 83 C0 01        add         rax,1
  0000000010005149: 48 83 F8 40        cmp         rax,40h
  000000001000514D: 77 02              ja          0000000010005151
  000000001000514F: EB 08              jmp         0000000010005159
  0000000010005151: B0 07              mov         al,7
  0000000010005153: B9 97 1D 00 00     mov         ecx,1D97h
  0000000010005158: CC                 int         3
  0000000010005159: 48 83 F8 40        cmp         rax,40h
  000000001000515D: 77 02              ja          0000000010005161
  000000001000515F: EB 08              jmp         0000000010005169
  0000000010005161: B0 07              mov         al,7
  0000000010005163: B9 97 1D 00 00     mov         ecx,1D97h
  0000000010005168: CC                 int         3
  0000000010005169: 66 A7              cmps        word ptr [rsi],word ptr [rdi]
  000000001000516B: 75 07              jne         0000000010005174
  000000001000516D: 66 83 7E FE 00     cmp         word ptr [rsi-2],0
  0000000010005172: 75 D1              jne         0000000010005145
  0000000010005174: 74 11              je          0000000010005187
  0000000010005176: 48 8B 45 E0        mov         rax,qword ptr [rbp-20h]
  000000001000517A: 48 8B 80 90 00 00  mov         rax,qword ptr [rax+0000000000000090h]
                    00
  0000000010005181: 48 89 45 E0        mov         qword ptr [rbp-20h],rax
  0000000010005185: EB A6              jmp         000000001000512D
  0000000010005187: 48 83 7D E0 00     cmp         qword ptr [rbp-20h],0
  000000001000518C: 0F 84 9A 00 00 00  je          000000001000522C
  0000000010005192: 48 8B 45 E0        mov         rax,qword ptr [rbp-20h]
  0000000010005196: 48 8B 80 88 00 00  mov         rax,qword ptr [rax+0000000000000088h]
                    00
  000000001000519D: 48 89 45 E8        mov         qword ptr [rbp-18h],rax
  00000000100051A1: C6 45 FF 01        mov         byte ptr [rbp-1],1
  00000000100051A5: 48 83 7D E8 00     cmp         qword ptr [rbp-18h],0
  00000000100051AA: 75 13              jne         00000000100051BF
  00000000100051AC: 48 8D 8B C0 F1 FF  lea         rcx,[rbx+FFFFFFFFFFFFF1C0h]
                    FF
  00000000100051B3: BA 15 00 00 00     mov         edx,15h
  00000000100051B8: E8 63 EE FF FF     call        0000000010004020
  00000000100051BD: EB 6B              jmp         000000001000522A
  00000000100051BF: 48 8B 45 E8        mov         rax,qword ptr [rbp-18h]
  00000000100051C3: 48 8B 40 F8        mov         rax,qword ptr [rax-8]
  00000000100051C7: 48 8B 8B 68 FE FF  mov         rcx,qword ptr [rbx+FFFFFFFFFFFFFE68h]
                    FF
  00000000100051CE: 48 39 48 08        cmp         qword ptr [rax+8],rcx
  00000000100051D2: 75 56              jne         000000001000522A
  00000000100051D4: 48 8B 83 68 FE FF  mov         rax,qword ptr [rbx+FFFFFFFFFFFFFE68h]
                    FF
  00000000100051DB: 48 8B 4D E8        mov         rcx,qword ptr [rbp-18h]
  00000000100051DF: 48 8B 49 F8        mov         rcx,qword ptr [rcx-8]
  00000000100051E3: 48 39 41 08        cmp         qword ptr [rcx+8],rax
  00000000100051E7: 75 02              jne         00000000100051EB
  00000000100051E9: EB 08              jmp         00000000100051F3
  00000000100051EB: B0 02              mov         al,2
  00000000100051ED: B9 4D 1E 00 00     mov         ecx,1E4Dh
  00000000100051F2: CC                 int         3
  00000000100051F3: 48 8B 45 E8        mov         rax,qword ptr [rbp-18h]
  00000000100051F7: 48 8B 40 38        mov         rax,qword ptr [rax+38h]
  00000000100051FB: 48 89 45 F0        mov         qword ptr [rbp-10h],rax
  00000000100051FF: 48 83 7D F0 00     cmp         qword ptr [rbp-10h],0
  0000000010005204: 7E 24              jle         000000001000522A
  0000000010005206: 48 8B 45 F0        mov         rax,qword ptr [rbp-10h]
  000000001000520A: 48 8B 8B 20 FE FF  mov         rcx,qword ptr [rbx+FFFFFFFFFFFFFE20h]
                    FF
  0000000010005211: 48 8B 09           mov         rcx,qword ptr [rcx]
  0000000010005214: 48 3B C1           cmp         rax,rcx
  0000000010005217: 74 11              je          000000001000522A
  0000000010005219: 48 8D 8B F0 F1 FF  lea         rcx,[rbx+FFFFFFFFFFFFF1F0h]
                    FF
  0000000010005220: BA 26 00 00 00     mov         edx,26h
  0000000010005225: E8 F6 ED FF FF     call        0000000010004020
  000000001000522A: EB 0C              jmp         0000000010005238
  000000001000522C: 48 8B 45 D8        mov         rax,qword ptr [rbp-28h]
  0000000010005230: 48 8B 40 08        mov         rax,qword ptr [rax+8]
  0000000010005234: 48 89 45 D8        mov         qword ptr [rbp-28h],rax
  0000000010005238: E9 CE FE FF FF     jmp         000000001000510B
  000000001000523D: 48 8B 45 E8        mov         rax,qword ptr [rbp-18h]
  0000000010005241: 48 8B 75 C0        mov         rsi,qword ptr [rbp-40h]
  0000000010005245: 48 8B 7D C8        mov         rdi,qword ptr [rbp-38h]
  0000000010005249: C9                 leave
  000000001000524A: C3                 ret
  000000001000524B: 90                 nop
  000000001000524C: 90                 nop
  000000001000524D: 90                 nop
  000000001000524E: 90                 nop
  000000001000524F: 90                 nop
  0000000010005250: 55                 push        rbp
  0000000010005251: 48 8B EC           mov         rbp,rsp
  0000000010005254: 48 83 EC 50        sub         rsp,50h
  0000000010005258: 48 89 75 D0        mov         qword ptr [rbp-30h],rsi
  000000001000525C: 48 89 7D D8        mov         qword ptr [rbp-28h],rdi
  0000000010005260: 48 C7 45 F8 00 00  mov         qword ptr [rbp-8],0
                    00 00
  0000000010005268: 48 C7 45 F0 00 00  mov         qword ptr [rbp-10h],0
                    00 00
  0000000010005270: 48 C7 45 E8 00 00  mov         qword ptr [rbp-18h],0
                    00 00
  0000000010005278: E8 53 FE FF FF     call        00000000100050D0
  000000001000527D: 48 89 45 F8        mov         qword ptr [rbp-8],rax
  0000000010005281: E8 7A ED FF FF     call        0000000010004000
  0000000010005286: 48 83 7D F8 00     cmp         qword ptr [rbp-8],0
  000000001000528B: 0F 84 5D 02 00 00  je          00000000100054EE
  0000000010005291: 48 8B 45 F8        mov         rax,qword ptr [rbp-8]
  0000000010005295: 48 8B 40 F8        mov         rax,qword ptr [rax-8]
  0000000010005299: 48 8B 8B 18 FE FF  mov         rcx,qword ptr [rbx+FFFFFFFFFFFFFE18h]
                    FF
  00000000100052A0: 48 39 48 08        cmp         qword ptr [rax+8],rcx
  00000000100052A4: 0F 85 44 02 00 00  jne         00000000100054EE
  00000000100052AA: 48 83 BB F8 DF FF  cmp         qword ptr [rbx+FFFFFFFFFFFFDFF8h],12h
                    FF 12
  00000000100052B2: 0F 85 36 02 00 00  jne         00000000100054EE
  00000000100052B8: E8 43 ED FF FF     call        0000000010004000
  00000000100052BD: 48 83 BB F8 DF FF  cmp         qword ptr [rbx+FFFFFFFFFFFFDFF8h],1Fh
                    FF 1F
  00000000100052C5: 0F 85 11 02 00 00  jne         00000000100054DC
  00000000100052CB: 48 8B 83 18 FE FF  mov         rax,qword ptr [rbx+FFFFFFFFFFFFFE18h]
                    FF
  00000000100052D2: 48 8B 4D F8        mov         rcx,qword ptr [rbp-8]
  00000000100052D6: 48 8B 49 F8        mov         rcx,qword ptr [rcx-8]
  00000000100052DA: 48 39 41 08        cmp         qword ptr [rcx+8],rax
  00000000100052DE: 75 02              jne         00000000100052E2
  00000000100052E0: EB 08              jmp         00000000100052EA
  00000000100052E2: B0 02              mov         al,2
  00000000100052E4: B9 EF 1F 00 00     mov         ecx,1FEFh
  00000000100052E9: CC                 int         3
  00000000100052EA: 48 8B 45 F8        mov         rax,qword ptr [rbp-8]
  00000000100052EE: 48 89 45 F0        mov         qword ptr [rbp-10h],rax
  00000000100052F2: 48 8B 45 F0        mov         rax,qword ptr [rbp-10h]
  00000000100052F6: 48 8B 80 C8 02 00  mov         rax,qword ptr [rax+00000000000002C8h]
                    00
  00000000100052FD: 48 89 45 E8        mov         qword ptr [rbp-18h],rax
  0000000010005301: 48 83 7D E8 00     cmp         qword ptr [rbp-18h],0
  0000000010005306: 74 53              je          000000001000535B
  0000000010005308: 48 8B 75 E8        mov         rsi,qword ptr [rbp-18h]
  000000001000530C: 48 8D 76 02        lea         rsi,[rsi+2]
  0000000010005310: 48 8B BB 28 FE FF  mov         rdi,qword ptr [rbx+FFFFFFFFFFFFFE28h]
                    FF
  0000000010005317: 31 C0              xor         eax,eax
  0000000010005319: 48 83 C0 01        add         rax,1
  000000001000531D: 48 83 F8 40        cmp         rax,40h
  0000000010005321: 77 02              ja          0000000010005325
  0000000010005323: EB 08              jmp         000000001000532D
  0000000010005325: B0 07              mov         al,7
  0000000010005327: B9 2A 20 00 00     mov         ecx,202Ah
  000000001000532C: CC                 int         3
  000000001000532D: 48 83 F8 40        cmp         rax,40h
  0000000010005331: 77 02              ja          0000000010005335
  0000000010005333: EB 08              jmp         000000001000533D
  0000000010005335: B0 07              mov         al,7
  0000000010005337: B9 2A 20 00 00     mov         ecx,202Ah
  000000001000533C: CC                 int         3
  000000001000533D: 66 A7              cmps        word ptr [rsi],word ptr [rdi]
  000000001000533F: 75 07              jne         0000000010005348
  0000000010005341: 66 83 7E FE 00     cmp         word ptr [rsi-2],0
  0000000010005346: 75 D1              jne         0000000010005319
  0000000010005348: 74 11              je          000000001000535B
  000000001000534A: 48 8B 45 E8        mov         rax,qword ptr [rbp-18h]
  000000001000534E: 48 8B 80 90 00 00  mov         rax,qword ptr [rax+0000000000000090h]
                    00
  0000000010005355: 48 89 45 E8        mov         qword ptr [rbp-18h],rax
  0000000010005359: EB A6              jmp         0000000010005301
  000000001000535B: 48 83 7D E8 00     cmp         qword ptr [rbp-18h],0
  0000000010005360: 0F 84 58 01 00 00  je          00000000100054BE
  0000000010005366: 48 8B 45 E8        mov         rax,qword ptr [rbp-18h]
  000000001000536A: 48 8B 80 88 00 00  mov         rax,qword ptr [rax+0000000000000088h]
                    00
  0000000010005371: 48 89 45 F8        mov         qword ptr [rbp-8],rax
  0000000010005375: 48 8B 45 F8        mov         rax,qword ptr [rbp-8]
  0000000010005379: 48 8B 40 F8        mov         rax,qword ptr [rax-8]
  000000001000537D: 48 8B 8B 68 FE FF  mov         rcx,qword ptr [rbx+FFFFFFFFFFFFFE68h]
                    FF
  0000000010005384: 48 39 48 08        cmp         qword ptr [rax+8],rcx
  0000000010005388: 75 54              jne         00000000100053DE
  000000001000538A: 48 8B 83 68 FE FF  mov         rax,qword ptr [rbx+FFFFFFFFFFFFFE68h]
                    FF
  0000000010005391: 48 8B 4D F8        mov         rcx,qword ptr [rbp-8]
  0000000010005395: 48 8B 49 F8        mov         rcx,qword ptr [rcx-8]
  0000000010005399: 48 39 41 08        cmp         qword ptr [rcx+8],rax
  000000001000539D: 75 02              jne         00000000100053A1
  000000001000539F: EB 08              jmp         00000000100053A9
  00000000100053A1: B0 02              mov         al,2
  00000000100053A3: B9 A0 20 00 00     mov         ecx,20A0h
  00000000100053A8: CC                 int         3
  00000000100053A9: 48 8B 45 F8        mov         rax,qword ptr [rbp-8]
  00000000100053AD: 48 83 78 38 FF     cmp         qword ptr [rax+38h],0FFFFFFFFFFFFFFFFh
  00000000100053B2: 7D 2A              jge         00000000100053DE
  00000000100053B4: 48 8B 83 68 FE FF  mov         rax,qword ptr [rbx+FFFFFFFFFFFFFE68h]
                    FF
  00000000100053BB: 48 8B 4D F8        mov         rcx,qword ptr [rbp-8]
  00000000100053BF: 48 8B 49 F8        mov         rcx,qword ptr [rcx-8]
  00000000100053C3: 48 39 41 08        cmp         qword ptr [rcx+8],rax
  00000000100053C7: 75 02              jne         00000000100053CB
  00000000100053C9: EB 08              jmp         00000000100053D3
  00000000100053CB: B0 02              mov         al,2
  00000000100053CD: B9 B6 20 00 00     mov         ecx,20B6h
  00000000100053D2: CC                 int         3
  00000000100053D3: 48 8B 45 F8        mov         rax,qword ptr [rbp-8]
  00000000100053D7: 48 83 78 28 00     cmp         qword ptr [rax+28h],0
  00000000100053DC: 74 69              je          0000000010005447
  00000000100053DE: 48 8B 45 F8        mov         rax,qword ptr [rbp-8]
  00000000100053E2: 48 8B 40 F8        mov         rax,qword ptr [rax-8]
  00000000100053E6: 48 8B 8B 10 FE FF  mov         rcx,qword ptr [rbx+FFFFFFFFFFFFFE10h]
                    FF
  00000000100053ED: 48 39 48 08        cmp         qword ptr [rax+8],rcx
  00000000100053F1: 75 64              jne         0000000010005457
  00000000100053F3: 48 8B 83 10 FE FF  mov         rax,qword ptr [rbx+FFFFFFFFFFFFFE10h]
                    FF
  00000000100053FA: 48 8B 4D F8        mov         rcx,qword ptr [rbp-8]
  00000000100053FE: 48 8B 49 F8        mov         rcx,qword ptr [rcx-8]
  0000000010005402: 48 39 41 08        cmp         qword ptr [rcx+8],rax
  0000000010005406: 75 02              jne         000000001000540A
  0000000010005408: EB 08              jmp         0000000010005412
  000000001000540A: B0 02              mov         al,2
  000000001000540C: B9 E2 20 00 00     mov         ecx,20E2h
  0000000010005411: CC                 int         3
  0000000010005412: 48 8B 45 F8        mov         rax,qword ptr [rbp-8]
  0000000010005416: 48 83 78 38 FF     cmp         qword ptr [rax+38h],0FFFFFFFFFFFFFFFFh
  000000001000541B: 7D 3A              jge         0000000010005457
  000000001000541D: 48 8B 83 10 FE FF  mov         rax,qword ptr [rbx+FFFFFFFFFFFFFE10h]
                    FF
  0000000010005424: 48 8B 4D F8        mov         rcx,qword ptr [rbp-8]
  0000000010005428: 48 8B 49 F8        mov         rcx,qword ptr [rcx-8]
  000000001000542C: 48 39 41 08        cmp         qword ptr [rcx+8],rax
  0000000010005430: 75 02              jne         0000000010005434
  0000000010005432: EB 08              jmp         000000001000543C
  0000000010005434: B0 02              mov         al,2
  0000000010005436: B9 F9 20 00 00     mov         ecx,20F9h
  000000001000543B: CC                 int         3
  000000001000543C: 48 8B 45 F8        mov         rax,qword ptr [rbp-8]
  0000000010005440: 48 83 78 28 00     cmp         qword ptr [rax+28h],0
  0000000010005445: 75 10              jne         0000000010005457
  0000000010005447: 48 8B 4D F8        mov         rcx,qword ptr [rbp-8]
  000000001000544B: 48 8B 55 F0        mov         rdx,qword ptr [rbp-10h]
  000000001000544F: FF 93 08 FE FF FF  call        qword ptr [rbx+FFFFFFFFFFFFFE08h]
  0000000010005455: EB 65              jmp         00000000100054BC
  0000000010005457: 48 8B 45 F8        mov         rax,qword ptr [rbp-8]
  000000001000545B: 48 83 38 01        cmp         qword ptr [rax],1
  000000001000545F: 75 5B              jne         00000000100054BC
  0000000010005461: 48 8B 45 F8        mov         rax,qword ptr [rbp-8]
  0000000010005465: 48 8B 40 08        mov         rax,qword ptr [rax+8]
  0000000010005469: 48 83 78 30 FF     cmp         qword ptr [rax+30h],0FFFFFFFFFFFFFFFFh
  000000001000546E: 7D 4C              jge         00000000100054BC
  0000000010005470: 48 8B 45 F8        mov         rax,qword ptr [rbp-8]
  0000000010005474: 48 8B 40 08        mov         rax,qword ptr [rax+8]
  0000000010005478: 48 83 38 08        cmp         qword ptr [rax],8
  000000001000547C: 75 0F              jne         000000001000548D
  000000001000547E: 48 8B 45 F8        mov         rax,qword ptr [rbp-8]
  0000000010005482: 48 8B 40 08        mov         rax,qword ptr [rax+8]
  0000000010005486: 48 83 78 28 00     cmp         qword ptr [rax+28h],0
  000000001000548B: 74 21              je          00000000100054AE
  000000001000548D: 48 8B 45 F8        mov         rax,qword ptr [rbp-8]
  0000000010005491: 48 8B 40 08        mov         rax,qword ptr [rax+8]
  0000000010005495: 48 83 38 05        cmp         qword ptr [rax],5
  0000000010005499: 75 21              jne         00000000100054BC
  000000001000549B: 48 8B 45 F8        mov         rax,qword ptr [rbp-8]
  000000001000549F: 48 8B 40 08        mov         rax,qword ptr [rax+8]
  00000000100054A3: 48 8B 40 40        mov         rax,qword ptr [rax+40h]
  00000000100054A7: 48 83 78 28 00     cmp         qword ptr [rax+28h],0
  00000000100054AC: 75 0E              jne         00000000100054BC
  00000000100054AE: 48 8B 4D F8        mov         rcx,qword ptr [rbp-8]
  00000000100054B2: 48 8B 55 F0        mov         rdx,qword ptr [rbp-10h]
  00000000100054B6: FF 93 08 FE FF FF  call        qword ptr [rbx+FFFFFFFFFFFFFE08h]
  00000000100054BC: EB 17              jmp         00000000100054D5
  00000000100054BE: 48 8D 8B 40 F2 FF  lea         rcx,[rbx+FFFFFFFFFFFFF240h]
                    FF
  00000000100054C5: BA 0A 00 00 00     mov         edx,0Ah
  00000000100054CA: E8 51 EB FF FF     call        0000000010004020
  00000000100054CF: 31 C0              xor         eax,eax
  00000000100054D1: 48 89 45 F8        mov         qword ptr [rbp-8],rax
  00000000100054D5: E8 26 EB FF FF     call        0000000010004000
  00000000100054DA: EB 10              jmp         00000000100054EC
  00000000100054DC: B9 1F 00 00 00     mov         ecx,1Fh
  00000000100054E1: E8 3A ED FF FF     call        0000000010004220
  00000000100054E6: 31 C0              xor         eax,eax
  00000000100054E8: 48 89 45 F8        mov         qword ptr [rbp-8],rax
  00000000100054EC: EB 22              jmp         0000000010005510
  00000000100054EE: 48 83 7D F8 00     cmp         qword ptr [rbp-8],0
  00000000100054F3: 74 1B              je          0000000010005510
  00000000100054F5: 48 8B 45 F8        mov         rax,qword ptr [rbp-8]
  00000000100054F9: 48 8B 40 F8        mov         rax,qword ptr [rax-8]
  00000000100054FD: 48 8B 8B 18 FE FF  mov         rcx,qword ptr [rbx+FFFFFFFFFFFFFE18h]
                    FF
  0000000010005504: 48 39 48 08        cmp         qword ptr [rax+8],rcx
  0000000010005508: 75 06              jne         0000000010005510
  000000001000550A: 31 C0              xor         eax,eax
  000000001000550C: 48 89 45 F8        mov         qword ptr [rbp-8],rax
  0000000010005510: 48 8B 45 F8        mov         rax,qword ptr [rbp-8]
  0000000010005514: 48 8B 75 D0        mov         rsi,qword ptr [rbp-30h]
  0000000010005518: 48 8B 7D D8        mov         rdi,qword ptr [rbp-28h]
  000000001000551C: C9                 leave
  000000001000551D: C3                 ret
  000000001000551E: 90                 nop
  000000001000551F: 90                 nop
  0000000010005520: 55                 push        rbp
  0000000010005521: 48 8B EC           mov         rbp,rsp
  0000000010005524: 48 83 EC 30        sub         rsp,30h
  0000000010005528: 48 89 4D 10        mov         qword ptr [rbp+10h],rcx
  000000001000552C: 48 89 55 18        mov         qword ptr [rbp+18h],rdx
  0000000010005530: 48 C7 45 F8 00 00  mov         qword ptr [rbp-8],0
                    00 00
  0000000010005538: 48 C7 45 F0 00 00  mov         qword ptr [rbp-10h],0
                    00 00
  0000000010005540: 48 8B 83 D8 DF FF  mov         rax,qword ptr [rbx+FFFFFFFFFFFFDFD8h]
                    FF
  0000000010005547: FF D0              call        rax
  0000000010005549: 48 89 45 F8        mov         qword ptr [rbp-8],rax
  000000001000554D: 48 83 7D 18 00     cmp         qword ptr [rbp+18h],0
  0000000010005552: 74 36              je          000000001000558A
  0000000010005554: 48 8B 4D 18        mov         rcx,qword ptr [rbp+18h]
  0000000010005558: 48 8B 83 A0 FE FF  mov         rax,qword ptr [rbx+FFFFFFFFFFFFFEA0h]
                    FF
  000000001000555F: 48 8B 91 88 00 00  mov         rdx,qword ptr [rcx+0000000000000088h]
                    00
  0000000010005566: 48 8B 52 F8        mov         rdx,qword ptr [rdx-8]
  000000001000556A: 48 39 42 10        cmp         qword ptr [rdx+10h],rax
  000000001000556E: 75 02              jne         0000000010005572
  0000000010005570: EB 08              jmp         000000001000557A
  0000000010005572: B0 02              mov         al,2
  0000000010005574: B9 BF 23 00 00     mov         ecx,23BFh
  0000000010005579: CC                 int         3
  000000001000557A: 48 8B 89 88 00 00  mov         rcx,qword ptr [rcx+0000000000000088h]
                    00
  0000000010005581: 48 8B 55 F8        mov         rdx,qword ptr [rbp-8]
  0000000010005585: E8 C6 F4 FF FF     call        0000000010004A50
  000000001000558A: B9 65 00 00 00     mov         ecx,65h
  000000001000558F: 48 8B 55 F8        mov         rdx,qword ptr [rbp-8]
  0000000010005593: 45 31 C0           xor         r8d,r8d
  0000000010005596: E8 95 FA FF FF     call        0000000010005030
  000000001000559B: 48 89 45 F0        mov         qword ptr [rbp-10h],rax
  000000001000559F: 48 8B 45 10        mov         rax,qword ptr [rbp+10h]
  00000000100055A3: 48 8B 00           mov         rax,qword ptr [rax]
  00000000100055A6: 48 8B 4D F0        mov         rcx,qword ptr [rbp-10h]
  00000000100055AA: 48 89 48 38        mov         qword ptr [rax+38h],rcx
  00000000100055AE: 48 8B 45 F0        mov         rax,qword ptr [rbp-10h]
  00000000100055B2: 48 8B 4D 10        mov         rcx,qword ptr [rbp+10h]
  00000000100055B6: 48 89 01           mov         qword ptr [rcx],rax
  00000000100055B9: C9                 leave
  00000000100055BA: C3                 ret
  00000000100055BB: 90                 nop
  00000000100055BC: 90                 nop
  00000000100055BD: 90                 nop
  00000000100055BE: 90                 nop
  00000000100055BF: 90                 nop
  00000000100055C0: 55                 push        rbp
  00000000100055C1: 48 8B EC           mov         rbp,rsp
  00000000100055C4: 48 83 EC 50        sub         rsp,50h
  00000000100055C8: 48 89 4D 10        mov         qword ptr [rbp+10h],rcx
  00000000100055CC: 48 C7 45 F8 00 00  mov         qword ptr [rbp-8],0
                    00 00
  00000000100055D4: 48 C7 45 F0 00 00  mov         qword ptr [rbp-10h],0
                    00 00
  00000000100055DC: 48 C7 45 E8 00 00  mov         qword ptr [rbp-18h],0
                    00 00
  00000000100055E4: 48 C7 45 E0 00 00  mov         qword ptr [rbp-20h],0
                    00 00
  00000000100055EC: 48 8B 45 10        mov         rax,qword ptr [rbp+10h]
  00000000100055F0: 48 8B 40 08        mov         rax,qword ptr [rax+8]
  00000000100055F4: 48 89 45 E8        mov         qword ptr [rbp-18h],rax
  00000000100055F8: B9 64 00 00 00     mov         ecx,64h
  00000000100055FD: 48 8B 55 10        mov         rdx,qword ptr [rbp+10h]
  0000000010005601: 45 31 C0           xor         r8d,r8d
  0000000010005604: E8 27 FA FF FF     call        0000000010005030
  0000000010005609: 48 89 45 F8        mov         qword ptr [rbp-8],rax
  000000001000560D: 48 8B 45 F8        mov         rax,qword ptr [rbp-8]
  0000000010005611: 48 8B 4D E8        mov         rcx,qword ptr [rbp-18h]
  0000000010005615: 48 8B 49 40        mov         rcx,qword ptr [rcx+40h]
  0000000010005619: 48 89 48 08        mov         qword ptr [rax+8],rcx
  000000001000561D: 48 83 BB F8 DF FF  cmp         qword ptr [rbx+FFFFFFFFFFFFDFF8h],1Ch
                    FF 1C
  0000000010005625: 0F 85 18 01 00 00  jne         0000000010005743
  000000001000562B: E8 D0 E9 FF FF     call        0000000010004000
  0000000010005630: 48 83 BB F8 DF FF  cmp         qword ptr [rbx+FFFFFFFFFFFFDFF8h],2Ch
                    FF 2C
  0000000010005638: 0F 84 DA 00 00 00  je          0000000010005718
  000000001000563E: 48 8B 45 F8        mov         rax,qword ptr [rbp-8]
  0000000010005642: 48 89 45 F0        mov         qword ptr [rbp-10h],rax
  0000000010005646: 48 8B 45 E8        mov         rax,qword ptr [rbp-18h]
  000000001000564A: 48 8B 40 48        mov         rax,qword ptr [rax+48h]
  000000001000564E: 48 89 45 E0        mov         qword ptr [rbp-20h],rax
  0000000010005652: 48 8D 4D F0        lea         rcx,[rbp-10h]
  0000000010005656: 48 8B 55 E0        mov         rdx,qword ptr [rbp-20h]
  000000001000565A: E8 C1 FE FF FF     call        0000000010005520
  000000001000565F: 48 C7 45 D8 01 00  mov         qword ptr [rbp-28h],1
                    00 00
  0000000010005667: 48 83 BB F8 DF FF  cmp         qword ptr [rbx+FFFFFFFFFFFFDFF8h],28h
                    FF 28
  000000001000566F: 75 53              jne         00000000100056C4
  0000000010005671: 48 83 7D E0 00     cmp         qword ptr [rbp-20h],0
  0000000010005676: 74 0F              je          0000000010005687
  0000000010005678: 48 8B 45 E0        mov         rax,qword ptr [rbp-20h]
  000000001000567C: 48 8B 80 90 00 00  mov         rax,qword ptr [rax+0000000000000090h]
                    00
  0000000010005683: 48 89 45 E0        mov         qword ptr [rbp-20h],rax
  0000000010005687: E8 74 E9 FF FF     call        0000000010004000
  000000001000568C: 48 83 BB F8 DF FF  cmp         qword ptr [rbx+FFFFFFFFFFFFDFF8h],2Ch
                    FF 2C
  0000000010005694: 74 1B              je          00000000100056B1
  0000000010005696: 48 8D 4D F0        lea         rcx,[rbp-10h]
  000000001000569A: 48 8B 55 E0        mov         rdx,qword ptr [rbp-20h]
  000000001000569E: E8 7D FE FF FF     call        0000000010005520
  00000000100056A3: 48 8B 45 D8        mov         rax,qword ptr [rbp-28h]
  00000000100056A7: 48 83 C0 01        add         rax,1
  00000000100056AB: 48 89 45 D8        mov         qword ptr [rbp-28h],rax
  00000000100056AF: EB 11              jmp         00000000100056C2
  00000000100056B1: 48 8D 8B 60 F2 FF  lea         rcx,[rbx+FFFFFFFFFFFFF260h]
                    FF
  00000000100056B8: BA 09 00 00 00     mov         edx,9
  00000000100056BD: E8 5E E9 FF FF     call        0000000010004020
  00000000100056C2: EB A3              jmp         0000000010005667
  00000000100056C4: 48 8B 45 D8        mov         rax,qword ptr [rbp-28h]
  00000000100056C8: 48 8B 4D E8        mov         rcx,qword ptr [rbp-18h]
  00000000100056CC: 48 8B 49 58        mov         rcx,qword ptr [rcx+58h]
  00000000100056D0: 48 3B C1           cmp         rax,rcx
  00000000100056D3: 75 02              jne         00000000100056D7
  00000000100056D5: EB 35              jmp         000000001000570C
  00000000100056D7: 48 8B 45 D8        mov         rax,qword ptr [rbp-28h]
  00000000100056DB: 48 8B 4D E8        mov         rcx,qword ptr [rbp-18h]
  00000000100056DF: 48 8B 49 58        mov         rcx,qword ptr [rcx+58h]
  00000000100056E3: 48 3B C1           cmp         rax,rcx
  00000000100056E6: 7E 13              jle         00000000100056FB
  00000000100056E8: 48 8D 8B 80 F2 FF  lea         rcx,[rbx+FFFFFFFFFFFFF280h]
                    FF
  00000000100056EF: BA 10 00 00 00     mov         edx,10h
  00000000100056F4: E8 27 E9 FF FF     call        0000000010004020
  00000000100056F9: EB 11              jmp         000000001000570C
  00000000100056FB: 48 8D 8B A0 F2 FF  lea         rcx,[rbx+FFFFFFFFFFFFF2A0h]
                    FF
  0000000010005702: BA 12 00 00 00     mov         edx,12h
  0000000010005707: E8 14 E9 FF FF     call        0000000010004020
  000000001000570C: B9 2C 00 00 00     mov         ecx,2Ch
  0000000010005711: E8 2A E9 FF FF     call        0000000010004040
  0000000010005716: EB 2B              jmp         0000000010005743
  0000000010005718: 48 83 BB F8 DF FF  cmp         qword ptr [rbx+FFFFFFFFFFFFDFF8h],2Ch
                    FF 2C
  0000000010005720: 75 21              jne         0000000010005743
  0000000010005722: 48 8B 45 E8        mov         rax,qword ptr [rbp-18h]
  0000000010005726: 48 83 78 58 00     cmp         qword ptr [rax+58h],0
  000000001000572B: 74 11              je          000000001000573E
  000000001000572D: 48 8D 8B D0 F2 FF  lea         rcx,[rbx+FFFFFFFFFFFFF2D0h]
                    FF
  0000000010005734: BA 0C 00 00 00     mov         edx,0Ch
  0000000010005739: E8 E2 E8 FF FF     call        0000000010004020
  000000001000573E: E8 BD E8 FF FF     call        0000000010004000
  0000000010005743: 48 8B 45 F8        mov         rax,qword ptr [rbp-8]
  0000000010005747: C9                 leave
  0000000010005748: C3                 ret
  0000000010005749: 90                 nop
  000000001000574A: 90                 nop
  000000001000574B: 90                 nop
  000000001000574C: 90                 nop
  000000001000574D: 90                 nop
  000000001000574E: 90                 nop
  000000001000574F: 90                 nop
  0000000010005750: 55                 push        rbp
  0000000010005751: 48 8B EC           mov         rbp,rsp
  0000000010005754: 48 81 EC 00 01 00  sub         rsp,100h
                    00
  000000001000575B: 48 89 B5 20 FF FF  mov         qword ptr [rbp+FFFFFFFFFFFFFF20h],rsi
                    FF
  0000000010005762: 48 89 BD 28 FF FF  mov         qword ptr [rbp+FFFFFFFFFFFFFF28h],rdi
                    FF
  0000000010005769: 48 C7 45 F8 00 00  mov         qword ptr [rbp-8],0
                    00 00
  0000000010005771: 48 C7 45 F0 00 00  mov         qword ptr [rbp-10h],0
                    00 00
  0000000010005779: 48 C7 85 68 FF FF  mov         qword ptr [rbp+FFFFFFFFFFFFFF68h],0
                    FF 00 00 00 00
  0000000010005784: 48 C7 85 58 FF FF  mov         qword ptr [rbp+FFFFFFFFFFFFFF58h],0
                    FF 00 00 00 00
  000000001000578F: 48 C7 85 50 FF FF  mov         qword ptr [rbp+FFFFFFFFFFFFFF50h],0
                    FF 00 00 00 00
  000000001000579A: 48 C7 85 48 FF FF  mov         qword ptr [rbp+FFFFFFFFFFFFFF48h],0
                    FF 00 00 00 00
  00000000100057A5: 48 C7 85 40 FF FF  mov         qword ptr [rbp+FFFFFFFFFFFFFF40h],0
                    FF 00 00 00 00
  00000000100057B0: 48 C7 85 38 FF FF  mov         qword ptr [rbp+FFFFFFFFFFFFFF38h],0
                    FF 00 00 00 00
  00000000100057BB: E8 90 FA FF FF     call        0000000010005250
  00000000100057C0: 48 89 45 F8        mov         qword ptr [rbp-8],rax
  00000000100057C4: 48 83 7D F8 00     cmp         qword ptr [rbp-8],0
  00000000100057C9: 74 0A              je          00000000100057D5
  00000000100057CB: 48 8B 45 F8        mov         rax,qword ptr [rbp-8]
  00000000100057CF: 48 83 38 01        cmp         qword ptr [rax],1
  00000000100057D3: 7F 27              jg          00000000100057FC
  00000000100057D5: 48 8B 8B 80 FE FF  mov         rcx,qword ptr [rbx+FFFFFFFFFFFFFE80h]
                    FF
  00000000100057DC: 48 8B 09           mov         rcx,qword ptr [rcx]
  00000000100057DF: 31 D2              xor         edx,edx
  00000000100057E1: FF 93 50 FE FF FF  call        qword ptr [rbx+FFFFFFFFFFFFFE50h]
  00000000100057E7: 48 89 45 F8        mov         qword ptr [rbp-8],rax
  00000000100057EB: 48 8D 8B F0 F2 FF  lea         rcx,[rbx+FFFFFFFFFFFFF2F0h]
                    FF
  00000000100057F2: BA 0E 00 00 00     mov         edx,0Eh
  00000000100057F7: E8 24 E8 FF FF     call        0000000010004020
  00000000100057FC: 48 8B 45 F8        mov         rax,qword ptr [rbp-8]
  0000000010005800: 48 8B 40 F8        mov         rax,qword ptr [rax-8]
  0000000010005804: 48 8B 8B 68 FE FF  mov         rcx,qword ptr [rbx+FFFFFFFFFFFFFE68h]
                    FF
  000000001000580B: 48 39 48 08        cmp         qword ptr [rax+8],rcx
  000000001000580F: 75 2D              jne         000000001000583E
  0000000010005811: 48 8B 83 68 FE FF  mov         rax,qword ptr [rbx+FFFFFFFFFFFFFE68h]
                    FF
  0000000010005818: 48 8B 4D F8        mov         rcx,qword ptr [rbp-8]
  000000001000581C: 48 8B 49 F8        mov         rcx,qword ptr [rcx-8]
  0000000010005820: 48 39 41 08        cmp         qword ptr [rcx+8],rax
  0000000010005824: 75 02              jne         0000000010005828
  0000000010005826: EB 08              jmp         0000000010005830
  0000000010005828: B0 02              mov         al,2
  000000001000582A: B9 32 28 00 00     mov         ecx,2832h
  000000001000582F: CC                 int         3
  0000000010005830: 48 8B 45 F8        mov         rax,qword ptr [rbp-8]
  0000000010005834: 0F B6 40 40        movzx       eax,byte ptr [rax+40h]
  0000000010005838: 88 85 67 FF FF FF  mov         byte ptr [rbp+FFFFFFFFFFFFFF67h],al
  000000001000583E: 48 83 BB F8 DF FF  cmp         qword ptr [rbx+FFFFFFFFFFFFDFF8h],12h
                    FF 12
  0000000010005846: 0F 85 56 02 00 00  jne         0000000010005AA2
  000000001000584C: 48 8B 4D F8        mov         rcx,qword ptr [rbp-8]
  0000000010005850: BA 20 01 00 00     mov         edx,120h
  0000000010005855: E8 26 F4 FF FF     call        0000000010004C80
  000000001000585A: E8 A1 E7 FF FF     call        0000000010004000
  000000001000585F: 48 83 BB F8 DF FF  cmp         qword ptr [rbx+FFFFFFFFFFFFDFF8h],1Fh
                    FF 1F
  0000000010005867: 74 16              je          000000001000587F
  0000000010005869: 48 8D 8B 10 F3 FF  lea         rcx,[rbx+FFFFFFFFFFFFF310h]
                    FF
  0000000010005870: BA 0A 00 00 00     mov         edx,0Ah
  0000000010005875: E8 A6 E7 FF FF     call        0000000010004020
  000000001000587A: E9 1E 02 00 00     jmp         0000000010005A9D
  000000001000587F: 48 8D BD 70 FF FF  lea         rdi,[rbp+FFFFFFFFFFFFFF70h]
                    FF
  0000000010005886: 48 8B B3 28 FE FF  mov         rsi,qword ptr [rbx+FFFFFFFFFFFFFE28h]
                    FF
  000000001000588D: 31 C9              xor         ecx,ecx
  000000001000588F: 31 C0              xor         eax,eax
  0000000010005891: 48 83 C1 01        add         rcx,1
  0000000010005895: BA 40 00 00 00     mov         edx,40h
  000000001000589A: 48 3B CA           cmp         rcx,rdx
  000000001000589D: 77 02              ja          00000000100058A1
  000000001000589F: EB 08              jmp         00000000100058A9
  00000000100058A1: B0 07              mov         al,7
  00000000100058A3: B9 BF 28 00 00     mov         ecx,28BFh
  00000000100058A8: CC                 int         3
  00000000100058A9: BA 40 00 00 00     mov         edx,40h
  00000000100058AE: 48 3B CA           cmp         rcx,rdx
  00000000100058B1: 77 02              ja          00000000100058B5
  00000000100058B3: EB 08              jmp         00000000100058BD
  00000000100058B5: B0 07              mov         al,7
  00000000100058B7: B9 BF 28 00 00     mov         ecx,28BFh
  00000000100058BC: CC                 int         3
  00000000100058BD: 66 AD              lods        word ptr [rsi]
  00000000100058BF: 66 AB              stos        word ptr [rdi]
  00000000100058C1: 85 C0              test        eax,eax
  00000000100058C3: 75 CC              jne         0000000010005891
  00000000100058C5: 48 8B 45 F8        mov         rax,qword ptr [rbp-8]
  00000000100058C9: 48 8B 40 08        mov         rax,qword ptr [rax+8]
  00000000100058CD: 48 89 85 38 FF FF  mov         qword ptr [rbp+FFFFFFFFFFFFFF38h],rax
                    FF
  00000000100058D4: 48 8B 85 38 FF FF  mov         rax,qword ptr [rbp+FFFFFFFFFFFFFF38h]
                    FF
  00000000100058DB: 48 83 38 05        cmp         qword ptr [rax],5
  00000000100058DF: 75 78              jne         0000000010005959
  00000000100058E1: 48 8B 85 38 FF FF  mov         rax,qword ptr [rbp+FFFFFFFFFFFFFF38h]
                    FF
  00000000100058E8: 48 83 78 40 00     cmp         qword ptr [rax+40h],0
  00000000100058ED: 74 6A              je          0000000010005959
  00000000100058EF: B9 11 00 00 00     mov         ecx,11h
  00000000100058F4: 48 8B 55 F8        mov         rdx,qword ptr [rbp-8]
  00000000100058F8: 45 31 C0           xor         r8d,r8d
  00000000100058FB: E8 30 F7 FF FF     call        0000000010005030
  0000000010005900: 48 89 45 F8        mov         qword ptr [rbp-8],rax
  0000000010005904: 48 8B 83 C0 FE FF  mov         rax,qword ptr [rbx+FFFFFFFFFFFFFEC0h]
                    FF
  000000001000590B: 48 8B 4D F8        mov         rcx,qword ptr [rbp-8]
  000000001000590F: 48 8B 49 F8        mov         rcx,qword ptr [rcx-8]
  0000000010005913: 48 39 41 08        cmp         qword ptr [rcx+8],rax
  0000000010005917: 75 02              jne         000000001000591B
  0000000010005919: EB 08              jmp         0000000010005923
  000000001000591B: B0 02              mov         al,2
  000000001000591D: B9 40 29 00 00     mov         ecx,2940h
  0000000010005922: CC                 int         3
  0000000010005923: 48 8B 45 F8        mov         rax,qword ptr [rbp-8]
  0000000010005927: 31 C9              xor         ecx,ecx
  0000000010005929: 88 48 40           mov         byte ptr [rax+40h],cl
  000000001000592C: 31 C0              xor         eax,eax
  000000001000592E: 88 85 67 FF FF FF  mov         byte ptr [rbp+FFFFFFFFFFFFFF67h],al
  0000000010005934: 48 8B 45 F8        mov         rax,qword ptr [rbp-8]
  0000000010005938: 48 8B 8D 38 FF FF  mov         rcx,qword ptr [rbp+FFFFFFFFFFFFFF38h]
                    FF
  000000001000593F: 48 8B 49 40        mov         rcx,qword ptr [rcx+40h]
  0000000010005943: 48 89 48 08        mov         qword ptr [rax+8],rcx
  0000000010005947: 48 8B 85 38 FF FF  mov         rax,qword ptr [rbp+FFFFFFFFFFFFFF38h]
                    FF
  000000001000594E: 48 8B 40 40        mov         rax,qword ptr [rax+40h]
  0000000010005952: 48 89 85 38 FF FF  mov         qword ptr [rbp+FFFFFFFFFFFFFF38h],rax
                    FF
  0000000010005959: 48 8B 85 38 FF FF  mov         rax,qword ptr [rbp+FFFFFFFFFFFFFF38h]
                    FF
  0000000010005960: 48 83 38 08        cmp         qword ptr [rax],8
  0000000010005964: 0F 85 2E 01 00 00  jne         0000000010005A98
  000000001000596A: 48 8B 85 38 FF FF  mov         rax,qword ptr [rbp+FFFFFFFFFFFFFF38h]
                    FF
  0000000010005971: 48 8B 40 48        mov         rax,qword ptr [rax+48h]
  0000000010005975: 48 89 85 68 FF FF  mov         qword ptr [rbp+FFFFFFFFFFFFFF68h],rax
                    FF
  000000001000597C: 48 83 BD 68 FF FF  cmp         qword ptr [rbp+FFFFFFFFFFFFFF68h],0
                    FF 00
  0000000010005984: 74 5C              je          00000000100059E2
  0000000010005986: 48 8B B5 68 FF FF  mov         rsi,qword ptr [rbp+FFFFFFFFFFFFFF68h]
                    FF
  000000001000598D: 48 8D 76 02        lea         rsi,[rsi+2]
  0000000010005991: 48 8D BD 70 FF FF  lea         rdi,[rbp+FFFFFFFFFFFFFF70h]
                    FF
  0000000010005998: 31 C0              xor         eax,eax
  000000001000599A: 48 83 C0 01        add         rax,1
  000000001000599E: 48 83 F8 40        cmp         rax,40h
  00000000100059A2: 77 02              ja          00000000100059A6
  00000000100059A4: EB 08              jmp         00000000100059AE
  00000000100059A6: B0 07              mov         al,7
  00000000100059A8: B9 07 2A 00 00     mov         ecx,2A07h
  00000000100059AD: CC                 int         3
  00000000100059AE: 48 83 F8 40        cmp         rax,40h
  00000000100059B2: 77 02              ja          00000000100059B6
  00000000100059B4: EB 08              jmp         00000000100059BE
  00000000100059B6: B0 07              mov         al,7
  00000000100059B8: B9 07 2A 00 00     mov         ecx,2A07h
  00000000100059BD: CC                 int         3
  00000000100059BE: 66 A7              cmps        word ptr [rsi],word ptr [rdi]
  00000000100059C0: 75 07              jne         00000000100059C9
  00000000100059C2: 66 83 7E FE 00     cmp         word ptr [rsi-2],0
  00000000100059C7: 75 D1              jne         000000001000599A
  00000000100059C9: 74 17              je          00000000100059E2
  00000000100059CB: 48 8B 85 68 FF FF  mov         rax,qword ptr [rbp+FFFFFFFFFFFFFF68h]
                    FF
  00000000100059D2: 48 8B 80 90 00 00  mov         rax,qword ptr [rax+0000000000000090h]
                    00
  00000000100059D9: 48 89 85 68 FF FF  mov         qword ptr [rbp+FFFFFFFFFFFFFF68h],rax
                    FF
  00000000100059E0: EB 9A              jmp         000000001000597C
  00000000100059E2: 48 83 BD 68 FF FF  cmp         qword ptr [rbp+FFFFFFFFFFFFFF68h],0
                    FF 00
  00000000100059EA: 74 67              je          0000000010005A53
  00000000100059EC: 48 8B 85 68 FF FF  mov         rax,qword ptr [rbp+FFFFFFFFFFFFFF68h]
                    FF
  00000000100059F3: 48 8B 80 88 00 00  mov         rax,qword ptr [rax+0000000000000088h]
                    00
  00000000100059FA: 48 89 45 F0        mov         qword ptr [rbp-10h],rax
  00000000100059FE: B9 12 00 00 00     mov         ecx,12h
  0000000010005A03: 48 8B 55 F8        mov         rdx,qword ptr [rbp-8]
  0000000010005A07: 4C 8B 45 F0        mov         r8,qword ptr [rbp-10h]
  0000000010005A0B: E8 20 F6 FF FF     call        0000000010005030
  0000000010005A10: 48 89 45 F8        mov         qword ptr [rbp-8],rax
  0000000010005A14: 48 8B 45 F8        mov         rax,qword ptr [rbp-8]
  0000000010005A18: 48 8B 4D F0        mov         rcx,qword ptr [rbp-10h]
  0000000010005A1C: 48 8B 49 08        mov         rcx,qword ptr [rcx+8]
  0000000010005A20: 48 89 48 08        mov         qword ptr [rax+8],rcx
  0000000010005A24: 48 8B 83 C0 FE FF  mov         rax,qword ptr [rbx+FFFFFFFFFFFFFEC0h]
                    FF
  0000000010005A2B: 48 8B 4D F8        mov         rcx,qword ptr [rbp-8]
  0000000010005A2F: 48 8B 49 F8        mov         rcx,qword ptr [rcx-8]
  0000000010005A33: 48 39 41 08        cmp         qword ptr [rcx+8],rax
  0000000010005A37: 75 02              jne         0000000010005A3B
  0000000010005A39: EB 08              jmp         0000000010005A43
  0000000010005A3B: B0 02              mov         al,2
  0000000010005A3D: B9 A1 2A 00 00     mov         ecx,2AA1h
  0000000010005A42: CC                 int         3
  0000000010005A43: 48 8B 45 F8        mov         rax,qword ptr [rbp-8]
  0000000010005A47: 0F B6 8D 67 FF FF  movzx       ecx,byte ptr [rbp+FFFFFFFFFFFFFF67h]
                    FF
  0000000010005A4E: 88 48 40           mov         byte ptr [rax+40h],cl
  0000000010005A51: EB 12              jmp         0000000010005A65
  0000000010005A53: 48 8B 85 38 FF FF  mov         rax,qword ptr [rbp+FFFFFFFFFFFFFF38h]
                    FF
  0000000010005A5A: 48 8B 40 40        mov         rax,qword ptr [rax+40h]
  0000000010005A5E: 48 89 85 38 FF FF  mov         qword ptr [rbp+FFFFFFFFFFFFFF38h],rax
                    FF
  0000000010005A65: 48 83 BD 38 FF FF  cmp         qword ptr [rbp+FFFFFFFFFFFFFF38h],0
                    FF 00
  0000000010005A6D: 75 11              jne         0000000010005A80
  0000000010005A6F: 48 8D 8B 30 F3 FF  lea         rcx,[rbx+FFFFFFFFFFFFF330h]
                    FF
  0000000010005A76: BA 10 00 00 00     mov         edx,10h
  0000000010005A7B: E8 A0 E5 FF FF     call        0000000010004020
  0000000010005A80: 48 83 BD 68 FF FF  cmp         qword ptr [rbp+FFFFFFFFFFFFFF68h],0
                    FF 00
  0000000010005A88: 75 0E              jne         0000000010005A98
  0000000010005A8A: 48 83 BD 38 FF FF  cmp         qword ptr [rbp+FFFFFFFFFFFFFF38h],0
                    FF 00
  0000000010005A92: 0F 85 D2 FE FF FF  jne         000000001000596A
  0000000010005A98: E8 63 E5 FF FF     call        0000000010004000
  0000000010005A9D: E9 9C FD FF FF     jmp         000000001000583E
  0000000010005AA2: 48 83 BB F8 DF FF  cmp         qword ptr [rbx+FFFFFFFFFFFFDFF8h],1Dh
                    FF 1D
  0000000010005AAA: 0F 85 8D 01 00 00  jne         0000000010005C3D
  0000000010005AB0: 48 8B 4D F8        mov         rcx,qword ptr [rbp-8]
  0000000010005AB4: BA 80 00 00 00     mov         edx,80h
  0000000010005AB9: E8 C2 F1 FF FF     call        0000000010004C80
  0000000010005ABE: E8 3D E5 FF FF     call        0000000010004000
  0000000010005AC3: 48 8B 83 D8 DF FF  mov         rax,qword ptr [rbx+FFFFFFFFFFFFDFD8h]
                    FF
  0000000010005ACA: FF D0              call        rax
  0000000010005ACC: 48 89 45 F0        mov         qword ptr [rbp-10h],rax
  0000000010005AD0: 48 8B 4D F0        mov         rcx,qword ptr [rbp-10h]
  0000000010005AD4: E8 E7 EC FF FF     call        00000000100047C0
  0000000010005AD9: 48 8B 45 F8        mov         rax,qword ptr [rbp-8]
  0000000010005ADD: 48 8B 40 08        mov         rax,qword ptr [rax+8]
  0000000010005AE1: 48 89 85 48 FF FF  mov         qword ptr [rbp+FFFFFFFFFFFFFF48h],rax
                    FF
  0000000010005AE8: B9 1D 00 00 00     mov         ecx,1Dh
  0000000010005AED: 48 8B 55 F8        mov         rdx,qword ptr [rbp-8]
  0000000010005AF1: 4C 8B 45 F0        mov         r8,qword ptr [rbp-10h]
  0000000010005AF5: E8 36 F5 FF FF     call        0000000010005030
  0000000010005AFA: 48 89 45 F8        mov         qword ptr [rbp-8],rax
  0000000010005AFE: 48 8B 83 C0 FE FF  mov         rax,qword ptr [rbx+FFFFFFFFFFFFFEC0h]
                    FF
  0000000010005B05: 48 8B 4D F8        mov         rcx,qword ptr [rbp-8]
  0000000010005B09: 48 8B 49 F8        mov         rcx,qword ptr [rcx-8]
  0000000010005B0D: 48 39 41 08        cmp         qword ptr [rcx+8],rax
  0000000010005B11: 75 02              jne         0000000010005B15
  0000000010005B13: EB 08              jmp         0000000010005B1D
  0000000010005B15: B0 02              mov         al,2
  0000000010005B17: B9 F2 2B 00 00     mov         ecx,2BF2h
  0000000010005B1C: CC                 int         3
  0000000010005B1D: 48 8B 45 F8        mov         rax,qword ptr [rbp-8]
  0000000010005B21: 0F B6 8D 67 FF FF  movzx       ecx,byte ptr [rbp+FFFFFFFFFFFFFF67h]
                    FF
  0000000010005B28: 88 48 40           mov         byte ptr [rax+40h],cl
  0000000010005B2B: 48 8B 85 48 FF FF  mov         rax,qword ptr [rbp+FFFFFFFFFFFFFF48h]
                    FF
  0000000010005B32: 48 83 78 40 00     cmp         qword ptr [rax+40h],0
  0000000010005B37: 74 15              je          0000000010005B4E
  0000000010005B39: 48 8B 45 F8        mov         rax,qword ptr [rbp-8]
  0000000010005B3D: 48 8B 8D 48 FF FF  mov         rcx,qword ptr [rbp+FFFFFFFFFFFFFF48h]
                    FF
  0000000010005B44: 48 8B 49 40        mov         rcx,qword ptr [rcx+40h]
  0000000010005B48: 48 89 48 08        mov         qword ptr [rax+8],rcx
  0000000010005B4C: EB 0F              jmp         0000000010005B5D
  0000000010005B4E: 48 8B 45 F8        mov         rax,qword ptr [rbp-8]
  0000000010005B52: 48 8B 8D 48 FF FF  mov         rcx,qword ptr [rbp+FFFFFFFFFFFFFF48h]
                    FF
  0000000010005B59: 48 89 48 08        mov         qword ptr [rax+8],rcx
  0000000010005B5D: 48 83 BB F8 DF FF  cmp         qword ptr [rbx+FFFFFFFFFFFFDFF8h],28h
                    FF 28
  0000000010005B65: 0F 85 C3 00 00 00  jne         0000000010005C2E
  0000000010005B6B: 48 8B 45 F8        mov         rax,qword ptr [rbp-8]
  0000000010005B6F: 48 8B 40 08        mov         rax,qword ptr [rax+8]
  0000000010005B73: 48 83 38 07        cmp         qword ptr [rax],7
  0000000010005B77: 74 11              je          0000000010005B8A
  0000000010005B79: 48 8D 8B 50 F3 FF  lea         rcx,[rbx+FFFFFFFFFFFFF350h]
                    FF
  0000000010005B80: BA 14 00 00 00     mov         edx,14h
  0000000010005B85: E8 96 E4 FF FF     call        0000000010004020
  0000000010005B8A: E8 71 E4 FF FF     call        0000000010004000
  0000000010005B8F: 48 8B 83 D8 DF FF  mov         rax,qword ptr [rbx+FFFFFFFFFFFFDFD8h]
                    FF
  0000000010005B96: FF D0              call        rax
  0000000010005B98: 48 89 45 F0        mov         qword ptr [rbp-10h],rax
  0000000010005B9C: 48 8B 4D F0        mov         rcx,qword ptr [rbp-10h]
  0000000010005BA0: E8 1B EC FF FF     call        00000000100047C0
  0000000010005BA5: 48 8B 45 F8        mov         rax,qword ptr [rbp-8]
  0000000010005BA9: 48 8B 40 08        mov         rax,qword ptr [rax+8]
  0000000010005BAD: 48 89 85 48 FF FF  mov         qword ptr [rbp+FFFFFFFFFFFFFF48h],rax
                    FF
  0000000010005BB4: B9 1D 00 00 00     mov         ecx,1Dh
  0000000010005BB9: 48 8B 55 F8        mov         rdx,qword ptr [rbp-8]
  0000000010005BBD: 4C 8B 45 F0        mov         r8,qword ptr [rbp-10h]
  0000000010005BC1: E8 6A F4 FF FF     call        0000000010005030
  0000000010005BC6: 48 89 45 F8        mov         qword ptr [rbp-8],rax
  0000000010005BCA: 48 8B 83 C0 FE FF  mov         rax,qword ptr [rbx+FFFFFFFFFFFFFEC0h]
                    FF
  0000000010005BD1: 48 8B 4D F8        mov         rcx,qword ptr [rbp-8]
  0000000010005BD5: 48 8B 49 F8        mov         rcx,qword ptr [rcx-8]
  0000000010005BD9: 48 39 41 08        cmp         qword ptr [rcx+8],rax
  0000000010005BDD: 75 02              jne         0000000010005BE1
  0000000010005BDF: EB 08              jmp         0000000010005BE9
  0000000010005BE1: B0 02              mov         al,2
  0000000010005BE3: B9 14 2D 00 00     mov         ecx,2D14h
  0000000010005BE8: CC                 int         3
  0000000010005BE9: 48 8B 45 F8        mov         rax,qword ptr [rbp-8]
  0000000010005BED: 0F B6 8D 67 FF FF  movzx       ecx,byte ptr [rbp+FFFFFFFFFFFFFF67h]
                    FF
  0000000010005BF4: 88 48 40           mov         byte ptr [rax+40h],cl
  0000000010005BF7: 48 8B 85 48 FF FF  mov         rax,qword ptr [rbp+FFFFFFFFFFFFFF48h]
                    FF
  0000000010005BFE: 48 83 78 40 00     cmp         qword ptr [rax+40h],0
  0000000010005C03: 74 15              je          0000000010005C1A
  0000000010005C05: 48 8B 45 F8        mov         rax,qword ptr [rbp-8]
  0000000010005C09: 48 8B 8D 48 FF FF  mov         rcx,qword ptr [rbp+FFFFFFFFFFFFFF48h]
                    FF
  0000000010005C10: 48 8B 49 40        mov         rcx,qword ptr [rcx+40h]
  0000000010005C14: 48 89 48 08        mov         qword ptr [rax+8],rcx
  0000000010005C18: EB 0F              jmp         0000000010005C29
  0000000010005C1A: 48 8B 45 F8        mov         rax,qword ptr [rbp-8]
  0000000010005C1E: 48 8B 8D 48 FF FF  mov         rcx,qword ptr [rbp+FFFFFFFFFFFFFF48h]
                    FF
  0000000010005C25: 48 89 48 08        mov         qword ptr [rax+8],rcx
  0000000010005C29: E9 2F FF FF FF     jmp         0000000010005B5D
  0000000010005C2E: B9 2D 00 00 00     mov         ecx,2Dh
  0000000010005C33: E8 08 E4 FF FF     call        0000000010004040
  0000000010005C38: E9 01 FC FF FF     jmp         000000001000583E
  0000000010005C3D: 48 83 BB F8 DF FF  cmp         qword ptr [rbx+FFFFFFFFFFFFDFF8h],11h
                    FF 11
  0000000010005C45: 0F 85 9E 00 00 00  jne         0000000010005CE9
  0000000010005C4B: 48 8B 4D F8        mov         rcx,qword ptr [rbp-8]
  0000000010005C4F: BA 20 00 00 00     mov         edx,20h
  0000000010005C54: E8 27 F0 FF FF     call        0000000010004C80
  0000000010005C59: 48 8B 45 F8        mov         rax,qword ptr [rbp-8]
  0000000010005C5D: 48 8B 40 08        mov         rax,qword ptr [rax+8]
  0000000010005C61: 48 89 85 48 FF FF  mov         qword ptr [rbp+FFFFFFFFFFFFFF48h],rax
                    FF
  0000000010005C68: B9 11 00 00 00     mov         ecx,11h
  0000000010005C6D: 48 8B 55 F8        mov         rdx,qword ptr [rbp-8]
  0000000010005C71: 45 31 C0           xor         r8d,r8d
  0000000010005C74: E8 B7 F3 FF FF     call        0000000010005030
  0000000010005C79: 48 89 45 F8        mov         qword ptr [rbp-8],rax
  0000000010005C7D: 48 8B 85 48 FF FF  mov         rax,qword ptr [rbp+FFFFFFFFFFFFFF48h]
                    FF
  0000000010005C84: 48 83 78 40 00     cmp         qword ptr [rax+40h],0
  0000000010005C89: 74 15              je          0000000010005CA0
  0000000010005C8B: 48 8B 45 F8        mov         rax,qword ptr [rbp-8]
  0000000010005C8F: 48 8B 8D 48 FF FF  mov         rcx,qword ptr [rbp+FFFFFFFFFFFFFF48h]
                    FF
  0000000010005C96: 48 8B 49 40        mov         rcx,qword ptr [rcx+40h]
  0000000010005C9A: 48 89 48 08        mov         qword ptr [rax+8],rcx
  0000000010005C9E: EB 0F              jmp         0000000010005CAF
  0000000010005CA0: 48 8B 45 F8        mov         rax,qword ptr [rbp-8]
  0000000010005CA4: 48 8B 8D 48 FF FF  mov         rcx,qword ptr [rbp+FFFFFFFFFFFFFF48h]
                    FF
  0000000010005CAB: 48 89 48 08        mov         qword ptr [rax+8],rcx
  0000000010005CAF: 48 8B 83 C0 FE FF  mov         rax,qword ptr [rbx+FFFFFFFFFFFFFEC0h]
                    FF
  0000000010005CB6: 48 8B 4D F8        mov         rcx,qword ptr [rbp-8]
  0000000010005CBA: 48 8B 49 F8        mov         rcx,qword ptr [rcx-8]
  0000000010005CBE: 48 39 41 08        cmp         qword ptr [rcx+8],rax
  0000000010005CC2: 75 02              jne         0000000010005CC6
  0000000010005CC4: EB 08              jmp         0000000010005CCE
  0000000010005CC6: B0 02              mov         al,2
  0000000010005CC8: B9 4B 2E 00 00     mov         ecx,2E4Bh
  0000000010005CCD: CC                 int         3
  0000000010005CCE: 48 8B 45 F8        mov         rax,qword ptr [rbp-8]
  0000000010005CD2: 31 C9              xor         ecx,ecx
  0000000010005CD4: 88 48 40           mov         byte ptr [rax+40h],cl
  0000000010005CD7: 31 C0              xor         eax,eax
  0000000010005CD9: 88 85 67 FF FF FF  mov         byte ptr [rbp+FFFFFFFFFFFFFF67h],al
  0000000010005CDF: E8 1C E3 FF FF     call        0000000010004000
  0000000010005CE4: E9 55 FB FF FF     jmp         000000001000583E
  0000000010005CE9: 48 83 BB F8 DF FF  cmp         qword ptr [rbx+FFFFFFFFFFFFDFF8h],1Ch
                    FF 1C
  0000000010005CF1: 0F 85 68 01 00 00  jne         0000000010005E5F
  0000000010005CF7: 48 8B 4D F8        mov         rcx,qword ptr [rbp-8]
  0000000010005CFB: E8 E0 EB FF FF     call        00000000100048E0
  0000000010005D00: 85 C0              test        eax,eax
  0000000010005D02: 0F 84 57 01 00 00  je          0000000010005E5F
  0000000010005D08: 48 8B 45 F8        mov         rax,qword ptr [rbp-8]
  0000000010005D0C: 48 8B 40 08        mov         rax,qword ptr [rax+8]
  0000000010005D10: 48 89 85 48 FF FF  mov         qword ptr [rbp+FFFFFFFFFFFFFF48h],rax
                    FF
  0000000010005D17: E8 E4 E2 FF FF     call        0000000010004000
  0000000010005D1C: 31 C0              xor         eax,eax
  0000000010005D1E: 48 89 45 F0        mov         qword ptr [rbp-10h],rax
  0000000010005D22: 48 83 BB F8 DF FF  cmp         qword ptr [rbx+FFFFFFFFFFFFDFF8h],1Fh
                    FF 1F
  0000000010005D2A: 75 0B              jne         0000000010005D37
  0000000010005D2C: E8 1F F5 FF FF     call        0000000010005250
  0000000010005D31: 48 89 45 F0        mov         qword ptr [rbp-10h],rax
  0000000010005D35: EB 0A              jmp         0000000010005D41
  0000000010005D37: B9 1F 00 00 00     mov         ecx,1Fh
  0000000010005D3C: E8 DF E4 FF FF     call        0000000010004220
  0000000010005D41: 48 83 7D F0 00     cmp         qword ptr [rbp-10h],0
  0000000010005D46: 74 1B              je          0000000010005D63
  0000000010005D48: 48 8B 45 F0        mov         rax,qword ptr [rbp-10h]
  0000000010005D4C: 48 83 38 01        cmp         qword ptr [rax],1
  0000000010005D50: 75 11              jne         0000000010005D63
  0000000010005D52: 48 8B 45 F0        mov         rax,qword ptr [rbp-10h]
  0000000010005D56: 48 8B 40 08        mov         rax,qword ptr [rax+8]
  0000000010005D5A: 48 89 85 40 FF FF  mov         qword ptr [rbp+FFFFFFFFFFFFFF40h],rax
                    FF
  0000000010005D61: EB 1F              jmp         0000000010005D82
  0000000010005D63: 48 8D 8B 80 F3 FF  lea         rcx,[rbx+FFFFFFFFFFFFF380h]
                    FF
  0000000010005D6A: BA 09 00 00 00     mov         edx,9
  0000000010005D6F: E8 AC E2 FF FF     call        0000000010004020
  0000000010005D74: 48 8B 85 48 FF FF  mov         rax,qword ptr [rbp+FFFFFFFFFFFFFF48h]
                    FF
  0000000010005D7B: 48 89 85 40 FF FF  mov         qword ptr [rbp+FFFFFFFFFFFFFF40h],rax
                    FF
  0000000010005D82: B9 1C 00 00 00     mov         ecx,1Ch
  0000000010005D87: 48 8B 55 F8        mov         rdx,qword ptr [rbp-8]
  0000000010005D8B: 4C 8B 45 F0        mov         r8,qword ptr [rbp-10h]
  0000000010005D8F: E8 9C F2 FF FF     call        0000000010005030
  0000000010005D94: 48 89 45 F8        mov         qword ptr [rbp-8],rax
  0000000010005D98: 48 8B 83 C0 FE FF  mov         rax,qword ptr [rbx+FFFFFFFFFFFFFEC0h]
                    FF
  0000000010005D9F: 48 8B 4D F8        mov         rcx,qword ptr [rbp-8]
  0000000010005DA3: 48 8B 49 F8        mov         rcx,qword ptr [rcx-8]
  0000000010005DA7: 48 39 41 08        cmp         qword ptr [rcx+8],rax
  0000000010005DAB: 75 02              jne         0000000010005DAF
  0000000010005DAD: EB 08              jmp         0000000010005DB7
  0000000010005DAF: B0 02              mov         al,2
  0000000010005DB1: B9 A2 2F 00 00     mov         ecx,2FA2h
  0000000010005DB6: CC                 int         3
  0000000010005DB7: 48 8B 45 F8        mov         rax,qword ptr [rbp-8]
  0000000010005DBB: 0F B6 8D 67 FF FF  movzx       ecx,byte ptr [rbp+FFFFFFFFFFFFFF67h]
                    FF
  0000000010005DC2: 88 48 40           mov         byte ptr [rax+40h],cl
  0000000010005DC5: 48 8B 85 48 FF FF  mov         rax,qword ptr [rbp+FFFFFFFFFFFFFF48h]
                    FF
  0000000010005DCC: 48 8B 00           mov         rax,qword ptr [rax]
  0000000010005DCF: 48 8B 8D 40 FF FF  mov         rcx,qword ptr [rbp+FFFFFFFFFFFFFF40h]
                    FF
  0000000010005DD6: 48 8B 09           mov         rcx,qword ptr [rcx]
  0000000010005DD9: 48 3B C1           cmp         rax,rcx
  0000000010005DDC: 75 28              jne         0000000010005E06
  0000000010005DDE: 48 8B 8D 40 FF FF  mov         rcx,qword ptr [rbp+FFFFFFFFFFFFFF40h]
                    FF
  0000000010005DE5: 48 8B 95 48 FF FF  mov         rdx,qword ptr [rbp+FFFFFFFFFFFFFF48h]
                    FF
  0000000010005DEC: E8 4F E5 FF FF     call        0000000010004340
  0000000010005DF1: 85 C0              test        eax,eax
  0000000010005DF3: 74 11              je          0000000010005E06
  0000000010005DF5: 48 8B 45 F8        mov         rax,qword ptr [rbp-8]
  0000000010005DF9: 48 8B 8D 40 FF FF  mov         rcx,qword ptr [rbp+FFFFFFFFFFFFFF40h]
                    FF
  0000000010005E00: 48 89 48 08        mov         qword ptr [rax+8],rcx
  0000000010005E04: EB 4A              jmp         0000000010005E50
  0000000010005E06: 48 8B 85 48 FF FF  mov         rax,qword ptr [rbp+FFFFFFFFFFFFFF48h]
                    FF
  0000000010005E0D: 48 83 38 08        cmp         qword ptr [rax],8
  0000000010005E11: 75 2C              jne         0000000010005E3F
  0000000010005E13: 48 8B 8D 40 FF FF  mov         rcx,qword ptr [rbp+FFFFFFFFFFFFFF40h]
                    FF
  0000000010005E1A: 48 8B 95 48 FF FF  mov         rdx,qword ptr [rbp+FFFFFFFFFFFFFF48h]
                    FF
  0000000010005E21: E8 1A E5 FF FF     call        0000000010004340
  0000000010005E26: 85 C0              test        eax,eax
  0000000010005E28: 74 15              je          0000000010005E3F
  0000000010005E2A: 48 8B 45 F8        mov         rax,qword ptr [rbp-8]
  0000000010005E2E: 48 8B 8D 40 FF FF  mov         rcx,qword ptr [rbp+FFFFFFFFFFFFFF40h]
                    FF
  0000000010005E35: 48 8B 49 40        mov         rcx,qword ptr [rcx+40h]
  0000000010005E39: 48 89 48 08        mov         qword ptr [rax+8],rcx
  0000000010005E3D: EB 11              jmp         0000000010005E50
  0000000010005E3F: 48 8D 8B A0 F3 FF  lea         rcx,[rbx+FFFFFFFFFFFFF3A0h]
                    FF
  0000000010005E46: BA 0D 00 00 00     mov         edx,0Dh
  0000000010005E4B: E8 D0 E1 FF FF     call        0000000010004020
  0000000010005E50: B9 2C 00 00 00     mov         ecx,2Ch
  0000000010005E55: E8 E6 E1 FF FF     call        0000000010004040
  0000000010005E5A: E9 DF F9 FF FF     jmp         000000001000583E
  0000000010005E5F: 48 8B 45 F8        mov         rax,qword ptr [rbp-8]
  0000000010005E63: 48 8B B5 20 FF FF  mov         rsi,qword ptr [rbp+FFFFFFFFFFFFFF20h]
                    FF
  0000000010005E6A: 48 8B BD 28 FF FF  mov         rdi,qword ptr [rbp+FFFFFFFFFFFFFF28h]
                    FF
  0000000010005E71: C9                 leave
  0000000010005E72: C3                 ret
  0000000010005E73: 90                 nop
  0000000010005E74: 90                 nop
  0000000010005E75: 90                 nop
  0000000010005E76: 90                 nop
  0000000010005E77: 90                 nop
  0000000010005E78: 90                 nop
  0000000010005E79: 90                 nop
  0000000010005E7A: 90                 nop
  0000000010005E7B: 90                 nop
  0000000010005E7C: 90                 nop
  0000000010005E7D: 90                 nop
  0000000010005E7E: 90                 nop
  0000000010005E7F: 90                 nop
  0000000010005E80: 55                 push        rbp
  0000000010005E81: 48 8B EC           mov         rbp,rsp
  0000000010005E84: 48 83 EC 50        sub         rsp,50h
  0000000010005E88: 48 89 4D 10        mov         qword ptr [rbp+10h],rcx
  0000000010005E8C: 48 C7 45 F8 00 00  mov         qword ptr [rbp-8],0
                    00 00
  0000000010005E94: 48 C7 45 F0 00 00  mov         qword ptr [rbp-10h],0
                    00 00
  0000000010005E9C: 48 C7 45 E8 00 00  mov         qword ptr [rbp-18h],0
                    00 00
  0000000010005EA4: 48 C7 45 E0 00 00  mov         qword ptr [rbp-20h],0
                    00 00
  0000000010005EAC: 48 C7 45 D8 00 00  mov         qword ptr [rbp-28h],0
                    00 00
  0000000010005EB4: E8 47 E1 FF FF     call        0000000010004000
  0000000010005EB9: 48 8B 45 10        mov         rax,qword ptr [rbp+10h]
  0000000010005EBD: 48 83 78 28 08     cmp         qword ptr [rax+28h],8
  0000000010005EC2: 0F 85 8C 00 00 00  jne         0000000010005F54
  0000000010005EC8: 48 8B 83 D8 DF FF  mov         rax,qword ptr [rbx+FFFFFFFFFFFFDFD8h]
                    FF
  0000000010005ECF: FF D0              call        rax
  0000000010005ED1: 48 89 45 E0        mov         qword ptr [rbp-20h],rax
  0000000010005ED5: 48 8B 4D E0        mov         rcx,qword ptr [rbp-20h]
  0000000010005ED9: BA 11 00 00 00     mov         edx,11h
  0000000010005EDE: E8 9D ED FF FF     call        0000000010004C80
  0000000010005EE3: 48 8B 45 E0        mov         rax,qword ptr [rbp-20h]
  0000000010005EE7: 48 8B 40 F8        mov         rax,qword ptr [rax-8]
  0000000010005EEB: 48 8B 8B 98 FE FF  mov         rcx,qword ptr [rbx+FFFFFFFFFFFFFE98h]
                    FF
  0000000010005EF2: 48 39 48 08        cmp         qword ptr [rax+8],rcx
  0000000010005EF6: 75 10              jne         0000000010005F08
  0000000010005EF8: 48 8B 4D E0        mov         rcx,qword ptr [rbp-20h]
  0000000010005EFC: FF 93 F8 FD FF FF  call        qword ptr [rbx+FFFFFFFFFFFFFDF8h]
  0000000010005F02: 48 89 45 E8        mov         qword ptr [rbp-18h],rax
  0000000010005F06: EB 47              jmp         0000000010005F4F
  0000000010005F08: B9 6E 00 00 00     mov         ecx,6Eh
  0000000010005F0D: 48 8B 55 E0        mov         rdx,qword ptr [rbp-20h]
  0000000010005F11: 45 31 C0           xor         r8d,r8d
  0000000010005F14: E8 17 F1 FF FF     call        0000000010005030
  0000000010005F19: 48 89 45 E8        mov         qword ptr [rbp-18h],rax
  0000000010005F1D: 48 8B 45 E0        mov         rax,qword ptr [rbp-20h]
  0000000010005F21: 48 8B 40 08        mov         rax,qword ptr [rax+8]
  0000000010005F25: 48 83 38 00        cmp         qword ptr [rax],0
  0000000010005F29: 75 14              jne         0000000010005F3F
  0000000010005F2B: 48 8B 45 E8        mov         rax,qword ptr [rbp-18h]
  0000000010005F2F: 48 8B 8B 80 FE FF  mov         rcx,qword ptr [rbx+FFFFFFFFFFFFFE80h]
                    FF
  0000000010005F36: 48 8B 09           mov         rcx,qword ptr [rcx]
  0000000010005F39: 48 89 48 08        mov         qword ptr [rax+8],rcx
  0000000010005F3D: EB 10              jmp         0000000010005F4F
  0000000010005F3F: 48 8B 45 E8        mov         rax,qword ptr [rbp-18h]
  0000000010005F43: 48 8B 4D E0        mov         rcx,qword ptr [rbp-20h]
  0000000010005F47: 48 8B 49 08        mov         rcx,qword ptr [rcx+8]
  0000000010005F4B: 48 89 48 08        mov         qword ptr [rax+8],rcx
  0000000010005F4F: E9 1C 06 00 00     jmp         0000000010006570
  0000000010005F54: 48 8B 45 10        mov         rax,qword ptr [rbp+10h]
  0000000010005F58: 48 83 78 28 09     cmp         qword ptr [rax+28h],9
  0000000010005F5D: 75 67              jne         0000000010005FC6
  0000000010005F5F: 48 8B 83 D8 DF FF  mov         rax,qword ptr [rbx+FFFFFFFFFFFFDFD8h]
                    FF
  0000000010005F66: FF D0              call        rax
  0000000010005F68: 48 89 45 E0        mov         qword ptr [rbp-20h],rax
  0000000010005F6C: 48 8B 4D E0        mov         rcx,qword ptr [rbp-20h]
  0000000010005F70: E8 4B E8 FF FF     call        00000000100047C0
  0000000010005F75: 48 8B 45 E0        mov         rax,qword ptr [rbp-20h]
  0000000010005F79: 48 8B 40 F8        mov         rax,qword ptr [rax-8]
  0000000010005F7D: 48 8B 8B 98 FE FF  mov         rcx,qword ptr [rbx+FFFFFFFFFFFFFE98h]
                    FF
  0000000010005F84: 48 39 48 08        cmp         qword ptr [rax+8],rcx
  0000000010005F88: 75 10              jne         0000000010005F9A
  0000000010005F8A: 48 8B 4D E0        mov         rcx,qword ptr [rbp-20h]
  0000000010005F8E: FF 93 F0 FD FF FF  call        qword ptr [rbx+FFFFFFFFFFFFFDF0h]
  0000000010005F94: 48 89 45 E8        mov         qword ptr [rbp-18h],rax
  0000000010005F98: EB 27              jmp         0000000010005FC1
  0000000010005F9A: B9 6F 00 00 00     mov         ecx,6Fh
  0000000010005F9F: 48 8B 55 E0        mov         rdx,qword ptr [rbp-20h]
  0000000010005FA3: 45 31 C0           xor         r8d,r8d
  0000000010005FA6: E8 85 F0 FF FF     call        0000000010005030
  0000000010005FAB: 48 89 45 E8        mov         qword ptr [rbp-18h],rax
  0000000010005FAF: 48 8B 45 E8        mov         rax,qword ptr [rbp-18h]
  0000000010005FB3: 48 8B 8B 78 FE FF  mov         rcx,qword ptr [rbx+FFFFFFFFFFFFFE78h]
                    FF
  0000000010005FBA: 48 8B 09           mov         rcx,qword ptr [rcx]
  0000000010005FBD: 48 89 48 08        mov         qword ptr [rax+8],rcx
  0000000010005FC1: E9 AA 05 00 00     jmp         0000000010006570
  0000000010005FC6: 48 8B 45 10        mov         rax,qword ptr [rbp+10h]
  0000000010005FCA: 48 83 78 28 0A     cmp         qword ptr [rax+28h],0Ah
  0000000010005FCF: 75 74              jne         0000000010006045
  0000000010005FD1: E8 7A F7 FF FF     call        0000000010005750
  0000000010005FD6: 48 89 45 E0        mov         qword ptr [rbp-20h],rax
  0000000010005FDA: 48 8B 4D E0        mov         rcx,qword ptr [rbp-20h]
  0000000010005FDE: BA 80 00 00 00     mov         edx,80h
  0000000010005FE3: E8 98 EC FF FF     call        0000000010004C80
  0000000010005FE8: 48 8B 45 E0        mov         rax,qword ptr [rbp-20h]
  0000000010005FEC: 48 8B 40 08        mov         rax,qword ptr [rax+8]
  0000000010005FF0: 48 83 78 20 00     cmp         qword ptr [rax+20h],0
  0000000010005FF5: 7C 22              jl          0000000010006019
  0000000010005FF7: 48 8B 8B 80 FE FF  mov         rcx,qword ptr [rbx+FFFFFFFFFFFFFE80h]
                    FF
  0000000010005FFE: 48 8B 09           mov         rcx,qword ptr [rcx]
  0000000010006001: 48 8B 55 E0        mov         rdx,qword ptr [rbp-20h]
  0000000010006005: 48 8B 52 08        mov         rdx,qword ptr [rdx+8]
  0000000010006009: 48 8B 52 20        mov         rdx,qword ptr [rdx+20h]
  000000001000600D: FF 93 50 FE FF FF  call        qword ptr [rbx+FFFFFFFFFFFFFE50h]
  0000000010006013: 48 89 45 E8        mov         qword ptr [rbp-18h],rax
  0000000010006017: EB 27              jmp         0000000010006040
  0000000010006019: B9 70 00 00 00     mov         ecx,70h
  000000001000601E: 48 8B 55 E0        mov         rdx,qword ptr [rbp-20h]
  0000000010006022: 45 31 C0           xor         r8d,r8d
  0000000010006025: E8 06 F0 FF FF     call        0000000010005030
  000000001000602A: 48 89 45 E8        mov         qword ptr [rbp-18h],rax
  000000001000602E: 48 8B 45 E8        mov         rax,qword ptr [rbp-18h]
  0000000010006032: 48 8B 8B 80 FE FF  mov         rcx,qword ptr [rbx+FFFFFFFFFFFFFE80h]
                    FF
  0000000010006039: 48 8B 09           mov         rcx,qword ptr [rcx]
  000000001000603C: 48 89 48 08        mov         qword ptr [rax+8],rcx
  0000000010006040: E9 2B 05 00 00     jmp         0000000010006570
  0000000010006045: 48 8B 45 10        mov         rax,qword ptr [rbp+10h]
  0000000010006049: 48 83 78 28 71     cmp         qword ptr [rax+28h],71h
  000000001000604E: 0F 8C BB 00 00 00  jl          000000001000610F
  0000000010006054: 48 8B 45 10        mov         rax,qword ptr [rbp+10h]
  0000000010006058: 48 83 78 28 73     cmp         qword ptr [rax+28h],73h
  000000001000605D: 0F 8F AC 00 00 00  jg          000000001000610F
  0000000010006063: 48 8B 83 D8 DF FF  mov         rax,qword ptr [rbx+FFFFFFFFFFFFDFD8h]
                    FF
  000000001000606A: FF D0              call        rax
  000000001000606C: 48 89 45 E0        mov         qword ptr [rbp-20h],rax
  0000000010006070: 48 8B 4D E0        mov         rcx,qword ptr [rbp-20h]
  0000000010006074: E8 47 E7 FF FF     call        00000000100047C0
  0000000010006079: B9 28 00 00 00     mov         ecx,28h
  000000001000607E: E8 BD DF FF FF     call        0000000010004040
  0000000010006083: 48 8B 83 D8 DF FF  mov         rax,qword ptr [rbx+FFFFFFFFFFFFDFD8h]
                    FF
  000000001000608A: FF D0              call        rax
  000000001000608C: 48 89 45 D8        mov         qword ptr [rbp-28h],rax
  0000000010006090: 48 8B 4D D8        mov         rcx,qword ptr [rbp-28h]
  0000000010006094: E8 27 E7 FF FF     call        00000000100047C0
  0000000010006099: 48 8B 45 E0        mov         rax,qword ptr [rbp-20h]
  000000001000609D: 48 8B 40 F8        mov         rax,qword ptr [rax-8]
  00000000100060A1: 48 8B 8B 98 FE FF  mov         rcx,qword ptr [rbx+FFFFFFFFFFFFFE98h]
                    FF
  00000000100060A8: 48 39 48 08        cmp         qword ptr [rax+8],rcx
  00000000100060AC: 75 31              jne         00000000100060DF
  00000000100060AE: 48 8B 45 D8        mov         rax,qword ptr [rbp-28h]
  00000000100060B2: 48 8B 40 F8        mov         rax,qword ptr [rax-8]
  00000000100060B6: 48 8B 8B 98 FE FF  mov         rcx,qword ptr [rbx+FFFFFFFFFFFFFE98h]
                    FF
  00000000100060BD: 48 39 48 08        cmp         qword ptr [rax+8],rcx
  00000000100060C1: 75 1C              jne         00000000100060DF
  00000000100060C3: 48 8B 4D 10        mov         rcx,qword ptr [rbp+10h]
  00000000100060C7: 48 8B 49 28        mov         rcx,qword ptr [rcx+28h]
  00000000100060CB: 48 8B 55 E0        mov         rdx,qword ptr [rbp-20h]
  00000000100060CF: 4C 8B 45 D8        mov         r8,qword ptr [rbp-28h]
  00000000100060D3: FF 93 E8 FD FF FF  call        qword ptr [rbx+FFFFFFFFFFFFFDE8h]
  00000000100060D9: 48 89 45 E8        mov         qword ptr [rbp-18h],rax
  00000000100060DD: EB 2B              jmp         000000001000610A
  00000000100060DF: 48 8B 4D 10        mov         rcx,qword ptr [rbp+10h]
  00000000100060E3: 48 8B 49 28        mov         rcx,qword ptr [rcx+28h]
  00000000100060E7: 48 8B 55 E0        mov         rdx,qword ptr [rbp-20h]
  00000000100060EB: 4C 8B 45 D8        mov         r8,qword ptr [rbp-28h]
  00000000100060EF: E8 3C EF FF FF     call        0000000010005030
  00000000100060F4: 48 89 45 E8        mov         qword ptr [rbp-18h],rax
  00000000100060F8: 48 8B 45 E8        mov         rax,qword ptr [rbp-18h]
  00000000100060FC: 48 8B 8B 80 FE FF  mov         rcx,qword ptr [rbx+FFFFFFFFFFFFFE80h]
                    FF
  0000000010006103: 48 8B 09           mov         rcx,qword ptr [rcx]
  0000000010006106: 48 89 48 08        mov         qword ptr [rax+8],rcx
  000000001000610A: E9 61 04 00 00     jmp         0000000010006570
  000000001000610F: 48 8B 45 10        mov         rax,qword ptr [rbp+10h]
  0000000010006113: 48 83 78 28 0E     cmp         qword ptr [rax+28h],0Eh
  0000000010006118: 75 67              jne         0000000010006181
  000000001000611A: 48 8B 83 D8 DF FF  mov         rax,qword ptr [rbx+FFFFFFFFFFFFDFD8h]
                    FF
  0000000010006121: FF D0              call        rax
  0000000010006123: 48 89 45 E0        mov         qword ptr [rbp-20h],rax
  0000000010006127: 48 8B 4D E0        mov         rcx,qword ptr [rbp-20h]
  000000001000612B: E8 80 E7 FF FF     call        00000000100048B0
  0000000010006130: 48 8B 45 E0        mov         rax,qword ptr [rbp-20h]
  0000000010006134: 48 8B 40 F8        mov         rax,qword ptr [rax-8]
  0000000010006138: 48 8B 8B 98 FE FF  mov         rcx,qword ptr [rbx+FFFFFFFFFFFFFE98h]
                    FF
  000000001000613F: 48 39 48 08        cmp         qword ptr [rax+8],rcx
  0000000010006143: 75 10              jne         0000000010006155
  0000000010006145: 48 8B 4D E0        mov         rcx,qword ptr [rbp-20h]
  0000000010006149: FF 93 E0 FD FF FF  call        qword ptr [rbx+FFFFFFFFFFFFFDE0h]
  000000001000614F: 48 89 45 E8        mov         qword ptr [rbp-18h],rax
  0000000010006153: EB 27              jmp         000000001000617C
  0000000010006155: B9 74 00 00 00     mov         ecx,74h
  000000001000615A: 48 8B 55 E0        mov         rdx,qword ptr [rbp-20h]
  000000001000615E: 45 31 C0           xor         r8d,r8d
  0000000010006161: E8 CA EE FF FF     call        0000000010005030
  0000000010006166: 48 89 45 E8        mov         qword ptr [rbp-18h],rax
  000000001000616A: 48 8B 45 E8        mov         rax,qword ptr [rbp-18h]
  000000001000616E: 48 8B 8B 80 FE FF  mov         rcx,qword ptr [rbx+FFFFFFFFFFFFFE80h]
                    FF
  0000000010006175: 48 8B 09           mov         rcx,qword ptr [rcx]
  0000000010006178: 48 89 48 08        mov         qword ptr [rax+8],rcx
  000000001000617C: E9 EF 03 00 00     jmp         0000000010006570
  0000000010006181: 48 8B 45 10        mov         rax,qword ptr [rbp+10h]
  0000000010006185: 48 83 78 28 0F     cmp         qword ptr [rax+28h],0Fh
  000000001000618A: 75 67              jne         00000000100061F3
  000000001000618C: 48 8B 83 D8 DF FF  mov         rax,qword ptr [rbx+FFFFFFFFFFFFDFD8h]
                    FF
  0000000010006193: FF D0              call        rax
  0000000010006195: 48 89 45 E0        mov         qword ptr [rbp-20h],rax
  0000000010006199: 48 8B 4D E0        mov         rcx,qword ptr [rbp-20h]
  000000001000619D: E8 1E E6 FF FF     call        00000000100047C0
  00000000100061A2: 48 8B 45 E0        mov         rax,qword ptr [rbp-20h]
  00000000100061A6: 48 8B 40 F8        mov         rax,qword ptr [rax-8]
  00000000100061AA: 48 8B 8B 98 FE FF  mov         rcx,qword ptr [rbx+FFFFFFFFFFFFFE98h]
                    FF
  00000000100061B1: 48 39 48 08        cmp         qword ptr [rax+8],rcx
  00000000100061B5: 75 10              jne         00000000100061C7
  00000000100061B7: 48 8B 4D E0        mov         rcx,qword ptr [rbp-20h]
  00000000100061BB: FF 93 D8 FD FF FF  call        qword ptr [rbx+FFFFFFFFFFFFFDD8h]
  00000000100061C1: 48 89 45 E8        mov         qword ptr [rbp-18h],rax
  00000000100061C5: EB 27              jmp         00000000100061EE
  00000000100061C7: B9 75 00 00 00     mov         ecx,75h
  00000000100061CC: 48 8B 55 E0        mov         rdx,qword ptr [rbp-20h]
  00000000100061D0: 45 31 C0           xor         r8d,r8d
  00000000100061D3: E8 58 EE FF FF     call        0000000010005030
  00000000100061D8: 48 89 45 E8        mov         qword ptr [rbp-18h],rax
  00000000100061DC: 48 8B 45 E8        mov         rax,qword ptr [rbp-18h]
  00000000100061E0: 48 8B 8B D0 FD FF  mov         rcx,qword ptr [rbx+FFFFFFFFFFFFFDD0h]
                    FF
  00000000100061E7: 48 8B 09           mov         rcx,qword ptr [rcx]
  00000000100061EA: 48 89 48 08        mov         qword ptr [rax+8],rcx
  00000000100061EE: E9 7D 03 00 00     jmp         0000000010006570
  00000000100061F3: 48 8B 45 10        mov         rax,qword ptr [rbp+10h]
  00000000100061F7: 48 83 78 28 10     cmp         qword ptr [rax+28h],10h
  00000000100061FC: 0F 85 AF 00 00 00  jne         00000000100062B1
  0000000010006202: 48 8B 83 D8 DF FF  mov         rax,qword ptr [rbx+FFFFFFFFFFFFDFD8h]
                    FF
  0000000010006209: FF D0              call        rax
  000000001000620B: 48 89 45 E0        mov         qword ptr [rbp-20h],rax
  000000001000620F: 48 8B 45 E0        mov         rax,qword ptr [rbp-20h]
  0000000010006213: 48 8B 40 08        mov         rax,qword ptr [rax+8]
  0000000010006217: 48 8B 8B A8 FE FF  mov         rcx,qword ptr [rbx+FFFFFFFFFFFFFEA8h]
                    FF
  000000001000621E: 48 8B 09           mov         rcx,qword ptr [rcx]
  0000000010006221: 48 3B C1           cmp         rax,rcx
  0000000010006224: 75 2A              jne         0000000010006250
  0000000010006226: 48 8B 83 90 FE FF  mov         rax,qword ptr [rbx+FFFFFFFFFFFFFE90h]
                    FF
  000000001000622D: 48 8B 4D E0        mov         rcx,qword ptr [rbp-20h]
  0000000010006231: 48 8B 49 F8        mov         rcx,qword ptr [rcx-8]
  0000000010006235: 48 39 41 10        cmp         qword ptr [rcx+10h],rax
  0000000010006239: 75 02              jne         000000001000623D
  000000001000623B: EB 08              jmp         0000000010006245
  000000001000623D: B0 02              mov         al,2
  000000001000623F: B9 00 37 00 00     mov         ecx,3700h
  0000000010006244: CC                 int         3
  0000000010006245: 48 8B 45 E0        mov         rax,qword ptr [rbp-20h]
  0000000010006249: 48 83 78 50 02     cmp         qword ptr [rax+50h],2
  000000001000624E: 7E 0E              jle         000000001000625E
  0000000010006250: 48 8B 4D E0        mov         rcx,qword ptr [rbp-20h]
  0000000010006254: BA 0E 00 00 00     mov         edx,0Eh
  0000000010006259: E8 22 EA FF FF     call        0000000010004C80
  000000001000625E: 48 8B 4D E0        mov         rcx,qword ptr [rbp-20h]
  0000000010006262: E8 89 E1 FF FF     call        00000000100043F0
  0000000010006267: 85 C0              test        eax,eax
  0000000010006269: 74 1A              je          0000000010006285
  000000001000626B: 48 8B 8B 80 FE FF  mov         rcx,qword ptr [rbx+FFFFFFFFFFFFFE80h]
                    FF
  0000000010006272: 48 8B 09           mov         rcx,qword ptr [rcx]
  0000000010006275: 48 8B 55 E0        mov         rdx,qword ptr [rbp-20h]
  0000000010006279: FF 93 C8 FD FF FF  call        qword ptr [rbx+FFFFFFFFFFFFFDC8h]
  000000001000627F: 48 89 45 E8        mov         qword ptr [rbp-18h],rax
  0000000010006283: EB 27              jmp         00000000100062AC
  0000000010006285: B9 76 00 00 00     mov         ecx,76h
  000000001000628A: 48 8B 55 E0        mov         rdx,qword ptr [rbp-20h]
  000000001000628E: 45 31 C0           xor         r8d,r8d
  0000000010006291: E8 9A ED FF FF     call        0000000010005030
  0000000010006296: 48 89 45 E8        mov         qword ptr [rbp-18h],rax
  000000001000629A: 48 8B 45 E8        mov         rax,qword ptr [rbp-18h]
  000000001000629E: 48 8B 8B 80 FE FF  mov         rcx,qword ptr [rbx+FFFFFFFFFFFFFE80h]
                    FF
  00000000100062A5: 48 8B 09           mov         rcx,qword ptr [rcx]
  00000000100062A8: 48 89 48 08        mov         qword ptr [rax+8],rcx
  00000000100062AC: E9 BF 02 00 00     jmp         0000000010006570
  00000000100062B1: 48 8B 45 10        mov         rax,qword ptr [rbp+10h]
  00000000100062B5: 48 83 78 28 11     cmp         qword ptr [rax+28h],11h
  00000000100062BA: 75 71              jne         000000001000632D
  00000000100062BC: 48 8B 83 D8 DF FF  mov         rax,qword ptr [rbx+FFFFFFFFFFFFDFD8h]
                    FF
  00000000100062C3: FF D0              call        rax
  00000000100062C5: 48 89 45 E0        mov         qword ptr [rbp-20h],rax
  00000000100062C9: 48 8B 4D E0        mov         rcx,qword ptr [rbp-20h]
  00000000100062CD: E8 EE E4 FF FF     call        00000000100047C0
  00000000100062D2: 48 8B 45 E0        mov         rax,qword ptr [rbp-20h]
  00000000100062D6: 48 8B 40 F8        mov         rax,qword ptr [rax-8]
  00000000100062DA: 48 8B 8B 98 FE FF  mov         rcx,qword ptr [rbx+FFFFFFFFFFFFFE98h]
                    FF
  00000000100062E1: 48 39 48 08        cmp         qword ptr [rax+8],rcx
  00000000100062E5: 75 1A              jne         0000000010006301
  00000000100062E7: 48 8B 8B 58 FE FF  mov         rcx,qword ptr [rbx+FFFFFFFFFFFFFE58h]
                    FF
  00000000100062EE: 48 8B 09           mov         rcx,qword ptr [rcx]
  00000000100062F1: 48 8B 55 E0        mov         rdx,qword ptr [rbp-20h]
  00000000100062F5: FF 93 C8 FD FF FF  call        qword ptr [rbx+FFFFFFFFFFFFFDC8h]
  00000000100062FB: 48 89 45 E8        mov         qword ptr [rbp-18h],rax
  00000000100062FF: EB 27              jmp         0000000010006328
  0000000010006301: B9 77 00 00 00     mov         ecx,77h
  0000000010006306: 48 8B 55 E0        mov         rdx,qword ptr [rbp-20h]
  000000001000630A: 45 31 C0           xor         r8d,r8d
  000000001000630D: E8 1E ED FF FF     call        0000000010005030
  0000000010006312: 48 89 45 E8        mov         qword ptr [rbp-18h],rax
  0000000010006316: 48 8B 45 E8        mov         rax,qword ptr [rbp-18h]
  000000001000631A: 48 8B 8B 58 FE FF  mov         rcx,qword ptr [rbx+FFFFFFFFFFFFFE58h]
                    FF
  0000000010006321: 48 8B 09           mov         rcx,qword ptr [rcx]
  0000000010006324: 48 89 48 08        mov         qword ptr [rax+8],rcx
  0000000010006328: E9 43 02 00 00     jmp         0000000010006570
  000000001000632D: 48 8B 45 10        mov         rax,qword ptr [rbp+10h]
  0000000010006331: 48 83 78 28 17     cmp         qword ptr [rax+28h],17h
  0000000010006336: 75 40              jne         0000000010006378
  0000000010006338: E8 13 F4 FF FF     call        0000000010005750
  000000001000633D: 48 89 45 E0        mov         qword ptr [rbp-20h],rax
  0000000010006341: 48 8B 4D E0        mov         rcx,qword ptr [rbp-20h]
  0000000010006345: B2 01              mov         dl,1
  0000000010006347: E8 E4 E5 FF FF     call        0000000010004930
  000000001000634C: B9 78 00 00 00     mov         ecx,78h
  0000000010006351: 48 8B 55 E0        mov         rdx,qword ptr [rbp-20h]
  0000000010006355: 45 31 C0           xor         r8d,r8d
  0000000010006358: E8 D3 EC FF FF     call        0000000010005030
  000000001000635D: 48 89 45 E8        mov         qword ptr [rbp-18h],rax
  0000000010006361: 48 8B 45 E8        mov         rax,qword ptr [rbp-18h]
  0000000010006365: 48 8B 8B 80 FE FF  mov         rcx,qword ptr [rbx+FFFFFFFFFFFFFE80h]
                    FF
  000000001000636C: 48 8B 09           mov         rcx,qword ptr [rcx]
  000000001000636F: 48 89 48 08        mov         qword ptr [rax+8],rcx
  0000000010006373: E9 F8 01 00 00     jmp         0000000010006570
  0000000010006378: 48 8B 45 10        mov         rax,qword ptr [rbp+10h]
  000000001000637C: 48 83 78 28 18     cmp         qword ptr [rax+28h],18h
  0000000010006381: 75 49              jne         00000000100063CC
  0000000010006383: E8 C8 EE FF FF     call        0000000010005250
  0000000010006388: 48 89 45 E0        mov         qword ptr [rbp-20h],rax
  000000001000638C: 48 8B 45 E0        mov         rax,qword ptr [rbp-20h]
  0000000010006390: 48 83 38 01        cmp         qword ptr [rax],1
  0000000010006394: 74 11              je          00000000100063A7
  0000000010006396: 48 8D 8B C0 F3 FF  lea         rcx,[rbx+FFFFFFFFFFFFF3C0h]
                    FF
  000000001000639D: BA 09 00 00 00     mov         edx,9
  00000000100063A2: E8 79 DC FF FF     call        0000000010004020
  00000000100063A7: 48 8B 8B 80 FE FF  mov         rcx,qword ptr [rbx+FFFFFFFFFFFFFE80h]
                    FF
  00000000100063AE: 48 8B 09           mov         rcx,qword ptr [rcx]
  00000000100063B1: 48 8B 55 E0        mov         rdx,qword ptr [rbp-20h]
  00000000100063B5: 48 8B 52 08        mov         rdx,qword ptr [rdx+8]
  00000000100063B9: 48 8B 52 08        mov         rdx,qword ptr [rdx+8]
  00000000100063BD: FF 93 50 FE FF FF  call        qword ptr [rbx+FFFFFFFFFFFFFE50h]
  00000000100063C3: 48 89 45 E8        mov         qword ptr [rbp-18h],rax
  00000000100063C7: E9 A4 01 00 00     jmp         0000000010006570
  00000000100063CC: 48 8B 45 10        mov         rax,qword ptr [rbp+10h]
  00000000100063D0: 48 83 78 28 19     cmp         qword ptr [rax+28h],19h
  00000000100063D5: 75 63              jne         000000001000643A
  00000000100063D7: 48 8B 83 D8 DF FF  mov         rax,qword ptr [rbx+FFFFFFFFFFFFDFD8h]
                    FF
  00000000100063DE: FF D0              call        rax
  00000000100063E0: 48 89 45 E0        mov         qword ptr [rbp-20h],rax
  00000000100063E4: 48 8B 4D E0        mov         rcx,qword ptr [rbp-20h]
  00000000100063E8: E8 D3 E3 FF FF     call        00000000100047C0
  00000000100063ED: B9 28 00 00 00     mov         ecx,28h
  00000000100063F2: E8 49 DC FF FF     call        0000000010004040
  00000000100063F7: 48 8B 83 D8 DF FF  mov         rax,qword ptr [rbx+FFFFFFFFFFFFDFD8h]
                    FF
  00000000100063FE: FF D0              call        rax
  0000000010006400: 48 89 45 D8        mov         qword ptr [rbp-28h],rax
  0000000010006404: 48 8B 4D D8        mov         rcx,qword ptr [rbp-28h]
  0000000010006408: E8 B3 E3 FF FF     call        00000000100047C0
  000000001000640D: B9 79 00 00 00     mov         ecx,79h
  0000000010006412: 48 8B 55 E0        mov         rdx,qword ptr [rbp-20h]
  0000000010006416: 4C 8B 45 D8        mov         r8,qword ptr [rbp-28h]
  000000001000641A: E8 11 EC FF FF     call        0000000010005030
  000000001000641F: 48 89 45 E8        mov         qword ptr [rbp-18h],rax
  0000000010006423: 48 8B 45 E8        mov         rax,qword ptr [rbp-18h]
  0000000010006427: 48 8B 8B 78 FE FF  mov         rcx,qword ptr [rbx+FFFFFFFFFFFFFE78h]
                    FF
  000000001000642E: 48 8B 09           mov         rcx,qword ptr [rcx]
  0000000010006431: 48 89 48 08        mov         qword ptr [rax+8],rcx
  0000000010006435: E9 36 01 00 00     jmp         0000000010006570
  000000001000643A: 48 8B 45 10        mov         rax,qword ptr [rbp+10h]
  000000001000643E: 48 83 78 28 1A     cmp         qword ptr [rax+28h],1Ah
  0000000010006443: 0F 85 27 01 00 00  jne         0000000010006570
  0000000010006449: E8 02 EE FF FF     call        0000000010005250
  000000001000644E: 48 89 45 E0        mov         qword ptr [rbp-20h],rax
  0000000010006452: 48 8B 45 E0        mov         rax,qword ptr [rbp-20h]
  0000000010006456: 48 83 38 01        cmp         qword ptr [rax],1
  000000001000645A: 74 13              je          000000001000646F
  000000001000645C: 48 8D 8B E0 F3 FF  lea         rcx,[rbx+FFFFFFFFFFFFF3E0h]
                    FF
  0000000010006463: BA 09 00 00 00     mov         edx,9
  0000000010006468: E8 B3 DB FF FF     call        0000000010004020
  000000001000646D: EB 27              jmp         0000000010006496
  000000001000646F: 48 8B 45 E0        mov         rax,qword ptr [rbp-20h]
  0000000010006473: 48 8B 40 08        mov         rax,qword ptr [rax+8]
  0000000010006477: 48 8B 00           mov         rax,qword ptr [rax]
  000000001000647A: B9 80 01 00 00     mov         ecx,180h
  000000001000647F: 48 0F A3 C1        bt          rcx,rax
  0000000010006483: 73 11              jae         0000000010006496
  0000000010006485: 48 8D 8B 00 F4 FF  lea         rcx,[rbx+FFFFFFFFFFFFF400h]
                    FF
  000000001000648C: BA 0B 00 00 00     mov         edx,0Bh
  0000000010006491: E8 8A DB FF FF     call        0000000010004020
  0000000010006496: B9 28 00 00 00     mov         ecx,28h
  000000001000649B: E8 A0 DB FF FF     call        0000000010004040
  00000000100064A0: 48 8B 83 D8 DF FF  mov         rax,qword ptr [rbx+FFFFFFFFFFFFDFD8h]
                    FF
  00000000100064A7: FF D0              call        rax
  00000000100064A9: 48 89 45 D8        mov         qword ptr [rbp-28h],rax
  00000000100064AD: 48 8B 45 D8        mov         rax,qword ptr [rbp-28h]
  00000000100064B1: 48 8B 40 08        mov         rax,qword ptr [rax+8]
  00000000100064B5: 48 8B 00           mov         rax,qword ptr [rax]
  00000000100064B8: B9 80 01 00 00     mov         ecx,180h
  00000000100064BD: 48 0F A3 C1        bt          rcx,rax
  00000000100064C1: 73 13              jae         00000000100064D6
  00000000100064C3: 48 8D 8B 20 F4 FF  lea         rcx,[rbx+FFFFFFFFFFFFF420h]
                    FF
  00000000100064CA: BA 0B 00 00 00     mov         edx,0Bh
  00000000100064CF: E8 4C DB FF FF     call        0000000010004020
  00000000100064D4: EB 50              jmp         0000000010006526
  00000000100064D6: 48 8B 45 D8        mov         rax,qword ptr [rbp-28h]
  00000000100064DA: 48 8B 40 F8        mov         rax,qword ptr [rax-8]
  00000000100064DE: 48 8B 8B 90 FE FF  mov         rcx,qword ptr [rbx+FFFFFFFFFFFFFE90h]
                    FF
  00000000100064E5: 48 39 48 10        cmp         qword ptr [rax+10h],rcx
  00000000100064E9: 75 3B              jne         0000000010006526
  00000000100064EB: 48 8B 83 90 FE FF  mov         rax,qword ptr [rbx+FFFFFFFFFFFFFE90h]
                    FF
  00000000100064F2: 48 8B 4D D8        mov         rcx,qword ptr [rbp-28h]
  00000000100064F6: 48 8B 49 F8        mov         rcx,qword ptr [rcx-8]
  00000000100064FA: 48 39 41 10        cmp         qword ptr [rcx+10h],rax
  00000000100064FE: 75 02              jne         0000000010006502
  0000000010006500: EB 08              jmp         000000001000650A
  0000000010006502: B0 02              mov         al,2
  0000000010006504: B9 62 3B 00 00     mov         ecx,3B62h
  0000000010006509: CC                 int         3
  000000001000650A: 48 8B 45 D8        mov         rax,qword ptr [rbp-28h]
  000000001000650E: 48 83 78 50 02     cmp         qword ptr [rax+50h],2
  0000000010006513: 7E 11              jle         0000000010006526
  0000000010006515: 48 8D 8B 40 F4 FF  lea         rcx,[rbx+FFFFFFFFFFFFF440h]
                    FF
  000000001000651C: BA 0B 00 00 00     mov         edx,0Bh
  0000000010006521: E8 FA DA FF FF     call        0000000010004020
  0000000010006526: 48 8B 4D D8        mov         rcx,qword ptr [rbp-28h]
  000000001000652A: E8 C1 DE FF FF     call        00000000100043F0
  000000001000652F: 85 C0              test        eax,eax
  0000000010006531: 74 18              je          000000001000654B
  0000000010006533: 48 8B 4D E0        mov         rcx,qword ptr [rbp-20h]
  0000000010006537: 48 8B 49 08        mov         rcx,qword ptr [rcx+8]
  000000001000653B: 48 8B 55 D8        mov         rdx,qword ptr [rbp-28h]
  000000001000653F: FF 93 C8 FD FF FF  call        qword ptr [rbx+FFFFFFFFFFFFFDC8h]
  0000000010006545: 48 89 45 E8        mov         qword ptr [rbp-18h],rax
  0000000010006549: EB 25              jmp         0000000010006570
  000000001000654B: B9 7A 00 00 00     mov         ecx,7Ah
  0000000010006550: 48 8B 55 D8        mov         rdx,qword ptr [rbp-28h]
  0000000010006554: 45 31 C0           xor         r8d,r8d
  0000000010006557: E8 D4 EA FF FF     call        0000000010005030
  000000001000655C: 48 89 45 E8        mov         qword ptr [rbp-18h],rax
  0000000010006560: 48 8B 45 E8        mov         rax,qword ptr [rbp-18h]
  0000000010006564: 48 8B 4D E0        mov         rcx,qword ptr [rbp-20h]
  0000000010006568: 48 8B 49 08        mov         rcx,qword ptr [rcx+8]
  000000001000656C: 48 89 48 08        mov         qword ptr [rax+8],rcx
  0000000010006570: B9 2C 00 00 00     mov         ecx,2Ch
  0000000010006575: E8 C6 DA FF FF     call        0000000010004040
  000000001000657A: 48 8B 45 E8        mov         rax,qword ptr [rbp-18h]
  000000001000657E: C9                 leave
  000000001000657F: C3                 ret
  0000000010006580: 55                 push        rbp
  0000000010006581: 48 8B EC           mov         rbp,rsp
  0000000010006584: 48 83 EC 30        sub         rsp,30h
  0000000010006588: 48 C7 45 F8 00 00  mov         qword ptr [rbp-8],0
                    00 00
  0000000010006590: 48 C7 45 F0 00 00  mov         qword ptr [rbp-10h],0
                    00 00
  0000000010006598: 48 8B 83 D8 DF FF  mov         rax,qword ptr [rbx+FFFFFFFFFFFFDFD8h]
                    FF
  000000001000659F: FF D0              call        rax
  00000000100065A1: 48 89 45 F8        mov         qword ptr [rbp-8],rax
  00000000100065A5: 48 8B 4D F8        mov         rcx,qword ptr [rbp-8]
  00000000100065A9: E8 12 E2 FF FF     call        00000000100047C0
  00000000100065AE: 48 8B 4D F8        mov         rcx,qword ptr [rbp-8]
  00000000100065B2: FF 93 C0 FD FF FF  call        qword ptr [rbx+FFFFFFFFFFFFFDC0h]
  00000000100065B8: 48 83 BB F8 DF FF  cmp         qword ptr [rbx+FFFFFFFFFFFFDFF8h],2Bh
                    FF 2B
  00000000100065C0: 0F 85 7D 00 00 00  jne         0000000010006643
  00000000100065C6: E8 35 DA FF FF     call        0000000010004000
  00000000100065CB: 48 8B 83 D8 DF FF  mov         rax,qword ptr [rbx+FFFFFFFFFFFFDFD8h]
                    FF
  00000000100065D2: FF D0              call        rax
  00000000100065D4: 48 89 45 F0        mov         qword ptr [rbp-10h],rax
  00000000100065D8: 48 8B 4D F0        mov         rcx,qword ptr [rbp-10h]
  00000000100065DC: E8 DF E1 FF FF     call        00000000100047C0
  00000000100065E1: 48 8B 4D F0        mov         rcx,qword ptr [rbp-10h]
  00000000100065E5: FF 93 C0 FD FF FF  call        qword ptr [rbx+FFFFFFFFFFFFFDC0h]
  00000000100065EB: 48 8B 4D F8        mov         rcx,qword ptr [rbp-8]
  00000000100065EF: E8 FC DD FF FF     call        00000000100043F0
  00000000100065F4: 85 C0              test        eax,eax
  00000000100065F6: 74 21              je          0000000010006619
  00000000100065F8: 48 8B 4D F0        mov         rcx,qword ptr [rbp-10h]
  00000000100065FC: E8 EF DD FF FF     call        00000000100043F0
  0000000010006601: 85 C0              test        eax,eax
  0000000010006603: 74 14              je          0000000010006619
  0000000010006605: 48 8B 4D F8        mov         rcx,qword ptr [rbp-8]
  0000000010006609: 48 8B 55 F0        mov         rdx,qword ptr [rbp-10h]
  000000001000660D: FF 93 B8 FD FF FF  call        qword ptr [rbx+FFFFFFFFFFFFFDB8h]
  0000000010006613: 48 89 45 F8        mov         qword ptr [rbp-8],rax
  0000000010006617: EB 28              jmp         0000000010006641
  0000000010006619: B9 2B 00 00 00     mov         ecx,2Bh
  000000001000661E: 48 8B 55 F8        mov         rdx,qword ptr [rbp-8]
  0000000010006622: 4C 8B 45 F0        mov         r8,qword ptr [rbp-10h]
  0000000010006626: E8 05 EA FF FF     call        0000000010005030
  000000001000662B: 48 89 45 F8        mov         qword ptr [rbp-8],rax
  000000001000662F: 48 8B 45 F8        mov         rax,qword ptr [rbp-8]
  0000000010006633: 48 8B 8B 70 FE FF  mov         rcx,qword ptr [rbx+FFFFFFFFFFFFFE70h]
                    FF
  000000001000663A: 48 8B 09           mov         rcx,qword ptr [rcx]
  000000001000663D: 48 89 48 08        mov         qword ptr [rax+8],rcx
  0000000010006641: EB 44              jmp         0000000010006687
  0000000010006643: 48 8B 4D F8        mov         rcx,qword ptr [rbp-8]
  0000000010006647: E8 A4 DD FF FF     call        00000000100043F0
  000000001000664C: 85 C0              test        eax,eax
  000000001000664E: 74 10              je          0000000010006660
  0000000010006650: 48 8B 4D F8        mov         rcx,qword ptr [rbp-8]
  0000000010006654: FF 93 B0 FD FF FF  call        qword ptr [rbx+FFFFFFFFFFFFFDB0h]
  000000001000665A: 48 89 45 F8        mov         qword ptr [rbp-8],rax
  000000001000665E: EB 27              jmp         0000000010006687
  0000000010006660: B9 68 00 00 00     mov         ecx,68h
  0000000010006665: 48 8B 55 F8        mov         rdx,qword ptr [rbp-8]
  0000000010006669: 45 31 C0           xor         r8d,r8d
  000000001000666C: E8 BF E9 FF FF     call        0000000010005030
  0000000010006671: 48 89 45 F8        mov         qword ptr [rbp-8],rax
  0000000010006675: 48 8B 45 F8        mov         rax,qword ptr [rbp-8]
  0000000010006679: 48 8B 8B 70 FE FF  mov         rcx,qword ptr [rbx+FFFFFFFFFFFFFE70h]
                    FF
  0000000010006680: 48 8B 09           mov         rcx,qword ptr [rcx]
  0000000010006683: 48 89 48 08        mov         qword ptr [rax+8],rcx
  0000000010006687: 48 8B 45 F8        mov         rax,qword ptr [rbp-8]
  000000001000668B: C9                 leave
  000000001000668C: C3                 ret
  000000001000668D: 90                 nop
  000000001000668E: 90                 nop
  000000001000668F: 90                 nop
  0000000010006690: 55                 push        rbp
  0000000010006691: 48 8B EC           mov         rbp,rsp
  0000000010006694: 48 83 EC 50        sub         rsp,50h
  0000000010006698: 48 C7 45 F8 00 00  mov         qword ptr [rbp-8],0
                    00 00
  00000000100066A0: 48 C7 45 F0 00 00  mov         qword ptr [rbp-10h],0
                    00 00
  00000000100066A8: 48 C7 45 E8 00 00  mov         qword ptr [rbp-18h],0
                    00 00
  00000000100066B0: 48 C7 45 E0 00 00  mov         qword ptr [rbp-20h],0
                    00 00
  00000000100066B8: 48 C7 45 D8 00 00  mov         qword ptr [rbp-28h],0
                    00 00
  00000000100066C0: 48 8B 8B 70 FE FF  mov         rcx,qword ptr [rbx+FFFFFFFFFFFFFE70h]
                    FF
  00000000100066C7: 48 8B 09           mov         rcx,qword ptr [rcx]
  00000000100066CA: 31 D2              xor         edx,edx
  00000000100066CC: FF 93 50 FE FF FF  call        qword ptr [rbx+FFFFFFFFFFFFFE50h]
  00000000100066D2: 48 89 45 F8        mov         qword ptr [rbp-8],rax
  00000000100066D6: E8 25 D9 FF FF     call        0000000010004000
  00000000100066DB: 48 83 BB F8 DF FF  cmp         qword ptr [rbx+FFFFFFFFFFFFDFF8h],2Eh
                    FF 2E
  00000000100066E3: 0F 84 2D 01 00 00  je          0000000010006816
  00000000100066E9: E8 92 FE FF FF     call        0000000010006580
  00000000100066EE: 48 89 45 E8        mov         qword ptr [rbp-18h],rax
  00000000100066F2: 48 8B 4D E8        mov         rcx,qword ptr [rbp-18h]
  00000000100066F6: E8 F5 DC FF FF     call        00000000100043F0
  00000000100066FB: 85 C0              test        eax,eax
  00000000100066FD: 75 0A              jne         0000000010006709
  00000000100066FF: 48 8B 45 E8        mov         rax,qword ptr [rbp-18h]
  0000000010006703: 48 89 45 F0        mov         qword ptr [rbp-10h],rax
  0000000010006707: EB 17              jmp         0000000010006720
  0000000010006709: B9 06 00 00 00     mov         ecx,6
  000000001000670E: 48 8B 55 F8        mov         rdx,qword ptr [rbp-8]
  0000000010006712: 4C 8B 45 E8        mov         r8,qword ptr [rbp-18h]
  0000000010006716: FF 93 A8 FD FF FF  call        qword ptr [rbx+FFFFFFFFFFFFFDA8h]
  000000001000671C: 48 89 45 F8        mov         qword ptr [rbp-8],rax
  0000000010006720: 48 83 BB F8 DF FF  cmp         qword ptr [rbx+FFFFFFFFFFFFDFF8h],28h
                    FF 28
  0000000010006728: 0F 85 8F 00 00 00  jne         00000000100067BD
  000000001000672E: E8 CD D8 FF FF     call        0000000010004000
  0000000010006733: 48 83 BB F8 DF FF  cmp         qword ptr [rbx+FFFFFFFFFFFFDFF8h],2Eh
                    FF 2E
  000000001000673B: 74 6A              je          00000000100067A7
  000000001000673D: E8 3E FE FF FF     call        0000000010006580
  0000000010006742: 48 89 45 E8        mov         qword ptr [rbp-18h],rax
  0000000010006746: 48 8B 4D E8        mov         rcx,qword ptr [rbp-18h]
  000000001000674A: E8 A1 DC FF FF     call        00000000100043F0
  000000001000674F: 85 C0              test        eax,eax
  0000000010006751: 74 19              je          000000001000676C
  0000000010006753: B9 06 00 00 00     mov         ecx,6
  0000000010006758: 48 8B 55 F8        mov         rdx,qword ptr [rbp-8]
  000000001000675C: 4C 8B 45 E8        mov         r8,qword ptr [rbp-18h]
  0000000010006760: FF 93 A8 FD FF FF  call        qword ptr [rbx+FFFFFFFFFFFFFDA8h]
  0000000010006766: 48 89 45 F8        mov         qword ptr [rbp-8],rax
  000000001000676A: EB 39              jmp         00000000100067A5
  000000001000676C: 48 83 7D F0 00     cmp         qword ptr [rbp-10h],0
  0000000010006771: 74 2A              je          000000001000679D
  0000000010006773: B9 06 00 00 00     mov         ecx,6
  0000000010006778: 48 8B 55 F0        mov         rdx,qword ptr [rbp-10h]
  000000001000677C: 4C 8B 45 E8        mov         r8,qword ptr [rbp-18h]
  0000000010006780: E8 AB E8 FF FF     call        0000000010005030
  0000000010006785: 48 89 45 F0        mov         qword ptr [rbp-10h],rax
  0000000010006789: 48 8B 45 F0        mov         rax,qword ptr [rbp-10h]
  000000001000678D: 48 8B 8B 70 FE FF  mov         rcx,qword ptr [rbx+FFFFFFFFFFFFFE70h]
                    FF
  0000000010006794: 48 8B 09           mov         rcx,qword ptr [rcx]
  0000000010006797: 48 89 48 08        mov         qword ptr [rax+8],rcx
  000000001000679B: EB 08              jmp         00000000100067A5
  000000001000679D: 48 8B 45 E8        mov         rax,qword ptr [rbp-18h]
  00000000100067A1: 48 89 45 F0        mov         qword ptr [rbp-10h],rax
  00000000100067A5: EB 11              jmp         00000000100067B8
  00000000100067A7: 48 8D 8B 60 F4 FF  lea         rcx,[rbx+FFFFFFFFFFFFF460h]
                    FF
  00000000100067AE: BA 09 00 00 00     mov         edx,9
  00000000100067B3: E8 68 D8 FF FF     call        0000000010004020
  00000000100067B8: E9 63 FF FF FF     jmp         0000000010006720
  00000000100067BD: 48 8B 83 98 FE FF  mov         rax,qword ptr [rbx+FFFFFFFFFFFFFE98h]
                    FF
  00000000100067C4: 48 8B 4D F8        mov         rcx,qword ptr [rbp-8]
  00000000100067C8: 48 8B 49 F8        mov         rcx,qword ptr [rcx-8]
  00000000100067CC: 48 39 41 08        cmp         qword ptr [rcx+8],rax
  00000000100067D0: 75 02              jne         00000000100067D4
  00000000100067D2: EB 08              jmp         00000000100067DC
  00000000100067D4: B0 02              mov         al,2
  00000000100067D6: B9 4B 40 00 00     mov         ecx,404Bh
  00000000100067DB: CC                 int         3
  00000000100067DC: 48 8B 45 F8        mov         rax,qword ptr [rbp-8]
  00000000100067E0: 48 83 78 28 00     cmp         qword ptr [rax+28h],0
  00000000100067E5: 74 2F              je          0000000010006816
  00000000100067E7: 48 83 7D F0 00     cmp         qword ptr [rbp-10h],0
  00000000100067EC: 74 28              je          0000000010006816
  00000000100067EE: B9 06 00 00 00     mov         ecx,6
  00000000100067F3: 48 8B 55 F0        mov         rdx,qword ptr [rbp-10h]
  00000000100067F7: 4C 8B 45 F8        mov         r8,qword ptr [rbp-8]
  00000000100067FB: E8 30 E8 FF FF     call        0000000010005030
  0000000010006800: 48 89 45 F0        mov         qword ptr [rbp-10h],rax
  0000000010006804: 48 8B 45 F0        mov         rax,qword ptr [rbp-10h]
  0000000010006808: 48 8B 8B 70 FE FF  mov         rcx,qword ptr [rbx+FFFFFFFFFFFFFE70h]
                    FF
  000000001000680F: 48 8B 09           mov         rcx,qword ptr [rcx]
  0000000010006812: 48 89 48 08        mov         qword ptr [rax+8],rcx
  0000000010006816: B9 2E 00 00 00     mov         ecx,2Eh
  000000001000681B: E8 20 D8 FF FF     call        0000000010004040
  0000000010006820: 48 83 7D F0 00     cmp         qword ptr [rbp-10h],0
  0000000010006825: 75 08              jne         000000001000682F
  0000000010006827: 48 8B 45 F8        mov         rax,qword ptr [rbp-8]
  000000001000682B: 48 89 45 F0        mov         qword ptr [rbp-10h],rax
  000000001000682F: 48 8B 45 F0        mov         rax,qword ptr [rbp-10h]
  0000000010006833: C9                 leave
  0000000010006834: C3                 ret
  0000000010006835: 90                 nop
  0000000010006836: 90                 nop
  0000000010006837: 90                 nop
  0000000010006838: 90                 nop
  0000000010006839: 90                 nop
  000000001000683A: 90                 nop
  000000001000683B: 90                 nop
  000000001000683C: 90                 nop
  000000001000683D: 90                 nop
  000000001000683E: 90                 nop
  000000001000683F: 90                 nop
  0000000010006840: 55                 push        rbp
  0000000010006841: 48 8B EC           mov         rbp,rsp
  0000000010006844: 48 83 EC 30        sub         rsp,30h
  0000000010006848: 48 C7 45 F8 00 00  mov         qword ptr [rbp-8],0
                    00 00
  0000000010006850: 48 83 BB F8 DF FF  cmp         qword ptr [rbx+FFFFFFFFFFFFDFF8h],15h
                    FF 15
  0000000010006858: 75 28              jne         0000000010006882
  000000001000685A: 48 8B 8B 80 FE FF  mov         rcx,qword ptr [rbx+FFFFFFFFFFFFFE80h]
                    FF
  0000000010006861: 48 8B 09           mov         rcx,qword ptr [rcx]
  0000000010006864: 48 8B 93 A0 FD FF  mov         rdx,qword ptr [rbx+FFFFFFFFFFFFFDA0h]
                    FF
  000000001000686B: 48 8B 12           mov         rdx,qword ptr [rdx]
  000000001000686E: FF 93 50 FE FF FF  call        qword ptr [rbx+FFFFFFFFFFFFFE50h]
  0000000010006874: 48 89 45 F8        mov         qword ptr [rbp-8],rax
  0000000010006878: E8 83 D7 FF FF     call        0000000010004000
  000000001000687D: E9 D2 02 00 00     jmp         0000000010006B54
  0000000010006882: 48 83 BB F8 DF FF  cmp         qword ptr [rbx+FFFFFFFFFFFFDFF8h],16h
                    FF 16
  000000001000688A: 75 28              jne         00000000100068B4
  000000001000688C: 48 8B 8B D0 FD FF  mov         rcx,qword ptr [rbx+FFFFFFFFFFFFFDD0h]
                    FF
  0000000010006893: 48 8B 09           mov         rcx,qword ptr [rcx]
  0000000010006896: 48 8B 93 A0 FD FF  mov         rdx,qword ptr [rbx+FFFFFFFFFFFFFDA0h]
                    FF
  000000001000689D: 48 8B 12           mov         rdx,qword ptr [rdx]
  00000000100068A0: FF 93 50 FE FF FF  call        qword ptr [rbx+FFFFFFFFFFFFFE50h]
  00000000100068A6: 48 89 45 F8        mov         qword ptr [rbp-8],rax
  00000000100068AA: E8 51 D7 FF FF     call        0000000010004000
  00000000100068AF: E9 A0 02 00 00     jmp         0000000010006B54
  00000000100068B4: 48 83 BB F8 DF FF  cmp         qword ptr [rbx+FFFFFFFFFFFFDFF8h],1Ah
                    FF 1A
  00000000100068BC: 75 25              jne         00000000100068E3
  00000000100068BE: 48 8B 8B 90 FD FF  mov         rcx,qword ptr [rbx+FFFFFFFFFFFFFD90h]
                    FF
  00000000100068C5: 48 8B 93 88 FD FF  mov         rdx,qword ptr [rbx+FFFFFFFFFFFFFD88h]
                    FF
  00000000100068CC: 48 8B 12           mov         rdx,qword ptr [rdx]
  00000000100068CF: FF 93 98 FD FF FF  call        qword ptr [rbx+FFFFFFFFFFFFFD98h]
  00000000100068D5: 48 89 45 F8        mov         qword ptr [rbp-8],rax
  00000000100068D9: E8 22 D7 FF FF     call        0000000010004000
  00000000100068DE: E9 71 02 00 00     jmp         0000000010006B54
  00000000100068E3: 48 83 BB F8 DF FF  cmp         qword ptr [rbx+FFFFFFFFFFFFDFF8h],19h
                    FF 19
  00000000100068EB: 75 20              jne         000000001000690D
  00000000100068ED: 48 8B 8B 88 FE FF  mov         rcx,qword ptr [rbx+FFFFFFFFFFFFFE88h]
                    FF
  00000000100068F4: 48 8B 09           mov         rcx,qword ptr [rcx]
  00000000100068F7: 31 D2              xor         edx,edx
  00000000100068F9: FF 93 50 FE FF FF  call        qword ptr [rbx+FFFFFFFFFFFFFE50h]
  00000000100068FF: 48 89 45 F8        mov         qword ptr [rbp-8],rax
  0000000010006903: E8 F8 D6 FF FF     call        0000000010004000
  0000000010006908: E9 47 02 00 00     jmp         0000000010006B54
  000000001000690D: 48 83 BB F8 DF FF  cmp         qword ptr [rbx+FFFFFFFFFFFFDFF8h],18h
                    FF 18
  0000000010006915: 75 23              jne         000000001000693A
  0000000010006917: 48 8B 8B 78 FE FF  mov         rcx,qword ptr [rbx+FFFFFFFFFFFFFE78h]
                    FF
  000000001000691E: 48 8B 09           mov         rcx,qword ptr [rcx]
  0000000010006921: BA 01 00 00 00     mov         edx,1
  0000000010006926: FF 93 50 FE FF FF  call        qword ptr [rbx+FFFFFFFFFFFFFE50h]
  000000001000692C: 48 89 45 F8        mov         qword ptr [rbp-8],rax
  0000000010006930: E8 CB D6 FF FF     call        0000000010004000
  0000000010006935: E9 1A 02 00 00     jmp         0000000010006B54
  000000001000693A: 48 83 BB F8 DF FF  cmp         qword ptr [rbx+FFFFFFFFFFFFDFF8h],17h
                    FF 17
  0000000010006942: 75 20              jne         0000000010006964
  0000000010006944: 48 8B 8B 78 FE FF  mov         rcx,qword ptr [rbx+FFFFFFFFFFFFFE78h]
                    FF
  000000001000694B: 48 8B 09           mov         rcx,qword ptr [rcx]
  000000001000694E: 31 D2              xor         edx,edx
  0000000010006950: FF 93 50 FE FF FF  call        qword ptr [rbx+FFFFFFFFFFFFFE50h]
  0000000010006956: 48 89 45 F8        mov         qword ptr [rbp-8],rax
  000000001000695A: E8 A1 D6 FF FF     call        0000000010004000
  000000001000695F: E9 F0 01 00 00     jmp         0000000010006B54
  0000000010006964: 48 83 BB F8 DF FF  cmp         qword ptr [rbx+FFFFFFFFFFFFDFF8h],1Eh
                    FF 1E
  000000001000696C: 75 0E              jne         000000001000697C
  000000001000696E: E8 1D FD FF FF     call        0000000010006690
  0000000010006973: 48 89 45 F8        mov         qword ptr [rbp-8],rax
  0000000010006977: E9 D8 01 00 00     jmp         0000000010006B54
  000000001000697C: 48 83 BB F8 DF FF  cmp         qword ptr [rbx+FFFFFFFFFFFFDFF8h],1Fh
                    FF 1F
  0000000010006984: 0F 85 11 01 00 00  jne         0000000010006A9B
  000000001000698A: E8 C1 ED FF FF     call        0000000010005750
  000000001000698F: 48 89 45 F8        mov         qword ptr [rbp-8],rax
  0000000010006993: 48 8B 45 F8        mov         rax,qword ptr [rbp-8]
  0000000010006997: 48 83 38 07        cmp         qword ptr [rax],7
  000000001000699B: 75 2C              jne         00000000100069C9
  000000001000699D: 48 8D 8B 80 F4 FF  lea         rcx,[rbx+FFFFFFFFFFFFF480h]
                    FF
  00000000100069A4: BA 0D 00 00 00     mov         edx,0Dh
  00000000100069A9: E8 72 D6 FF FF     call        0000000010004020
  00000000100069AE: 48 8B 8B 80 FE FF  mov         rcx,qword ptr [rbx+FFFFFFFFFFFFFE80h]
                    FF
  00000000100069B5: 48 8B 09           mov         rcx,qword ptr [rcx]
  00000000100069B8: 31 D2              xor         edx,edx
  00000000100069BA: FF 93 50 FE FF FF  call        qword ptr [rbx+FFFFFFFFFFFFFE50h]
  00000000100069C0: 48 89 45 F8        mov         qword ptr [rbp-8],rax
  00000000100069C4: E9 CD 00 00 00     jmp         0000000010006A96
  00000000100069C9: 48 8B 45 F8        mov         rax,qword ptr [rbp-8]
  00000000100069CD: 48 83 38 08        cmp         qword ptr [rax],8
  00000000100069D1: 75 61              jne         0000000010006A34
  00000000100069D3: 48 83 BB F8 DF FF  cmp         qword ptr [rbx+FFFFFFFFFFFFDFF8h],1Ch
                    FF 1C
  00000000100069DB: 74 29              je          0000000010006A06
  00000000100069DD: 48 8D 8B A0 F4 FF  lea         rcx,[rbx+FFFFFFFFFFFFF4A0h]
                    FF
  00000000100069E4: BA 0F 00 00 00     mov         edx,0Fh
  00000000100069E9: E8 32 D6 FF FF     call        0000000010004020
  00000000100069EE: 48 8B 8B 80 FE FF  mov         rcx,qword ptr [rbx+FFFFFFFFFFFFFE80h]
                    FF
  00000000100069F5: 48 8B 09           mov         rcx,qword ptr [rcx]
  00000000100069F8: 31 D2              xor         edx,edx
  00000000100069FA: FF 93 50 FE FF FF  call        qword ptr [rbx+FFFFFFFFFFFFFE50h]
  0000000010006A00: 48 89 45 F8        mov         qword ptr [rbp-8],rax
  0000000010006A04: EB 2C              jmp         0000000010006A32
  0000000010006A06: 48 8B 83 00 FE FF  mov         rax,qword ptr [rbx+FFFFFFFFFFFFFE00h]
                    FF
  0000000010006A0D: 48 8B 4D F8        mov         rcx,qword ptr [rbp-8]
  0000000010006A11: 48 8B 49 F8        mov         rcx,qword ptr [rcx-8]
  0000000010006A15: 48 39 41 08        cmp         qword ptr [rcx+8],rax
  0000000010006A19: 75 02              jne         0000000010006A1D
  0000000010006A1B: EB 08              jmp         0000000010006A25
  0000000010006A1D: B0 02              mov         al,2
  0000000010006A1F: B9 FC 43 00 00     mov         ecx,43FCh
  0000000010006A24: CC                 int         3
  0000000010006A25: 48 8B 4D F8        mov         rcx,qword ptr [rbp-8]
  0000000010006A29: E8 52 F4 FF FF     call        0000000010005E80
  0000000010006A2E: 48 89 45 F8        mov         qword ptr [rbp-8],rax
  0000000010006A32: EB 62              jmp         0000000010006A96
  0000000010006A34: 48 83 BB F8 DF FF  cmp         qword ptr [rbx+FFFFFFFFFFFFDFF8h],1Ch
                    FF 1C
  0000000010006A3C: 75 58              jne         0000000010006A96
  0000000010006A3E: 48 8B 45 F8        mov         rax,qword ptr [rbp-8]
  0000000010006A42: 48 8B 40 08        mov         rax,qword ptr [rax+8]
  0000000010006A46: 48 83 38 06        cmp         qword ptr [rax],6
  0000000010006A4A: 75 4A              jne         0000000010006A96
  0000000010006A4C: 48 8B 45 F8        mov         rax,qword ptr [rbp-8]
  0000000010006A50: 48 8B 40 08        mov         rax,qword ptr [rax+8]
  0000000010006A54: 48 83 78 40 00     cmp         qword ptr [rax+40h],0
  0000000010006A59: 75 11              jne         0000000010006A6C
  0000000010006A5B: 48 8D 8B C0 F4 FF  lea         rcx,[rbx+FFFFFFFFFFFFF4C0h]
                    FF
  0000000010006A62: BA 0D 00 00 00     mov         edx,0Dh
  0000000010006A67: E8 B4 D5 FF FF     call        0000000010004020
  0000000010006A6C: 48 8B 4D F8        mov         rcx,qword ptr [rbp-8]
  0000000010006A70: E8 4B EB FF FF     call        00000000100055C0
  0000000010006A75: 48 89 45 F8        mov         qword ptr [rbp-8],rax
  0000000010006A79: 48 8B 45 F8        mov         rax,qword ptr [rbp-8]
  0000000010006A7D: 48 83 78 08 00     cmp         qword ptr [rax+8],0
  0000000010006A82: 75 12              jne         0000000010006A96
  0000000010006A84: 48 8B 45 F8        mov         rax,qword ptr [rbp-8]
  0000000010006A88: 48 8B 8B 80 FE FF  mov         rcx,qword ptr [rbx+FFFFFFFFFFFFFE80h]
                    FF
  0000000010006A8F: 48 8B 09           mov         rcx,qword ptr [rcx]
  0000000010006A92: 48 89 48 08        mov         qword ptr [rax+8],rcx
  0000000010006A96: E9 B9 00 00 00     jmp         0000000010006B54
  0000000010006A9B: 48 83 BB F8 DF FF  cmp         qword ptr [rbx+FFFFFFFFFFFFDFF8h],1Ch
                    FF 1C
  0000000010006AA3: 75 21              jne         0000000010006AC6
  0000000010006AA5: E8 56 D5 FF FF     call        0000000010004000
  0000000010006AAA: 48 8B 83 D8 DF FF  mov         rax,qword ptr [rbx+FFFFFFFFFFFFDFD8h]
                    FF
  0000000010006AB1: FF D0              call        rax
  0000000010006AB3: 48 89 45 F8        mov         qword ptr [rbp-8],rax
  0000000010006AB7: B9 2C 00 00 00     mov         ecx,2Ch
  0000000010006ABC: E8 7F D5 FF FF     call        0000000010004040
  0000000010006AC1: E9 8E 00 00 00     jmp         0000000010006B54
  0000000010006AC6: 48 83 BB F8 DF FF  cmp         qword ptr [rbx+FFFFFFFFFFFFDFF8h],1Bh
                    FF 1B
  0000000010006ACE: 75 5D              jne         0000000010006B2D
  0000000010006AD0: E8 2B D5 FF FF     call        0000000010004000
  0000000010006AD5: E8 66 FD FF FF     call        0000000010006840
  0000000010006ADA: 48 89 45 F8        mov         qword ptr [rbp-8],rax
  0000000010006ADE: 48 8B 4D F8        mov         rcx,qword ptr [rbp-8]
  0000000010006AE2: E8 49 DD FF FF     call        0000000010004830
  0000000010006AE7: 48 8B 4D F8        mov         rcx,qword ptr [rbp-8]
  0000000010006AEB: E8 00 D9 FF FF     call        00000000100043F0
  0000000010006AF0: 85 C0              test        eax,eax
  0000000010006AF2: 74 10              je          0000000010006B04
  0000000010006AF4: 48 8B 4D F8        mov         rcx,qword ptr [rbp-8]
  0000000010006AF8: FF 93 80 FD FF FF  call        qword ptr [rbx+FFFFFFFFFFFFFD80h]
  0000000010006AFE: 48 89 45 F8        mov         qword ptr [rbp-8],rax
  0000000010006B02: EB 27              jmp         0000000010006B2B
  0000000010006B04: B9 1B 00 00 00     mov         ecx,1Bh
  0000000010006B09: 48 8B 55 F8        mov         rdx,qword ptr [rbp-8]
  0000000010006B0D: 45 31 C0           xor         r8d,r8d
  0000000010006B10: E8 1B E5 FF FF     call        0000000010005030
  0000000010006B15: 48 89 45 F8        mov         qword ptr [rbp-8],rax
  0000000010006B19: 48 8B 45 F8        mov         rax,qword ptr [rbp-8]
  0000000010006B1D: 48 8B 8B 78 FE FF  mov         rcx,qword ptr [rbx+FFFFFFFFFFFFFE78h]
                    FF
  0000000010006B24: 48 8B 09           mov         rcx,qword ptr [rcx]
  0000000010006B27: 48 89 48 08        mov         qword ptr [rax+8],rcx
  0000000010006B2B: EB 27              jmp         0000000010006B54
  0000000010006B2D: 48 8D 8B E0 F4 FF  lea         rcx,[rbx+FFFFFFFFFFFFF4E0h]
                    FF
  0000000010006B34: BA 0F 00 00 00     mov         edx,0Fh
  0000000010006B39: E8 E2 D4 FF FF     call        0000000010004020
  0000000010006B3E: 48 8B 8B 80 FE FF  mov         rcx,qword ptr [rbx+FFFFFFFFFFFFFE80h]
                    FF
  0000000010006B45: 48 8B 09           mov         rcx,qword ptr [rcx]
  0000000010006B48: 31 D2              xor         edx,edx
  0000000010006B4A: FF 93 50 FE FF FF  call        qword ptr [rbx+FFFFFFFFFFFFFE50h]
  0000000010006B50: 48 89 45 F8        mov         qword ptr [rbp-8],rax
  0000000010006B54: 48 8B 45 F8        mov         rax,qword ptr [rbp-8]
  0000000010006B58: C9                 leave
  0000000010006B59: C3                 ret
  0000000010006B5A: 90                 nop
  0000000010006B5B: 90                 nop
  0000000010006B5C: 90                 nop
  0000000010006B5D: 90                 nop
  0000000010006B5E: 90                 nop
  0000000010006B5F: 90                 nop
  0000000010006B60: 55                 push        rbp
  0000000010006B61: 48 8B EC           mov         rbp,rsp
  0000000010006B64: 48 83 EC 40        sub         rsp,40h
  0000000010006B68: 48 C7 45 F8 00 00  mov         qword ptr [rbp-8],0
                    00 00
  0000000010006B70: 48 C7 45 F0 00 00  mov         qword ptr [rbp-10h],0
                    00 00
  0000000010006B78: 48 C7 45 E8 00 00  mov         qword ptr [rbp-18h],0
                    00 00
  0000000010006B80: E8 BB FC FF FF     call        0000000010006840
  0000000010006B85: 48 89 45 F8        mov         qword ptr [rbp-8],rax
  0000000010006B89: 48 83 BB F8 DF FF  cmp         qword ptr [rbx+FFFFFFFFFFFFDFF8h],1
                    FF 01
  0000000010006B91: 0F 85 AC 00 00 00  jne         0000000010006C43
  0000000010006B97: 48 8B 4D F8        mov         rcx,qword ptr [rbp-8]
  0000000010006B9B: BA 15 00 00 00     mov         edx,15h
  0000000010006BA0: E8 DB E0 FF FF     call        0000000010004C80
  0000000010006BA5: E8 56 D4 FF FF     call        0000000010004000
  0000000010006BAA: E8 91 FC FF FF     call        0000000010006840
  0000000010006BAF: 48 89 45 F0        mov         qword ptr [rbp-10h],rax
  0000000010006BB3: 48 8B 4D F8        mov         rcx,qword ptr [rbp-8]
  0000000010006BB7: 48 8B 49 08        mov         rcx,qword ptr [rcx+8]
  0000000010006BBB: 48 8B 55 F0        mov         rdx,qword ptr [rbp-10h]
  0000000010006BBF: 48 8B 52 08        mov         rdx,qword ptr [rdx+8]
  0000000010006BC3: E8 A8 DA FF FF     call        0000000010004670
  0000000010006BC8: 85 C0              test        eax,eax
  0000000010006BCA: 75 11              jne         0000000010006BDD
  0000000010006BCC: 48 8D 8B 00 F5 FF  lea         rcx,[rbx+FFFFFFFFFFFFF500h]
                    FF
  0000000010006BD3: BA 0D 00 00 00     mov         edx,0Dh
  0000000010006BD8: E8 43 D4 FF FF     call        0000000010004020
  0000000010006BDD: 48 8B 4D F8        mov         rcx,qword ptr [rbp-8]
  0000000010006BE1: E8 0A D8 FF FF     call        00000000100043F0
  0000000010006BE6: 85 C0              test        eax,eax
  0000000010006BE8: 74 26              je          0000000010006C10
  0000000010006BEA: 48 8B 4D F0        mov         rcx,qword ptr [rbp-10h]
  0000000010006BEE: E8 FD D7 FF FF     call        00000000100043F0
  0000000010006BF3: 85 C0              test        eax,eax
  0000000010006BF5: 74 19              je          0000000010006C10
  0000000010006BF7: B9 01 00 00 00     mov         ecx,1
  0000000010006BFC: 48 8B 55 F8        mov         rdx,qword ptr [rbp-8]
  0000000010006C00: 4C 8B 45 F0        mov         r8,qword ptr [rbp-10h]
  0000000010006C04: FF 93 A8 FD FF FF  call        qword ptr [rbx+FFFFFFFFFFFFFDA8h]
  0000000010006C0A: 48 89 45 F8        mov         qword ptr [rbp-8],rax
  0000000010006C0E: EB 2E              jmp         0000000010006C3E
  0000000010006C10: 48 8B 45 F8        mov         rax,qword ptr [rbp-8]
  0000000010006C14: 48 8B 40 08        mov         rax,qword ptr [rax+8]
  0000000010006C18: 48 89 45 E8        mov         qword ptr [rbp-18h],rax
  0000000010006C1C: B9 01 00 00 00     mov         ecx,1
  0000000010006C21: 48 8B 55 F8        mov         rdx,qword ptr [rbp-8]
  0000000010006C25: 4C 8B 45 F0        mov         r8,qword ptr [rbp-10h]
  0000000010006C29: E8 02 E4 FF FF     call        0000000010005030
  0000000010006C2E: 48 89 45 F8        mov         qword ptr [rbp-8],rax
  0000000010006C32: 48 8B 45 F8        mov         rax,qword ptr [rbp-8]
  0000000010006C36: 48 8B 4D E8        mov         rcx,qword ptr [rbp-18h]
  0000000010006C3A: 48 89 48 08        mov         qword ptr [rax+8],rcx
  0000000010006C3E: E9 46 FF FF FF     jmp         0000000010006B89
  0000000010006C43: 48 83 BB F8 DF FF  cmp         qword ptr [rbx+FFFFFFFFFFFFDFF8h],2
                    FF 02
  0000000010006C4B: 0F 85 AC 00 00 00  jne         0000000010006CFD
  0000000010006C51: 48 8B 4D F8        mov         rcx,qword ptr [rbp-8]
  0000000010006C55: BA 14 00 00 00     mov         edx,14h
  0000000010006C5A: E8 21 E0 FF FF     call        0000000010004C80
  0000000010006C5F: E8 9C D3 FF FF     call        0000000010004000
  0000000010006C64: E8 D7 FB FF FF     call        0000000010006840
  0000000010006C69: 48 89 45 F0        mov         qword ptr [rbp-10h],rax
  0000000010006C6D: 48 8B 4D F8        mov         rcx,qword ptr [rbp-8]
  0000000010006C71: 48 8B 49 08        mov         rcx,qword ptr [rcx+8]
  0000000010006C75: 48 8B 55 F0        mov         rdx,qword ptr [rbp-10h]
  0000000010006C79: 48 8B 52 08        mov         rdx,qword ptr [rdx+8]
  0000000010006C7D: E8 EE D9 FF FF     call        0000000010004670
  0000000010006C82: 85 C0              test        eax,eax
  0000000010006C84: 75 11              jne         0000000010006C97
  0000000010006C86: 48 8D 8B 20 F5 FF  lea         rcx,[rbx+FFFFFFFFFFFFF520h]
                    FF
  0000000010006C8D: BA 0D 00 00 00     mov         edx,0Dh
  0000000010006C92: E8 89 D3 FF FF     call        0000000010004020
  0000000010006C97: 48 8B 4D F8        mov         rcx,qword ptr [rbp-8]
  0000000010006C9B: E8 50 D7 FF FF     call        00000000100043F0
  0000000010006CA0: 85 C0              test        eax,eax
  0000000010006CA2: 74 26              je          0000000010006CCA
  0000000010006CA4: 48 8B 4D F0        mov         rcx,qword ptr [rbp-10h]
  0000000010006CA8: E8 43 D7 FF FF     call        00000000100043F0
  0000000010006CAD: 85 C0              test        eax,eax
  0000000010006CAF: 74 19              je          0000000010006CCA
  0000000010006CB1: B9 02 00 00 00     mov         ecx,2
  0000000010006CB6: 48 8B 55 F8        mov         rdx,qword ptr [rbp-8]
  0000000010006CBA: 4C 8B 45 F0        mov         r8,qword ptr [rbp-10h]
  0000000010006CBE: FF 93 A8 FD FF FF  call        qword ptr [rbx+FFFFFFFFFFFFFDA8h]
  0000000010006CC4: 48 89 45 F8        mov         qword ptr [rbp-8],rax
  0000000010006CC8: EB 2E              jmp         0000000010006CF8
  0000000010006CCA: 48 8B 45 F8        mov         rax,qword ptr [rbp-8]
  0000000010006CCE: 48 8B 40 08        mov         rax,qword ptr [rax+8]
  0000000010006CD2: 48 89 45 E8        mov         qword ptr [rbp-18h],rax
  0000000010006CD6: B9 01 00 00 00     mov         ecx,1
  0000000010006CDB: 48 8B 55 F8        mov         rdx,qword ptr [rbp-8]
  0000000010006CDF: 4C 8B 45 F0        mov         r8,qword ptr [rbp-10h]
  0000000010006CE3: E8 48 E3 FF FF     call        0000000010005030
  0000000010006CE8: 48 89 45 F8        mov         qword ptr [rbp-8],rax
  0000000010006CEC: 48 8B 45 F8        mov         rax,qword ptr [rbp-8]
  0000000010006CF0: 48 8B 4D E8        mov         rcx,qword ptr [rbp-18h]
  0000000010006CF4: 48 89 48 08        mov         qword ptr [rax+8],rcx
  0000000010006CF8: E9 8C FE FF FF     jmp         0000000010006B89
  0000000010006CFD: 48 83 BB F8 DF FF  cmp         qword ptr [rbx+FFFFFFFFFFFFDFF8h],3
                    FF 03
  0000000010006D05: 74 0E              je          0000000010006D15
  0000000010006D07: 48 83 BB F8 DF FF  cmp         qword ptr [rbx+FFFFFFFFFFFFDFF8h],4
                    FF 04
  0000000010006D0F: 0F 85 89 00 00 00  jne         0000000010006D9E
  0000000010006D15: 48 8B 4D F8        mov         rcx,qword ptr [rbp-8]
  0000000010006D19: E8 A2 DA FF FF     call        00000000100047C0
  0000000010006D1E: 48 8B 83 F8 DF FF  mov         rax,qword ptr [rbx+FFFFFFFFFFFFDFF8h]
                    FF
  0000000010006D25: 48 89 45 E0        mov         qword ptr [rbp-20h],rax
  0000000010006D29: E8 D2 D2 FF FF     call        0000000010004000
  0000000010006D2E: E8 0D FB FF FF     call        0000000010006840
  0000000010006D33: 48 89 45 F0        mov         qword ptr [rbp-10h],rax
  0000000010006D37: 48 8B 4D F0        mov         rcx,qword ptr [rbp-10h]
  0000000010006D3B: E8 80 DA FF FF     call        00000000100047C0
  0000000010006D40: 48 8B 4D F8        mov         rcx,qword ptr [rbp-8]
  0000000010006D44: E8 A7 D6 FF FF     call        00000000100043F0
  0000000010006D49: 85 C0              test        eax,eax
  0000000010006D4B: 74 25              je          0000000010006D72
  0000000010006D4D: 48 8B 4D F0        mov         rcx,qword ptr [rbp-10h]
  0000000010006D51: E8 9A D6 FF FF     call        00000000100043F0
  0000000010006D56: 85 C0              test        eax,eax
  0000000010006D58: 74 18              je          0000000010006D72
  0000000010006D5A: 48 8B 4D E0        mov         rcx,qword ptr [rbp-20h]
  0000000010006D5E: 48 8B 55 F8        mov         rdx,qword ptr [rbp-8]
  0000000010006D62: 4C 8B 45 F0        mov         r8,qword ptr [rbp-10h]
  0000000010006D66: FF 93 A8 FD FF FF  call        qword ptr [rbx+FFFFFFFFFFFFFDA8h]
  0000000010006D6C: 48 89 45 F8        mov         qword ptr [rbp-8],rax
  0000000010006D70: EB 27              jmp         0000000010006D99
  0000000010006D72: 48 8B 4D E0        mov         rcx,qword ptr [rbp-20h]
  0000000010006D76: 48 8B 55 F8        mov         rdx,qword ptr [rbp-8]
  0000000010006D7A: 4C 8B 45 F0        mov         r8,qword ptr [rbp-10h]
  0000000010006D7E: E8 AD E2 FF FF     call        0000000010005030
  0000000010006D83: 48 89 45 F8        mov         qword ptr [rbp-8],rax
  0000000010006D87: 48 8B 45 F8        mov         rax,qword ptr [rbp-8]
  0000000010006D8B: 48 8B 8B 80 FE FF  mov         rcx,qword ptr [rbx+FFFFFFFFFFFFFE80h]
                    FF
  0000000010006D92: 48 8B 09           mov         rcx,qword ptr [rcx]
  0000000010006D95: 48 89 48 08        mov         qword ptr [rax+8],rcx
  0000000010006D99: E9 EB FD FF FF     jmp         0000000010006B89
  0000000010006D9E: 48 83 BB F8 DF FF  cmp         qword ptr [rbx+FFFFFFFFFFFFDFF8h],5
                    FF 05
  0000000010006DA6: 0F 85 80 00 00 00  jne         0000000010006E2C
  0000000010006DAC: 48 8B 4D F8        mov         rcx,qword ptr [rbp-8]
  0000000010006DB0: E8 7B DA FF FF     call        0000000010004830
  0000000010006DB5: E8 46 D2 FF FF     call        0000000010004000
  0000000010006DBA: E8 81 FA FF FF     call        0000000010006840
  0000000010006DBF: 48 89 45 F0        mov         qword ptr [rbp-10h],rax
  0000000010006DC3: 48 8B 4D F0        mov         rcx,qword ptr [rbp-10h]
  0000000010006DC7: E8 64 DA FF FF     call        0000000010004830
  0000000010006DCC: 48 8B 4D F8        mov         rcx,qword ptr [rbp-8]
  0000000010006DD0: E8 1B D6 FF FF     call        00000000100043F0
  0000000010006DD5: 85 C0              test        eax,eax
  0000000010006DD7: 74 26              je          0000000010006DFF
  0000000010006DD9: 48 8B 4D F0        mov         rcx,qword ptr [rbp-10h]
  0000000010006DDD: E8 0E D6 FF FF     call        00000000100043F0
  0000000010006DE2: 85 C0              test        eax,eax
  0000000010006DE4: 74 19              je          0000000010006DFF
  0000000010006DE6: B9 05 00 00 00     mov         ecx,5
  0000000010006DEB: 48 8B 55 F8        mov         rdx,qword ptr [rbp-8]
  0000000010006DEF: 4C 8B 45 F0        mov         r8,qword ptr [rbp-10h]
  0000000010006DF3: FF 93 A8 FD FF FF  call        qword ptr [rbx+FFFFFFFFFFFFFDA8h]
  0000000010006DF9: 48 89 45 F8        mov         qword ptr [rbp-8],rax
  0000000010006DFD: EB 28              jmp         0000000010006E27
  0000000010006DFF: B9 05 00 00 00     mov         ecx,5
  0000000010006E04: 48 8B 55 F8        mov         rdx,qword ptr [rbp-8]
  0000000010006E08: 4C 8B 45 F0        mov         r8,qword ptr [rbp-10h]
  0000000010006E0C: E8 1F E2 FF FF     call        0000000010005030
  0000000010006E11: 48 89 45 F8        mov         qword ptr [rbp-8],rax
  0000000010006E15: 48 8B 45 F8        mov         rax,qword ptr [rbp-8]
  0000000010006E19: 48 8B 8B 78 FE FF  mov         rcx,qword ptr [rbx+FFFFFFFFFFFFFE78h]
                    FF
  0000000010006E20: 48 8B 09           mov         rcx,qword ptr [rcx]
  0000000010006E23: 48 89 48 08        mov         qword ptr [rax+8],rcx
  0000000010006E27: E9 5D FD FF FF     jmp         0000000010006B89
  0000000010006E2C: 48 8B 45 F8        mov         rax,qword ptr [rbp-8]
  0000000010006E30: C9                 leave
  0000000010006E31: C3                 ret
  0000000010006E32: 90                 nop
  0000000010006E33: 90                 nop
  0000000010006E34: 90                 nop
  0000000010006E35: 90                 nop
  0000000010006E36: 90                 nop
  0000000010006E37: 90                 nop
  0000000010006E38: 90                 nop
  0000000010006E39: 90                 nop
  0000000010006E3A: 90                 nop
  0000000010006E3B: 90                 nop
  0000000010006E3C: 90                 nop
  0000000010006E3D: 90                 nop
  0000000010006E3E: 90                 nop
  0000000010006E3F: 90                 nop
  0000000010006E40: 55                 push        rbp
  0000000010006E41: 48 8B EC           mov         rbp,rsp
  0000000010006E44: 48 83 EC 40        sub         rsp,40h
  0000000010006E48: 48 C7 45 F8 00 00  mov         qword ptr [rbp-8],0
                    00 00
  0000000010006E50: 48 C7 45 F0 00 00  mov         qword ptr [rbp-10h],0
                    00 00
  0000000010006E58: 48 C7 45 E8 00 00  mov         qword ptr [rbp-18h],0
                    00 00
  0000000010006E60: 48 83 BB F8 DF FF  cmp         qword ptr [rbx+FFFFFFFFFFFFDFF8h],6
                    FF 06
  0000000010006E68: 75 10              jne         0000000010006E7A
  0000000010006E6A: E8 91 D1 FF FF     call        0000000010004000
  0000000010006E6F: E8 EC FC FF FF     call        0000000010006B60
  0000000010006E74: 48 89 45 F8        mov         qword ptr [rbp-8],rax
  0000000010006E78: EB 7B              jmp         0000000010006EF5
  0000000010006E7A: 48 83 BB F8 DF FF  cmp         qword ptr [rbx+FFFFFFFFFFFFDFF8h],7
                    FF 07
  0000000010006E82: 75 68              jne         0000000010006EEC
  0000000010006E84: E8 77 D1 FF FF     call        0000000010004000
  0000000010006E89: E8 D2 FC FF FF     call        0000000010006B60
  0000000010006E8E: 48 89 45 F8        mov         qword ptr [rbp-8],rax
  0000000010006E92: 48 8B 45 F8        mov         rax,qword ptr [rbp-8]
  0000000010006E96: 48 8B 40 08        mov         rax,qword ptr [rax+8]
  0000000010006E9A: 48 89 45 E8        mov         qword ptr [rbp-18h],rax
  0000000010006E9E: 48 8B 4D F8        mov         rcx,qword ptr [rbp-8]
  0000000010006EA2: BA 15 00 00 00     mov         edx,15h
  0000000010006EA7: E8 D4 DD FF FF     call        0000000010004C80
  0000000010006EAC: 48 8B 4D F8        mov         rcx,qword ptr [rbp-8]
  0000000010006EB0: E8 3B D5 FF FF     call        00000000100043F0
  0000000010006EB5: 85 C0              test        eax,eax
  0000000010006EB7: 74 10              je          0000000010006EC9
  0000000010006EB9: 48 8B 4D F8        mov         rcx,qword ptr [rbp-8]
  0000000010006EBD: FF 93 80 FD FF FF  call        qword ptr [rbx+FFFFFFFFFFFFFD80h]
  0000000010006EC3: 48 89 45 F8        mov         qword ptr [rbp-8],rax
  0000000010006EC7: EB 21              jmp         0000000010006EEA
  0000000010006EC9: B9 07 00 00 00     mov         ecx,7
  0000000010006ECE: 48 8B 55 F8        mov         rdx,qword ptr [rbp-8]
  0000000010006ED2: 45 31 C0           xor         r8d,r8d
  0000000010006ED5: E8 56 E1 FF FF     call        0000000010005030
  0000000010006EDA: 48 89 45 F8        mov         qword ptr [rbp-8],rax
  0000000010006EDE: 48 8B 45 F8        mov         rax,qword ptr [rbp-8]
  0000000010006EE2: 48 8B 4D E8        mov         rcx,qword ptr [rbp-18h]
  0000000010006EE6: 48 89 48 08        mov         qword ptr [rax+8],rcx
  0000000010006EEA: EB 09              jmp         0000000010006EF5
  0000000010006EEC: E8 6F FC FF FF     call        0000000010006B60
  0000000010006EF1: 48 89 45 F8        mov         qword ptr [rbp-8],rax
  0000000010006EF5: 48 83 BB F8 DF FF  cmp         qword ptr [rbx+FFFFFFFFFFFFDFF8h],6
                    FF 06
  0000000010006EFD: 74 0E              je          0000000010006F0D
  0000000010006EFF: 48 83 BB F8 DF FF  cmp         qword ptr [rbx+FFFFFFFFFFFFDFF8h],7
                    FF 07
  0000000010006F07: 0F 85 B5 00 00 00  jne         0000000010006FC2
  0000000010006F0D: 48 8B 4D F8        mov         rcx,qword ptr [rbp-8]
  0000000010006F11: BA 15 00 00 00     mov         edx,15h
  0000000010006F16: E8 65 DD FF FF     call        0000000010004C80
  0000000010006F1B: 48 8B 83 F8 DF FF  mov         rax,qword ptr [rbx+FFFFFFFFFFFFDFF8h]
                    FF
  0000000010006F22: 48 89 45 E0        mov         qword ptr [rbp-20h],rax
  0000000010006F26: E8 D5 D0 FF FF     call        0000000010004000
  0000000010006F2B: E8 30 FC FF FF     call        0000000010006B60
  0000000010006F30: 48 89 45 F0        mov         qword ptr [rbp-10h],rax
  0000000010006F34: 48 8B 4D F8        mov         rcx,qword ptr [rbp-8]
  0000000010006F38: 48 8B 49 08        mov         rcx,qword ptr [rcx+8]
  0000000010006F3C: 48 8B 55 F0        mov         rdx,qword ptr [rbp-10h]
  0000000010006F40: 48 8B 52 08        mov         rdx,qword ptr [rdx+8]
  0000000010006F44: E8 27 D7 FF FF     call        0000000010004670
  0000000010006F49: 85 C0              test        eax,eax
  0000000010006F4B: 75 11              jne         0000000010006F5E
  0000000010006F4D: 48 8D 8B 40 F5 FF  lea         rcx,[rbx+FFFFFFFFFFFFF540h]
                    FF
  0000000010006F54: BA 0D 00 00 00     mov         edx,0Dh
  0000000010006F59: E8 C2 D0 FF FF     call        0000000010004020
  0000000010006F5E: 48 8B 4D F8        mov         rcx,qword ptr [rbp-8]
  0000000010006F62: E8 89 D4 FF FF     call        00000000100043F0
  0000000010006F67: 85 C0              test        eax,eax
  0000000010006F69: 74 25              je          0000000010006F90
  0000000010006F6B: 48 8B 4D F0        mov         rcx,qword ptr [rbp-10h]
  0000000010006F6F: E8 7C D4 FF FF     call        00000000100043F0
  0000000010006F74: 85 C0              test        eax,eax
  0000000010006F76: 74 18              je          0000000010006F90
  0000000010006F78: 48 8B 4D E0        mov         rcx,qword ptr [rbp-20h]
  0000000010006F7C: 48 8B 55 F8        mov         rdx,qword ptr [rbp-8]
  0000000010006F80: 4C 8B 45 F0        mov         r8,qword ptr [rbp-10h]
  0000000010006F84: FF 93 A8 FD FF FF  call        qword ptr [rbx+FFFFFFFFFFFFFDA8h]
  0000000010006F8A: 48 89 45 F8        mov         qword ptr [rbp-8],rax
  0000000010006F8E: EB 2D              jmp         0000000010006FBD
  0000000010006F90: 48 8B 45 F8        mov         rax,qword ptr [rbp-8]
  0000000010006F94: 48 8B 40 08        mov         rax,qword ptr [rax+8]
  0000000010006F98: 48 89 45 E8        mov         qword ptr [rbp-18h],rax
  0000000010006F9C: 48 8B 4D E0        mov         rcx,qword ptr [rbp-20h]
  0000000010006FA0: 48 8B 55 F8        mov         rdx,qword ptr [rbp-8]
  0000000010006FA4: 4C 8B 45 F0        mov         r8,qword ptr [rbp-10h]
  0000000010006FA8: E8 83 E0 FF FF     call        0000000010005030
  0000000010006FAD: 48 89 45 F8        mov         qword ptr [rbp-8],rax
  0000000010006FB1: 48 8B 45 F8        mov         rax,qword ptr [rbp-8]
  0000000010006FB5: 48 8B 4D E8        mov         rcx,qword ptr [rbp-18h]
  0000000010006FB9: 48 89 48 08        mov         qword ptr [rax+8],rcx
  0000000010006FBD: E9 33 FF FF FF     jmp         0000000010006EF5
  0000000010006FC2: 48 83 BB F8 DF FF  cmp         qword ptr [rbx+FFFFFFFFFFFFDFF8h],8
                    FF 08
  0000000010006FCA: 0F 85 80 00 00 00  jne         0000000010007050
  0000000010006FD0: 48 8B 4D F8        mov         rcx,qword ptr [rbp-8]
  0000000010006FD4: E8 57 D8 FF FF     call        0000000010004830
  0000000010006FD9: E8 22 D0 FF FF     call        0000000010004000
  0000000010006FDE: E8 7D FB FF FF     call        0000000010006B60
  0000000010006FE3: 48 89 45 F0        mov         qword ptr [rbp-10h],rax
  0000000010006FE7: 48 8B 4D F0        mov         rcx,qword ptr [rbp-10h]
  0000000010006FEB: E8 40 D8 FF FF     call        0000000010004830
  0000000010006FF0: 48 8B 4D F8        mov         rcx,qword ptr [rbp-8]
  0000000010006FF4: E8 F7 D3 FF FF     call        00000000100043F0
  0000000010006FF9: 85 C0              test        eax,eax
  0000000010006FFB: 74 26              je          0000000010007023
  0000000010006FFD: 48 8B 4D F0        mov         rcx,qword ptr [rbp-10h]
  0000000010007001: E8 EA D3 FF FF     call        00000000100043F0
  0000000010007006: 85 C0              test        eax,eax
  0000000010007008: 74 19              je          0000000010007023
  000000001000700A: B9 08 00 00 00     mov         ecx,8
  000000001000700F: 48 8B 55 F8        mov         rdx,qword ptr [rbp-8]
  0000000010007013: 4C 8B 45 F0        mov         r8,qword ptr [rbp-10h]
  0000000010007017: FF 93 A8 FD FF FF  call        qword ptr [rbx+FFFFFFFFFFFFFDA8h]
  000000001000701D: 48 89 45 F8        mov         qword ptr [rbp-8],rax
  0000000010007021: EB 28              jmp         000000001000704B
  0000000010007023: B9 08 00 00 00     mov         ecx,8
  0000000010007028: 48 8B 55 F8        mov         rdx,qword ptr [rbp-8]
  000000001000702C: 4C 8B 45 F0        mov         r8,qword ptr [rbp-10h]
  0000000010007030: E8 FB DF FF FF     call        0000000010005030
  0000000010007035: 48 89 45 F8        mov         qword ptr [rbp-8],rax
  0000000010007039: 48 8B 45 F8        mov         rax,qword ptr [rbp-8]
  000000001000703D: 48 8B 8B 78 FE FF  mov         rcx,qword ptr [rbx+FFFFFFFFFFFFFE78h]
                    FF
  0000000010007044: 48 8B 09           mov         rcx,qword ptr [rcx]
  0000000010007047: 48 89 48 08        mov         qword ptr [rax+8],rcx
  000000001000704B: E9 A5 FE FF FF     jmp         0000000010006EF5
  0000000010007050: 48 8B 45 F8        mov         rax,qword ptr [rbp-8]
  0000000010007054: C9                 leave
  0000000010007055: C3                 ret
  0000000010007056: 90                 nop
  0000000010007057: 90                 nop
  0000000010007058: 90                 nop
  0000000010007059: 90                 nop
  000000001000705A: 90                 nop
  000000001000705B: 90                 nop
  000000001000705C: 90                 nop
  000000001000705D: 90                 nop
  000000001000705E: 90                 nop
  000000001000705F: 90                 nop
  0000000010007060: 55                 push        rbp
  0000000010007061: 48 8B EC           mov         rbp,rsp
  0000000010007064: 48 83 EC 40        sub         rsp,40h
  0000000010007068: 48 C7 45 F8 00 00  mov         qword ptr [rbp-8],0
                    00 00
  0000000010007070: 48 C7 45 F0 00 00  mov         qword ptr [rbp-10h],0
                    00 00
  0000000010007078: 48 C7 45 E8 00 00  mov         qword ptr [rbp-18h],0
                    00 00
  0000000010007080: E8 BB FD FF FF     call        0000000010006E40
  0000000010007085: 48 89 45 F8        mov         qword ptr [rbp-8],rax
  0000000010007089: 48 83 BB F8 DF FF  cmp         qword ptr [rbx+FFFFFFFFFFFFDFF8h],9
                    FF 09
  0000000010007091: 0F 8C CC 00 00 00  jl          0000000010007163
  0000000010007097: 48 83 BB F8 DF FF  cmp         qword ptr [rbx+FFFFFFFFFFFFDFF8h],0Eh
                    FF 0E
  000000001000709F: 0F 8F BE 00 00 00  jg          0000000010007163
  00000000100070A5: 48 8B 4D F8        mov         rcx,qword ptr [rbp-8]
  00000000100070A9: 48 8B 93 F8 DF FF  mov         rdx,qword ptr [rbx+FFFFFFFFFFFFDFF8h]
                    FF
  00000000100070B0: E8 2B DB FF FF     call        0000000010004BE0
  00000000100070B5: 48 8B 83 F8 DF FF  mov         rax,qword ptr [rbx+FFFFFFFFFFFFDFF8h]
                    FF
  00000000100070BC: 48 89 45 E0        mov         qword ptr [rbp-20h],rax
  00000000100070C0: E8 3B CF FF FF     call        0000000010004000
  00000000100070C5: E8 76 FD FF FF     call        0000000010006E40
  00000000100070CA: 48 89 45 F0        mov         qword ptr [rbp-10h],rax
  00000000100070CE: 48 8B 4D F8        mov         rcx,qword ptr [rbp-8]
  00000000100070D2: 48 8B 49 08        mov         rcx,qword ptr [rcx+8]
  00000000100070D6: 48 8B 55 F0        mov         rdx,qword ptr [rbp-10h]
  00000000100070DA: 48 8B 52 08        mov         rdx,qword ptr [rdx+8]
  00000000100070DE: E8 9D D6 FF FF     call        0000000010004780
  00000000100070E3: 85 C0              test        eax,eax
  00000000100070E5: 75 11              jne         00000000100070F8
  00000000100070E7: 48 8D 8B 60 F5 FF  lea         rcx,[rbx+FFFFFFFFFFFFF560h]
                    FF
  00000000100070EE: BA 0D 00 00 00     mov         edx,0Dh
  00000000100070F3: E8 28 CF FF FF     call        0000000010004020
  00000000100070F8: 48 8D 4D F8        lea         rcx,[rbp-8]
  00000000100070FC: 48 8D 55 F0        lea         rdx,[rbp-10h]
  0000000010007100: E8 BB DB FF FF     call        0000000010004CC0
  0000000010007105: 48 8B 4D F8        mov         rcx,qword ptr [rbp-8]
  0000000010007109: E8 E2 D2 FF FF     call        00000000100043F0
  000000001000710E: 85 C0              test        eax,eax
  0000000010007110: 74 25              je          0000000010007137
  0000000010007112: 48 8B 4D F0        mov         rcx,qword ptr [rbp-10h]
  0000000010007116: E8 D5 D2 FF FF     call        00000000100043F0
  000000001000711B: 85 C0              test        eax,eax
  000000001000711D: 74 18              je          0000000010007137
  000000001000711F: 48 8B 4D E0        mov         rcx,qword ptr [rbp-20h]
  0000000010007123: 48 8B 55 F8        mov         rdx,qword ptr [rbp-8]
  0000000010007127: 4C 8B 45 F0        mov         r8,qword ptr [rbp-10h]
  000000001000712B: FF 93 A8 FD FF FF  call        qword ptr [rbx+FFFFFFFFFFFFFDA8h]
  0000000010007131: 48 89 45 F8        mov         qword ptr [rbp-8],rax
  0000000010007135: EB 27              jmp         000000001000715E
  0000000010007137: 48 8B 4D E0        mov         rcx,qword ptr [rbp-20h]
  000000001000713B: 48 8B 55 F8        mov         rdx,qword ptr [rbp-8]
  000000001000713F: 4C 8B 45 F0        mov         r8,qword ptr [rbp-10h]
  0000000010007143: E8 E8 DE FF FF     call        0000000010005030
  0000000010007148: 48 89 45 F8        mov         qword ptr [rbp-8],rax
  000000001000714C: 48 8B 45 F8        mov         rax,qword ptr [rbp-8]
  0000000010007150: 48 8B 8B 78 FE FF  mov         rcx,qword ptr [rbx+FFFFFFFFFFFFFE78h]
                    FF
  0000000010007157: 48 8B 09           mov         rcx,qword ptr [rcx]
  000000001000715A: 48 89 48 08        mov         qword ptr [rax+8],rcx
  000000001000715E: E9 8B 01 00 00     jmp         00000000100072EE
  0000000010007163: 48 83 BB F8 DF FF  cmp         qword ptr [rbx+FFFFFFFFFFFFDFF8h],0Fh
                    FF 0F
  000000001000716B: 0F 85 89 00 00 00  jne         00000000100071FA
  0000000010007171: 48 8B 4D F8        mov         rcx,qword ptr [rbp-8]
  0000000010007175: E8 46 D6 FF FF     call        00000000100047C0
  000000001000717A: 48 8B 4D F8        mov         rcx,qword ptr [rbp-8]
  000000001000717E: FF 93 C0 FD FF FF  call        qword ptr [rbx+FFFFFFFFFFFFFDC0h]
  0000000010007184: E8 77 CE FF FF     call        0000000010004000
  0000000010007189: E8 B2 FC FF FF     call        0000000010006E40
  000000001000718E: 48 89 45 F0        mov         qword ptr [rbp-10h],rax
  0000000010007192: 48 8B 4D F0        mov         rcx,qword ptr [rbp-10h]
  0000000010007196: E8 D5 D6 FF FF     call        0000000010004870
  000000001000719B: 48 8B 4D F8        mov         rcx,qword ptr [rbp-8]
  000000001000719F: E8 4C D2 FF FF     call        00000000100043F0
  00000000100071A4: 85 C0              test        eax,eax
  00000000100071A6: 74 25              je          00000000100071CD
  00000000100071A8: 48 8B 4D F0        mov         rcx,qword ptr [rbp-10h]
  00000000100071AC: E8 3F D2 FF FF     call        00000000100043F0
  00000000100071B1: 85 C0              test        eax,eax
  00000000100071B3: 74 18              je          00000000100071CD
  00000000100071B5: 48 8B 4D E0        mov         rcx,qword ptr [rbp-20h]
  00000000100071B9: 48 8B 55 F8        mov         rdx,qword ptr [rbp-8]
  00000000100071BD: 4C 8B 45 F0        mov         r8,qword ptr [rbp-10h]
  00000000100071C1: FF 93 A8 FD FF FF  call        qword ptr [rbx+FFFFFFFFFFFFFDA8h]
  00000000100071C7: 48 89 45 F8        mov         qword ptr [rbp-8],rax
  00000000100071CB: EB 28              jmp         00000000100071F5
  00000000100071CD: B9 0F 00 00 00     mov         ecx,0Fh
  00000000100071D2: 48 8B 55 F8        mov         rdx,qword ptr [rbp-8]
  00000000100071D6: 4C 8B 45 F0        mov         r8,qword ptr [rbp-10h]
  00000000100071DA: E8 51 DE FF FF     call        0000000010005030
  00000000100071DF: 48 89 45 F8        mov         qword ptr [rbp-8],rax
  00000000100071E3: 48 8B 45 F8        mov         rax,qword ptr [rbp-8]
  00000000100071E7: 48 8B 8B 78 FE FF  mov         rcx,qword ptr [rbx+FFFFFFFFFFFFFE78h]
                    FF
  00000000100071EE: 48 8B 09           mov         rcx,qword ptr [rcx]
  00000000100071F1: 48 89 48 08        mov         qword ptr [rax+8],rcx
  00000000100071F5: E9 F4 00 00 00     jmp         00000000100072EE
  00000000100071FA: 48 83 BB F8 DF FF  cmp         qword ptr [rbx+FFFFFFFFFFFFDFF8h],10h
                    FF 10
  0000000010007202: 0F 85 E6 00 00 00  jne         00000000100072EE
  0000000010007208: 48 8B 4D F8        mov         rcx,qword ptr [rbp-8]
  000000001000720C: BA 10 00 00 00     mov         edx,10h
  0000000010007211: E8 CA D9 FF FF     call        0000000010004BE0
  0000000010007216: E8 E5 CD FF FF     call        0000000010004000
  000000001000721B: 48 83 BB F8 DF FF  cmp         qword ptr [rbx+FFFFFFFFFFFFDFF8h],1Fh
                    FF 1F
  0000000010007223: 75 0B              jne         0000000010007230
  0000000010007225: E8 26 E0 FF FF     call        0000000010005250
  000000001000722A: 48 89 45 F0        mov         qword ptr [rbp-10h],rax
  000000001000722E: EB 0A              jmp         000000001000723A
  0000000010007230: B9 1F 00 00 00     mov         ecx,1Fh
  0000000010007235: E8 E6 CF FF FF     call        0000000010004220
  000000001000723A: 48 83 7D F0 00     cmp         qword ptr [rbp-10h],0
  000000001000723F: 74 74              je          00000000100072B5
  0000000010007241: 48 8B 45 F0        mov         rax,qword ptr [rbp-10h]
  0000000010007245: 48 83 38 01        cmp         qword ptr [rax],1
  0000000010007249: 75 6A              jne         00000000100072B5
  000000001000724B: 48 8B 45 F0        mov         rax,qword ptr [rbp-10h]
  000000001000724F: 48 8B 40 08        mov         rax,qword ptr [rax+8]
  0000000010007253: 48 89 45 E8        mov         qword ptr [rbp-18h],rax
  0000000010007257: 48 8B 45 E8        mov         rax,qword ptr [rbp-18h]
  000000001000725B: 48 83 38 05        cmp         qword ptr [rax],5
  000000001000725F: 75 20              jne         0000000010007281
  0000000010007261: 48 8B 45 E8        mov         rax,qword ptr [rbp-18h]
  0000000010007265: 48 83 78 40 00     cmp         qword ptr [rax+40h],0
  000000001000726A: 74 15              je          0000000010007281
  000000001000726C: 48 8B 4D E8        mov         rcx,qword ptr [rbp-18h]
  0000000010007270: 48 8B 55 F8        mov         rdx,qword ptr [rbp-8]
  0000000010007274: 48 8B 52 08        mov         rdx,qword ptr [rdx+8]
  0000000010007278: E8 C3 D0 FF FF     call        0000000010004340
  000000001000727D: 85 C0              test        eax,eax
  000000001000727F: 75 1F              jne         00000000100072A0
  0000000010007281: 48 8B 45 E8        mov         rax,qword ptr [rbp-18h]
  0000000010007285: 48 83 38 08        cmp         qword ptr [rax],8
  0000000010007289: 75 17              jne         00000000100072A2
  000000001000728B: 48 8B 4D E8        mov         rcx,qword ptr [rbp-18h]
  000000001000728F: 48 8B 55 F8        mov         rdx,qword ptr [rbp-8]
  0000000010007293: 48 8B 52 08        mov         rdx,qword ptr [rdx+8]
  0000000010007297: E8 A4 D0 FF FF     call        0000000010004340
  000000001000729C: 85 C0              test        eax,eax
  000000001000729E: 74 02              je          00000000100072A2
  00000000100072A0: EB 11              jmp         00000000100072B3
  00000000100072A2: 48 8D 8B 80 F5 FF  lea         rcx,[rbx+FFFFFFFFFFFFF580h]
                    FF
  00000000100072A9: BA 0D 00 00 00     mov         edx,0Dh
  00000000100072AE: E8 6D CD FF FF     call        0000000010004020
  00000000100072B3: EB 11              jmp         00000000100072C6
  00000000100072B5: 48 8D 8B A0 F5 FF  lea         rcx,[rbx+FFFFFFFFFFFFF5A0h]
                    FF
  00000000100072BC: BA 09 00 00 00     mov         edx,9
  00000000100072C1: E8 5A CD FF FF     call        0000000010004020
  00000000100072C6: B9 10 00 00 00     mov         ecx,10h
  00000000100072CB: 48 8B 55 F8        mov         rdx,qword ptr [rbp-8]
  00000000100072CF: 4C 8B 45 F0        mov         r8,qword ptr [rbp-10h]
  00000000100072D3: E8 58 DD FF FF     call        0000000010005030
  00000000100072D8: 48 89 45 F8        mov         qword ptr [rbp-8],rax
  00000000100072DC: 48 8B 45 F8        mov         rax,qword ptr [rbp-8]
  00000000100072E0: 48 8B 8B 78 FE FF  mov         rcx,qword ptr [rbx+FFFFFFFFFFFFFE78h]
                    FF
  00000000100072E7: 48 8B 09           mov         rcx,qword ptr [rcx]
  00000000100072EA: 48 89 48 08        mov         qword ptr [rax+8],rcx
  00000000100072EE: 48 8B 45 F8        mov         rax,qword ptr [rbp-8]
  00000000100072F2: C9                 leave
  00000000100072F3: C3                 ret
  00000000100072F4: 90                 nop
  00000000100072F5: 90                 nop
  00000000100072F6: 90                 nop
  00000000100072F7: 90                 nop
  00000000100072F8: 90                 nop
  00000000100072F9: 90                 nop
  00000000100072FA: 90                 nop
  00000000100072FB: 90                 nop
  00000000100072FC: 90                 nop
  00000000100072FD: 90                 nop
  00000000100072FE: 90                 nop
  00000000100072FF: 90                 nop
  0000000010007300: 55                 push        rbp
  0000000010007301: 48 8B EC           mov         rbp,rsp
  0000000010007304: 48 83 EC 30        sub         rsp,30h
  0000000010007308: 48 C7 45 F8 00 00  mov         qword ptr [rbp-8],0
                    00 00
  0000000010007310: E8 4B FD FF FF     call        0000000010007060
  0000000010007315: 48 89 45 F8        mov         qword ptr [rbp-8],rax
  0000000010007319: 48 8B 4D F8        mov         rcx,qword ptr [rbp-8]
  000000001000731D: E8 CE D0 FF FF     call        00000000100043F0
  0000000010007322: 85 C0              test        eax,eax
  0000000010007324: 74 02              je          0000000010007328
  0000000010007326: EB 27              jmp         000000001000734F
  0000000010007328: 48 8D 8B C0 F5 FF  lea         rcx,[rbx+FFFFFFFFFFFFF5C0h]
                    FF
  000000001000732F: BA 0A 00 00 00     mov         edx,0Ah
  0000000010007334: E8 E7 CC FF FF     call        0000000010004020
  0000000010007339: 48 8B 8B 80 FE FF  mov         rcx,qword ptr [rbx+FFFFFFFFFFFFFE80h]
                    FF
  0000000010007340: 48 8B 09           mov         rcx,qword ptr [rcx]
  0000000010007343: 31 D2              xor         edx,edx
  0000000010007345: FF 93 50 FE FF FF  call        qword ptr [rbx+FFFFFFFFFFFFFE50h]
  000000001000734B: 48 89 45 F8        mov         qword ptr [rbp-8],rax
  000000001000734F: 48 8B 45 F8        mov         rax,qword ptr [rbp-8]
  0000000010007353: C9                 leave
  0000000010007354: C3                 ret
  0000000010007355: 90                 nop
  0000000010007356: 90                 nop
  0000000010007357: 90                 nop
  0000000010007358: 90                 nop
  0000000010007359: 90                 nop
  000000001000735A: 90                 nop
  000000001000735B: 90                 nop
  000000001000735C: 90                 nop
  000000001000735D: 90                 nop
  000000001000735E: 90                 nop
  000000001000735F: 90                 nop
  0000000010007360: 55                 push        rbp
  0000000010007361: 48 8B EC           mov         rbp,rsp
  0000000010007364: 48 83 EC 70        sub         rsp,70h
  0000000010007368: 48 89 75 B0        mov         qword ptr [rbp-50h],rsi
  000000001000736C: 48 89 7D B8        mov         qword ptr [rbp-48h],rdi
  0000000010007370: 4C 89 65 C0        mov         qword ptr [rbp-40h],r12
  0000000010007374: 4C 89 6D C8        mov         qword ptr [rbp-38h],r13
  0000000010007378: 4C 89 75 D0        mov         qword ptr [rbp-30h],r14
  000000001000737C: 4C 89 7D D8        mov         qword ptr [rbp-28h],r15
  0000000010007380: 48 89 4D 10        mov         qword ptr [rbp+10h],rcx
  0000000010007384: 48 C7 45 F8 00 00  mov         qword ptr [rbp-8],0
                    00 00
  000000001000738C: 48 C7 45 F0 00 00  mov         qword ptr [rbp-10h],0
                    00 00
  0000000010007394: 48 C7 45 E8 00 00  mov         qword ptr [rbp-18h],0
                    00 00
  000000001000739C: 48 C7 45 E0 00 00  mov         qword ptr [rbp-20h],0
                    00 00
  00000000100073A4: B9 1C 00 00 00     mov         ecx,1Ch
  00000000100073A9: E8 92 CC FF FF     call        0000000010004040
  00000000100073AE: 48 8B 45 10        mov         rax,qword ptr [rbp+10h]
  00000000100073B2: 48 81 78 28 82 00  cmp         qword ptr [rax+28h],82h
                    00 00
  00000000100073BA: 74 0E              je          00000000100073CA
  00000000100073BC: 48 8B 45 10        mov         rax,qword ptr [rbp+10h]
  00000000100073C0: 48 81 78 28 83 00  cmp         qword ptr [rax+28h],83h
                    00 00
  00000000100073C8: 75 76              jne         0000000010007440
  00000000100073CA: E8 81 E3 FF FF     call        0000000010005750
  00000000100073CF: 48 89 45 F8        mov         qword ptr [rbp-8],rax
  00000000100073D3: 48 8B 4D F8        mov         rcx,qword ptr [rbp-8]
  00000000100073D7: E8 E4 D3 FF FF     call        00000000100047C0
  00000000100073DC: 48 8B 4D F8        mov         rcx,qword ptr [rbp-8]
  00000000100073E0: 31 D2              xor         edx,edx
  00000000100073E2: E8 49 D5 FF FF     call        0000000010004930
  00000000100073E7: 48 83 BB F8 DF FF  cmp         qword ptr [rbx+FFFFFFFFFFFFDFF8h],28h
                    FF 28
  00000000100073EF: 75 32              jne         0000000010007423
  00000000100073F1: E8 0A CC FF FF     call        0000000010004000
  00000000100073F6: E8 65 FC FF FF     call        0000000010007060
  00000000100073FB: 48 89 45 F0        mov         qword ptr [rbp-10h],rax
  00000000100073FF: 48 8B 4D F0        mov         rcx,qword ptr [rbp-10h]
  0000000010007403: E8 B8 D3 FF FF     call        00000000100047C0
  0000000010007408: 48 8B 4D 10        mov         rcx,qword ptr [rbp+10h]
  000000001000740C: 48 8B 49 28        mov         rcx,qword ptr [rcx+28h]
  0000000010007410: 48 8B 55 F8        mov         rdx,qword ptr [rbp-8]
  0000000010007414: 4C 8B 45 F0        mov         r8,qword ptr [rbp-10h]
  0000000010007418: E8 13 DC FF FF     call        0000000010005030
  000000001000741D: 48 89 45 F8        mov         qword ptr [rbp-8],rax
  0000000010007421: EB 18              jmp         000000001000743B
  0000000010007423: 48 8B 4D 10        mov         rcx,qword ptr [rbp+10h]
  0000000010007427: 48 8B 49 28        mov         rcx,qword ptr [rcx+28h]
  000000001000742B: 48 8B 55 F8        mov         rdx,qword ptr [rbp-8]
  000000001000742F: 45 31 C0           xor         r8d,r8d
  0000000010007432: E8 F9 DB FF FF     call        0000000010005030
  0000000010007437: 48 89 45 F8        mov         qword ptr [rbp-8],rax
  000000001000743B: E9 31 06 00 00     jmp         0000000010007A71
  0000000010007440: 48 8B 45 10        mov         rax,qword ptr [rbp+10h]
  0000000010007444: 48 81 78 28 84 00  cmp         qword ptr [rax+28h],84h
                    00 00
  000000001000744C: 74 0E              je          000000001000745C
  000000001000744E: 48 8B 45 10        mov         rax,qword ptr [rbp+10h]
  0000000010007452: 48 81 78 28 85 00  cmp         qword ptr [rax+28h],85h
                    00 00
  000000001000745A: 75 57              jne         00000000100074B3
  000000001000745C: E8 EF E2 FF FF     call        0000000010005750
  0000000010007461: 48 89 45 F8        mov         qword ptr [rbp-8],rax
  0000000010007465: 48 8B 4D F8        mov         rcx,qword ptr [rbp-8]
  0000000010007469: E8 02 D4 FF FF     call        0000000010004870
  000000001000746E: 48 8B 4D F8        mov         rcx,qword ptr [rbp-8]
  0000000010007472: 31 D2              xor         edx,edx
  0000000010007474: E8 B7 D4 FF FF     call        0000000010004930
  0000000010007479: B9 28 00 00 00     mov         ecx,28h
  000000001000747E: E8 BD CB FF FF     call        0000000010004040
  0000000010007483: E8 D8 FB FF FF     call        0000000010007060
  0000000010007488: 48 89 45 F0        mov         qword ptr [rbp-10h],rax
  000000001000748C: 48 8B 4D F0        mov         rcx,qword ptr [rbp-10h]
  0000000010007490: E8 2B D3 FF FF     call        00000000100047C0
  0000000010007495: 48 8B 4D 10        mov         rcx,qword ptr [rbp+10h]
  0000000010007499: 48 8B 49 28        mov         rcx,qword ptr [rcx+28h]
  000000001000749D: 48 8B 55 F8        mov         rdx,qword ptr [rbp-8]
  00000000100074A1: 4C 8B 45 F0        mov         r8,qword ptr [rbp-10h]
  00000000100074A5: E8 86 DB FF FF     call        0000000010005030
  00000000100074AA: 48 89 45 F8        mov         qword ptr [rbp-8],rax
  00000000100074AE: E9 BE 05 00 00     jmp         0000000010007A71
  00000000100074B3: 48 8B 45 10        mov         rax,qword ptr [rbp+10h]
  00000000100074B7: 48 83 78 28 04     cmp         qword ptr [rax+28h],4
  00000000100074BC: 0F 85 D4 00 00 00  jne         0000000010007596
  00000000100074C2: E8 89 E2 FF FF     call        0000000010005750
  00000000100074C7: 48 89 45 F8        mov         qword ptr [rbp-8],rax
  00000000100074CB: 48 8B 4D F8        mov         rcx,qword ptr [rbp-8]
  00000000100074CF: BA 20 00 00 00     mov         edx,20h
  00000000100074D4: E8 A7 D7 FF FF     call        0000000010004C80
  00000000100074D9: 48 8B 4D F8        mov         rcx,qword ptr [rbp-8]
  00000000100074DD: 31 D2              xor         edx,edx
  00000000100074DF: E8 4C D4 FF FF     call        0000000010004930
  00000000100074E4: 48 8B 45 F8        mov         rax,qword ptr [rbp-8]
  00000000100074E8: 48 8B 40 08        mov         rax,qword ptr [rax+8]
  00000000100074EC: 48 8B 40 40        mov         rax,qword ptr [rax+40h]
  00000000100074F0: 48 83 78 30 FF     cmp         qword ptr [rax+30h],0FFFFFFFFFFFFFFFFh
  00000000100074F5: 0F 8D 81 00 00 00  jge         000000001000757C
  00000000100074FB: 48 8B 45 F8        mov         rax,qword ptr [rbp-8]
  00000000100074FF: 48 8B 40 08        mov         rax,qword ptr [rax+8]
  0000000010007503: 48 8B 40 40        mov         rax,qword ptr [rax+40h]
  0000000010007507: 48 83 78 28 00     cmp         qword ptr [rax+28h],0
  000000001000750C: 75 6E              jne         000000001000757C
  000000001000750E: 48 8B 45 F8        mov         rax,qword ptr [rbp-8]
  0000000010007512: 48 8B 40 08        mov         rax,qword ptr [rax+8]
  0000000010007516: 48 8B 40 40        mov         rax,qword ptr [rax+40h]
  000000001000751A: 48 8B 40 60        mov         rax,qword ptr [rax+60h]
  000000001000751E: 48 89 45 E0        mov         qword ptr [rbp-20h],rax
  0000000010007522: 48 83 7D E0 00     cmp         qword ptr [rbp-20h],0
  0000000010007527: 75 10              jne         0000000010007539
  0000000010007529: 48 8B 45 F8        mov         rax,qword ptr [rbp-8]
  000000001000752D: 48 8B 40 08        mov         rax,qword ptr [rax+8]
  0000000010007531: 48 8B 40 60        mov         rax,qword ptr [rax+60h]
  0000000010007535: 48 89 45 E0        mov         qword ptr [rbp-20h],rax
  0000000010007539: 48 83 7D E0 00     cmp         qword ptr [rbp-20h],0
  000000001000753E: 75 16              jne         0000000010007556
  0000000010007540: 48 8B 4D F8        mov         rcx,qword ptr [rbp-8]
  0000000010007544: 48 8B 49 08        mov         rcx,qword ptr [rcx+8]
  0000000010007548: 48 8B 49 40        mov         rcx,qword ptr [rcx+40h]
  000000001000754C: FF 93 78 FD FF FF  call        qword ptr [rbx+FFFFFFFFFFFFFD78h]
  0000000010007552: 48 89 45 E0        mov         qword ptr [rbp-20h],rax
  0000000010007556: 48 8B 75 E0        mov         rsi,qword ptr [rbp-20h]
  000000001000755A: 48 8B 4D F8        mov         rcx,qword ptr [rbp-8]
  000000001000755E: 48 8B 49 08        mov         rcx,qword ptr [rcx+8]
  0000000010007562: 48 8B 49 40        mov         rcx,qword ptr [rcx+40h]
  0000000010007566: 48 8B 49 30        mov         rcx,qword ptr [rcx+30h]
  000000001000756A: FF 93 70 FD FF FF  call        qword ptr [rbx+FFFFFFFFFFFFFD70h]
  0000000010007570: 48 8B D0           mov         rdx,rax
  0000000010007573: 48 8B CE           mov         rcx,rsi
  0000000010007576: FF 93 08 FE FF FF  call        qword ptr [rbx+FFFFFFFFFFFFFE08h]
  000000001000757C: B9 86 00 00 00     mov         ecx,86h
  0000000010007581: 48 8B 55 F8        mov         rdx,qword ptr [rbp-8]
  0000000010007585: 45 31 C0           xor         r8d,r8d
  0000000010007588: E8 A3 DA FF FF     call        0000000010005030
  000000001000758D: 48 89 45 F8        mov         qword ptr [rbp-8],rax
  0000000010007591: E9 DB 04 00 00     jmp         0000000010007A71
  0000000010007596: 48 8B 45 10        mov         rax,qword ptr [rbp+10h]
  000000001000759A: 48 83 78 28 05     cmp         qword ptr [rax+28h],5
  000000001000759F: 75 2C              jne         00000000100075CD
  00000000100075A1: E8 BA FA FF FF     call        0000000010007060
  00000000100075A6: 48 89 45 F8        mov         qword ptr [rbp-8],rax
  00000000100075AA: 48 8B 4D F8        mov         rcx,qword ptr [rbp-8]
  00000000100075AE: E8 7D D2 FF FF     call        0000000010004830
  00000000100075B3: B9 87 00 00 00     mov         ecx,87h
  00000000100075B8: 48 8B 55 F8        mov         rdx,qword ptr [rbp-8]
  00000000100075BC: 45 31 C0           xor         r8d,r8d
  00000000100075BF: E8 6C DA FF FF     call        0000000010005030
  00000000100075C4: 48 89 45 F8        mov         qword ptr [rbp-8],rax
  00000000100075C8: E9 A4 04 00 00     jmp         0000000010007A71
  00000000100075CD: 48 8B 45 10        mov         rax,qword ptr [rbp+10h]
  00000000100075D1: 48 83 78 28 06     cmp         qword ptr [rax+28h],6
  00000000100075D6: 75 54              jne         000000001000762C
  00000000100075D8: E8 73 E1 FF FF     call        0000000010005750
  00000000100075DD: 48 89 45 F8        mov         qword ptr [rbp-8],rax
  00000000100075E1: 48 8B 4D F8        mov         rcx,qword ptr [rbp-8]
  00000000100075E5: E8 C6 D2 FF FF     call        00000000100048B0
  00000000100075EA: 48 8B 4D F8        mov         rcx,qword ptr [rbp-8]
  00000000100075EE: 31 D2              xor         edx,edx
  00000000100075F0: E8 3B D3 FF FF     call        0000000010004930
  00000000100075F5: B9 28 00 00 00     mov         ecx,28h
  00000000100075FA: E8 41 CA FF FF     call        0000000010004040
  00000000100075FF: E8 5C FA FF FF     call        0000000010007060
  0000000010007604: 48 89 45 F0        mov         qword ptr [rbp-10h],rax
  0000000010007608: 48 8B 4D F0        mov         rcx,qword ptr [rbp-10h]
  000000001000760C: E8 AF D1 FF FF     call        00000000100047C0
  0000000010007611: B9 88 00 00 00     mov         ecx,88h
  0000000010007616: 48 8B 55 F8        mov         rdx,qword ptr [rbp-8]
  000000001000761A: 4C 8B 45 F0        mov         r8,qword ptr [rbp-10h]
  000000001000761E: E8 0D DA FF FF     call        0000000010005030
  0000000010007623: 48 89 45 F8        mov         qword ptr [rbp-8],rax
  0000000010007627: E9 45 04 00 00     jmp         0000000010007A71
  000000001000762C: 48 8B 45 10        mov         rax,qword ptr [rbp+10h]
  0000000010007630: 48 83 78 28 07     cmp         qword ptr [rax+28h],7
  0000000010007635: 75 5F              jne         0000000010007696
  0000000010007637: E8 14 E1 FF FF     call        0000000010005750
  000000001000763C: 48 89 45 F8        mov         qword ptr [rbp-8],rax
  0000000010007640: 48 8B 4D F8        mov         rcx,qword ptr [rbp-8]
  0000000010007644: E8 77 D1 FF FF     call        00000000100047C0
  0000000010007649: 48 8B 4D F8        mov         rcx,qword ptr [rbp-8]
  000000001000764D: 31 D2              xor         edx,edx
  000000001000764F: E8 DC D2 FF FF     call        0000000010004930
  0000000010007654: B9 28 00 00 00     mov         ecx,28h
  0000000010007659: E8 E2 C9 FF FF     call        0000000010004040
  000000001000765E: E8 ED E0 FF FF     call        0000000010005750
  0000000010007663: 48 89 45 F0        mov         qword ptr [rbp-10h],rax
  0000000010007667: 48 8B 4D F0        mov         rcx,qword ptr [rbp-10h]
  000000001000766B: E8 50 D1 FF FF     call        00000000100047C0
  0000000010007670: 48 8B 4D F0        mov         rcx,qword ptr [rbp-10h]
  0000000010007674: 31 D2              xor         edx,edx
  0000000010007676: E8 B5 D2 FF FF     call        0000000010004930
  000000001000767B: B9 89 00 00 00     mov         ecx,89h
  0000000010007680: 48 8B 55 F8        mov         rdx,qword ptr [rbp-8]
  0000000010007684: 4C 8B 45 F0        mov         r8,qword ptr [rbp-10h]
  0000000010007688: E8 A3 D9 FF FF     call        0000000010005030
  000000001000768D: 48 89 45 F8        mov         qword ptr [rbp-8],rax
  0000000010007691: E9 DB 03 00 00     jmp         0000000010007A71
  0000000010007696: 48 8B 45 10        mov         rax,qword ptr [rbp+10h]
  000000001000769A: 48 83 78 28 12     cmp         qword ptr [rax+28h],12h
  000000001000769F: 75 72              jne         0000000010007713
  00000000100076A1: E8 BA F9 FF FF     call        0000000010007060
  00000000100076A6: 48 89 45 F8        mov         qword ptr [rbp-8],rax
  00000000100076AA: 48 8B 4D F8        mov         rcx,qword ptr [rbp-8]
  00000000100076AE: E8 0D D1 FF FF     call        00000000100047C0
  00000000100076B3: B9 28 00 00 00     mov         ecx,28h
  00000000100076B8: E8 83 C9 FF FF     call        0000000010004040
  00000000100076BD: E8 8E E0 FF FF     call        0000000010005750
  00000000100076C2: 48 89 45 F0        mov         qword ptr [rbp-10h],rax
  00000000100076C6: 48 8B 4D F0        mov         rcx,qword ptr [rbp-10h]
  00000000100076CA: 31 D2              xor         edx,edx
  00000000100076CC: E8 5F D2 FF FF     call        0000000010004930
  00000000100076D1: B9 8A 00 00 00     mov         ecx,8Ah
  00000000100076D6: 48 8B 55 F8        mov         rdx,qword ptr [rbp-8]
  00000000100076DA: 4C 8B 45 F0        mov         r8,qword ptr [rbp-10h]
  00000000100076DE: E8 4D D9 FF FF     call        0000000010005030
  00000000100076E3: 48 89 45 F8        mov         qword ptr [rbp-8],rax
  00000000100076E7: 48 8B 45 F0        mov         rax,qword ptr [rbp-10h]
  00000000100076EB: 48 8B 40 08        mov         rax,qword ptr [rax+8]
  00000000100076EF: 48 8B 00           mov         rax,qword ptr [rax]
  00000000100076F2: B9 80 01 00 00     mov         ecx,180h
  00000000100076F7: 48 0F A3 C1        bt          rcx,rax
  00000000100076FB: 73 11              jae         000000001000770E
  00000000100076FD: 48 8D 8B E0 F5 FF  lea         rcx,[rbx+FFFFFFFFFFFFF5E0h]
                    FF
  0000000010007704: BA 0D 00 00 00     mov         edx,0Dh
  0000000010007709: E8 12 C9 FF FF     call        0000000010004020
  000000001000770E: E9 5E 03 00 00     jmp         0000000010007A71
  0000000010007713: 48 8B 45 10        mov         rax,qword ptr [rbp+10h]
  0000000010007717: 48 83 78 28 13     cmp         qword ptr [rax+28h],13h
  000000001000771C: 75 67              jne         0000000010007785
  000000001000771E: E8 3D F9 FF FF     call        0000000010007060
  0000000010007723: 48 89 45 F8        mov         qword ptr [rbp-8],rax
  0000000010007727: 48 8B 4D F8        mov         rcx,qword ptr [rbp-8]
  000000001000772B: E8 90 D0 FF FF     call        00000000100047C0
  0000000010007730: B9 28 00 00 00     mov         ecx,28h
  0000000010007735: E8 06 C9 FF FF     call        0000000010004040
  000000001000773A: E8 21 F9 FF FF     call        0000000010007060
  000000001000773F: 48 89 45 F0        mov         qword ptr [rbp-10h],rax
  0000000010007743: B9 8B 00 00 00     mov         ecx,8Bh
  0000000010007748: 48 8B 55 F8        mov         rdx,qword ptr [rbp-8]
  000000001000774C: 4C 8B 45 F0        mov         r8,qword ptr [rbp-10h]
  0000000010007750: E8 DB D8 FF FF     call        0000000010005030
  0000000010007755: 48 89 45 F8        mov         qword ptr [rbp-8],rax
  0000000010007759: 48 8B 45 F0        mov         rax,qword ptr [rbp-10h]
  000000001000775D: 48 8B 40 08        mov         rax,qword ptr [rax+8]
  0000000010007761: 48 8B 00           mov         rax,qword ptr [rax]
  0000000010007764: B9 80 01 00 00     mov         ecx,180h
  0000000010007769: 48 0F A3 C1        bt          rcx,rax
  000000001000776D: 73 11              jae         0000000010007780
  000000001000776F: 48 8D 8B 00 F6 FF  lea         rcx,[rbx+FFFFFFFFFFFFF600h]
                    FF
  0000000010007776: BA 0D 00 00 00     mov         edx,0Dh
  000000001000777B: E8 A0 C8 FF FF     call        0000000010004020
  0000000010007780: E9 EC 02 00 00     jmp         0000000010007A71
  0000000010007785: 48 8B 45 10        mov         rax,qword ptr [rbp+10h]
  0000000010007789: 48 83 78 28 14     cmp         qword ptr [rax+28h],14h
  000000001000778E: 75 79              jne         0000000010007809
  0000000010007790: E8 CB F8 FF FF     call        0000000010007060
  0000000010007795: 48 89 45 F8        mov         qword ptr [rbp-8],rax
  0000000010007799: 48 8B 4D F8        mov         rcx,qword ptr [rbp-8]
  000000001000779D: E8 1E D0 FF FF     call        00000000100047C0
  00000000100077A2: B9 28 00 00 00     mov         ecx,28h
  00000000100077A7: E8 94 C8 FF FF     call        0000000010004040
  00000000100077AC: E8 AF F8 FF FF     call        0000000010007060
  00000000100077B1: 48 89 45 F0        mov         qword ptr [rbp-10h],rax
  00000000100077B5: 48 8B 4D F0        mov         rcx,qword ptr [rbp-10h]
  00000000100077B9: E8 02 D0 FF FF     call        00000000100047C0
  00000000100077BE: B9 28 00 00 00     mov         ecx,28h
  00000000100077C3: E8 78 C8 FF FF     call        0000000010004040
  00000000100077C8: E8 93 F8 FF FF     call        0000000010007060
  00000000100077CD: 48 89 45 E8        mov         qword ptr [rbp-18h],rax
  00000000100077D1: 48 8B 4D E8        mov         rcx,qword ptr [rbp-18h]
  00000000100077D5: E8 E6 CF FF FF     call        00000000100047C0
  00000000100077DA: BE 8C 00 00 00     mov         esi,8Ch
  00000000100077DF: 48 8B 7D F8        mov         rdi,qword ptr [rbp-8]
  00000000100077E3: 31 C9              xor         ecx,ecx
  00000000100077E5: 48 8B 55 F0        mov         rdx,qword ptr [rbp-10h]
  00000000100077E9: 4C 8B 45 E8        mov         r8,qword ptr [rbp-18h]
  00000000100077ED: E8 3E D8 FF FF     call        0000000010005030
  00000000100077F2: 4C 8B C0           mov         r8,rax
  00000000100077F5: 48 8B D7           mov         rdx,rdi
  00000000100077F8: 48 8B CE           mov         rcx,rsi
  00000000100077FB: E8 30 D8 FF FF     call        0000000010005030
  0000000010007800: 48 89 45 F8        mov         qword ptr [rbp-8],rax
  0000000010007804: E9 68 02 00 00     jmp         0000000010007A71
  0000000010007809: 48 8B 45 10        mov         rax,qword ptr [rbp+10h]
  000000001000780D: 48 83 78 28 15     cmp         qword ptr [rax+28h],15h
  0000000010007812: 0F 85 F7 00 00 00  jne         000000001000790F
  0000000010007818: E8 33 DF FF FF     call        0000000010005750
  000000001000781D: 48 89 45 F8        mov         qword ptr [rbp-8],rax
  0000000010007821: 48 8B 4D F8        mov         rcx,qword ptr [rbp-8]
  0000000010007825: 31 D2              xor         edx,edx
  0000000010007827: E8 04 D1 FF FF     call        0000000010004930
  000000001000782C: 48 8B 45 F8        mov         rax,qword ptr [rbp-8]
  0000000010007830: 48 8B 40 08        mov         rax,qword ptr [rax+8]
  0000000010007834: 48 8B 8B 80 FE FF  mov         rcx,qword ptr [rbx+FFFFFFFFFFFFFE80h]
                    FF
  000000001000783B: 48 8B 09           mov         rcx,qword ptr [rcx]
  000000001000783E: 48 3B C1           cmp         rax,rcx
  0000000010007841: 74 11              je          0000000010007854
  0000000010007843: 48 8D 8B 20 F6 FF  lea         rcx,[rbx+FFFFFFFFFFFFF620h]
                    FF
  000000001000784A: BA 0C 00 00 00     mov         edx,0Ch
  000000001000784F: E8 CC C7 FF FF     call        0000000010004020
  0000000010007854: B9 28 00 00 00     mov         ecx,28h
  0000000010007859: E8 E2 C7 FF FF     call        0000000010004040
  000000001000785E: E8 FD F7 FF FF     call        0000000010007060
  0000000010007863: 48 89 45 F0        mov         qword ptr [rbp-10h],rax
  0000000010007867: 48 8B 4D F0        mov         rcx,qword ptr [rbp-10h]
  000000001000786B: 48 8B 49 08        mov         rcx,qword ptr [rcx+8]
  000000001000786F: FF 93 68 FD FF FF  call        qword ptr [rbx+FFFFFFFFFFFFFD68h]
  0000000010007875: 85 C0              test        eax,eax
  0000000010007877: 75 11              jne         000000001000788A
  0000000010007879: 48 8D 8B 40 F6 FF  lea         rcx,[rbx+FFFFFFFFFFFFF640h]
                    FF
  0000000010007880: BA 0B 00 00 00     mov         edx,0Bh
  0000000010007885: E8 96 C7 FF FF     call        0000000010004020
  000000001000788A: BE 2A 00 00 00     mov         esi,2Ah
  000000001000788F: 48 8B 7D F8        mov         rdi,qword ptr [rbp-8]
  0000000010007893: 41 BC 64 00 00 00  mov         r12d,64h
  0000000010007899: 4C 8B AB 60 FD FF  mov         r13,qword ptr [rbx+FFFFFFFFFFFFFD60h]
                    FF
  00000000100078A0: 4D 8B 6D 00        mov         r13,qword ptr [r13]
  00000000100078A4: B9 65 00 00 00     mov         ecx,65h
  00000000100078A9: 48 8B 55 F0        mov         rdx,qword ptr [rbp-10h]
  00000000100078AD: 45 31 C0           xor         r8d,r8d
  00000000100078B0: E8 7B D7 FF FF     call        0000000010005030
  00000000100078B5: 4C 8B C0           mov         r8,rax
  00000000100078B8: 49 8B D5           mov         rdx,r13
  00000000100078BB: 49 8B CC           mov         rcx,r12
  00000000100078BE: E8 6D D7 FF FF     call        0000000010005030
  00000000100078C3: 4C 8B C0           mov         r8,rax
  00000000100078C6: 48 8B D7           mov         rdx,rdi
  00000000100078C9: 48 8B CE           mov         rcx,rsi
  00000000100078CC: E8 5F D7 FF FF     call        0000000010005030
  00000000100078D1: 48 89 45 F8        mov         qword ptr [rbp-8],rax
  00000000100078D5: 48 8B 83 C0 FE FF  mov         rax,qword ptr [rbx+FFFFFFFFFFFFFEC0h]
                    FF
  00000000100078DC: 48 8B 4D F8        mov         rcx,qword ptr [rbp-8]
  00000000100078E0: 48 8B 49 F8        mov         rcx,qword ptr [rcx-8]
  00000000100078E4: 48 39 41 08        cmp         qword ptr [rcx+8],rax
  00000000100078E8: 75 02              jne         00000000100078EC
  00000000100078EA: EB 08              jmp         00000000100078F4
  00000000100078EC: B0 02              mov         al,2
  00000000100078EE: B9 24 5D 00 00     mov         ecx,5D24h
  00000000100078F3: CC                 int         3
  00000000100078F4: 48 8B 45 F8        mov         rax,qword ptr [rbp-8]
  00000000100078F8: 48 8B 40 38        mov         rax,qword ptr [rax+38h]
  00000000100078FC: 48 8B 8B 80 FE FF  mov         rcx,qword ptr [rbx+FFFFFFFFFFFFFE80h]
                    FF
  0000000010007903: 48 8B 09           mov         rcx,qword ptr [rcx]
  0000000010007906: 48 89 48 08        mov         qword ptr [rax+8],rcx
  000000001000790A: E9 62 01 00 00     jmp         0000000010007A71
  000000001000790F: 48 8B 45 10        mov         rax,qword ptr [rbp+10h]
  0000000010007913: 48 83 78 28 16     cmp         qword ptr [rax+28h],16h
  0000000010007918: 0F 85 1C 01 00 00  jne         0000000010007A3A
  000000001000791E: E8 2D DE FF FF     call        0000000010005750
  0000000010007923: 48 89 45 F8        mov         qword ptr [rbp-8],rax
  0000000010007927: 48 8B 4D F8        mov         rcx,qword ptr [rbp-8]
  000000001000792B: 31 D2              xor         edx,edx
  000000001000792D: E8 FE CF FF FF     call        0000000010004930
  0000000010007932: 48 8B 45 F8        mov         rax,qword ptr [rbp-8]
  0000000010007936: 48 8B 40 08        mov         rax,qword ptr [rax+8]
  000000001000793A: 48 83 38 06        cmp         qword ptr [rax],6
  000000001000793E: 74 28              je          0000000010007968
  0000000010007940: 48 8B 45 F8        mov         rax,qword ptr [rbp-8]
  0000000010007944: 48 8B 40 08        mov         rax,qword ptr [rax+8]
  0000000010007948: 48 8B 8B 80 FE FF  mov         rcx,qword ptr [rbx+FFFFFFFFFFFFFE80h]
                    FF
  000000001000794F: 48 8B 09           mov         rcx,qword ptr [rcx]
  0000000010007952: 48 3B C1           cmp         rax,rcx
  0000000010007955: 74 11              je          0000000010007968
  0000000010007957: 48 8D 8B 60 F6 FF  lea         rcx,[rbx+FFFFFFFFFFFFF660h]
                    FF
  000000001000795E: BA 22 00 00 00     mov         edx,22h
  0000000010007963: E8 B8 C6 FF FF     call        0000000010004020
  0000000010007968: B9 28 00 00 00     mov         ecx,28h
  000000001000796D: E8 CE C6 FF FF     call        0000000010004040
  0000000010007972: E8 E9 F6 FF FF     call        0000000010007060
  0000000010007977: 48 89 45 F0        mov         qword ptr [rbp-10h],rax
  000000001000797B: 48 8B 4D F0        mov         rcx,qword ptr [rbp-10h]
  000000001000797F: E8 3C CE FF FF     call        00000000100047C0
  0000000010007984: B9 28 00 00 00     mov         ecx,28h
  0000000010007989: E8 B2 C6 FF FF     call        0000000010004040
  000000001000798E: E8 CD F6 FF FF     call        0000000010007060
  0000000010007993: 48 89 45 E8        mov         qword ptr [rbp-18h],rax
  0000000010007997: 48 8B 4D E8        mov         rcx,qword ptr [rbp-18h]
  000000001000799B: E8 20 CE FF FF     call        00000000100047C0
  00000000100079A0: BE 2A 00 00 00     mov         esi,2Ah
  00000000100079A5: 48 8B 7D F8        mov         rdi,qword ptr [rbp-8]
  00000000100079A9: 41 BC 64 00 00 00  mov         r12d,64h
  00000000100079AF: 4C 8B AB 58 FD FF  mov         r13,qword ptr [rbx+FFFFFFFFFFFFFD58h]
                    FF
  00000000100079B6: 4D 8B 6D 00        mov         r13,qword ptr [r13]
  00000000100079BA: 41 BE 65 00 00 00  mov         r14d,65h
  00000000100079C0: 4C 8B 7D F0        mov         r15,qword ptr [rbp-10h]
  00000000100079C4: B9 65 00 00 00     mov         ecx,65h
  00000000100079C9: 48 8B 55 E8        mov         rdx,qword ptr [rbp-18h]
  00000000100079CD: 45 31 C0           xor         r8d,r8d
  00000000100079D0: E8 5B D6 FF FF     call        0000000010005030
  00000000100079D5: 4C 8B C0           mov         r8,rax
  00000000100079D8: 49 8B D7           mov         rdx,r15
  00000000100079DB: 49 8B CE           mov         rcx,r14
  00000000100079DE: E8 4D D6 FF FF     call        0000000010005030
  00000000100079E3: 4C 8B C0           mov         r8,rax
  00000000100079E6: 49 8B D5           mov         rdx,r13
  00000000100079E9: 49 8B CC           mov         rcx,r12
  00000000100079EC: E8 3F D6 FF FF     call        0000000010005030
  00000000100079F1: 4C 8B C0           mov         r8,rax
  00000000100079F4: 48 8B D7           mov         rdx,rdi
  00000000100079F7: 48 8B CE           mov         rcx,rsi
  00000000100079FA: E8 31 D6 FF FF     call        0000000010005030
  00000000100079FF: 48 89 45 F8        mov         qword ptr [rbp-8],rax
  0000000010007A03: 48 8B 83 C0 FE FF  mov         rax,qword ptr [rbx+FFFFFFFFFFFFFEC0h]
                    FF
  0000000010007A0A: 48 8B 4D F8        mov         rcx,qword ptr [rbp-8]
  0000000010007A0E: 48 8B 49 F8        mov         rcx,qword ptr [rcx-8]
  0000000010007A12: 48 39 41 08        cmp         qword ptr [rcx+8],rax
  0000000010007A16: 75 02              jne         0000000010007A1A
  0000000010007A18: EB 08              jmp         0000000010007A22
  0000000010007A1A: B0 02              mov         al,2
  0000000010007A1C: B9 F1 5E 00 00     mov         ecx,5EF1h
  0000000010007A21: CC                 int         3
  0000000010007A22: 48 8B 45 F8        mov         rax,qword ptr [rbp-8]
  0000000010007A26: 48 8B 40 38        mov         rax,qword ptr [rax+38h]
  0000000010007A2A: 48 8B 8B 80 FE FF  mov         rcx,qword ptr [rbx+FFFFFFFFFFFFFE80h]
                    FF
  0000000010007A31: 48 8B 09           mov         rcx,qword ptr [rcx]
  0000000010007A34: 48 89 48 08        mov         qword ptr [rax+8],rcx
  0000000010007A38: EB 37              jmp         0000000010007A71
  0000000010007A3A: 48 8B 45 10        mov         rax,qword ptr [rbp+10h]
  0000000010007A3E: 48 81 78 28 8D 00  cmp         qword ptr [rax+28h],8Dh
                    00 00
  0000000010007A46: 75 18              jne         0000000010007A60
  0000000010007A48: 48 8B 4D 10        mov         rcx,qword ptr [rbp+10h]
  0000000010007A4C: 48 8B 49 28        mov         rcx,qword ptr [rcx+28h]
  0000000010007A50: 31 D2              xor         edx,edx
  0000000010007A52: 45 31 C0           xor         r8d,r8d
  0000000010007A55: E8 D6 D5 FF FF     call        0000000010005030
  0000000010007A5A: 48 89 45 F8        mov         qword ptr [rbp-8],rax
  0000000010007A5E: EB 11              jmp         0000000010007A71
  0000000010007A60: 48 8D 8B B0 F6 FF  lea         rcx,[rbx+FFFFFFFFFFFFF6B0h]
                    FF
  0000000010007A67: BA 0C 00 00 00     mov         edx,0Ch
  0000000010007A6C: E8 AF C5 FF FF     call        0000000010004020
  0000000010007A71: B9 2C 00 00 00     mov         ecx,2Ch
  0000000010007A76: E8 C5 C5 FF FF     call        0000000010004040
  0000000010007A7B: 48 8B 45 F8        mov         rax,qword ptr [rbp-8]
  0000000010007A7F: 48 8B 75 B0        mov         rsi,qword ptr [rbp-50h]
  0000000010007A83: 48 8B 7D B8        mov         rdi,qword ptr [rbp-48h]
  0000000010007A87: 4C 8B 65 C0        mov         r12,qword ptr [rbp-40h]
  0000000010007A8B: 4C 8B 6D C8        mov         r13,qword ptr [rbp-38h]
  0000000010007A8F: 4C 8B 75 D0        mov         r14,qword ptr [rbp-30h]
  0000000010007A93: 4C 8B 7D D8        mov         r15,qword ptr [rbp-28h]
  0000000010007A97: C9                 leave
  0000000010007A98: C3                 ret
  0000000010007A99: 90                 nop
  0000000010007A9A: 90                 nop
  0000000010007A9B: 90                 nop
  0000000010007A9C: 90                 nop
  0000000010007A9D: 90                 nop
  0000000010007A9E: 90                 nop
  0000000010007A9F: 90                 nop
  0000000010007AA0: 55                 push        rbp
  0000000010007AA1: 48 8B EC           mov         rbp,rsp
  0000000010007AA4: 48 83 EC 40        sub         rsp,40h
  0000000010007AA8: 48 89 75 E0        mov         qword ptr [rbp-20h],rsi
  0000000010007AAC: 48 89 4D 10        mov         qword ptr [rbp+10h],rcx
  0000000010007AB0: 48 C7 45 F8 00 00  mov         qword ptr [rbp-8],0
                    00 00
  0000000010007AB8: 48 C7 45 F0 00 00  mov         qword ptr [rbp-10h],0
                    00 00
  0000000010007AC0: 48 C7 45 E8 00 00  mov         qword ptr [rbp-18h],0
                    00 00
  0000000010007AC8: E8 33 C5 FF FF     call        0000000010004000
  0000000010007ACD: E8 8E F5 FF FF     call        0000000010007060
  0000000010007AD2: 48 89 45 F8        mov         qword ptr [rbp-8],rax
  0000000010007AD6: 48 8B 4D F8        mov         rcx,qword ptr [rbp-8]
  0000000010007ADA: E8 51 CD FF FF     call        0000000010004830
  0000000010007ADF: B9 2F 00 00 00     mov         ecx,2Fh
  0000000010007AE4: E8 57 C5 FF FF     call        0000000010004040
  0000000010007AE9: BE 2F 00 00 00     mov         esi,2Fh
  0000000010007AEE: 48 8B 83 D0 DF FF  mov         rax,qword ptr [rbx+FFFFFFFFFFFFDFD0h]
                    FF
  0000000010007AF5: FF D0              call        rax
  0000000010007AF7: 45 31 C0           xor         r8d,r8d
  0000000010007AFA: 48 8B D0           mov         rdx,rax
  0000000010007AFD: 48 8B CE           mov         rcx,rsi
  0000000010007B00: E8 2B D5 FF FF     call        0000000010005030
  0000000010007B05: 48 89 45 E8        mov         qword ptr [rbp-18h],rax
  0000000010007B09: B9 20 00 00 00     mov         ecx,20h
  0000000010007B0E: 48 8B 55 F8        mov         rdx,qword ptr [rbp-8]
  0000000010007B12: 4C 8B 45 E8        mov         r8,qword ptr [rbp-18h]
  0000000010007B16: E8 15 D5 FF FF     call        0000000010005030
  0000000010007B1B: 48 89 45 F0        mov         qword ptr [rbp-10h],rax
  0000000010007B1F: 48 83 BB F8 DF FF  cmp         qword ptr [rbx+FFFFFFFFFFFFDFF8h],38h
                    FF 38
  0000000010007B27: 75 17              jne         0000000010007B40
  0000000010007B29: 48 8B 75 E8        mov         rsi,qword ptr [rbp-18h]
  0000000010007B2D: 48 8B 4D 10        mov         rcx,qword ptr [rbp+10h]
  0000000010007B31: 48 83 C1 01        add         rcx,1
  0000000010007B35: E8 66 FF FF FF     call        0000000010007AA0
  0000000010007B3A: 48 89 46 38        mov         qword ptr [rsi+38h],rax
  0000000010007B3E: EB 2C              jmp         0000000010007B6C
  0000000010007B40: 48 83 BB F8 DF FF  cmp         qword ptr [rbx+FFFFFFFFFFFFDFF8h],37h
                    FF 37
  0000000010007B48: 75 18              jne         0000000010007B62
  0000000010007B4A: E8 B1 C4 FF FF     call        0000000010004000
  0000000010007B4F: 48 8B 75 E8        mov         rsi,qword ptr [rbp-18h]
  0000000010007B53: 48 8B 83 D0 DF FF  mov         rax,qword ptr [rbx+FFFFFFFFFFFFDFD0h]
                    FF
  0000000010007B5A: FF D0              call        rax
  0000000010007B5C: 48 89 46 38        mov         qword ptr [rsi+38h],rax
  0000000010007B60: EB 0A              jmp         0000000010007B6C
  0000000010007B62: 48 8B 45 E8        mov         rax,qword ptr [rbp-18h]
  0000000010007B66: 31 C9              xor         ecx,ecx
  0000000010007B68: 48 89 48 38        mov         qword ptr [rax+38h],rcx
  0000000010007B6C: 48 83 7D 10 00     cmp         qword ptr [rbp+10h],0
  0000000010007B71: 75 0A              jne         0000000010007B7D
  0000000010007B73: B9 35 00 00 00     mov         ecx,35h
  0000000010007B78: E8 C3 C4 FF FF     call        0000000010004040
  0000000010007B7D: 48 8B 45 F0        mov         rax,qword ptr [rbp-10h]
  0000000010007B81: 48 8B 75 E0        mov         rsi,qword ptr [rbp-20h]
  0000000010007B85: C9                 leave
  0000000010007B86: C3                 ret
  0000000010007B87: 90                 nop
  0000000010007B88: 90                 nop
  0000000010007B89: 90                 nop
  0000000010007B8A: 90                 nop
  0000000010007B8B: 90                 nop
  0000000010007B8C: 90                 nop
  0000000010007B8D: 90                 nop
  0000000010007B8E: 90                 nop
  0000000010007B8F: 90                 nop
  0000000010007B90: 55                 push        rbp
  0000000010007B91: 48 8B EC           mov         rbp,rsp
  0000000010007B94: 48 83 EC 40        sub         rsp,40h
  0000000010007B98: 48 89 75 E0        mov         qword ptr [rbp-20h],rsi
  0000000010007B9C: 48 89 4D 10        mov         qword ptr [rbp+10h],rcx
  0000000010007BA0: 48 C7 45 F8 00 00  mov         qword ptr [rbp-8],0
                    00 00
  0000000010007BA8: 48 C7 45 F0 00 00  mov         qword ptr [rbp-10h],0
                    00 00
  0000000010007BB0: 48 C7 45 E8 00 00  mov         qword ptr [rbp-18h],0
                    00 00
  0000000010007BB8: E8 43 C4 FF FF     call        0000000010004000
  0000000010007BBD: E8 9E F4 FF FF     call        0000000010007060
  0000000010007BC2: 48 89 45 F8        mov         qword ptr [rbp-8],rax
  0000000010007BC6: 48 8B 4D F8        mov         rcx,qword ptr [rbp-8]
  0000000010007BCA: E8 61 CC FF FF     call        0000000010004830
  0000000010007BCF: B9 31 00 00 00     mov         ecx,31h
  0000000010007BD4: E8 67 C4 FF FF     call        0000000010004040
  0000000010007BD9: BE 31 00 00 00     mov         esi,31h
  0000000010007BDE: 48 8B 83 D0 DF FF  mov         rax,qword ptr [rbx+FFFFFFFFFFFFDFD0h]
                    FF
  0000000010007BE5: FF D0              call        rax
  0000000010007BE7: 45 31 C0           xor         r8d,r8d
  0000000010007BEA: 48 8B D0           mov         rdx,rax
  0000000010007BED: 48 8B CE           mov         rcx,rsi
  0000000010007BF0: E8 3B D4 FF FF     call        0000000010005030
  0000000010007BF5: 48 89 45 E8        mov         qword ptr [rbp-18h],rax
  0000000010007BF9: B9 22 00 00 00     mov         ecx,22h
  0000000010007BFE: 48 8B 55 F8        mov         rdx,qword ptr [rbp-8]
  0000000010007C02: 4C 8B 45 E8        mov         r8,qword ptr [rbp-18h]
  0000000010007C06: E8 25 D4 FF FF     call        0000000010005030
  0000000010007C0B: 48 89 45 F0        mov         qword ptr [rbp-10h],rax
  0000000010007C0F: 48 83 BB F8 DF FF  cmp         qword ptr [rbx+FFFFFFFFFFFFDFF8h],38h
                    FF 38
  0000000010007C17: 75 17              jne         0000000010007C30
  0000000010007C19: 48 8B 75 E8        mov         rsi,qword ptr [rbp-18h]
  0000000010007C1D: 48 8B 4D 10        mov         rcx,qword ptr [rbp+10h]
  0000000010007C21: 48 83 C1 01        add         rcx,1
  0000000010007C25: E8 66 FF FF FF     call        0000000010007B90
  0000000010007C2A: 48 89 46 38        mov         qword ptr [rsi+38h],rax
  0000000010007C2E: EB 0A              jmp         0000000010007C3A
  0000000010007C30: 48 8B 45 E8        mov         rax,qword ptr [rbp-18h]
  0000000010007C34: 31 C9              xor         ecx,ecx
  0000000010007C36: 48 89 48 38        mov         qword ptr [rax+38h],rcx
  0000000010007C3A: 48 83 7D 10 00     cmp         qword ptr [rbp+10h],0
  0000000010007C3F: 75 0A              jne         0000000010007C4B
  0000000010007C41: B9 35 00 00 00     mov         ecx,35h
  0000000010007C46: E8 F5 C3 FF FF     call        0000000010004040
  0000000010007C4B: 48 8B 45 F0        mov         rax,qword ptr [rbp-10h]
  0000000010007C4F: 48 8B 75 E0        mov         rsi,qword ptr [rbp-20h]
  0000000010007C53: C9                 leave
  0000000010007C54: C3                 ret
  0000000010007C55: 90                 nop
  0000000010007C56: 90                 nop
  0000000010007C57: 90                 nop
  0000000010007C58: 90                 nop
  0000000010007C59: 90                 nop
  0000000010007C5A: 90                 nop
  0000000010007C5B: 90                 nop
  0000000010007C5C: 90                 nop
  0000000010007C5D: 90                 nop
  0000000010007C5E: 90                 nop
  0000000010007C5F: 90                 nop
  0000000010007C60: 55                 push        rbp
  0000000010007C61: 48 8B EC           mov         rbp,rsp
  0000000010007C64: 48 83 EC 50        sub         rsp,50h
  0000000010007C68: 48 89 75 D0        mov         qword ptr [rbp-30h],rsi
  0000000010007C6C: 48 C7 45 F8 00 00  mov         qword ptr [rbp-8],0
                    00 00
  0000000010007C74: 48 C7 45 F0 00 00  mov         qword ptr [rbp-10h],0
                    00 00
  0000000010007C7C: 48 C7 45 E8 00 00  mov         qword ptr [rbp-18h],0
                    00 00
  0000000010007C84: 48 C7 45 E0 00 00  mov         qword ptr [rbp-20h],0
                    00 00
  0000000010007C8C: 48 C7 45 D8 00 00  mov         qword ptr [rbp-28h],0
                    00 00
  0000000010007C94: B9 25 00 00 00     mov         ecx,25h
  0000000010007C99: 31 D2              xor         edx,edx
  0000000010007C9B: 45 31 C0           xor         r8d,r8d
  0000000010007C9E: E8 8D D3 FF FF     call        0000000010005030
  0000000010007CA3: 48 89 45 F0        mov         qword ptr [rbp-10h],rax
  0000000010007CA7: E8 54 C3 FF FF     call        0000000010004000
  0000000010007CAC: 48 83 BB F8 DF FF  cmp         qword ptr [rbx+FFFFFFFFFFFFDFF8h],1Fh
                    FF 1F
  0000000010007CB4: 75 10              jne         0000000010007CC6
  0000000010007CB6: E8 15 D4 FF FF     call        00000000100050D0
  0000000010007CBB: 48 89 45 F8        mov         qword ptr [rbp-8],rax
  0000000010007CBF: E8 3C C3 FF FF     call        0000000010004000
  0000000010007CC4: EB 0A              jmp         0000000010007CD0
  0000000010007CC6: B9 1F 00 00 00     mov         ecx,1Fh
  0000000010007CCB: E8 50 C5 FF FF     call        0000000010004220
  0000000010007CD0: 48 83 7D F8 00     cmp         qword ptr [rbp-8],0
  0000000010007CD5: 74 14              je          0000000010007CEB
  0000000010007CD7: 48 8B 4D F8        mov         rcx,qword ptr [rbp-8]
  0000000010007CDB: E8 10 CB FF FF     call        00000000100047F0
  0000000010007CE0: 48 8B 4D F8        mov         rcx,qword ptr [rbp-8]
  0000000010007CE4: 31 D2              xor         edx,edx
  0000000010007CE6: E8 45 CC FF FF     call        0000000010004930
  0000000010007CEB: 31 C9              xor         ecx,ecx
  0000000010007CED: 48 8B 55 F8        mov         rdx,qword ptr [rbp-8]
  0000000010007CF1: 45 31 C0           xor         r8d,r8d
  0000000010007CF4: E8 37 D3 FF FF     call        0000000010005030
  0000000010007CF9: 48 89 45 E8        mov         qword ptr [rbp-18h],rax
  0000000010007CFD: 48 8B 45 F0        mov         rax,qword ptr [rbp-10h]
  0000000010007D01: 48 8B 4D E8        mov         rcx,qword ptr [rbp-18h]
  0000000010007D05: 48 89 48 30        mov         qword ptr [rax+30h],rcx
  0000000010007D09: B9 2A 00 00 00     mov         ecx,2Ah
  0000000010007D0E: E8 2D C3 FF FF     call        0000000010004040
  0000000010007D13: E8 48 F3 FF FF     call        0000000010007060
  0000000010007D18: 48 89 45 F8        mov         qword ptr [rbp-8],rax
  0000000010007D1C: 48 8B 4D F8        mov         rcx,qword ptr [rbp-8]
  0000000010007D20: E8 CB CA FF FF     call        00000000100047F0
  0000000010007D25: 31 C9              xor         ecx,ecx
  0000000010007D27: 48 8B 55 F8        mov         rdx,qword ptr [rbp-8]
  0000000010007D2B: 45 31 C0           xor         r8d,r8d
  0000000010007D2E: E8 FD D2 FF FF     call        0000000010005030
  0000000010007D33: 48 89 45 E0        mov         qword ptr [rbp-20h],rax
  0000000010007D37: 48 8B 45 E8        mov         rax,qword ptr [rbp-18h]
  0000000010007D3B: 48 8B 4D E0        mov         rcx,qword ptr [rbp-20h]
  0000000010007D3F: 48 89 48 38        mov         qword ptr [rax+38h],rcx
  0000000010007D43: B9 32 00 00 00     mov         ecx,32h
  0000000010007D48: E8 F3 C2 FF FF     call        0000000010004040
  0000000010007D4D: E8 0E F3 FF FF     call        0000000010007060
  0000000010007D52: 48 89 45 F8        mov         qword ptr [rbp-8],rax
  0000000010007D56: 48 8B 4D F8        mov         rcx,qword ptr [rbp-8]
  0000000010007D5A: E8 91 CA FF FF     call        00000000100047F0
  0000000010007D5F: 31 C9              xor         ecx,ecx
  0000000010007D61: 48 8B 55 F8        mov         rdx,qword ptr [rbp-8]
  0000000010007D65: 45 31 C0           xor         r8d,r8d
  0000000010007D68: E8 C3 D2 FF FF     call        0000000010005030
  0000000010007D6D: 48 89 45 D8        mov         qword ptr [rbp-28h],rax
  0000000010007D71: 48 8B 45 E0        mov         rax,qword ptr [rbp-20h]
  0000000010007D75: 48 8B 4D D8        mov         rcx,qword ptr [rbp-28h]
  0000000010007D79: 48 89 48 38        mov         qword ptr [rax+38h],rcx
  0000000010007D7D: 48 83 BB F8 DF FF  cmp         qword ptr [rbx+FFFFFFFFFFFFDFF8h],33h
                    FF 33
  0000000010007D85: 75 30              jne         0000000010007DB7
  0000000010007D87: E8 74 C2 FF FF     call        0000000010004000
  0000000010007D8C: E8 6F F5 FF FF     call        0000000010007300
  0000000010007D91: 48 89 45 F8        mov         qword ptr [rbp-8],rax
  0000000010007D95: 48 8B 4D F8        mov         rcx,qword ptr [rbp-8]
  0000000010007D99: E8 22 CA FF FF     call        00000000100047C0
  0000000010007D9E: 48 8B 75 D8        mov         rsi,qword ptr [rbp-28h]
  0000000010007DA2: B9 33 00 00 00     mov         ecx,33h
  0000000010007DA7: 48 8B 55 F8        mov         rdx,qword ptr [rbp-8]
  0000000010007DAB: 45 31 C0           xor         r8d,r8d
  0000000010007DAE: E8 7D D2 FF FF     call        0000000010005030
  0000000010007DB3: 48 89 46 38        mov         qword ptr [rsi+38h],rax
  0000000010007DB7: B9 31 00 00 00     mov         ecx,31h
  0000000010007DBC: E8 7F C2 FF FF     call        0000000010004040
  0000000010007DC1: 48 8B 75 F0        mov         rsi,qword ptr [rbp-10h]
  0000000010007DC5: 48 8B 83 D0 DF FF  mov         rax,qword ptr [rbx+FFFFFFFFFFFFDFD0h]
                    FF
  0000000010007DCC: FF D0              call        rax
  0000000010007DCE: 48 89 46 38        mov         qword ptr [rsi+38h],rax
  0000000010007DD2: B9 35 00 00 00     mov         ecx,35h
  0000000010007DD7: E8 64 C2 FF FF     call        0000000010004040
  0000000010007DDC: 48 8B 45 F0        mov         rax,qword ptr [rbp-10h]
  0000000010007DE0: 48 8B 75 D0        mov         rsi,qword ptr [rbp-30h]
  0000000010007DE4: C9                 leave
  0000000010007DE5: C3                 ret
  0000000010007DE6: 90                 nop
  0000000010007DE7: 90                 nop
  0000000010007DE8: 90                 nop
  0000000010007DE9: 90                 nop
  0000000010007DEA: 90                 nop
  0000000010007DEB: 90                 nop
  0000000010007DEC: 90                 nop
  0000000010007DED: 90                 nop
  0000000010007DEE: 90                 nop
  0000000010007DEF: 90                 nop
  0000000010007DF0: 55                 push        rbp
  0000000010007DF1: 48 8B EC           mov         rbp,rsp
  0000000010007DF4: 48 83 EC 60        sub         rsp,60h
  0000000010007DF8: 48 89 75 C0        mov         qword ptr [rbp-40h],rsi
  0000000010007DFC: 48 89 7D C8        mov         qword ptr [rbp-38h],rdi
  0000000010007E00: 4C 89 65 D0        mov         qword ptr [rbp-30h],r12
  0000000010007E04: 48 89 4D 10        mov         qword ptr [rbp+10h],rcx
  0000000010007E08: 48 C7 45 F8 00 00  mov         qword ptr [rbp-8],0
                    00 00
  0000000010007E10: 48 C7 45 F0 00 00  mov         qword ptr [rbp-10h],0
                    00 00
  0000000010007E18: 48 C7 45 E8 00 00  mov         qword ptr [rbp-18h],0
                    00 00
  0000000010007E20: B9 36 00 00 00     mov         ecx,36h
  0000000010007E25: 31 D2              xor         edx,edx
  0000000010007E27: 45 31 C0           xor         r8d,r8d
  0000000010007E2A: E8 01 D2 FF FF     call        0000000010005030
  0000000010007E2F: 48 89 45 F8        mov         qword ptr [rbp-8],rax
  0000000010007E33: E8 18 D4 FF FF     call        0000000010005250
  0000000010007E38: 48 89 45 F0        mov         qword ptr [rbp-10h],rax
  0000000010007E3C: 48 8B 45 10        mov         rax,qword ptr [rbp+10h]
  0000000010007E40: 48 8B 40 08        mov         rax,qword ptr [rax+8]
  0000000010007E44: 48 89 45 E8        mov         qword ptr [rbp-18h],rax
  0000000010007E48: 48 8B 45 10        mov         rax,qword ptr [rbp+10h]
  0000000010007E4C: 48 8B 40 08        mov         rax,qword ptr [rax+8]
  0000000010007E50: 48 8B 00           mov         rax,qword ptr [rax]
  0000000010007E53: 48 89 45 E0        mov         qword ptr [rbp-20h],rax
  0000000010007E57: 48 8B 45 F0        mov         rax,qword ptr [rbp-10h]
  0000000010007E5B: 48 8B 40 08        mov         rax,qword ptr [rax+8]
  0000000010007E5F: 48 8B 00           mov         rax,qword ptr [rax]
  0000000010007E62: 48 89 45 D8        mov         qword ptr [rbp-28h],rax
  0000000010007E66: 48 83 7D F0 00     cmp         qword ptr [rbp-10h],0
  0000000010007E6B: 0F 84 B2 00 00 00  je          0000000010007F23
  0000000010007E71: 48 8B 45 F0        mov         rax,qword ptr [rbp-10h]
  0000000010007E75: 48 83 38 01        cmp         qword ptr [rax],1
  0000000010007E79: 0F 85 A4 00 00 00  jne         0000000010007F23
  0000000010007E7F: 48 83 7D E0 05     cmp         qword ptr [rbp-20h],5
  0000000010007E84: 75 1C              jne         0000000010007EA2
  0000000010007E86: 48 83 7D D8 05     cmp         qword ptr [rbp-28h],5
  0000000010007E8B: 75 15              jne         0000000010007EA2
  0000000010007E8D: 48 8B 4D F0        mov         rcx,qword ptr [rbp-10h]
  0000000010007E91: 48 8B 49 08        mov         rcx,qword ptr [rcx+8]
  0000000010007E95: 48 8B 55 E8        mov         rdx,qword ptr [rbp-18h]
  0000000010007E99: E8 A2 C4 FF FF     call        0000000010004340
  0000000010007E9E: 85 C0              test        eax,eax
  0000000010007EA0: 75 23              jne         0000000010007EC5
  0000000010007EA2: 48 83 7D E0 08     cmp         qword ptr [rbp-20h],8
  0000000010007EA7: 75 2E              jne         0000000010007ED7
  0000000010007EA9: 48 83 7D D8 08     cmp         qword ptr [rbp-28h],8
  0000000010007EAE: 75 27              jne         0000000010007ED7
  0000000010007EB0: 48 8B 4D F0        mov         rcx,qword ptr [rbp-10h]
  0000000010007EB4: 48 8B 49 08        mov         rcx,qword ptr [rcx+8]
  0000000010007EB8: 48 8B 55 E8        mov         rdx,qword ptr [rbp-18h]
  0000000010007EBC: E8 7F C4 FF FF     call        0000000010004340
  0000000010007EC1: 85 C0              test        eax,eax
  0000000010007EC3: 74 12              je          0000000010007ED7
  0000000010007EC5: 48 8B 45 10        mov         rax,qword ptr [rbp+10h]
  0000000010007EC9: 48 8B 4D F0        mov         rcx,qword ptr [rbp-10h]
  0000000010007ECD: 48 8B 49 08        mov         rcx,qword ptr [rcx+8]
  0000000010007ED1: 48 89 48 08        mov         qword ptr [rax+8],rcx
  0000000010007ED5: EB 4A              jmp         0000000010007F21
  0000000010007ED7: 48 83 7D E0 08     cmp         qword ptr [rbp-20h],8
  0000000010007EDC: 75 32              jne         0000000010007F10
  0000000010007EDE: 48 83 7D D8 05     cmp         qword ptr [rbp-28h],5
  0000000010007EE3: 75 2B              jne         0000000010007F10
  0000000010007EE5: 48 8B 4D F0        mov         rcx,qword ptr [rbp-10h]
  0000000010007EE9: 48 8B 49 08        mov         rcx,qword ptr [rcx+8]
  0000000010007EED: 48 8B 55 E8        mov         rdx,qword ptr [rbp-18h]
  0000000010007EF1: E8 4A C4 FF FF     call        0000000010004340
  0000000010007EF6: 85 C0              test        eax,eax
  0000000010007EF8: 74 16              je          0000000010007F10
  0000000010007EFA: 48 8B 45 10        mov         rax,qword ptr [rbp+10h]
  0000000010007EFE: 48 8B 4D F0        mov         rcx,qword ptr [rbp-10h]
  0000000010007F02: 48 8B 49 08        mov         rcx,qword ptr [rcx+8]
  0000000010007F06: 48 8B 49 40        mov         rcx,qword ptr [rcx+40h]
  0000000010007F0A: 48 89 48 08        mov         qword ptr [rax+8],rcx
  0000000010007F0E: EB 11              jmp         0000000010007F21
  0000000010007F10: 48 8D 8B D0 F6 FF  lea         rcx,[rbx+FFFFFFFFFFFFF6D0h]
                    FF
  0000000010007F17: BA 0D 00 00 00     mov         edx,0Dh
  0000000010007F1C: E8 FF C0 FF FF     call        0000000010004020
  0000000010007F21: EB 11              jmp         0000000010007F34
  0000000010007F23: 48 8D 8B F0 F6 FF  lea         rcx,[rbx+FFFFFFFFFFFFF6F0h]
                    FF
  0000000010007F2A: BA 09 00 00 00     mov         edx,9
  0000000010007F2F: E8 EC C0 FF FF     call        0000000010004020
  0000000010007F34: B9 29 00 00 00     mov         ecx,29h
  0000000010007F39: E8 02 C1 FF FF     call        0000000010004040
  0000000010007F3E: 48 8B 75 F8        mov         rsi,qword ptr [rbp-8]
  0000000010007F42: 31 FF              xor         edi,edi
  0000000010007F44: 4C 8B 65 F0        mov         r12,qword ptr [rbp-10h]
  0000000010007F48: 48 8B 83 D0 DF FF  mov         rax,qword ptr [rbx+FFFFFFFFFFFFDFD0h]
                    FF
  0000000010007F4F: FF D0              call        rax
  0000000010007F51: 4C 8B C0           mov         r8,rax
  0000000010007F54: 49 8B D4           mov         rdx,r12
  0000000010007F57: 48 8B CF           mov         rcx,rdi
  0000000010007F5A: E8 D1 D0 FF FF     call        0000000010005030
  0000000010007F5F: 48 89 46 30        mov         qword ptr [rsi+30h],rax
  0000000010007F63: 48 8B 45 10        mov         rax,qword ptr [rbp+10h]
  0000000010007F67: 48 8B 4D E8        mov         rcx,qword ptr [rbp-18h]
  0000000010007F6B: 48 89 48 08        mov         qword ptr [rax+8],rcx
  0000000010007F6F: 48 8B 45 F8        mov         rax,qword ptr [rbp-8]
  0000000010007F73: 48 8B 75 C0        mov         rsi,qword ptr [rbp-40h]
  0000000010007F77: 48 8B 7D C8        mov         rdi,qword ptr [rbp-38h]
  0000000010007F7B: 4C 8B 65 D0        mov         r12,qword ptr [rbp-30h]
  0000000010007F7F: C9                 leave
  0000000010007F80: C3                 ret
  0000000010007F81: 90                 nop
  0000000010007F82: 90                 nop
  0000000010007F83: 90                 nop
  0000000010007F84: 90                 nop
  0000000010007F85: 90                 nop
  0000000010007F86: 90                 nop
  0000000010007F87: 90                 nop
  0000000010007F88: 90                 nop
  0000000010007F89: 90                 nop
  0000000010007F8A: 90                 nop
  0000000010007F8B: 90                 nop
  0000000010007F8C: 90                 nop
  0000000010007F8D: 90                 nop
  0000000010007F8E: 90                 nop
  0000000010007F8F: 90                 nop
  0000000010007F90: 55                 push        rbp
  0000000010007F91: 48 8B EC           mov         rbp,rsp
  0000000010007F94: 48 83 EC 50        sub         rsp,50h
  0000000010007F98: 48 C7 45 F8 00 00  mov         qword ptr [rbp-8],0
                    00 00
  0000000010007FA0: 48 C7 45 F0 00 00  mov         qword ptr [rbp-10h],0
                    00 00
  0000000010007FA8: 48 C7 45 E8 00 00  mov         qword ptr [rbp-18h],0
                    00 00
  0000000010007FB0: 48 C7 45 E0 00 00  mov         qword ptr [rbp-20h],0
                    00 00
  0000000010007FB8: 48 C7 45 D8 00 00  mov         qword ptr [rbp-28h],0
                    00 00
  0000000010007FC0: B9 24 00 00 00     mov         ecx,24h
  0000000010007FC5: 31 D2              xor         edx,edx
  0000000010007FC7: 45 31 C0           xor         r8d,r8d
  0000000010007FCA: E8 61 D0 FF FF     call        0000000010005030
  0000000010007FCF: 48 89 45 E8        mov         qword ptr [rbp-18h],rax
  0000000010007FD3: E8 28 C0 FF FF     call        0000000010004000
  0000000010007FD8: E8 83 F0 FF FF     call        0000000010007060
  0000000010007FDD: 48 89 45 F8        mov         qword ptr [rbp-8],rax
  0000000010007FE1: 48 8B 45 E8        mov         rax,qword ptr [rbp-18h]
  0000000010007FE5: 48 8B 4D F8        mov         rcx,qword ptr [rbp-8]
  0000000010007FE9: 48 89 48 30        mov         qword ptr [rax+30h],rcx
  0000000010007FED: 48 8B 4D F8        mov         rcx,qword ptr [rbp-8]
  0000000010007FF1: E8 EA C8 FF FF     call        00000000100048E0
  0000000010007FF6: 85 C0              test        eax,eax
  0000000010007FF8: 74 0C              je          0000000010008006
  0000000010007FFA: 48 8B 45 F8        mov         rax,qword ptr [rbp-8]
  0000000010007FFE: 48 83 38 03        cmp         qword ptr [rax],3
  0000000010008002: 75 02              jne         0000000010008006
  0000000010008004: EB 11              jmp         0000000010008017
  0000000010008006: 48 8D 8B 10 F7 FF  lea         rcx,[rbx+FFFFFFFFFFFFF710h]
                    FF
  000000001000800D: BA 18 00 00 00     mov         edx,18h
  0000000010008012: E8 09 C0 FF FF     call        0000000010004020
  0000000010008017: B9 30 00 00 00     mov         ecx,30h
  000000001000801C: E8 1F C0 FF FF     call        0000000010004040
  0000000010008021: 48 83 BB F8 DF FF  cmp         qword ptr [rbx+FFFFFFFFFFFFDFF8h],36h
                    FF 36
  0000000010008029: 75 05              jne         0000000010008030
  000000001000802B: E8 D0 BF FF FF     call        0000000010004000
  0000000010008030: 48 83 BB F8 DF FF  cmp         qword ptr [rbx+FFFFFFFFFFFFDFF8h],36h
                    FF 36
  0000000010008038: 74 3A              je          0000000010008074
  000000001000803A: 48 8B 4D F8        mov         rcx,qword ptr [rbp-8]
  000000001000803E: E8 AD FD FF FF     call        0000000010007DF0
  0000000010008043: 48 89 45 D8        mov         qword ptr [rbp-28h],rax
  0000000010008047: 48 8B 45 E8        mov         rax,qword ptr [rbp-18h]
  000000001000804B: 48 83 78 38 00     cmp         qword ptr [rax+38h],0
  0000000010008050: 75 0E              jne         0000000010008060
  0000000010008052: 48 8B 45 E8        mov         rax,qword ptr [rbp-18h]
  0000000010008056: 48 8B 4D D8        mov         rcx,qword ptr [rbp-28h]
  000000001000805A: 48 89 48 38        mov         qword ptr [rax+38h],rcx
  000000001000805E: EB 0C              jmp         000000001000806C
  0000000010008060: 48 8B 45 E0        mov         rax,qword ptr [rbp-20h]
  0000000010008064: 48 8B 4D D8        mov         rcx,qword ptr [rbp-28h]
  0000000010008068: 48 89 48 38        mov         qword ptr [rax+38h],rcx
  000000001000806C: 48 8B 45 D8        mov         rax,qword ptr [rbp-28h]
  0000000010008070: 48 89 45 E0        mov         qword ptr [rbp-20h],rax
  0000000010008074: 48 83 BB F8 DF FF  cmp         qword ptr [rbx+FFFFFFFFFFFFDFF8h],36h
                    FF 36
  000000001000807C: 74 A3              je          0000000010008021
  000000001000807E: B9 35 00 00 00     mov         ecx,35h
  0000000010008083: E8 B8 BF FF FF     call        0000000010004040
  0000000010008088: 48 8B 45 E8        mov         rax,qword ptr [rbp-18h]
  000000001000808C: C9                 leave
  000000001000808D: C3                 ret
  000000001000808E: 90                 nop
  000000001000808F: 90                 nop
  0000000010008090: 55                 push        rbp
  0000000010008091: 48 8B EC           mov         rbp,rsp
  0000000010008094: 48 83 EC 60        sub         rsp,60h
  0000000010008098: 48 89 75 C0        mov         qword ptr [rbp-40h],rsi
  000000001000809C: 48 C7 45 F8 00 00  mov         qword ptr [rbp-8],0
                    00 00
  00000000100080A4: 48 C7 45 F0 00 00  mov         qword ptr [rbp-10h],0
                    00 00
  00000000100080AC: 48 C7 45 E8 00 00  mov         qword ptr [rbp-18h],0
                    00 00
  00000000100080B4: 48 C7 45 E0 00 00  mov         qword ptr [rbp-20h],0
                    00 00
  00000000100080BC: 48 C7 45 D8 00 00  mov         qword ptr [rbp-28h],0
                    00 00
  00000000100080C4: 48 C7 45 D0 00 00  mov         qword ptr [rbp-30h],0
                    00 00
  00000000100080CC: B9 34 00 00 00     mov         ecx,34h
  00000000100080D1: 31 D2              xor         edx,edx
  00000000100080D3: 45 31 C0           xor         r8d,r8d
  00000000100080D6: E8 55 CF FF FF     call        0000000010005030
  00000000100080DB: 48 89 45 E8        mov         qword ptr [rbp-18h],rax
  00000000100080DF: 48 8B 45 E8        mov         rax,qword ptr [rbp-18h]
  00000000100080E3: 48 89 45 E0        mov         qword ptr [rbp-20h],rax
  00000000100080E7: 48 83 BB F8 DF FF  cmp         qword ptr [rbx+FFFFFFFFFFFFDFF8h],1Fh
                    FF 1F
  00000000100080EF: 74 1E              je          000000001000810F
  00000000100080F1: 48 83 BB F8 DF FF  cmp         qword ptr [rbx+FFFFFFFFFFFFDFF8h],34h
                    FF 34
  00000000100080F9: 7D 14              jge         000000001000810F
  00000000100080FB: 48 83 BB F8 DF FF  cmp         qword ptr [rbx+FFFFFFFFFFFFDFF8h],20h
                    FF 20
  0000000010008103: 7C 0C              jl          0000000010008111
  0000000010008105: 48 83 BB F8 DF FF  cmp         qword ptr [rbx+FFFFFFFFFFFFDFF8h],25h
                    FF 25
  000000001000810D: 7F 02              jg          0000000010008111
  000000001000810F: EB 2A              jmp         000000001000813B
  0000000010008111: 48 8D 8B 40 F7 FF  lea         rcx,[rbx+FFFFFFFFFFFFF740h]
                    FF
  0000000010008118: BA 0B 00 00 00     mov         edx,0Bh
  000000001000811D: E8 FE BE FF FF     call        0000000010004020
  0000000010008122: E8 D9 BE FF FF     call        0000000010004000
  0000000010008127: 48 83 BB F8 DF FF  cmp         qword ptr [rbx+FFFFFFFFFFFFDFF8h],1Fh
                    FF 1F
  000000001000812F: 74 0A              je          000000001000813B
  0000000010008131: 48 83 BB F8 DF FF  cmp         qword ptr [rbx+FFFFFFFFFFFFDFF8h],34h
                    FF 34
  0000000010008139: 7C E7              jl          0000000010008122
  000000001000813B: 48 83 BB F8 DF FF  cmp         qword ptr [rbx+FFFFFFFFFFFFDFF8h],1Fh
                    FF 1F
  0000000010008143: 0F 85 85 01 00 00  jne         00000000100082CE
  0000000010008149: E8 02 D6 FF FF     call        0000000010005750
  000000001000814E: 48 89 45 F8        mov         qword ptr [rbp-8],rax
  0000000010008152: 48 83 BB F8 DF FF  cmp         qword ptr [rbx+FFFFFFFFFFFFDFF8h],2Ah
                    FF 2A
  000000001000815A: 0F 85 AD 00 00 00  jne         000000001000820D
  0000000010008160: 48 8B 4D F8        mov         rcx,qword ptr [rbp-8]
  0000000010008164: 31 D2              xor         edx,edx
  0000000010008166: E8 C5 C7 FF FF     call        0000000010004930
  000000001000816B: E8 90 BE FF FF     call        0000000010004000
  0000000010008170: E8 EB EE FF FF     call        0000000010007060
  0000000010008175: 48 89 45 F0        mov         qword ptr [rbp-10h],rax
  0000000010008179: 48 8B 4D F8        mov         rcx,qword ptr [rbp-8]
  000000001000817D: 48 8B 49 08        mov         rcx,qword ptr [rcx+8]
  0000000010008181: 48 8B 55 F0        mov         rdx,qword ptr [rbp-10h]
  0000000010008185: 48 8B 52 08        mov         rdx,qword ptr [rdx+8]
  0000000010008189: E8 E2 C4 FF FF     call        0000000010004670
  000000001000818E: 85 C0              test        eax,eax
  0000000010008190: 75 3C              jne         00000000100081CE
  0000000010008192: 48 8B 45 F8        mov         rax,qword ptr [rbp-8]
  0000000010008196: 48 8B 40 08        mov         rax,qword ptr [rax+8]
  000000001000819A: 48 83 38 07        cmp         qword ptr [rax],7
  000000001000819E: 75 30              jne         00000000100081D0
  00000000100081A0: 48 8B 4D F0        mov         rcx,qword ptr [rbp-10h]
  00000000100081A4: 48 8B 49 08        mov         rcx,qword ptr [rcx+8]
  00000000100081A8: E8 B3 C2 FF FF     call        0000000010004460
  00000000100081AD: 85 C0              test        eax,eax
  00000000100081AF: 74 1F              je          00000000100081D0
  00000000100081B1: 48 8B 45 F0        mov         rax,qword ptr [rbp-10h]
  00000000100081B5: 48 8B 40 08        mov         rax,qword ptr [rax+8]
  00000000100081B9: 48 8B 40 40        mov         rax,qword ptr [rax+40h]
  00000000100081BD: 48 8B 4D F8        mov         rcx,qword ptr [rbp-8]
  00000000100081C1: 48 8B 49 08        mov         rcx,qword ptr [rcx+8]
  00000000100081C5: 48 8B 49 40        mov         rcx,qword ptr [rcx+40h]
  00000000100081C9: 48 3B C1           cmp         rax,rcx
  00000000100081CC: 75 02              jne         00000000100081D0
  00000000100081CE: EB 11              jmp         00000000100081E1
  00000000100081D0: 48 8D 8B 60 F7 FF  lea         rcx,[rbx+FFFFFFFFFFFFF760h]
                    FF
  00000000100081D7: BA 13 00 00 00     mov         edx,13h
  00000000100081DC: E8 3F BE FF FF     call        0000000010004020
  00000000100081E1: 48 8D 4D F8        lea         rcx,[rbp-8]
  00000000100081E5: 48 8D 55 F0        lea         rdx,[rbp-10h]
  00000000100081E9: E8 D2 CA FF FF     call        0000000010004CC0
  00000000100081EE: 48 8B 75 E0        mov         rsi,qword ptr [rbp-20h]
  00000000100081F2: B9 2A 00 00 00     mov         ecx,2Ah
  00000000100081F7: 48 8B 55 F8        mov         rdx,qword ptr [rbp-8]
  00000000100081FB: 4C 8B 45 F0        mov         r8,qword ptr [rbp-10h]
  00000000100081FF: E8 2C CE FF FF     call        0000000010005030
  0000000010008204: 48 89 46 30        mov         qword ptr [rsi+30h],rax
  0000000010008208: E9 BC 00 00 00     jmp         00000000100082C9
  000000001000820D: 48 83 BB F8 DF FF  cmp         qword ptr [rbx+FFFFFFFFFFFFDFF8h],9
                    FF 09
  0000000010008215: 75 24              jne         000000001000823B
  0000000010008217: 48 8D 8B 90 F7 FF  lea         rcx,[rbx+FFFFFFFFFFFFF790h]
                    FF
  000000001000821E: BA 0D 00 00 00     mov         edx,0Dh
  0000000010008223: E8 F8 BD FF FF     call        0000000010004020
  0000000010008228: E8 D3 BD FF FF     call        0000000010004000
  000000001000822D: E8 2E EE FF FF     call        0000000010007060
  0000000010008232: 48 89 45 F0        mov         qword ptr [rbp-10h],rax
  0000000010008236: E9 8E 00 00 00     jmp         00000000100082C9
  000000001000823B: 48 8B 45 F8        mov         rax,qword ptr [rbp-8]
  000000001000823F: 48 8B 40 08        mov         rax,qword ptr [rax+8]
  0000000010008243: 48 83 38 06        cmp         qword ptr [rax],6
  0000000010008247: 75 33              jne         000000001000827C
  0000000010008249: 48 8B 45 F8        mov         rax,qword ptr [rbp-8]
  000000001000824D: 48 8B 40 08        mov         rax,qword ptr [rax+8]
  0000000010008251: 48 83 78 40 00     cmp         qword ptr [rax+40h],0
  0000000010008256: 74 11              je          0000000010008269
  0000000010008258: 48 8D 8B B0 F7 FF  lea         rcx,[rbx+FFFFFFFFFFFFF7B0h]
                    FF
  000000001000825F: BA 15 00 00 00     mov         edx,15h
  0000000010008264: E8 B7 BD FF FF     call        0000000010004020
  0000000010008269: 48 8B 75 E0        mov         rsi,qword ptr [rbp-20h]
  000000001000826D: 48 8B 4D F8        mov         rcx,qword ptr [rbp-8]
  0000000010008271: E8 4A D3 FF FF     call        00000000100055C0
  0000000010008276: 48 89 46 30        mov         qword ptr [rsi+30h],rax
  000000001000827A: EB 4D              jmp         00000000100082C9
  000000001000827C: 48 8B 45 F8        mov         rax,qword ptr [rbp-8]
  0000000010008280: 48 83 38 07        cmp         qword ptr [rax],7
  0000000010008284: 75 32              jne         00000000100082B8
  0000000010008286: 48 8B 75 E0        mov         rsi,qword ptr [rbp-20h]
  000000001000828A: 48 8B 83 00 FE FF  mov         rax,qword ptr [rbx+FFFFFFFFFFFFFE00h]
                    FF
  0000000010008291: 48 8B 4D F8        mov         rcx,qword ptr [rbp-8]
  0000000010008295: 48 8B 49 F8        mov         rcx,qword ptr [rcx-8]
  0000000010008299: 48 39 41 08        cmp         qword ptr [rcx+8],rax
  000000001000829D: 75 02              jne         00000000100082A1
  000000001000829F: EB 08              jmp         00000000100082A9
  00000000100082A1: B0 02              mov         al,2
  00000000100082A3: B9 D4 6E 00 00     mov         ecx,6ED4h
  00000000100082A8: CC                 int         3
  00000000100082A9: 48 8B 4D F8        mov         rcx,qword ptr [rbp-8]
  00000000100082AD: E8 AE F0 FF FF     call        0000000010007360
  00000000100082B2: 48 89 46 30        mov         qword ptr [rsi+30h],rax
  00000000100082B6: EB 11              jmp         00000000100082C9
  00000000100082B8: 48 8D 8B E0 F7 FF  lea         rcx,[rbx+FFFFFFFFFFFFF7E0h]
                    FF
  00000000100082BF: BA 12 00 00 00     mov         edx,12h
  00000000100082C4: E8 57 BD FF FF     call        0000000010004020
  00000000100082C9: E9 D1 00 00 00     jmp         000000001000839F
  00000000100082CE: 48 83 BB F8 DF FF  cmp         qword ptr [rbx+FFFFFFFFFFFFDFF8h],20h
                    FF 20
  00000000100082D6: 75 14              jne         00000000100082EC
  00000000100082D8: 48 8B 75 E0        mov         rsi,qword ptr [rbp-20h]
  00000000100082DC: 31 C9              xor         ecx,ecx
  00000000100082DE: E8 BD F7 FF FF     call        0000000010007AA0
  00000000100082E3: 48 89 46 30        mov         qword ptr [rsi+30h],rax
  00000000100082E7: E9 B3 00 00 00     jmp         000000001000839F
  00000000100082EC: 48 83 BB F8 DF FF  cmp         qword ptr [rbx+FFFFFFFFFFFFDFF8h],22h
                    FF 22
  00000000100082F4: 75 14              jne         000000001000830A
  00000000100082F6: 48 8B 75 E0        mov         rsi,qword ptr [rbp-20h]
  00000000100082FA: 31 C9              xor         ecx,ecx
  00000000100082FC: E8 8F F8 FF FF     call        0000000010007B90
  0000000010008301: 48 89 46 30        mov         qword ptr [rsi+30h],rax
  0000000010008305: E9 95 00 00 00     jmp         000000001000839F
  000000001000830A: 48 83 BB F8 DF FF  cmp         qword ptr [rbx+FFFFFFFFFFFFDFF8h],23h
                    FF 23
  0000000010008312: 75 5B              jne         000000001000836F
  0000000010008314: E8 E7 BC FF FF     call        0000000010004000
  0000000010008319: BE 23 00 00 00     mov         esi,23h
  000000001000831E: 48 8B 83 D0 DF FF  mov         rax,qword ptr [rbx+FFFFFFFFFFFFDFD0h]
                    FF
  0000000010008325: FF D0              call        rax
  0000000010008327: 45 31 C0           xor         r8d,r8d
  000000001000832A: 48 8B D0           mov         rdx,rax
  000000001000832D: 48 8B CE           mov         rcx,rsi
  0000000010008330: E8 FB CC FF FF     call        0000000010005030
  0000000010008335: 48 89 45 D0        mov         qword ptr [rbp-30h],rax
  0000000010008339: B9 39 00 00 00     mov         ecx,39h
  000000001000833E: E8 FD BC FF FF     call        0000000010004040
  0000000010008343: E8 18 ED FF FF     call        0000000010007060
  0000000010008348: 48 89 45 F8        mov         qword ptr [rbp-8],rax
  000000001000834C: 48 8B 4D F8        mov         rcx,qword ptr [rbp-8]
  0000000010008350: E8 DB C4 FF FF     call        0000000010004830
  0000000010008355: 48 8B 45 D0        mov         rax,qword ptr [rbp-30h]
  0000000010008359: 48 8B 4D F8        mov         rcx,qword ptr [rbp-8]
  000000001000835D: 48 89 48 38        mov         qword ptr [rax+38h],rcx
  0000000010008361: 48 8B 45 E0        mov         rax,qword ptr [rbp-20h]
  0000000010008365: 48 8B 4D D0        mov         rcx,qword ptr [rbp-30h]
  0000000010008369: 48 89 48 30        mov         qword ptr [rax+30h],rcx
  000000001000836D: EB 30              jmp         000000001000839F
  000000001000836F: 48 83 BB F8 DF FF  cmp         qword ptr [rbx+FFFFFFFFFFFFDFF8h],25h
                    FF 25
  0000000010008377: 75 0F              jne         0000000010008388
  0000000010008379: 48 8B 75 E0        mov         rsi,qword ptr [rbp-20h]
  000000001000837D: E8 DE F8 FF FF     call        0000000010007C60
  0000000010008382: 48 89 46 30        mov         qword ptr [rsi+30h],rax
  0000000010008386: EB 17              jmp         000000001000839F
  0000000010008388: 48 83 BB F8 DF FF  cmp         qword ptr [rbx+FFFFFFFFFFFFDFF8h],24h
                    FF 24
  0000000010008390: 75 0D              jne         000000001000839F
  0000000010008392: 48 8B 75 E0        mov         rsi,qword ptr [rbp-20h]
  0000000010008396: E8 F5 FB FF FF     call        0000000010007F90
  000000001000839B: 48 89 46 30        mov         qword ptr [rsi+30h],rax
  000000001000839F: 48 83 BB F8 DF FF  cmp         qword ptr [rbx+FFFFFFFFFFFFDFF8h],34h
                    FF 34
  00000000100083A7: 7F 31              jg          00000000100083DA
  00000000100083A9: B9 34 00 00 00     mov         ecx,34h
  00000000100083AE: E8 8D BC FF FF     call        0000000010004040
  00000000100083B3: B9 34 00 00 00     mov         ecx,34h
  00000000100083B8: 31 D2              xor         edx,edx
  00000000100083BA: 45 31 C0           xor         r8d,r8d
  00000000100083BD: E8 6E CC FF FF     call        0000000010005030
  00000000100083C2: 48 89 45 D8        mov         qword ptr [rbp-28h],rax
  00000000100083C6: 48 8B 45 E0        mov         rax,qword ptr [rbp-20h]
  00000000100083CA: 48 8B 4D D8        mov         rcx,qword ptr [rbp-28h]
  00000000100083CE: 48 89 48 38        mov         qword ptr [rax+38h],rcx
  00000000100083D2: 48 8B 45 D8        mov         rax,qword ptr [rbp-28h]
  00000000100083D6: 48 89 45 E0        mov         qword ptr [rbp-20h],rax
  00000000100083DA: 48 83 BB F8 DF FF  cmp         qword ptr [rbx+FFFFFFFFFFFFDFF8h],34h
                    FF 34
  00000000100083E2: 0F 8E FF FC FF FF  jle         00000000100080E7
  00000000100083E8: 48 8B 45 E8        mov         rax,qword ptr [rbp-18h]
  00000000100083EC: 48 8B 75 C0        mov         rsi,qword ptr [rbp-40h]
  00000000100083F0: C9                 leave
  00000000100083F1: C3                 ret
  00000000100083F2: 90                 nop
  00000000100083F3: 90                 nop
  00000000100083F4: 90                 nop
  00000000100083F5: 90                 nop
  00000000100083F6: 90                 nop
  00000000100083F7: 90                 nop
  00000000100083F8: 90                 nop
  00000000100083F9: 90                 nop
  00000000100083FA: 90                 nop
  00000000100083FB: 90                 nop
  00000000100083FC: 90                 nop
  00000000100083FD: 90                 nop
  00000000100083FE: 90                 nop
  00000000100083FF: 90                 nop
  0000000010008400: 55                 push        rbp
  0000000010008401: 48 8B EC           mov         rbp,rsp
  0000000010008404: 48 83 EC 20        sub         rsp,20h
  0000000010008408: 48 89 4D 10        mov         qword ptr [rbp+10h],rcx
  000000001000840C: 48 83 BB F8 DF FF  cmp         qword ptr [rbx+FFFFFFFFFFFFDFF8h],1
                    FF 01
  0000000010008414: 75 33              jne         0000000010008449
  0000000010008416: 48 8B 83 20 FE FF  mov         rax,qword ptr [rbx+FFFFFFFFFFFFFE20h]
                    FF
  000000001000841D: 48 83 38 00        cmp         qword ptr [rax],0
  0000000010008421: 75 10              jne         0000000010008433
  0000000010008423: 48 83 7D 10 00     cmp         qword ptr [rbp+10h],0
  0000000010008428: 74 07              je          0000000010008431
  000000001000842A: 48 8B 45 10        mov         rax,qword ptr [rbp+10h]
  000000001000842E: C6 00 01           mov         byte ptr [rax],1
  0000000010008431: EB 11              jmp         0000000010008444
  0000000010008433: 48 8D 8B 10 F8 FF  lea         rcx,[rbx+FFFFFFFFFFFFF810h]
                    FF
  000000001000843A: BA 09 00 00 00     mov         edx,9
  000000001000843F: E8 DC BB FF FF     call        0000000010004020
  0000000010008444: E8 B7 BB FF FF     call        0000000010004000
  0000000010008449: C9                 leave
  000000001000844A: C3                 ret
  000000001000844B: 90                 nop
  000000001000844C: 90                 nop
  000000001000844D: 90                 nop
  000000001000844E: 90                 nop
  000000001000844F: 90                 nop
  0000000010008450: 55                 push        rbp
  0000000010008451: 48 8B EC           mov         rbp,rsp
  0000000010008454: 48 83 EC 40        sub         rsp,40h
  0000000010008458: 48 89 75 E0        mov         qword ptr [rbp-20h],rsi
  000000001000845C: 48 C7 45 F8 00 00  mov         qword ptr [rbp-8],0
                    00 00
  0000000010008464: 48 C7 45 F0 00 00  mov         qword ptr [rbp-10h],0
                    00 00
  000000001000846C: 48 8B 83 80 FE FF  mov         rax,qword ptr [rbx+FFFFFFFFFFFFFE80h]
                    FF
  0000000010008473: 48 8B 00           mov         rax,qword ptr [rax]
  0000000010008476: 48 89 45 F0        mov         qword ptr [rbp-10h],rax
  000000001000847A: 48 83 BB F8 DF FF  cmp         qword ptr [rbx+FFFFFFFFFFFFDFF8h],1Fh
                    FF 1F
  0000000010008482: 75 3B              jne         00000000100084BF
  0000000010008484: E8 C7 CD FF FF     call        0000000010005250
  0000000010008489: 48 89 45 F8        mov         qword ptr [rbp-8],rax
  000000001000848D: 48 83 7D F8 00     cmp         qword ptr [rbp-8],0
  0000000010008492: 74 18              je          00000000100084AC
  0000000010008494: 48 8B 45 F8        mov         rax,qword ptr [rbp-8]
  0000000010008498: 48 83 38 01        cmp         qword ptr [rax],1
  000000001000849C: 75 0E              jne         00000000100084AC
  000000001000849E: 48 8B 45 F8        mov         rax,qword ptr [rbp-8]
  00000000100084A2: 48 8B 40 08        mov         rax,qword ptr [rax+8]
  00000000100084A6: 48 89 45 F0        mov         qword ptr [rbp-10h],rax
  00000000100084AA: EB 11              jmp         00000000100084BD
  00000000100084AC: 48 8D 8B 30 F8 FF  lea         rcx,[rbx+FFFFFFFFFFFFF830h]
                    FF
  00000000100084B3: BA 09 00 00 00     mov         edx,9
  00000000100084B8: E8 63 BB FF FF     call        0000000010004020
  00000000100084BD: EB 51              jmp         0000000010008510
  00000000100084BF: 48 83 BB F8 DF FF  cmp         qword ptr [rbx+FFFFFFFFFFFFDFF8h],3Ch
                    FF 3C
  00000000100084C7: 75 47              jne         0000000010008510
  00000000100084C9: 31 C9              xor         ecx,ecx
  00000000100084CB: 48 83 C1 FF        add         rcx,0FFFFFFFFFFFFFFFFh
  00000000100084CF: FF 93 50 FD FF FF  call        qword ptr [rbx+FFFFFFFFFFFFFD50h]
  00000000100084D5: 48 89 45 F0        mov         qword ptr [rbp-10h],rax
  00000000100084D9: E8 22 BB FF FF     call        0000000010004000
  00000000100084DE: B9 30 00 00 00     mov         ecx,30h
  00000000100084E3: E8 58 BB FF FF     call        0000000010004040
  00000000100084E8: 48 83 BB F8 DF FF  cmp         qword ptr [rbx+FFFFFFFFFFFFDFF8h],3Ch
                    FF 3C
  00000000100084F0: 75 11              jne         0000000010008503
  00000000100084F2: 48 8D 8B 50 F8 FF  lea         rcx,[rbx+FFFFFFFFFFFFF850h]
                    FF
  00000000100084F9: BA 23 00 00 00     mov         edx,23h
  00000000100084FE: E8 1D BB FF FF     call        0000000010004020
  0000000010008503: 48 8B 75 F0        mov         rsi,qword ptr [rbp-10h]
  0000000010008507: E8 44 FF FF FF     call        0000000010008450
  000000001000850C: 48 89 46 40        mov         qword ptr [rsi+40h],rax
  0000000010008510: 48 8B 45 F0        mov         rax,qword ptr [rbp-10h]
  0000000010008514: 48 8B 75 E0        mov         rsi,qword ptr [rbp-20h]
  0000000010008518: C9                 leave
  0000000010008519: C3                 ret
  000000001000851A: 90                 nop
  000000001000851B: 90                 nop
  000000001000851C: 90                 nop
  000000001000851D: 90                 nop
  000000001000851E: 90                 nop
  000000001000851F: 90                 nop
  0000000010008520: 55                 push        rbp
  0000000010008521: 48 8B EC           mov         rbp,rsp
  0000000010008524: 48 83 EC 50        sub         rsp,50h
  0000000010008528: 48 89 75 D0        mov         qword ptr [rbp-30h],rsi
  000000001000852C: 48 89 4D 10        mov         qword ptr [rbp+10h],rcx
  0000000010008530: 48 C7 45 F0 00 00  mov         qword ptr [rbp-10h],0
                    00 00
  0000000010008538: 48 C7 45 E8 00 00  mov         qword ptr [rbp-18h],0
                    00 00
  0000000010008540: 48 C7 45 E0 00 00  mov         qword ptr [rbp-20h],0
                    00 00
  0000000010008548: 48 83 BB F8 DF FF  cmp         qword ptr [rbx+FFFFFFFFFFFFDFF8h],48h
                    FF 48
  0000000010008550: 75 0B              jne         000000001000855D
  0000000010008552: C6 45 FE 01        mov         byte ptr [rbp-2],1
  0000000010008556: E8 A5 BA FF FF     call        0000000010004000
  000000001000855B: EB 05              jmp         0000000010008562
  000000001000855D: 31 C0              xor         eax,eax
  000000001000855F: 88 45 FE           mov         byte ptr [rbp-2],al
  0000000010008562: 48 83 BB F8 DF FF  cmp         qword ptr [rbx+FFFFFFFFFFFFDFF8h],1Fh
                    FF 1F
  000000001000856A: 75 69              jne         00000000100085D5
  000000001000856C: 48 8B 8B 28 FE FF  mov         rcx,qword ptr [rbx+FFFFFFFFFFFFFE28h]
                    FF
  0000000010008573: E8 08 C9 FF FF     call        0000000010004E80
  0000000010008578: 48 89 45 F0        mov         qword ptr [rbp-10h],rax
  000000001000857C: E8 7F BA FF FF     call        0000000010004000
  0000000010008581: 48 83 BB F8 DF FF  cmp         qword ptr [rbx+FFFFFFFFFFFFDFF8h],28h
                    FF 28
  0000000010008589: 75 48              jne         00000000100085D3
  000000001000858B: E8 70 BA FF FF     call        0000000010004000
  0000000010008590: 48 83 BB F8 DF FF  cmp         qword ptr [rbx+FFFFFFFFFFFFDFF8h],1Fh
                    FF 1F
  0000000010008598: 75 26              jne         00000000100085C0
  000000001000859A: 48 8B 8B 28 FE FF  mov         rcx,qword ptr [rbx+FFFFFFFFFFFFFE28h]
                    FF
  00000000100085A1: E8 DA C8 FF FF     call        0000000010004E80
  00000000100085A6: 48 89 45 E8        mov         qword ptr [rbp-18h],rax
  00000000100085AA: E8 51 BA FF FF     call        0000000010004000
  00000000100085AF: 48 83 7D F0 00     cmp         qword ptr [rbp-10h],0
  00000000100085B4: 75 08              jne         00000000100085BE
  00000000100085B6: 48 8B 45 E8        mov         rax,qword ptr [rbp-18h]
  00000000100085BA: 48 89 45 F0        mov         qword ptr [rbp-10h],rax
  00000000100085BE: EB 11              jmp         00000000100085D1
  00000000100085C0: 48 8D 8B A0 F8 FF  lea         rcx,[rbx+FFFFFFFFFFFFF8A0h]
                    FF
  00000000100085C7: BA 09 00 00 00     mov         edx,9
  00000000100085CC: E8 4F BA FF FF     call        0000000010004020
  00000000100085D1: EB AE              jmp         0000000010008581
  00000000100085D3: EB 11              jmp         00000000100085E6
  00000000100085D5: 48 8D 8B C0 F8 FF  lea         rcx,[rbx+FFFFFFFFFFFFF8C0h]
                    FF
  00000000100085DC: BA 0B 00 00 00     mov         edx,0Bh
  00000000100085E1: E8 3A BA FF FF     call        0000000010004020
  00000000100085E6: B9 29 00 00 00     mov         ecx,29h
  00000000100085EB: E8 50 BA FF FF     call        0000000010004040
  00000000100085F0: E8 5B FE FF FF     call        0000000010008450
  00000000100085F5: 48 89 45 E0        mov         qword ptr [rbp-20h],rax
  00000000100085F9: 48 8B 45 F0        mov         rax,qword ptr [rbp-10h]
  00000000100085FD: 48 89 45 E8        mov         qword ptr [rbp-18h],rax
  0000000010008601: 48 83 7D E8 00     cmp         qword ptr [rbp-18h],0
  0000000010008606: 74 42              je          000000001000864A
  0000000010008608: 48 8B 75 E8        mov         rsi,qword ptr [rbp-18h]
  000000001000860C: 48 8B 4D 10        mov         rcx,qword ptr [rbp+10h]
  0000000010008610: 48 8B 55 E0        mov         rdx,qword ptr [rbp-20h]
  0000000010008614: 44 0F B6 45 FE     movzx       r8d,byte ptr [rbp-2]
  0000000010008619: FF 93 48 FD FF FF  call        qword ptr [rbx+FFFFFFFFFFFFFD48h]
  000000001000861F: 48 89 86 88 00 00  mov         qword ptr [rsi+0000000000000088h],rax
                    00
  0000000010008626: 48 8B 45 E8        mov         rax,qword ptr [rbp-18h]
  000000001000862A: 48 8B 80 88 00 00  mov         rax,qword ptr [rax+0000000000000088h]
                    00
  0000000010008631: 48 8B 4D E8        mov         rcx,qword ptr [rbp-18h]
  0000000010008635: 48 89 48 10        mov         qword ptr [rax+10h],rcx
  0000000010008639: 48 8B 45 E8        mov         rax,qword ptr [rbp-18h]
  000000001000863D: 48 8B 80 90 00 00  mov         rax,qword ptr [rax+0000000000000090h]
                    00
  0000000010008644: 48 89 45 E8        mov         qword ptr [rbp-18h],rax
  0000000010008648: EB B7              jmp         0000000010008601
  000000001000864A: 48 8B 75 D0        mov         rsi,qword ptr [rbp-30h]
  000000001000864E: C9                 leave
  000000001000864F: C3                 ret
  0000000010008650: 55                 push        rbp
  0000000010008651: 48 8B EC           mov         rbp,rsp
  0000000010008654: 48 83 EC 30        sub         rsp,30h
  0000000010008658: 48 89 4D 10        mov         qword ptr [rbp+10h],rcx
  000000001000865C: 48 C7 45 F8 00 00  mov         qword ptr [rbp-8],0
                    00 00
  0000000010008664: 48 C7 45 F0 00 00  mov         qword ptr [rbp-10h],0
                    00 00
  000000001000866C: E8 8F B9 FF FF     call        0000000010004000
  0000000010008671: 48 83 BB F8 DF FF  cmp         qword ptr [rbx+FFFFFFFFFFFFDFF8h],1Fh
                    FF 1F
  0000000010008679: 74 0A              je          0000000010008685
  000000001000867B: 48 83 BB F8 DF FF  cmp         qword ptr [rbx+FFFFFFFFFFFFDFF8h],48h
                    FF 48
  0000000010008683: 75 6B              jne         00000000100086F0
  0000000010008685: FF 93 40 FD FF FF  call        qword ptr [rbx+FFFFFFFFFFFFFD40h]
  000000001000868B: 48 8B 4D 10        mov         rcx,qword ptr [rbp+10h]
  000000001000868F: E8 8C FE FF FF     call        0000000010008520
  0000000010008694: 48 83 BB F8 DF FF  cmp         qword ptr [rbx+FFFFFFFFFFFFDFF8h],34h
                    FF 34
  000000001000869C: 75 37              jne         00000000100086D5
  000000001000869E: E8 5D B9 FF FF     call        0000000010004000
  00000000100086A3: 48 83 BB F8 DF FF  cmp         qword ptr [rbx+FFFFFFFFFFFFDFF8h],1Fh
                    FF 1F
  00000000100086AB: 74 0A              je          00000000100086B7
  00000000100086AD: 48 83 BB F8 DF FF  cmp         qword ptr [rbx+FFFFFFFFFFFFDFF8h],48h
                    FF 48
  00000000100086B5: 75 0B              jne         00000000100086C2
  00000000100086B7: 48 8B 4D 10        mov         rcx,qword ptr [rbp+10h]
  00000000100086BB: E8 60 FE FF FF     call        0000000010008520
  00000000100086C0: EB 11              jmp         00000000100086D3
  00000000100086C2: 48 8D 8B E0 F8 FF  lea         rcx,[rbx+FFFFFFFFFFFFF8E0h]
                    FF
  00000000100086C9: BA 0F 00 00 00     mov         edx,0Fh
  00000000100086CE: E8 4D B9 FF FF     call        0000000010004020
  00000000100086D3: EB BF              jmp         0000000010008694
  00000000100086D5: 48 8B 45 10        mov         rax,qword ptr [rbp+10h]
  00000000100086D9: 48 8B 8B 40 FE FF  mov         rcx,qword ptr [rbx+FFFFFFFFFFFFFE40h]
                    FF
  00000000100086E0: 48 8B 09           mov         rcx,qword ptr [rcx]
  00000000100086E3: 48 8B 09           mov         rcx,qword ptr [rcx]
  00000000100086E6: 48 89 48 48        mov         qword ptr [rax+48h],rcx
  00000000100086EA: FF 93 38 FD FF FF  call        qword ptr [rbx+FFFFFFFFFFFFFD38h]
  00000000100086F0: B9 2C 00 00 00     mov         ecx,2Ch
  00000000100086F5: E8 46 B9 FF FF     call        0000000010004040
  00000000100086FA: 48 83 BB F8 DF FF  cmp         qword ptr [rbx+FFFFFFFFFFFFDFF8h],29h
                    FF 29
  0000000010008702: 0F 85 81 00 00 00  jne         0000000010008789
  0000000010008708: E8 F3 B8 FF FF     call        0000000010004000
  000000001000870D: 48 83 BB F8 DF FF  cmp         qword ptr [rbx+FFFFFFFFFFFFDFF8h],1Fh
                    FF 1F
  0000000010008715: 75 0B              jne         0000000010008722
  0000000010008717: E8 34 CB FF FF     call        0000000010005250
  000000001000871C: 48 89 45 F0        mov         qword ptr [rbp-10h],rax
  0000000010008720: EB 0A              jmp         000000001000872C
  0000000010008722: B9 1F 00 00 00     mov         ecx,1Fh
  0000000010008727: E8 F4 BA FF FF     call        0000000010004220
  000000001000872C: 48 83 7D F0 00     cmp         qword ptr [rbp-10h],0
  0000000010008731: 74 45              je          0000000010008778
  0000000010008733: 48 8B 45 F0        mov         rax,qword ptr [rbp-10h]
  0000000010008737: 48 83 38 01        cmp         qword ptr [rax],1
  000000001000873B: 75 3B              jne         0000000010008778
  000000001000873D: 48 8B 45 F0        mov         rax,qword ptr [rbp-10h]
  0000000010008741: 48 8B 40 08        mov         rax,qword ptr [rax+8]
  0000000010008745: 48 8B 00           mov         rax,qword ptr [rax]
  0000000010008748: B9 80 01 00 00     mov         ecx,180h
  000000001000874D: 48 0F A3 C1        bt          rcx,rax
  0000000010008751: 72 12              jb          0000000010008765
  0000000010008753: 48 8B 45 10        mov         rax,qword ptr [rbp+10h]
  0000000010008757: 48 8B 4D F0        mov         rcx,qword ptr [rbp-10h]
  000000001000875B: 48 8B 49 08        mov         rcx,qword ptr [rcx+8]
  000000001000875F: 48 89 48 40        mov         qword ptr [rax+40h],rcx
  0000000010008763: EB 11              jmp         0000000010008776
  0000000010008765: 48 8D 8B 00 F9 FF  lea         rcx,[rbx+FFFFFFFFFFFFF900h]
                    FF
  000000001000876C: BA 0D 00 00 00     mov         edx,0Dh
  0000000010008771: E8 AA B8 FF FF     call        0000000010004020
  0000000010008776: EB 11              jmp         0000000010008789
  0000000010008778: 48 8D 8B 20 F9 FF  lea         rcx,[rbx+FFFFFFFFFFFFF920h]
                    FF
  000000001000877F: BA 09 00 00 00     mov         edx,9
  0000000010008784: E8 97 B8 FF FF     call        0000000010004020
  0000000010008789: C9                 leave
  000000001000878A: C3                 ret
  000000001000878B: 90                 nop
  000000001000878C: 90                 nop
  000000001000878D: 90                 nop
  000000001000878E: 90                 nop
  000000001000878F: 90                 nop
  0000000010008790: 55                 push        rbp
  0000000010008791: 48 8B EC           mov         rbp,rsp
  0000000010008794: 48 83 EC 50        sub         rsp,50h
  0000000010008798: 48 89 75 D0        mov         qword ptr [rbp-30h],rsi
  000000001000879C: 48 89 7D D8        mov         qword ptr [rbp-28h],rdi
  00000000100087A0: 48 89 4D 10        mov         qword ptr [rbp+10h],rcx
  00000000100087A4: 48 C7 45 F8 00 00  mov         qword ptr [rbp-8],0
                    00 00
  00000000100087AC: 48 C7 45 F0 00 00  mov         qword ptr [rbp-10h],0
                    00 00
  00000000100087B4: 48 C7 45 E8 00 00  mov         qword ptr [rbp-18h],0
                    00 00
  00000000100087BC: 48 C7 45 E0 00 00  mov         qword ptr [rbp-20h],0
                    00 00
  00000000100087C4: FF 93 30 FD FF FF  call        qword ptr [rbx+FFFFFFFFFFFFFD30h]
  00000000100087CA: 48 89 45 F8        mov         qword ptr [rbp-8],rax
  00000000100087CE: E8 2D B8 FF FF     call        0000000010004000
  00000000100087D3: B9 32 00 00 00     mov         ecx,32h
  00000000100087D8: E8 63 B8 FF FF     call        0000000010004040
  00000000100087DD: 48 83 7D 10 00     cmp         qword ptr [rbp+10h],0
  00000000100087E2: 74 0C              je          00000000100087F0
  00000000100087E4: 48 8B 45 10        mov         rax,qword ptr [rbp+10h]
  00000000100087E8: 48 8B 4D F8        mov         rcx,qword ptr [rbp-8]
  00000000100087EC: 48 89 48 08        mov         qword ptr [rax+8],rcx
  00000000100087F0: 48 83 BB F8 DF FF  cmp         qword ptr [rbx+FFFFFFFFFFFFDFF8h],1Fh
                    FF 1F
  00000000100087F8: 0F 85 5C 01 00 00  jne         000000001000895A
  00000000100087FE: 48 8B 83 28 FD FF  mov         rax,qword ptr [rbx+FFFFFFFFFFFFFD28h]
                    FF
  0000000010008805: 48 8B 00           mov         rax,qword ptr [rax]
  0000000010008808: 48 8B 00           mov         rax,qword ptr [rax]
  000000001000880B: 48 89 45 F0        mov         qword ptr [rbp-10h],rax
  000000001000880F: 48 83 7D F0 00     cmp         qword ptr [rbp-10h],0
  0000000010008814: 74 53              je          0000000010008869
  0000000010008816: 48 8B 75 F0        mov         rsi,qword ptr [rbp-10h]
  000000001000881A: 48 8D 76 02        lea         rsi,[rsi+2]
  000000001000881E: 48 8B BB 28 FE FF  mov         rdi,qword ptr [rbx+FFFFFFFFFFFFFE28h]
                    FF
  0000000010008825: 31 C0              xor         eax,eax
  0000000010008827: 48 83 C0 01        add         rax,1
  000000001000882B: 48 83 F8 40        cmp         rax,40h
  000000001000882F: 77 02              ja          0000000010008833
  0000000010008831: EB 08              jmp         000000001000883B
  0000000010008833: B0 07              mov         al,7
  0000000010008835: B9 1C 7B 00 00     mov         ecx,7B1Ch
  000000001000883A: CC                 int         3
  000000001000883B: 48 83 F8 40        cmp         rax,40h
  000000001000883F: 77 02              ja          0000000010008843
  0000000010008841: EB 08              jmp         000000001000884B
  0000000010008843: B0 07              mov         al,7
  0000000010008845: B9 1C 7B 00 00     mov         ecx,7B1Ch
  000000001000884A: CC                 int         3
  000000001000884B: 66 A7              cmps        word ptr [rsi],word ptr [rdi]
  000000001000884D: 75 07              jne         0000000010008856
  000000001000884F: 66 83 7E FE 00     cmp         word ptr [rsi-2],0
  0000000010008854: 75 D1              jne         0000000010008827
  0000000010008856: 74 11              je          0000000010008869
  0000000010008858: 48 8B 45 F0        mov         rax,qword ptr [rbp-10h]
  000000001000885C: 48 8B 80 90 00 00  mov         rax,qword ptr [rax+0000000000000090h]
                    00
  0000000010008863: 48 89 45 F0        mov         qword ptr [rbp-10h],rax
  0000000010008867: EB A6              jmp         000000001000880F
  0000000010008869: 48 83 7D F0 00     cmp         qword ptr [rbp-10h],0
  000000001000886E: 74 4F              je          00000000100088BF
  0000000010008870: 48 8B 45 F0        mov         rax,qword ptr [rbp-10h]
  0000000010008874: 48 8B 80 88 00 00  mov         rax,qword ptr [rax+0000000000000088h]
                    00
  000000001000887B: 48 89 45 E8        mov         qword ptr [rbp-18h],rax
  000000001000887F: 48 8B 45 E8        mov         rax,qword ptr [rbp-18h]
  0000000010008883: 48 83 38 01        cmp         qword ptr [rax],1
  0000000010008887: 75 20              jne         00000000100088A9
  0000000010008889: 48 8B 45 E8        mov         rax,qword ptr [rbp-18h]
  000000001000888D: 48 8B 40 08        mov         rax,qword ptr [rax+8]
  0000000010008891: 48 83 38 08        cmp         qword ptr [rax],8
  0000000010008895: 75 12              jne         00000000100088A9
  0000000010008897: 48 8B 45 F8        mov         rax,qword ptr [rbp-8]
  000000001000889B: 48 8B 4D E8        mov         rcx,qword ptr [rbp-18h]
  000000001000889F: 48 8B 49 08        mov         rcx,qword ptr [rcx+8]
  00000000100088A3: 48 89 48 40        mov         qword ptr [rax+40h],rcx
  00000000100088A7: EB 11              jmp         00000000100088BA
  00000000100088A9: 48 8D 8B 40 F9 FF  lea         rcx,[rbx+FFFFFFFFFFFFF940h]
                    FF
  00000000100088B0: BA 10 00 00 00     mov         edx,10h
  00000000100088B5: E8 66 B7 FF FF     call        0000000010004020
  00000000100088BA: E9 94 00 00 00     jmp         0000000010008953
  00000000100088BF: 48 8B 4B C0        mov         rcx,qword ptr [rbx-40h]
  00000000100088C3: BA 08 00 00 00     mov         edx,8
  00000000100088C8: 41 B8 A0 00 00 00  mov         r8d,0A0h
  00000000100088CE: FF 53 E8           call        qword ptr [rbx-18h]
  00000000100088D1: 48 83 C0 10        add         rax,10h
  00000000100088D5: 48 8D 8B 70 EE FF  lea         rcx,[rbx+FFFFFFFFFFFFEE70h]
                    FF
  00000000100088DC: 48 89 48 F8        mov         qword ptr [rax-8],rcx
  00000000100088E0: 48 89 45 E0        mov         qword ptr [rbp-20h],rax
  00000000100088E4: 48 8B 45 E0        mov         rax,qword ptr [rbp-20h]
  00000000100088E8: 48 8B 4D F8        mov         rcx,qword ptr [rbp-8]
  00000000100088EC: 48 89 88 80 00 00  mov         qword ptr [rax+0000000000000080h],rcx
                    00
  00000000100088F3: 48 8B 7D E0        mov         rdi,qword ptr [rbp-20h]
  00000000100088F7: 48 8B B3 28 FE FF  mov         rsi,qword ptr [rbx+FFFFFFFFFFFFFE28h]
                    FF
  00000000100088FE: 31 C9              xor         ecx,ecx
  0000000010008900: 31 C0              xor         eax,eax
  0000000010008902: 48 83 C1 01        add         rcx,1
  0000000010008906: BA 40 00 00 00     mov         edx,40h
  000000001000890B: 48 3B CA           cmp         rcx,rdx
  000000001000890E: 77 02              ja          0000000010008912
  0000000010008910: EB 08              jmp         000000001000891A
  0000000010008912: B0 07              mov         al,7
  0000000010008914: B9 19 7C 00 00     mov         ecx,7C19h
  0000000010008919: CC                 int         3
  000000001000891A: BA 40 00 00 00     mov         edx,40h
  000000001000891F: 48 3B CA           cmp         rcx,rdx
  0000000010008922: 77 02              ja          0000000010008926
  0000000010008924: EB 08              jmp         000000001000892E
  0000000010008926: B0 07              mov         al,7
  0000000010008928: B9 19 7C 00 00     mov         ecx,7C19h
  000000001000892D: CC                 int         3
  000000001000892E: 66 AD              lods        word ptr [rsi]
  0000000010008930: 66 AB              stos        word ptr [rdi]
  0000000010008932: 85 C0              test        eax,eax
  0000000010008934: 75 CC              jne         0000000010008902
  0000000010008936: 48 8B 45 E0        mov         rax,qword ptr [rbp-20h]
  000000001000893A: 48 8B 8B F0 DF FF  mov         rcx,qword ptr [rbx+FFFFFFFFFFFFDFF0h]
                    FF
  0000000010008941: 48 89 88 88 00 00  mov         qword ptr [rax+0000000000000088h],rcx
                    00
  0000000010008948: 48 8B 45 E0        mov         rax,qword ptr [rbp-20h]
  000000001000894C: 48 89 83 F0 DF FF  mov         qword ptr [rbx+FFFFFFFFFFFFDFF0h],rax
                    FF
  0000000010008953: E8 A8 B6 FF FF     call        0000000010004000
  0000000010008958: EB 2E              jmp         0000000010008988
  000000001000895A: 48 83 BB F8 DF FF  cmp         qword ptr [rbx+FFFFFFFFFFFFDFF8h],3Dh
                    FF 3D
  0000000010008962: 75 13              jne         0000000010008977
  0000000010008964: 48 8B 75 F8        mov         rsi,qword ptr [rbp-8]
  0000000010008968: 48 8B 83 E0 DF FF  mov         rax,qword ptr [rbx+FFFFFFFFFFFFDFE0h]
                    FF
  000000001000896F: FF D0              call        rax
  0000000010008971: 48 89 46 40        mov         qword ptr [rsi+40h],rax
  0000000010008975: EB 11              jmp         0000000010008988
  0000000010008977: 48 8D 8B 60 F9 FF  lea         rcx,[rbx+FFFFFFFFFFFFF960h]
                    FF
  000000001000897E: BA 0B 00 00 00     mov         edx,0Bh
  0000000010008983: E8 98 B6 FF FF     call        0000000010004020
  0000000010008988: 48 8B 4D F8        mov         rcx,qword ptr [rbp-8]
  000000001000898C: FF 93 20 FD FF FF  call        qword ptr [rbx+FFFFFFFFFFFFFD20h]
  0000000010008992: 48 8B 45 F8        mov         rax,qword ptr [rbp-8]
  0000000010008996: 48 8B 75 D0        mov         rsi,qword ptr [rbp-30h]
  000000001000899A: 48 8B 7D D8        mov         rdi,qword ptr [rbp-28h]
  000000001000899E: C9                 leave
  000000001000899F: C3                 ret
  00000000100089A0: 55                 push        rbp
  00000000100089A1: 48 8B EC           mov         rbp,rsp
  00000000100089A4: 48 83 EC 40        sub         rsp,40h
  00000000100089A8: 48 89 75 E0        mov         qword ptr [rbp-20h],rsi
  00000000100089AC: 48 89 4D 10        mov         qword ptr [rbp+10h],rcx
  00000000100089B0: 48 C7 45 F8 00 00  mov         qword ptr [rbp-8],0
                    00 00
  00000000100089B8: 48 C7 45 F0 00 00  mov         qword ptr [rbp-10h],0
                    00 00
  00000000100089C0: 48 C7 45 E8 00 00  mov         qword ptr [rbp-18h],0
                    00 00
  00000000100089C8: 48 8B 8B 28 FE FF  mov         rcx,qword ptr [rbx+FFFFFFFFFFFFFE28h]
                    FF
  00000000100089CF: E8 AC C4 FF FF     call        0000000010004E80
  00000000100089D4: 48 89 45 F8        mov         qword ptr [rbp-8],rax
  00000000100089D8: E8 23 B6 FF FF     call        0000000010004000
  00000000100089DD: 48 8B 4D F8        mov         rcx,qword ptr [rbp-8]
  00000000100089E1: E8 1A FA FF FF     call        0000000010008400
  00000000100089E6: 48 83 BB F8 DF FF  cmp         qword ptr [rbx+FFFFFFFFFFFFDFF8h],28h
                    FF 28
  00000000100089EE: 75 67              jne         0000000010008A57
  00000000100089F0: E8 0B B6 FF FF     call        0000000010004000
  00000000100089F5: 48 83 BB F8 DF FF  cmp         qword ptr [rbx+FFFFFFFFFFFFDFF8h],1Fh
                    FF 1F
  00000000100089FD: 75 2F              jne         0000000010008A2E
  00000000100089FF: 48 8B 8B 28 FE FF  mov         rcx,qword ptr [rbx+FFFFFFFFFFFFFE28h]
                    FF
  0000000010008A06: E8 75 C4 FF FF     call        0000000010004E80
  0000000010008A0B: 48 89 45 F0        mov         qword ptr [rbp-10h],rax
  0000000010008A0F: E8 EC B5 FF FF     call        0000000010004000
  0000000010008A14: 48 8B 4D F0        mov         rcx,qword ptr [rbp-10h]
  0000000010008A18: E8 E3 F9 FF FF     call        0000000010008400
  0000000010008A1D: 48 83 7D F8 00     cmp         qword ptr [rbp-8],0
  0000000010008A22: 75 08              jne         0000000010008A2C
  0000000010008A24: 48 8B 45 F0        mov         rax,qword ptr [rbp-10h]
  0000000010008A28: 48 89 45 F8        mov         qword ptr [rbp-8],rax
  0000000010008A2C: EB 27              jmp         0000000010008A55
  0000000010008A2E: 48 83 BB F8 DF FF  cmp         qword ptr [rbx+FFFFFFFFFFFFDFF8h],1Fh
                    FF 1F
  0000000010008A36: 7D 0C              jge         0000000010008A44
  0000000010008A38: B9 1F 00 00 00     mov         ecx,1Fh
  0000000010008A3D: E8 DE B7 FF FF     call        0000000010004220
  0000000010008A42: EB 11              jmp         0000000010008A55
  0000000010008A44: 48 8D 8B 80 F9 FF  lea         rcx,[rbx+FFFFFFFFFFFFF980h]
                    FF
  0000000010008A4B: BA 09 00 00 00     mov         edx,9
  0000000010008A50: E8 CB B5 FF FF     call        0000000010004020
  0000000010008A55: EB 8F              jmp         00000000100089E6
  0000000010008A57: B9 29 00 00 00     mov         ecx,29h
  0000000010008A5C: E8 DF B5 FF FF     call        0000000010004040
  0000000010008A61: 48 8B 83 E0 DF FF  mov         rax,qword ptr [rbx+FFFFFFFFFFFFDFE0h]
                    FF
  0000000010008A68: FF D0              call        rax
  0000000010008A6A: 48 89 45 E8        mov         qword ptr [rbp-18h],rax
  0000000010008A6E: 48 8B 45 F8        mov         rax,qword ptr [rbp-8]
  0000000010008A72: 48 89 45 F0        mov         qword ptr [rbp-10h],rax
  0000000010008A76: 48 83 7D F0 00     cmp         qword ptr [rbp-10h],0
  0000000010008A7B: 74 2A              je          0000000010008AA7
  0000000010008A7D: 48 8B 75 F0        mov         rsi,qword ptr [rbp-10h]
  0000000010008A81: 48 8B 4D 10        mov         rcx,qword ptr [rbp+10h]
  0000000010008A85: 48 8B 55 E8        mov         rdx,qword ptr [rbp-18h]
  0000000010008A89: FF 93 18 FD FF FF  call        qword ptr [rbx+FFFFFFFFFFFFFD18h]
  0000000010008A8F: 48 89 86 88 00 00  mov         qword ptr [rsi+0000000000000088h],rax
                    00
  0000000010008A96: 48 8B 45 F0        mov         rax,qword ptr [rbp-10h]
  0000000010008A9A: 48 8B 80 90 00 00  mov         rax,qword ptr [rax+0000000000000090h]
                    00
  0000000010008AA1: 48 89 45 F0        mov         qword ptr [rbp-10h],rax
  0000000010008AA5: EB CF              jmp         0000000010008A76
  0000000010008AA7: 48 8B 75 E0        mov         rsi,qword ptr [rbp-20h]
  0000000010008AAB: C9                 leave
  0000000010008AAC: C3                 ret
  0000000010008AAD: 90                 nop
  0000000010008AAE: 90                 nop
  0000000010008AAF: 90                 nop
  0000000010008AB0: 55                 push        rbp
  0000000010008AB1: 48 8B EC           mov         rbp,rsp
  0000000010008AB4: 48 83 EC 40        sub         rsp,40h
  0000000010008AB8: 48 C7 45 F8 00 00  mov         qword ptr [rbp-8],0
                    00 00
  0000000010008AC0: 48 C7 45 F0 00 00  mov         qword ptr [rbp-10h],0
                    00 00
  0000000010008AC8: 48 C7 45 E8 00 00  mov         qword ptr [rbp-18h],0
                    00 00
  0000000010008AD0: 48 83 BB F8 DF FF  cmp         qword ptr [rbx+FFFFFFFFFFFFDFF8h],1Fh
                    FF 1F
  0000000010008AD8: 0F 85 C6 00 00 00  jne         0000000010008BA4
  0000000010008ADE: E8 6D C7 FF FF     call        0000000010005250
  0000000010008AE3: 48 89 45 E8        mov         qword ptr [rbp-18h],rax
  0000000010008AE7: 48 83 7D E8 00     cmp         qword ptr [rbp-18h],0
  0000000010008AEC: 0F 84 B0 00 00 00  je          0000000010008BA2
  0000000010008AF2: 48 8B 45 E8        mov         rax,qword ptr [rbp-18h]
  0000000010008AF6: 48 83 38 01        cmp         qword ptr [rax],1
  0000000010008AFA: 75 1C              jne         0000000010008B18
  0000000010008AFC: 48 8B 45 E8        mov         rax,qword ptr [rbp-18h]
  0000000010008B00: 48 8B 40 08        mov         rax,qword ptr [rax+8]
  0000000010008B04: 48 83 38 08        cmp         qword ptr [rax],8
  0000000010008B08: 75 0E              jne         0000000010008B18
  0000000010008B0A: 48 8B 45 E8        mov         rax,qword ptr [rbp-18h]
  0000000010008B0E: 48 8B 40 08        mov         rax,qword ptr [rax+8]
  0000000010008B12: 48 89 45 F8        mov         qword ptr [rbp-8],rax
  0000000010008B16: EB 61              jmp         0000000010008B79
  0000000010008B18: 48 8B 45 E8        mov         rax,qword ptr [rbp-18h]
  0000000010008B1C: 48 83 38 01        cmp         qword ptr [rax],1
  0000000010008B20: 75 46              jne         0000000010008B68
  0000000010008B22: 48 8B 45 E8        mov         rax,qword ptr [rbp-18h]
  0000000010008B26: 48 8B 40 08        mov         rax,qword ptr [rax+8]
  0000000010008B2A: 48 83 38 05        cmp         qword ptr [rax],5
  0000000010008B2E: 75 38              jne         0000000010008B68
  0000000010008B30: 48 8B 45 E8        mov         rax,qword ptr [rbp-18h]
  0000000010008B34: 48 8B 40 08        mov         rax,qword ptr [rax+8]
  0000000010008B38: 48 89 45 F0        mov         qword ptr [rbp-10h],rax
  0000000010008B3C: 48 8B 45 F0        mov         rax,qword ptr [rbp-10h]
  0000000010008B40: 48 83 78 40 00     cmp         qword ptr [rax+40h],0
  0000000010008B45: 74 0E              je          0000000010008B55
  0000000010008B47: 48 8B 45 F0        mov         rax,qword ptr [rbp-10h]
  0000000010008B4B: 48 8B 40 40        mov         rax,qword ptr [rax+40h]
  0000000010008B4F: 48 89 45 F8        mov         qword ptr [rbp-8],rax
  0000000010008B53: EB 11              jmp         0000000010008B66
  0000000010008B55: 48 8D 8B A0 F9 FF  lea         rcx,[rbx+FFFFFFFFFFFFF9A0h]
                    FF
  0000000010008B5C: BA 1D 00 00 00     mov         edx,1Dh
  0000000010008B61: E8 BA B4 FF FF     call        0000000010004020
  0000000010008B66: EB 11              jmp         0000000010008B79
  0000000010008B68: 48 8D 8B E0 F9 FF  lea         rcx,[rbx+FFFFFFFFFFFFF9E0h]
                    FF
  0000000010008B6F: BA 10 00 00 00     mov         edx,10h
  0000000010008B74: E8 A7 B4 FF FF     call        0000000010004020
  0000000010008B79: 48 83 7D F8 00     cmp         qword ptr [rbp-8],0
  0000000010008B7E: 74 22              je          0000000010008BA2
  0000000010008B80: 48 8B 45 F8        mov         rax,qword ptr [rbp-8]
  0000000010008B84: 48 83 78 20 07     cmp         qword ptr [rax+20h],7
  0000000010008B89: 7C 17              jl          0000000010008BA2
  0000000010008B8B: 48 8D 8B 00 FA FF  lea         rcx,[rbx+FFFFFFFFFFFFFA00h]
                    FF
  0000000010008B92: BA 1C 00 00 00     mov         edx,1Ch
  0000000010008B97: E8 84 B4 FF FF     call        0000000010004020
  0000000010008B9C: 31 C0              xor         eax,eax
  0000000010008B9E: 48 89 45 F8        mov         qword ptr [rbp-8],rax
  0000000010008BA2: EB 0A              jmp         0000000010008BAE
  0000000010008BA4: B9 1F 00 00 00     mov         ecx,1Fh
  0000000010008BA9: E8 72 B6 FF FF     call        0000000010004220
  0000000010008BAE: 48 8B 45 F8        mov         rax,qword ptr [rbp-8]
  0000000010008BB2: C9                 leave
  0000000010008BB3: C3                 ret
  0000000010008BB4: 90                 nop
  0000000010008BB5: 90                 nop
  0000000010008BB6: 90                 nop
  0000000010008BB7: 90                 nop
  0000000010008BB8: 90                 nop
  0000000010008BB9: 90                 nop
  0000000010008BBA: 90                 nop
  0000000010008BBB: 90                 nop
  0000000010008BBC: 90                 nop
  0000000010008BBD: 90                 nop
  0000000010008BBE: 90                 nop
  0000000010008BBF: 90                 nop
  0000000010008BC0: 55                 push        rbp
  0000000010008BC1: 48 8B EC           mov         rbp,rsp
  0000000010008BC4: 48 83 EC 30        sub         rsp,30h
  0000000010008BC8: 48 C7 45 F8 00 00  mov         qword ptr [rbp-8],0
                    00 00
  0000000010008BD0: E8 2B E7 FF FF     call        0000000010007300
  0000000010008BD5: 48 89 45 F8        mov         qword ptr [rbp-8],rax
  0000000010008BD9: 31 C0              xor         eax,eax
  0000000010008BDB: 48 89 45 F0        mov         qword ptr [rbp-10h],rax
  0000000010008BDF: 48 8B 45 F8        mov         rax,qword ptr [rbp-8]
  0000000010008BE3: 48 8B 40 08        mov         rax,qword ptr [rax+8]
  0000000010008BE7: 48 83 38 00        cmp         qword ptr [rax],0
  0000000010008BEB: 75 2D              jne         0000000010008C1A
  0000000010008BED: 48 8B 83 98 FE FF  mov         rax,qword ptr [rbx+FFFFFFFFFFFFFE98h]
                    FF
  0000000010008BF4: 48 8B 4D F8        mov         rcx,qword ptr [rbp-8]
  0000000010008BF8: 48 8B 49 F8        mov         rcx,qword ptr [rcx-8]
  0000000010008BFC: 48 39 41 08        cmp         qword ptr [rcx+8],rax
  0000000010008C00: 75 02              jne         0000000010008C04
  0000000010008C02: EB 08              jmp         0000000010008C0C
  0000000010008C04: B0 02              mov         al,2
  0000000010008C06: B9 0A 82 00 00     mov         ecx,820Ah
  0000000010008C0B: CC                 int         3
  0000000010008C0C: 48 8B 45 F8        mov         rax,qword ptr [rbp-8]
  0000000010008C10: 48 8B 40 28        mov         rax,qword ptr [rax+28h]
  0000000010008C14: 48 89 45 F0        mov         qword ptr [rbp-10h],rax
  0000000010008C18: EB 11              jmp         0000000010008C2B
  0000000010008C1A: 48 8D 8B 40 FA FF  lea         rcx,[rbx+FFFFFFFFFFFFFA40h]
                    FF
  0000000010008C21: BA 08 00 00 00     mov         edx,8
  0000000010008C26: E8 F5 B3 FF FF     call        0000000010004020
  0000000010008C2B: 48 83 7D F0 00     cmp         qword ptr [rbp-10h],0
  0000000010008C30: 7D 11              jge         0000000010008C43
  0000000010008C32: 48 8D 8B 50 FA FF  lea         rcx,[rbx+FFFFFFFFFFFFFA50h]
                    FF
  0000000010008C39: BA 15 00 00 00     mov         edx,15h
  0000000010008C3E: E8 DD B3 FF FF     call        0000000010004020
  0000000010008C43: 48 8B 45 F0        mov         rax,qword ptr [rbp-10h]
  0000000010008C47: C9                 leave
  0000000010008C48: C3                 ret
  0000000010008C49: 90                 nop
  0000000010008C4A: 90                 nop
  0000000010008C4B: 90                 nop
  0000000010008C4C: 90                 nop
  0000000010008C4D: 90                 nop
  0000000010008C4E: 90                 nop
  0000000010008C4F: 90                 nop
  0000000010008C50: 55                 push        rbp
  0000000010008C51: 48 8B EC           mov         rbp,rsp
  0000000010008C54: 48 83 EC 60        sub         rsp,60h
  0000000010008C58: 48 89 75 C0        mov         qword ptr [rbp-40h],rsi
  0000000010008C5C: 48 C7 45 F8 00 00  mov         qword ptr [rbp-8],0
                    00 00
  0000000010008C64: 48 C7 45 F0 00 00  mov         qword ptr [rbp-10h],0
                    00 00
  0000000010008C6C: 48 C7 45 E8 00 00  mov         qword ptr [rbp-18h],0
                    00 00
  0000000010008C74: 48 C7 45 E0 00 00  mov         qword ptr [rbp-20h],0
                    00 00
  0000000010008C7C: 48 C7 45 D8 00 00  mov         qword ptr [rbp-28h],0
                    00 00
  0000000010008C84: 48 C7 45 D0 00 00  mov         qword ptr [rbp-30h],0
                    00 00
  0000000010008C8C: 48 8B 83 80 FE FF  mov         rax,qword ptr [rbx+FFFFFFFFFFFFFE80h]
                    FF
  0000000010008C93: 48 8B 00           mov         rax,qword ptr [rax]
  0000000010008C96: 48 89 45 F8        mov         qword ptr [rbp-8],rax
  0000000010008C9A: 48 83 BB F8 DF FF  cmp         qword ptr [rbx+FFFFFFFFFFFFDFF8h],1Fh
                    FF 1F
  0000000010008CA2: 75 3E              jne         0000000010008CE2
  0000000010008CA4: E8 A7 C5 FF FF     call        0000000010005250
  0000000010008CA9: 48 89 45 E0        mov         qword ptr [rbp-20h],rax
  0000000010008CAD: 48 83 7D E0 00     cmp         qword ptr [rbp-20h],0
  0000000010008CB2: 74 18              je          0000000010008CCC
  0000000010008CB4: 48 8B 45 E0        mov         rax,qword ptr [rbp-20h]
  0000000010008CB8: 48 83 38 01        cmp         qword ptr [rax],1
  0000000010008CBC: 75 0E              jne         0000000010008CCC
  0000000010008CBE: 48 8B 45 E0        mov         rax,qword ptr [rbp-20h]
  0000000010008CC2: 48 8B 40 08        mov         rax,qword ptr [rax+8]
  0000000010008CC6: 48 89 45 F8        mov         qword ptr [rbp-8],rax
  0000000010008CCA: EB 11              jmp         0000000010008CDD
  0000000010008CCC: 48 8D 8B 80 FA FF  lea         rcx,[rbx+FFFFFFFFFFFFFA80h]
                    FF
  0000000010008CD3: BA 09 00 00 00     mov         edx,9
  0000000010008CD8: E8 43 B3 FF FF     call        0000000010004020
  0000000010008CDD: E9 D2 01 00 00     jmp         0000000010008EB4
  0000000010008CE2: 48 83 BB F8 DF FF  cmp         qword ptr [rbx+FFFFFFFFFFFFDFF8h],3Ch
                    FF 3C
  0000000010008CEA: 0F 85 9F 00 00 00  jne         0000000010008D8F
  0000000010008CF0: E8 0B B3 FF FF     call        0000000010004000
  0000000010008CF5: E8 C6 FE FF FF     call        0000000010008BC0
  0000000010008CFA: 48 89 45 C8        mov         qword ptr [rbp-38h],rax
  0000000010008CFE: 48 8B 4D C8        mov         rcx,qword ptr [rbp-38h]
  0000000010008D02: FF 93 50 FD FF FF  call        qword ptr [rbx+FFFFFFFFFFFFFD50h]
  0000000010008D08: 48 89 45 F8        mov         qword ptr [rbp-8],rax
  0000000010008D0C: 48 8B 45 F8        mov         rax,qword ptr [rbp-8]
  0000000010008D10: 48 89 45 F0        mov         qword ptr [rbp-10h],rax
  0000000010008D14: 48 83 BB F8 DF FF  cmp         qword ptr [rbx+FFFFFFFFFFFFDFF8h],28h
                    FF 28
  0000000010008D1C: 75 4B              jne         0000000010008D69
  0000000010008D1E: E8 DD B2 FF FF     call        0000000010004000
  0000000010008D23: 48 83 BB F8 DF FF  cmp         qword ptr [rbx+FFFFFFFFFFFFDFF8h],1Fh
                    FF 1F
  0000000010008D2B: 7F 29              jg          0000000010008D56
  0000000010008D2D: E8 8E FE FF FF     call        0000000010008BC0
  0000000010008D32: 48 89 45 C8        mov         qword ptr [rbp-38h],rax
  0000000010008D36: 48 8B 75 F0        mov         rsi,qword ptr [rbp-10h]
  0000000010008D3A: 48 8B 4D C8        mov         rcx,qword ptr [rbp-38h]
  0000000010008D3E: FF 93 50 FD FF FF  call        qword ptr [rbx+FFFFFFFFFFFFFD50h]
  0000000010008D44: 48 89 46 40        mov         qword ptr [rsi+40h],rax
  0000000010008D48: 48 8B 45 F0        mov         rax,qword ptr [rbp-10h]
  0000000010008D4C: 48 8B 40 40        mov         rax,qword ptr [rax+40h]
  0000000010008D50: 48 89 45 F0        mov         qword ptr [rbp-10h],rax
  0000000010008D54: EB 11              jmp         0000000010008D67
  0000000010008D56: 48 8D 8B A0 FA FF  lea         rcx,[rbx+FFFFFFFFFFFFFAA0h]
                    FF
  0000000010008D5D: BA 09 00 00 00     mov         edx,9
  0000000010008D62: E8 B9 B2 FF FF     call        0000000010004020
  0000000010008D67: EB AB              jmp         0000000010008D14
  0000000010008D69: B9 30 00 00 00     mov         ecx,30h
  0000000010008D6E: E8 CD B2 FF FF     call        0000000010004040
  0000000010008D73: 48 8B 75 F0        mov         rsi,qword ptr [rbp-10h]
  0000000010008D77: E8 D4 FE FF FF     call        0000000010008C50
  0000000010008D7C: 48 89 46 40        mov         qword ptr [rsi+40h],rax
  0000000010008D80: 48 8B 4D F8        mov         rcx,qword ptr [rbp-8]
  0000000010008D84: FF 93 10 FD FF FF  call        qword ptr [rbx+FFFFFFFFFFFFFD10h]
  0000000010008D8A: E9 25 01 00 00     jmp         0000000010008EB4
  0000000010008D8F: 48 83 BB F8 DF FF  cmp         qword ptr [rbx+FFFFFFFFFFFFDFF8h],3Dh
                    FF 3D
  0000000010008D97: 0F 85 C1 00 00 00  jne         0000000010008E5E
  0000000010008D9D: FF 93 08 FD FF FF  call        qword ptr [rbx+FFFFFFFFFFFFFD08h]
  0000000010008DA3: 48 89 45 F8        mov         qword ptr [rbp-8],rax
  0000000010008DA7: E8 54 B2 FF FF     call        0000000010004000
  0000000010008DAC: 48 83 BB F8 DF FF  cmp         qword ptr [rbx+FFFFFFFFFFFFDFF8h],1Ch
                    FF 1C
  0000000010008DB4: 75 31              jne         0000000010008DE7
  0000000010008DB6: E8 45 B2 FF FF     call        0000000010004000
  0000000010008DBB: 48 8B 75 F8        mov         rsi,qword ptr [rbp-8]
  0000000010008DBF: E8 EC FC FF FF     call        0000000010008AB0
  0000000010008DC4: 48 89 46 40        mov         qword ptr [rsi+40h],rax
  0000000010008DC8: B9 2C 00 00 00     mov         ecx,2Ch
  0000000010008DCD: E8 6E B2 FF FF     call        0000000010004040
  0000000010008DD2: 48 8B 45 F8        mov         rax,qword ptr [rbp-8]
  0000000010008DD6: 48 83 78 40 00     cmp         qword ptr [rax+40h],0
  0000000010008DDB: 74 0A              je          0000000010008DE7
  0000000010008DDD: 48 8B 4D F8        mov         rcx,qword ptr [rbp-8]
  0000000010008DE1: FF 93 00 FD FF FF  call        qword ptr [rbx+FFFFFFFFFFFFFD00h]
  0000000010008DE7: FF 93 40 FD FF FF  call        qword ptr [rbx+FFFFFFFFFFFFFD40h]
  0000000010008DED: 48 83 BB F8 DF FF  cmp         qword ptr [rbx+FFFFFFFFFFFFDFF8h],1Fh
                    FF 1F
  0000000010008DF5: 75 40              jne         0000000010008E37
  0000000010008DF7: 48 8B 4D F8        mov         rcx,qword ptr [rbp-8]
  0000000010008DFB: E8 A0 FB FF FF     call        00000000100089A0
  0000000010008E00: 48 83 BB F8 DF FF  cmp         qword ptr [rbx+FFFFFFFFFFFFDFF8h],34h
                    FF 34
  0000000010008E08: 75 2D              jne         0000000010008E37
  0000000010008E0A: E8 F1 B1 FF FF     call        0000000010004000
  0000000010008E0F: 48 83 BB F8 DF FF  cmp         qword ptr [rbx+FFFFFFFFFFFFDFF8h],1Fh
                    FF 1F
  0000000010008E17: 75 0B              jne         0000000010008E24
  0000000010008E19: 48 8B 4D F8        mov         rcx,qword ptr [rbp-8]
  0000000010008E1D: E8 7E FB FF FF     call        00000000100089A0
  0000000010008E22: EB 11              jmp         0000000010008E35
  0000000010008E24: 48 8D 8B C0 FA FF  lea         rcx,[rbx+FFFFFFFFFFFFFAC0h]
                    FF
  0000000010008E2B: BA 17 00 00 00     mov         edx,17h
  0000000010008E30: E8 EB B1 FF FF     call        0000000010004020
  0000000010008E35: EB C9              jmp         0000000010008E00
  0000000010008E37: 48 8B 45 F8        mov         rax,qword ptr [rbp-8]
  0000000010008E3B: 48 8B 8B 40 FE FF  mov         rcx,qword ptr [rbx+FFFFFFFFFFFFFE40h]
                    FF
  0000000010008E42: 48 8B 09           mov         rcx,qword ptr [rcx]
  0000000010008E45: 48 8B 09           mov         rcx,qword ptr [rcx]
  0000000010008E48: 48 89 48 48        mov         qword ptr [rax+48h],rcx
  0000000010008E4C: FF 93 38 FD FF FF  call        qword ptr [rbx+FFFFFFFFFFFFFD38h]
  0000000010008E52: B9 35 00 00 00     mov         ecx,35h
  0000000010008E57: E8 E4 B1 FF FF     call        0000000010004040
  0000000010008E5C: EB 56              jmp         0000000010008EB4
  0000000010008E5E: 48 83 BB F8 DF FF  cmp         qword ptr [rbx+FFFFFFFFFFFFDFF8h],3Eh
                    FF 3E
  0000000010008E66: 75 0D              jne         0000000010008E75
  0000000010008E68: 31 C9              xor         ecx,ecx
  0000000010008E6A: E8 21 F9 FF FF     call        0000000010008790
  0000000010008E6F: 48 89 45 F8        mov         qword ptr [rbp-8],rax
  0000000010008E73: EB 3F              jmp         0000000010008EB4
  0000000010008E75: 48 83 BB F8 DF FF  cmp         qword ptr [rbx+FFFFFFFFFFFFDFF8h],49h
                    FF 49
  0000000010008E7D: 75 24              jne         0000000010008EA3
  0000000010008E7F: E8 7C B1 FF FF     call        0000000010004000
  0000000010008E84: FF 93 F8 FC FF FF  call        qword ptr [rbx+FFFFFFFFFFFFFCF8h]
  0000000010008E8A: 48 89 45 F8        mov         qword ptr [rbp-8],rax
  0000000010008E8E: 48 83 BB F8 DF FF  cmp         qword ptr [rbx+FFFFFFFFFFFFDFF8h],1Ch
                    FF 1C
  0000000010008E96: 75 09              jne         0000000010008EA1
  0000000010008E98: 48 8B 4D F8        mov         rcx,qword ptr [rbp-8]
  0000000010008E9C: E8 AF F7 FF FF     call        0000000010008650
  0000000010008EA1: EB 11              jmp         0000000010008EB4
  0000000010008EA3: 48 8D 8B F0 FA FF  lea         rcx,[rbx+FFFFFFFFFFFFFAF0h]
                    FF
  0000000010008EAA: BA 09 00 00 00     mov         edx,9
  0000000010008EAF: E8 6C B1 FF FF     call        0000000010004020
  0000000010008EB4: 48 8B 4D F8        mov         rcx,qword ptr [rbp-8]
  0000000010008EB8: FF 93 20 FD FF FF  call        qword ptr [rbx+FFFFFFFFFFFFFD20h]
  0000000010008EBE: 48 8B 45 F8        mov         rax,qword ptr [rbp-8]
  0000000010008EC2: 48 8B 75 C0        mov         rsi,qword ptr [rbp-40h]
  0000000010008EC6: C9                 leave
  0000000010008EC7: C3                 ret
  0000000010008EC8: 90                 nop
  0000000010008EC9: 90                 nop
  0000000010008ECA: 90                 nop
  0000000010008ECB: 90                 nop
  0000000010008ECC: 90                 nop
  0000000010008ECD: 90                 nop
  0000000010008ECE: 90                 nop
  0000000010008ECF: 90                 nop
  0000000010008ED0: 55                 push        rbp
  0000000010008ED1: 48 8B EC           mov         rbp,rsp
  0000000010008ED4: 48 81 EC 80 00 00  sub         rsp,80h
                    00
  0000000010008EDB: 48 89 75 A0        mov         qword ptr [rbp-60h],rsi
  0000000010008EDF: 48 89 7D A8        mov         qword ptr [rbp-58h],rdi
  0000000010008EE3: 48 89 4D 10        mov         qword ptr [rbp+10h],rcx
  0000000010008EE7: 48 C7 45 F8 00 00  mov         qword ptr [rbp-8],0
                    00 00
  0000000010008EEF: 48 C7 45 F0 00 00  mov         qword ptr [rbp-10h],0
                    00 00
  0000000010008EF7: 48 C7 45 E8 00 00  mov         qword ptr [rbp-18h],0
                    00 00
  0000000010008EFF: 48 C7 45 E0 00 00  mov         qword ptr [rbp-20h],0
                    00 00
  0000000010008F07: 48 C7 45 D8 00 00  mov         qword ptr [rbp-28h],0
                    00 00
  0000000010008F0F: 48 C7 45 D0 00 00  mov         qword ptr [rbp-30h],0
                    00 00
  0000000010008F17: 48 C7 45 C8 00 00  mov         qword ptr [rbp-38h],0
                    00 00
  0000000010008F1F: 48 C7 45 C0 00 00  mov         qword ptr [rbp-40h],0
                    00 00
  0000000010008F27: 48 C7 45 B8 00 00  mov         qword ptr [rbp-48h],0
                    00 00
  0000000010008F2F: 48 C7 45 B0 00 00  mov         qword ptr [rbp-50h],0
                    00 00
  0000000010008F37: 48 83 BB F8 DF FF  cmp         qword ptr [rbx+FFFFFFFFFFFFDFF8h],46h
                    FF 46
  0000000010008F3F: 75 6E              jne         0000000010008FAF
  0000000010008F41: E8 BA B0 FF FF     call        0000000010004000
  0000000010008F46: 48 83 BB F8 DF FF  cmp         qword ptr [rbx+FFFFFFFFFFFFDFF8h],1Fh
                    FF 1F
  0000000010008F4E: 75 5F              jne         0000000010008FAF
  0000000010008F50: 48 8B 8B 28 FE FF  mov         rcx,qword ptr [rbx+FFFFFFFFFFFFFE28h]
                    FF
  0000000010008F57: E8 24 BF FF FF     call        0000000010004E80
  0000000010008F5C: 48 89 45 F0        mov         qword ptr [rbp-10h],rax
  0000000010008F60: E8 9B B0 FF FF     call        0000000010004000
  0000000010008F65: 48 8B 4D F0        mov         rcx,qword ptr [rbp-10h]
  0000000010008F69: E8 92 F4 FF FF     call        0000000010008400
  0000000010008F6E: B9 09 00 00 00     mov         ecx,9
  0000000010008F73: E8 C8 B0 FF FF     call        0000000010004040
  0000000010008F78: E8 83 E3 FF FF     call        0000000010007300
  0000000010008F7D: 48 89 45 E0        mov         qword ptr [rbp-20h],rax
  0000000010008F81: 48 83 7D F0 00     cmp         qword ptr [rbp-10h],0
  0000000010008F86: 74 1B              je          0000000010008FA3
  0000000010008F88: 48 8B 45 F0        mov         rax,qword ptr [rbp-10h]
  0000000010008F8C: 48 8B 4D E0        mov         rcx,qword ptr [rbp-20h]
  0000000010008F90: 48 89 88 88 00 00  mov         qword ptr [rax+0000000000000088h],rcx
                    00
  0000000010008F97: 48 8B 45 E0        mov         rax,qword ptr [rbp-20h]
  0000000010008F9B: 48 8B 4D F0        mov         rcx,qword ptr [rbp-10h]
  0000000010008F9F: 48 89 48 10        mov         qword ptr [rax+10h],rcx
  0000000010008FA3: B9 34 00 00 00     mov         ecx,34h
  0000000010008FA8: E8 93 B0 FF FF     call        0000000010004040
  0000000010008FAD: EB 97              jmp         0000000010008F46
  0000000010008FAF: 48 83 BB F8 DF FF  cmp         qword ptr [rbx+FFFFFFFFFFFFDFF8h],47h
                    FF 47
  0000000010008FB7: 0F 85 E9 01 00 00  jne         00000000100091A6
  0000000010008FBD: E8 3E B0 FF FF     call        0000000010004000
  0000000010008FC2: 31 C0              xor         eax,eax
  0000000010008FC4: 48 89 83 F0 DF FF  mov         qword ptr [rbx+FFFFFFFFFFFFDFF0h],rax
                    FF
  0000000010008FCB: 48 83 BB F8 DF FF  cmp         qword ptr [rbx+FFFFFFFFFFFFDFF8h],1Fh
                    FF 1F
  0000000010008FD3: 0F 85 B2 01 00 00  jne         000000001000918B
  0000000010008FD9: 48 8B 8B 28 FE FF  mov         rcx,qword ptr [rbx+FFFFFFFFFFFFFE28h]
                    FF
  0000000010008FE0: E8 9B BE FF FF     call        0000000010004E80
  0000000010008FE5: 48 89 45 F0        mov         qword ptr [rbp-10h],rax
  0000000010008FE9: E8 12 B0 FF FF     call        0000000010004000
  0000000010008FEE: 48 8B 4D F0        mov         rcx,qword ptr [rbp-10h]
  0000000010008FF2: E8 09 F4 FF FF     call        0000000010008400
  0000000010008FF7: B9 09 00 00 00     mov         ecx,9
  0000000010008FFC: E8 3F B0 FF FF     call        0000000010004040
  0000000010009001: 48 83 BB F8 DF FF  cmp         qword ptr [rbx+FFFFFFFFFFFFDFF8h],3Eh
                    FF 3E
  0000000010009009: 74 3B              je          0000000010009046
  000000001000900B: E8 40 FC FF FF     call        0000000010008C50
  0000000010009010: 48 89 45 D8        mov         qword ptr [rbp-28h],rax
  0000000010009014: 48 8B 4D D8        mov         rcx,qword ptr [rbp-28h]
  0000000010009018: FF 93 78 FD FF FF  call        qword ptr [rbx+FFFFFFFFFFFFFD78h]
  000000001000901E: 48 89 45 E0        mov         qword ptr [rbp-20h],rax
  0000000010009022: 48 83 7D F0 00     cmp         qword ptr [rbp-10h],0
  0000000010009027: 74 1B              je          0000000010009044
  0000000010009029: 48 8B 45 F0        mov         rax,qword ptr [rbp-10h]
  000000001000902D: 48 8B 4D E0        mov         rcx,qword ptr [rbp-20h]
  0000000010009031: 48 89 88 88 00 00  mov         qword ptr [rax+0000000000000088h],rcx
                    00
  0000000010009038: 48 8B 45 E0        mov         rax,qword ptr [rbp-20h]
  000000001000903C: 48 8B 4D F0        mov         rcx,qword ptr [rbp-10h]
  0000000010009040: 48 89 48 10        mov         qword ptr [rax+10h],rcx
  0000000010009044: EB 5A              jmp         00000000100090A0
  0000000010009046: 48 8B 8B 80 FE FF  mov         rcx,qword ptr [rbx+FFFFFFFFFFFFFE80h]
                    FF
  000000001000904D: 48 8B 09           mov         rcx,qword ptr [rcx]
  0000000010009050: FF 93 78 FD FF FF  call        qword ptr [rbx+FFFFFFFFFFFFFD78h]
  0000000010009056: 48 89 45 E0        mov         qword ptr [rbp-20h],rax
  000000001000905A: 48 83 7D F0 00     cmp         qword ptr [rbp-10h],0
  000000001000905F: 74 1B              je          000000001000907C
  0000000010009061: 48 8B 45 F0        mov         rax,qword ptr [rbp-10h]
  0000000010009065: 48 8B 4D E0        mov         rcx,qword ptr [rbp-20h]
  0000000010009069: 48 89 88 88 00 00  mov         qword ptr [rax+0000000000000088h],rcx
                    00
  0000000010009070: 48 8B 45 E0        mov         rax,qword ptr [rbp-20h]
  0000000010009074: 48 8B 4D F0        mov         rcx,qword ptr [rbp-10h]
  0000000010009078: 48 89 48 10        mov         qword ptr [rax+10h],rcx
  000000001000907C: 48 8B 4D E0        mov         rcx,qword ptr [rbp-20h]
  0000000010009080: E8 0B F7 FF FF     call        0000000010008790
  0000000010009085: 48 89 45 D8        mov         qword ptr [rbp-28h],rax
  0000000010009089: 48 8B 45 D8        mov         rax,qword ptr [rbp-28h]
  000000001000908D: 48 83 78 60 00     cmp         qword ptr [rax+60h],0
  0000000010009092: 75 0C              jne         00000000100090A0
  0000000010009094: 48 8B 45 D8        mov         rax,qword ptr [rbp-28h]
  0000000010009098: 48 8B 4D E0        mov         rcx,qword ptr [rbp-20h]
  000000001000909C: 48 89 48 60        mov         qword ptr [rax+60h],rcx
  00000000100090A0: B9 34 00 00 00     mov         ecx,34h
  00000000100090A5: E8 96 AF FF FF     call        0000000010004040
  00000000100090AA: 48 83 7D F0 00     cmp         qword ptr [rbp-10h],0
  00000000100090AF: 0F 84 D1 00 00 00  je          0000000010009186
  00000000100090B5: 48 8B 45 E0        mov         rax,qword ptr [rbp-20h]
  00000000100090B9: 48 8B 40 08        mov         rax,qword ptr [rax+8]
  00000000100090BD: 48 83 38 08        cmp         qword ptr [rax],8
  00000000100090C1: 0F 85 BF 00 00 00  jne         0000000010009186
  00000000100090C7: 48 8B 83 F0 DF FF  mov         rax,qword ptr [rbx+FFFFFFFFFFFFDFF0h]
                    FF
  00000000100090CE: 48 89 45 B8        mov         qword ptr [rbp-48h],rax
  00000000100090D2: 31 C0              xor         eax,eax
  00000000100090D4: 48 89 45 B0        mov         qword ptr [rbp-50h],rax
  00000000100090D8: 48 83 7D B8 00     cmp         qword ptr [rbp-48h],0
  00000000100090DD: 74 58              je          0000000010009137
  00000000100090DF: 48 8B 75 B8        mov         rsi,qword ptr [rbp-48h]
  00000000100090E3: 48 8B 7D F0        mov         rdi,qword ptr [rbp-10h]
  00000000100090E7: 48 8D 7F 02        lea         rdi,[rdi+2]
  00000000100090EB: 31 C0              xor         eax,eax
  00000000100090ED: 48 83 C0 01        add         rax,1
  00000000100090F1: 48 83 F8 40        cmp         rax,40h
  00000000100090F5: 77 02              ja          00000000100090F9
  00000000100090F7: EB 08              jmp         0000000010009101
  00000000100090F9: B0 07              mov         al,7
  00000000100090FB: B9 D0 8B 00 00     mov         ecx,8BD0h
  0000000010009100: CC                 int         3
  0000000010009101: 48 83 F8 40        cmp         rax,40h
  0000000010009105: 77 02              ja          0000000010009109
  0000000010009107: EB 08              jmp         0000000010009111
  0000000010009109: B0 07              mov         al,7
  000000001000910B: B9 D0 8B 00 00     mov         ecx,8BD0h
  0000000010009110: CC                 int         3
  0000000010009111: 66 A7              cmps        word ptr [rsi],word ptr [rdi]
  0000000010009113: 75 07              jne         000000001000911C
  0000000010009115: 66 83 7E FE 00     cmp         word ptr [rsi-2],0
  000000001000911A: 75 D1              jne         00000000100090ED
  000000001000911C: 74 19              je          0000000010009137
  000000001000911E: 48 8B 45 B8        mov         rax,qword ptr [rbp-48h]
  0000000010009122: 48 89 45 B0        mov         qword ptr [rbp-50h],rax
  0000000010009126: 48 8B 45 B8        mov         rax,qword ptr [rbp-48h]
  000000001000912A: 48 8B 80 88 00 00  mov         rax,qword ptr [rax+0000000000000088h]
                    00
  0000000010009131: 48 89 45 B8        mov         qword ptr [rbp-48h],rax
  0000000010009135: EB A1              jmp         00000000100090D8
  0000000010009137: 48 83 7D B8 00     cmp         qword ptr [rbp-48h],0
  000000001000913C: 74 48              je          0000000010009186
  000000001000913E: 48 8B 45 B8        mov         rax,qword ptr [rbp-48h]
  0000000010009142: 48 8B 80 80 00 00  mov         rax,qword ptr [rax+0000000000000080h]
                    00
  0000000010009149: 48 8B 4D E0        mov         rcx,qword ptr [rbp-20h]
  000000001000914D: 48 8B 49 08        mov         rcx,qword ptr [rcx+8]
  0000000010009151: 48 89 48 40        mov         qword ptr [rax+40h],rcx
  0000000010009155: 48 83 7D B0 00     cmp         qword ptr [rbp-50h],0
  000000001000915A: 74 18              je          0000000010009174
  000000001000915C: 48 8B 45 B0        mov         rax,qword ptr [rbp-50h]
  0000000010009160: 48 8B 4D B8        mov         rcx,qword ptr [rbp-48h]
  0000000010009164: 48 8B 89 88 00 00  mov         rcx,qword ptr [rcx+0000000000000088h]
                    00
  000000001000916B: 48 89 88 88 00 00  mov         qword ptr [rax+0000000000000088h],rcx
                    00
  0000000010009172: EB 12              jmp         0000000010009186
  0000000010009174: 48 8B 45 B8        mov         rax,qword ptr [rbp-48h]
  0000000010009178: 48 8B 80 88 00 00  mov         rax,qword ptr [rax+0000000000000088h]
                    00
  000000001000917F: 48 89 83 F0 DF FF  mov         qword ptr [rbx+FFFFFFFFFFFFDFF0h],rax
                    FF
  0000000010009186: E9 40 FE FF FF     jmp         0000000010008FCB
  000000001000918B: 48 83 BB F0 DF FF  cmp         qword ptr [rbx+FFFFFFFFFFFFDFF0h],0
                    FF 00
  0000000010009193: 74 11              je          00000000100091A6
  0000000010009195: 48 8D 8B 10 FB FF  lea         rcx,[rbx+FFFFFFFFFFFFFB10h]
                    FF
  000000001000919C: BA 23 00 00 00     mov         edx,23h
  00000000100091A1: E8 7A AE FF FF     call        0000000010004020
  00000000100091A6: 48 83 BB F8 DF FF  cmp         qword ptr [rbx+FFFFFFFFFFFFDFF8h],48h
                    FF 48
  00000000100091AE: 0F 85 17 01 00 00  jne         00000000100092CB
  00000000100091B4: E8 47 AE FF FF     call        0000000010004000
  00000000100091B9: 48 83 BB F8 DF FF  cmp         qword ptr [rbx+FFFFFFFFFFFFDFF8h],1Fh
                    FF 1F
  00000000100091C1: 0F 85 04 01 00 00  jne         00000000100092CB
  00000000100091C7: 48 8B 8B 28 FE FF  mov         rcx,qword ptr [rbx+FFFFFFFFFFFFFE28h]
                    FF
  00000000100091CE: E8 AD BC FF FF     call        0000000010004E80
  00000000100091D3: 48 89 45 F8        mov         qword ptr [rbp-8],rax
  00000000100091D7: E8 24 AE FF FF     call        0000000010004000
  00000000100091DC: 48 8B 4D F8        mov         rcx,qword ptr [rbp-8]
  00000000100091E0: E8 1B F2 FF FF     call        0000000010008400
  00000000100091E5: 48 83 BB F8 DF FF  cmp         qword ptr [rbx+FFFFFFFFFFFFDFF8h],28h
                    FF 28
  00000000100091ED: 75 50              jne         000000001000923F
  00000000100091EF: E8 0C AE FF FF     call        0000000010004000
  00000000100091F4: 48 83 BB F8 DF FF  cmp         qword ptr [rbx+FFFFFFFFFFFFDFF8h],1Fh
                    FF 1F
  00000000100091FC: 75 2F              jne         000000001000922D
  00000000100091FE: 48 8B 8B 28 FE FF  mov         rcx,qword ptr [rbx+FFFFFFFFFFFFFE28h]
                    FF
  0000000010009205: E8 76 BC FF FF     call        0000000010004E80
  000000001000920A: 48 89 45 F0        mov         qword ptr [rbp-10h],rax
  000000001000920E: E8 ED AD FF FF     call        0000000010004000
  0000000010009213: 48 8B 4D F0        mov         rcx,qword ptr [rbp-10h]
  0000000010009217: E8 E4 F1 FF FF     call        0000000010008400
  000000001000921C: 48 83 7D F8 00     cmp         qword ptr [rbp-8],0
  0000000010009221: 75 08              jne         000000001000922B
  0000000010009223: 48 8B 45 F0        mov         rax,qword ptr [rbp-10h]
  0000000010009227: 48 89 45 F8        mov         qword ptr [rbp-8],rax
  000000001000922B: EB 10              jmp         000000001000923D
  000000001000922D: B9 1F 00 00 00     mov         ecx,1Fh
  0000000010009232: E8 E9 AF FF FF     call        0000000010004220
  0000000010009237: 31 C0              xor         eax,eax
  0000000010009239: 48 89 45 F0        mov         qword ptr [rbp-10h],rax
  000000001000923D: EB A6              jmp         00000000100091E5
  000000001000923F: B9 29 00 00 00     mov         ecx,29h
  0000000010009244: E8 F7 AD FF FF     call        0000000010004040
  0000000010009249: E8 02 FA FF FF     call        0000000010008C50
  000000001000924E: 48 89 45 D8        mov         qword ptr [rbp-28h],rax
  0000000010009252: 48 8B 45 F8        mov         rax,qword ptr [rbp-8]
  0000000010009256: 48 89 45 F0        mov         qword ptr [rbp-10h],rax
  000000001000925A: 48 83 7D F0 00     cmp         qword ptr [rbp-10h],0
  000000001000925F: 74 5B              je          00000000100092BC
  0000000010009261: 48 8B 4D D8        mov         rcx,qword ptr [rbp-28h]
  0000000010009265: FF 93 F0 FC FF FF  call        qword ptr [rbx+FFFFFFFFFFFFFCF0h]
  000000001000926B: 48 89 45 E0        mov         qword ptr [rbp-20h],rax
  000000001000926F: 48 8B 45 F0        mov         rax,qword ptr [rbp-10h]
  0000000010009273: 48 8B 4D E0        mov         rcx,qword ptr [rbp-20h]
  0000000010009277: 48 89 88 88 00 00  mov         qword ptr [rax+0000000000000088h],rcx
                    00
  000000001000927E: 48 8B 45 E0        mov         rax,qword ptr [rbp-20h]
  0000000010009282: 48 8B 4D F0        mov         rcx,qword ptr [rbp-10h]
  0000000010009286: 48 89 48 10        mov         qword ptr [rax+10h],rcx
  000000001000928A: 48 83 7D 10 00     cmp         qword ptr [rbp+10h],0
  000000001000928F: 75 0C              jne         000000001000929D
  0000000010009291: 48 8B 4D E0        mov         rcx,qword ptr [rbp-20h]
  0000000010009295: FF 93 E8 FC FF FF  call        qword ptr [rbx+FFFFFFFFFFFFFCE8h]
  000000001000929B: EB 0E              jmp         00000000100092AB
  000000001000929D: 48 8B 4D 10        mov         rcx,qword ptr [rbp+10h]
  00000000100092A1: 48 8B 55 E0        mov         rdx,qword ptr [rbp-20h]
  00000000100092A5: FF 93 E0 FC FF FF  call        qword ptr [rbx+FFFFFFFFFFFFFCE0h]
  00000000100092AB: 48 8B 45 F0        mov         rax,qword ptr [rbp-10h]
  00000000100092AF: 48 8B 80 90 00 00  mov         rax,qword ptr [rax+0000000000000090h]
                    00
  00000000100092B6: 48 89 45 F0        mov         qword ptr [rbp-10h],rax
  00000000100092BA: EB 9E              jmp         000000001000925A
  00000000100092BC: B9 34 00 00 00     mov         ecx,34h
  00000000100092C1: E8 7A AD FF FF     call        0000000010004040
  00000000100092C6: E9 EE FE FF FF     jmp         00000000100091B9
  00000000100092CB: 48 83 BB F8 DF FF  cmp         qword ptr [rbx+FFFFFFFFFFFFDFF8h],49h
                    FF 49
  00000000100092D3: 0F 85 0D 03 00 00  jne         00000000100095E6
  00000000100092D9: E8 22 AD FF FF     call        0000000010004000
  00000000100092DE: 48 83 BB F8 DF FF  cmp         qword ptr [rbx+FFFFFFFFFFFFDFF8h],1Fh
                    FF 1F
  00000000100092E6: 75 26              jne         000000001000930E
  00000000100092E8: 48 8B 8B 28 FE FF  mov         rcx,qword ptr [rbx+FFFFFFFFFFFFFE28h]
                    FF
  00000000100092EF: E8 8C BB FF FF     call        0000000010004E80
  00000000100092F4: 48 89 83 E8 DF FF  mov         qword ptr [rbx+FFFFFFFFFFFFDFE8h],rax
                    FF
  00000000100092FB: E8 00 AD FF FF     call        0000000010004000
  0000000010009300: 48 8B 8B E8 DF FF  mov         rcx,qword ptr [rbx+FFFFFFFFFFFFDFE8h]
                    FF
  0000000010009307: E8 F4 F0 FF FF     call        0000000010008400
  000000001000930C: EB 1A              jmp         0000000010009328
  000000001000930E: 31 C0              xor         eax,eax
  0000000010009310: 48 89 83 E8 DF FF  mov         qword ptr [rbx+FFFFFFFFFFFFDFE8h],rax
                    FF
  0000000010009317: 48 8D 8B 60 FB FF  lea         rcx,[rbx+FFFFFFFFFFFFFB60h]
                    FF
  000000001000931E: BA 0B 00 00 00     mov         edx,0Bh
  0000000010009323: E8 F8 AC FF FF     call        0000000010004020
  0000000010009328: FF 93 D8 FC FF FF  call        qword ptr [rbx+FFFFFFFFFFFFFCD8h]
  000000001000932E: 48 89 45 D0        mov         qword ptr [rbp-30h],rax
  0000000010009332: FF 93 F8 FC FF FF  call        qword ptr [rbx+FFFFFFFFFFFFFCF8h]
  0000000010009338: 48 89 45 D8        mov         qword ptr [rbp-28h],rax
  000000001000933C: 48 8B 45 D0        mov         rax,qword ptr [rbp-30h]
  0000000010009340: 48 8B 4D D8        mov         rcx,qword ptr [rbp-28h]
  0000000010009344: 48 89 48 08        mov         qword ptr [rax+8],rcx
  0000000010009348: 48 83 BB F8 DF FF  cmp         qword ptr [rbx+FFFFFFFFFFFFDFF8h],1Ch
                    FF 1C
  0000000010009350: 75 09              jne         000000001000935B
  0000000010009352: 48 8B 4D D8        mov         rcx,qword ptr [rbp-28h]
  0000000010009356: E8 F5 F2 FF FF     call        0000000010008650
  000000001000935B: B9 34 00 00 00     mov         ecx,34h
  0000000010009360: E8 DB AC FF FF     call        0000000010004040
  0000000010009365: 48 8B 4D D8        mov         rcx,qword ptr [rbp-28h]
  0000000010009369: FF 93 20 FD FF FF  call        qword ptr [rbx+FFFFFFFFFFFFFD20h]
  000000001000936F: FF 93 40 FD FF FF  call        qword ptr [rbx+FFFFFFFFFFFFFD40h]
  0000000010009375: B9 01 00 00 00     mov         ecx,1
  000000001000937A: FF 93 D0 FC FF FF  call        qword ptr [rbx+FFFFFFFFFFFFFCD0h]
  0000000010009380: 48 8B 45 D8        mov         rax,qword ptr [rbp-28h]
  0000000010009384: 48 8B 40 48        mov         rax,qword ptr [rax+48h]
  0000000010009388: 48 89 45 E8        mov         qword ptr [rbp-18h],rax
  000000001000938C: 48 83 7D E8 00     cmp         qword ptr [rbp-18h],0
  0000000010009391: 0F 84 A6 00 00 00  je          000000001000943D
  0000000010009397: 48 8B 4D E8        mov         rcx,qword ptr [rbp-18h]
  000000001000939B: 48 8D 49 02        lea         rcx,[rcx+2]
  000000001000939F: E8 DC BA FF FF     call        0000000010004E80
  00000000100093A4: 48 89 45 F0        mov         qword ptr [rbp-10h],rax
  00000000100093A8: 48 8B 4B C0        mov         rcx,qword ptr [rbx-40h]
  00000000100093AC: BA 08 00 00 00     mov         edx,8
  00000000100093B1: 41 B8 52 00 00 00  mov         r8d,52h
  00000000100093B7: FF 53 E8           call        qword ptr [rbx-18h]
  00000000100093BA: 48 83 C0 10        add         rax,10h
  00000000100093BE: 48 8B 8B A0 FE FF  mov         rcx,qword ptr [rbx+FFFFFFFFFFFFFEA0h]
                    FF
  00000000100093C5: 48 89 48 F8        mov         qword ptr [rax-8],rcx
  00000000100093C9: 48 89 45 C8        mov         qword ptr [rbp-38h],rax
  00000000100093CD: 48 8B 45 F0        mov         rax,qword ptr [rbp-10h]
  00000000100093D1: 48 8B 4D C8        mov         rcx,qword ptr [rbp-38h]
  00000000100093D5: 48 89 88 88 00 00  mov         qword ptr [rax+0000000000000088h],rcx
                    00
  00000000100093DC: 48 8B 7D C8        mov         rdi,qword ptr [rbp-38h]
  00000000100093E0: 48 8B 75 E8        mov         rsi,qword ptr [rbp-18h]
  00000000100093E4: 48 8B 83 A0 FE FF  mov         rax,qword ptr [rbx+FFFFFFFFFFFFFEA0h]
                    FF
  00000000100093EB: 48 8B 8E 88 00 00  mov         rcx,qword ptr [rsi+0000000000000088h]
                    00
  00000000100093F2: 48 8B 49 F8        mov         rcx,qword ptr [rcx-8]
  00000000100093F6: 48 39 41 10        cmp         qword ptr [rcx+10h],rax
  00000000100093FA: 75 02              jne         00000000100093FE
  00000000100093FC: EB 08              jmp         0000000010009406
  00000000100093FE: B0 02              mov         al,2
  0000000010009400: B9 80 91 00 00     mov         ecx,9180h
  0000000010009405: CC                 int         3
  0000000010009406: 48 8B B6 88 00 00  mov         rsi,qword ptr [rsi+0000000000000088h]
                    00
  000000001000940D: B9 21 00 00 00     mov         ecx,21h
  0000000010009412: F3 66 A5           rep movs    word ptr [rdi],word ptr [rsi]
  0000000010009415: 48 8B 45 C8        mov         rax,qword ptr [rbp-38h]
  0000000010009419: 48 8B 4D F0        mov         rcx,qword ptr [rbp-10h]
  000000001000941D: 48 89 48 10        mov         qword ptr [rax+10h],rcx
  0000000010009421: 48 8B 45 C8        mov         rax,qword ptr [rbp-38h]
  0000000010009425: 48 FF 40 38        inc         qword ptr [rax+38h]
  0000000010009429: 48 8B 45 E8        mov         rax,qword ptr [rbp-18h]
  000000001000942D: 48 8B 80 90 00 00  mov         rax,qword ptr [rax+0000000000000090h]
                    00
  0000000010009434: 48 89 45 E8        mov         qword ptr [rbp-18h],rax
  0000000010009438: E9 4F FF FF FF     jmp         000000001000938C
  000000001000943D: 48 83 BB E8 DF FF  cmp         qword ptr [rbx+FFFFFFFFFFFFDFE8h],0
                    FF 00
  0000000010009445: 74 21              je          0000000010009468
  0000000010009447: 48 8B 83 E8 DF FF  mov         rax,qword ptr [rbx+FFFFFFFFFFFFDFE8h]
                    FF
  000000001000944E: 48 8B 4D D0        mov         rcx,qword ptr [rbp-30h]
  0000000010009452: 48 89 88 88 00 00  mov         qword ptr [rax+0000000000000088h],rcx
                    00
  0000000010009459: 48 8B 45 D0        mov         rax,qword ptr [rbp-30h]
  000000001000945D: 48 8B 8B E8 DF FF  mov         rcx,qword ptr [rbx+FFFFFFFFFFFFDFE8h]
                    FF
  0000000010009464: 48 89 48 10        mov         qword ptr [rax+10h],rcx
  0000000010009468: 48 8B 83 E8 DF FF  mov         rax,qword ptr [rbx+FFFFFFFFFFFFDFE8h]
                    FF
  000000001000946F: 48 89 45 F0        mov         qword ptr [rbp-10h],rax
  0000000010009473: 48 8B 4D D0        mov         rcx,qword ptr [rbp-30h]
  0000000010009477: E8 54 FA FF FF     call        0000000010008ED0
  000000001000947C: 48 8B 45 F0        mov         rax,qword ptr [rbp-10h]
  0000000010009480: 48 89 83 E8 DF FF  mov         qword ptr [rbx+FFFFFFFFFFFFDFE8h],rax
                    FF
  0000000010009487: 48 8B 45 D0        mov         rax,qword ptr [rbp-30h]
  000000001000948B: 48 8B 8B 40 FE FF  mov         rcx,qword ptr [rbx+FFFFFFFFFFFFFE40h]
                    FF
  0000000010009492: 48 8B 09           mov         rcx,qword ptr [rcx]
  0000000010009495: 48 8B 09           mov         rcx,qword ptr [rcx]
  0000000010009498: 48 89 48 48        mov         qword ptr [rax+48h],rcx
  000000001000949C: 48 83 BB F8 DF FF  cmp         qword ptr [rbx+FFFFFFFFFFFFDFF8h],4Ah
                    FF 4A
  00000000100094A4: 75 12              jne         00000000100094B8
  00000000100094A6: E8 55 AB FF FF     call        0000000010004000
  00000000100094AB: 48 8B 75 D0        mov         rsi,qword ptr [rbp-30h]
  00000000100094AF: E8 DC EB FF FF     call        0000000010008090
  00000000100094B4: 48 89 46 50        mov         qword ptr [rsi+50h],rax
  00000000100094B8: 48 83 BB F8 DF FF  cmp         qword ptr [rbx+FFFFFFFFFFFFDFF8h],3Ah
                    FF 3A
  00000000100094C0: 75 5F              jne         0000000010009521
  00000000100094C2: 48 8B 45 D8        mov         rax,qword ptr [rbp-28h]
  00000000100094C6: 48 83 78 40 00     cmp         qword ptr [rax+40h],0
  00000000100094CB: 75 11              jne         00000000100094DE
  00000000100094CD: 48 8D 8B 80 FB FF  lea         rcx,[rbx+FFFFFFFFFFFFFB80h]
                    FF
  00000000100094D4: BA 12 00 00 00     mov         edx,12h
  00000000100094D9: E8 42 AB FF FF     call        0000000010004020
  00000000100094DE: E8 1D AB FF FF     call        0000000010004000
  00000000100094E3: E8 78 DB FF FF     call        0000000010007060
  00000000100094E8: 48 89 45 E0        mov         qword ptr [rbp-20h],rax
  00000000100094EC: 48 8B 45 D0        mov         rax,qword ptr [rbp-30h]
  00000000100094F0: 48 8B 4D E0        mov         rcx,qword ptr [rbp-20h]
  00000000100094F4: 48 89 48 58        mov         qword ptr [rax+58h],rcx
  00000000100094F8: 48 8B 45 E0        mov         rax,qword ptr [rbp-20h]
  00000000100094FC: 48 8B 40 08        mov         rax,qword ptr [rax+8]
  0000000010009500: 48 8B 00           mov         rax,qword ptr [rax]
  0000000010009503: B9 80 01 00 00     mov         ecx,180h
  0000000010009508: 48 0F A3 C1        bt          rcx,rax
  000000001000950C: 73 11              jae         000000001000951F
  000000001000950E: 48 8D 8B B0 FB FF  lea         rcx,[rbx+FFFFFFFFFFFFFBB0h]
                    FF
  0000000010009515: BA 0D 00 00 00     mov         edx,0Dh
  000000001000951A: E8 01 AB FF FF     call        0000000010004020
  000000001000951F: EB 15              jmp         0000000010009536
  0000000010009521: 48 8B 45 D8        mov         rax,qword ptr [rbp-28h]
  0000000010009525: 48 83 78 40 00     cmp         qword ptr [rax+40h],0
  000000001000952A: 74 0A              je          0000000010009536
  000000001000952C: B9 3A 00 00 00     mov         ecx,3Ah
  0000000010009531: E8 EA AC FF FF     call        0000000010004220
  0000000010009536: FF 93 38 FD FF FF  call        qword ptr [rbx+FFFFFFFFFFFFFD38h]
  000000001000953C: 31 C9              xor         ecx,ecx
  000000001000953E: 48 83 C1 FF        add         rcx,0FFFFFFFFFFFFFFFFh
  0000000010009542: FF 93 D0 FC FF FF  call        qword ptr [rbx+FFFFFFFFFFFFFCD0h]
  0000000010009548: B9 35 00 00 00     mov         ecx,35h
  000000001000954D: E8 EE AA FF FF     call        0000000010004040
  0000000010009552: 48 83 BB F8 DF FF  cmp         qword ptr [rbx+FFFFFFFFFFFFDFF8h],1Fh
                    FF 1F
  000000001000955A: 75 67              jne         00000000100095C3
  000000001000955C: 48 83 BB E8 DF FF  cmp         qword ptr [rbx+FFFFFFFFFFFFDFE8h],0
                    FF 00
  0000000010009564: 74 56              je          00000000100095BC
  0000000010009566: 48 8B B3 E8 DF FF  mov         rsi,qword ptr [rbx+FFFFFFFFFFFFDFE8h]
                    FF
  000000001000956D: 48 8D 76 02        lea         rsi,[rsi+2]
  0000000010009571: 48 8B BB 28 FE FF  mov         rdi,qword ptr [rbx+FFFFFFFFFFFFFE28h]
                    FF
  0000000010009578: 31 C0              xor         eax,eax
  000000001000957A: 48 83 C0 01        add         rax,1
  000000001000957E: 48 83 F8 40        cmp         rax,40h
  0000000010009582: 77 02              ja          0000000010009586
  0000000010009584: EB 08              jmp         000000001000958E
  0000000010009586: B0 07              mov         al,7
  0000000010009588: B9 70 94 00 00     mov         ecx,9470h
  000000001000958D: CC                 int         3
  000000001000958E: 48 83 F8 40        cmp         rax,40h
  0000000010009592: 77 02              ja          0000000010009596
  0000000010009594: EB 08              jmp         000000001000959E
  0000000010009596: B0 07              mov         al,7
  0000000010009598: B9 70 94 00 00     mov         ecx,9470h
  000000001000959D: CC                 int         3
  000000001000959E: 66 A7              cmps        word ptr [rsi],word ptr [rdi]
  00000000100095A0: 75 07              jne         00000000100095A9
  00000000100095A2: 66 83 7E FE 00     cmp         word ptr [rsi-2],0
  00000000100095A7: 75 D1              jne         000000001000957A
  00000000100095A9: 74 11              je          00000000100095BC
  00000000100095AB: 48 8D 8B D0 FB FF  lea         rcx,[rbx+FFFFFFFFFFFFFBD0h]
                    FF
  00000000100095B2: BA 11 00 00 00     mov         edx,11h
  00000000100095B7: E8 64 AA FF FF     call        0000000010004020
  00000000100095BC: E8 3F AA FF FF     call        0000000010004000
  00000000100095C1: EB 14              jmp         00000000100095D7
  00000000100095C3: 48 83 BB E8 DF FF  cmp         qword ptr [rbx+FFFFFFFFFFFFDFE8h],0
                    FF 00
  00000000100095CB: 74 0A              je          00000000100095D7
  00000000100095CD: B9 1F 00 00 00     mov         ecx,1Fh
  00000000100095D2: E8 49 AC FF FF     call        0000000010004220
  00000000100095D7: B9 34 00 00 00     mov         ecx,34h
  00000000100095DC: E8 5F AA FF FF     call        0000000010004040
  00000000100095E1: E9 E5 FC FF FF     jmp         00000000100092CB
  00000000100095E6: 48 8B 75 A0        mov         rsi,qword ptr [rbp-60h]
  00000000100095EA: 48 8B 7D A8        mov         rdi,qword ptr [rbp-58h]
  00000000100095EE: C9                 leave
  00000000100095EF: C3                 ret
  00000000100095F0: 55                 push        rbp
  00000000100095F1: 48 8B EC           mov         rbp,rsp
  00000000100095F4: 48 81 EC C0 00 00  sub         rsp,0C0h
                    00
  00000000100095FB: 48 89 B5 60 FF FF  mov         qword ptr [rbp+FFFFFFFFFFFFFF60h],rsi
                    FF
  0000000010009602: 48 89 BD 68 FF FF  mov         qword ptr [rbp+FFFFFFFFFFFFFF68h],rdi
                    FF
  0000000010009609: 48 C7 45 F8 00 00  mov         qword ptr [rbp-8],0
                    00 00
  0000000010009611: 48 8B 8B 28 FE FF  mov         rcx,qword ptr [rbx+FFFFFFFFFFFFFE28h]
                    FF
  0000000010009618: E8 63 B8 FF FF     call        0000000010004E80
  000000001000961D: 48 89 45 F8        mov         qword ptr [rbp-8],rax
  0000000010009621: 48 8D BD 78 FF FF  lea         rdi,[rbp+FFFFFFFFFFFFFF78h]
                    FF
  0000000010009628: 48 8B B3 28 FE FF  mov         rsi,qword ptr [rbx+FFFFFFFFFFFFFE28h]
                    FF
  000000001000962F: 31 C9              xor         ecx,ecx
  0000000010009631: 31 C0              xor         eax,eax
  0000000010009633: 48 83 C1 01        add         rcx,1
  0000000010009637: BA 40 00 00 00     mov         edx,40h
  000000001000963C: 48 3B CA           cmp         rcx,rdx
  000000001000963F: 77 02              ja          0000000010009643
  0000000010009641: EB 08              jmp         000000001000964B
  0000000010009643: B0 07              mov         al,7
  0000000010009645: B9 8E 95 00 00     mov         ecx,958Eh
  000000001000964A: CC                 int         3
  000000001000964B: BA 40 00 00 00     mov         edx,40h
  0000000010009650: 48 3B CA           cmp         rcx,rdx
  0000000010009653: 77 02              ja          0000000010009657
  0000000010009655: EB 08              jmp         000000001000965F
  0000000010009657: B0 07              mov         al,7
  0000000010009659: B9 8E 95 00 00     mov         ecx,958Eh
  000000001000965E: CC                 int         3
  000000001000965F: 66 AD              lods        word ptr [rsi]
  0000000010009661: 66 AB              stos        word ptr [rdi]
  0000000010009663: 85 C0              test        eax,eax
  0000000010009665: 75 CC              jne         0000000010009633
  0000000010009667: E8 94 A9 FF FF     call        0000000010004000
  000000001000966C: 48 83 BB F8 DF FF  cmp         qword ptr [rbx+FFFFFFFFFFFFDFF8h],2Ah
                    FF 2A
  0000000010009674: 75 66              jne         00000000100096DC
  0000000010009676: E8 85 A9 FF FF     call        0000000010004000
  000000001000967B: 48 83 BB F8 DF FF  cmp         qword ptr [rbx+FFFFFFFFFFFFDFF8h],1Fh
                    FF 1F
  0000000010009683: 75 4D              jne         00000000100096D2
  0000000010009685: 48 8D BD 78 FF FF  lea         rdi,[rbp+FFFFFFFFFFFFFF78h]
                    FF
  000000001000968C: 48 8B B3 28 FE FF  mov         rsi,qword ptr [rbx+FFFFFFFFFFFFFE28h]
                    FF
  0000000010009693: 31 C9              xor         ecx,ecx
  0000000010009695: 31 C0              xor         eax,eax
  0000000010009697: 48 83 C1 01        add         rcx,1
  000000001000969B: BA 40 00 00 00     mov         edx,40h
  00000000100096A0: 48 3B CA           cmp         rcx,rdx
  00000000100096A3: 77 02              ja          00000000100096A7
  00000000100096A5: EB 08              jmp         00000000100096AF
  00000000100096A7: B0 07              mov         al,7
  00000000100096A9: B9 E2 95 00 00     mov         ecx,95E2h
  00000000100096AE: CC                 int         3
  00000000100096AF: BA 40 00 00 00     mov         edx,40h
  00000000100096B4: 48 3B CA           cmp         rcx,rdx
  00000000100096B7: 77 02              ja          00000000100096BB
  00000000100096B9: EB 08              jmp         00000000100096C3
  00000000100096BB: B0 07              mov         al,7
  00000000100096BD: B9 E2 95 00 00     mov         ecx,95E2h
  00000000100096C2: CC                 int         3
  00000000100096C3: 66 AD              lods        word ptr [rsi]
  00000000100096C5: 66 AB              stos        word ptr [rdi]
  00000000100096C7: 85 C0              test        eax,eax
  00000000100096C9: 75 CC              jne         0000000010009697
  00000000100096CB: E8 30 A9 FF FF     call        0000000010004000
  00000000100096D0: EB 0A              jmp         00000000100096DC
  00000000100096D2: B9 1F 00 00 00     mov         ecx,1Fh
  00000000100096D7: E8 44 AB FF FF     call        0000000010004220
  00000000100096DC: 48 8B 4D F8        mov         rcx,qword ptr [rbp-8]
  00000000100096E0: 48 8D 95 78 FF FF  lea         rdx,[rbp+FFFFFFFFFFFFFF78h]
                    FF
  00000000100096E7: FF 93 C8 FC FF FF  call        qword ptr [rbx+FFFFFFFFFFFFFCC8h]
  00000000100096ED: 48 8B B5 60 FF FF  mov         rsi,qword ptr [rbp+FFFFFFFFFFFFFF60h]
                    FF
  00000000100096F4: 48 8B BD 68 FF FF  mov         rdi,qword ptr [rbp+FFFFFFFFFFFFFF68h]
                    FF
  00000000100096FB: C9                 leave
  00000000100096FC: C3                 ret
  00000000100096FD: 90                 nop
  00000000100096FE: 90                 nop
  00000000100096FF: 90                 nop
  0000000010009700: 55                 push        rbp
  0000000010009701: 48 8B EC           mov         rbp,rsp
  0000000010009704: 48 83 EC 20        sub         rsp,20h
  0000000010009708: E8 F3 A8 FF FF     call        0000000010004000
  000000001000970D: 48 83 BB F8 DF FF  cmp         qword ptr [rbx+FFFFFFFFFFFFDFF8h],1Fh
                    FF 1F
  0000000010009715: 75 07              jne         000000001000971E
  0000000010009717: E8 D4 FE FF FF     call        00000000100095F0
  000000001000971C: EB 0A              jmp         0000000010009728
  000000001000971E: B9 1F 00 00 00     mov         ecx,1Fh
  0000000010009723: E8 F8 AA FF FF     call        0000000010004220
  0000000010009728: 48 83 BB F8 DF FF  cmp         qword ptr [rbx+FFFFFFFFFFFFDFF8h],28h
                    FF 28
  0000000010009730: 75 22              jne         0000000010009754
  0000000010009732: E8 C9 A8 FF FF     call        0000000010004000
  0000000010009737: 48 83 BB F8 DF FF  cmp         qword ptr [rbx+FFFFFFFFFFFFDFF8h],1Fh
                    FF 1F
  000000001000973F: 75 07              jne         0000000010009748
  0000000010009741: E8 AA FE FF FF     call        00000000100095F0
  0000000010009746: EB 0A              jmp         0000000010009752
  0000000010009748: B9 1F 00 00 00     mov         ecx,1Fh
  000000001000974D: E8 CE AA FF FF     call        0000000010004220
  0000000010009752: EB D4              jmp         0000000010009728
  0000000010009754: B9 34 00 00 00     mov         ecx,34h
  0000000010009759: E8 E2 A8 FF FF     call        0000000010004040
  000000001000975E: 48 8B 83 C0 FC FF  mov         rax,qword ptr [rbx+FFFFFFFFFFFFFCC0h]
                    FF
  0000000010009765: 48 83 38 00        cmp         qword ptr [rax],0
  0000000010009769: 75 0C              jne         0000000010009777
  000000001000976B: FF 93 B8 FC FF FF  call        qword ptr [rbx+FFFFFFFFFFFFFCB8h]
  0000000010009771: FF 93 B0 FC FF FF  call        qword ptr [rbx+FFFFFFFFFFFFFCB0h]
  0000000010009777: C9                 leave
  0000000010009778: C3                 ret
  0000000010009779: 90                 nop
  000000001000977A: 90                 nop
  000000001000977B: 90                 nop
  000000001000977C: 90                 nop
  000000001000977D: 90                 nop
  000000001000977E: 90                 nop
  000000001000977F: 90                 nop
  0000000010009780: 55                 push        rbp
  0000000010009781: 48 8B EC           mov         rbp,rsp
  0000000010009784: 48 81 EC C0 00 00  sub         rsp,0C0h
                    00
  000000001000978B: 48 89 9D 60 FF FF  mov         qword ptr [rbp+FFFFFFFFFFFFFF60h],rbx
                    FF
  0000000010009792: 48 89 B5 68 FF FF  mov         qword ptr [rbp+FFFFFFFFFFFFFF68h],rsi
                    FF
  0000000010009799: 48 89 BD 70 FF FF  mov         qword ptr [rbp+FFFFFFFFFFFFFF70h],rdi
                    FF
  00000000100097A0: 48 8D 1D 59 A8 FF  lea         rbx,[0000000010004000h]
                    FF
  00000000100097A7: 48 C7 85 78 FF FF  mov         qword ptr [rbp+FFFFFFFFFFFFFF78h],0
                    FF 00 00 00 00
  00000000100097B2: E8 49 A8 FF FF     call        0000000010004000
  00000000100097B7: 31 C0              xor         eax,eax
  00000000100097B9: 66 89 45 80        mov         word ptr [rbp-80h],ax
  00000000100097BD: 48 83 BB F8 DF FF  cmp         qword ptr [rbx+FFFFFFFFFFFFDFF8h],1Fh
                    FF 1F
  00000000100097C5: 75 4A              jne         0000000010009811
  00000000100097C7: 48 8D 7D 80        lea         rdi,[rbp-80h]
  00000000100097CB: 48 8B B3 28 FE FF  mov         rsi,qword ptr [rbx+FFFFFFFFFFFFFE28h]
                    FF
  00000000100097D2: 31 C9              xor         ecx,ecx
  00000000100097D4: 31 C0              xor         eax,eax
  00000000100097D6: 48 83 C1 01        add         rcx,1
  00000000100097DA: BA 40 00 00 00     mov         edx,40h
  00000000100097DF: 48 3B CA           cmp         rcx,rdx
  00000000100097E2: 77 02              ja          00000000100097E6
  00000000100097E4: EB 08              jmp         00000000100097EE
  00000000100097E6: B0 07              mov         al,7
  00000000100097E8: B9 ED 97 00 00     mov         ecx,97EDh
  00000000100097ED: CC                 int         3
  00000000100097EE: BA 40 00 00 00     mov         edx,40h
  00000000100097F3: 48 3B CA           cmp         rcx,rdx
  00000000100097F6: 77 02              ja          00000000100097FA
  00000000100097F8: EB 08              jmp         0000000010009802
  00000000100097FA: B0 07              mov         al,7
  00000000100097FC: B9 ED 97 00 00     mov         ecx,97EDh
  0000000010009801: CC                 int         3
  0000000010009802: 66 AD              lods        word ptr [rsi]
  0000000010009804: 66 AB              stos        word ptr [rdi]
  0000000010009806: 85 C0              test        eax,eax
  0000000010009808: 75 CC              jne         00000000100097D6
  000000001000980A: E8 F1 A7 FF FF     call        0000000010004000
  000000001000980F: EB 0A              jmp         000000001000981B
  0000000010009811: B9 1F 00 00 00     mov         ecx,1Fh
  0000000010009816: E8 05 AA FF FF     call        0000000010004220
  000000001000981B: B9 34 00 00 00     mov         ecx,34h
  0000000010009820: E8 1B A8 FF FF     call        0000000010004040
  0000000010009825: 48 8D 4D 80        lea         rcx,[rbp-80h]
  0000000010009829: FF 93 A8 FC FF FF  call        qword ptr [rbx+FFFFFFFFFFFFFCA8h]
  000000001000982F: 48 8D 4D 80        lea         rcx,[rbp-80h]
  0000000010009833: FF 93 A0 FC FF FF  call        qword ptr [rbx+FFFFFFFFFFFFFCA0h]
  0000000010009839: 48 83 BB F8 DF FF  cmp         qword ptr [rbx+FFFFFFFFFFFFDFF8h],4Ch
                    FF 4C
  0000000010009841: 75 05              jne         0000000010009848
  0000000010009843: E8 B8 FE FF FF     call        0000000010009700
  0000000010009848: 48 8B 83 C0 FC FF  mov         rax,qword ptr [rbx+FFFFFFFFFFFFFCC0h]
                    FF
  000000001000984F: 48 83 38 00        cmp         qword ptr [rax],0
  0000000010009853: 0F 85 A0 00 00 00  jne         00000000100098F9
  0000000010009859: 31 C9              xor         ecx,ecx
  000000001000985B: E8 70 F6 FF FF     call        0000000010008ED0
  0000000010009860: 48 83 BB F8 DF FF  cmp         qword ptr [rbx+FFFFFFFFFFFFDFF8h],4Ah
                    FF 4A
  0000000010009868: 75 11              jne         000000001000987B
  000000001000986A: E8 91 A7 FF FF     call        0000000010004000
  000000001000986F: E8 1C E8 FF FF     call        0000000010008090
  0000000010009874: 48 89 85 78 FF FF  mov         qword ptr [rbp+FFFFFFFFFFFFFF78h],rax
                    FF
  000000001000987B: B9 35 00 00 00     mov         ecx,35h
  0000000010009880: E8 BB A7 FF FF     call        0000000010004040
  0000000010009885: 48 83 BB F8 DF FF  cmp         qword ptr [rbx+FFFFFFFFFFFFDFF8h],1Fh
                    FF 1F
  000000001000988D: 75 56              jne         00000000100098E5
  000000001000988F: 48 8B B3 28 FE FF  mov         rsi,qword ptr [rbx+FFFFFFFFFFFFFE28h]
                    FF
  0000000010009896: 48 8D 7D 80        lea         rdi,[rbp-80h]
  000000001000989A: 31 C0              xor         eax,eax
  000000001000989C: 48 83 C0 01        add         rax,1
  00000000100098A0: 48 83 F8 40        cmp         rax,40h
  00000000100098A4: 77 02              ja          00000000100098A8
  00000000100098A6: EB 08              jmp         00000000100098B0
  00000000100098A8: B0 07              mov         al,7
  00000000100098AA: B9 2D 99 00 00     mov         ecx,992Dh
  00000000100098AF: CC                 int         3
  00000000100098B0: 48 83 F8 40        cmp         rax,40h
  00000000100098B4: 77 02              ja          00000000100098B8
  00000000100098B6: EB 08              jmp         00000000100098C0
  00000000100098B8: B0 07              mov         al,7
  00000000100098BA: B9 2D 99 00 00     mov         ecx,992Dh
  00000000100098BF: CC                 int         3
  00000000100098C0: 66 A7              cmps        word ptr [rsi],word ptr [rdi]
  00000000100098C2: 75 07              jne         00000000100098CB
  00000000100098C4: 66 83 7E FE 00     cmp         word ptr [rsi-2],0
  00000000100098C9: 75 D1              jne         000000001000989C
  00000000100098CB: 74 11              je          00000000100098DE
  00000000100098CD: 48 8D 8B 10 FC FF  lea         rcx,[rbx+FFFFFFFFFFFFFC10h]
                    FF
  00000000100098D4: BA 12 00 00 00     mov         edx,12h
  00000000100098D9: E8 42 A7 FF FF     call        0000000010004020
  00000000100098DE: E8 1D A7 FF FF     call        0000000010004000
  00000000100098E3: EB 0A              jmp         00000000100098EF
  00000000100098E5: B9 1F 00 00 00     mov         ecx,1Fh
  00000000100098EA: E8 31 A9 FF FF     call        0000000010004220
  00000000100098EF: B9 12 00 00 00     mov         ecx,12h
  00000000100098F4: E8 47 A7 FF FF     call        0000000010004040
  00000000100098F9: 48 8B 83 C0 FC FF  mov         rax,qword ptr [rbx+FFFFFFFFFFFFFCC0h]
                    FF
  0000000010009900: 48 83 38 00        cmp         qword ptr [rax],0
  0000000010009904: 75 06              jne         000000001000990C
  0000000010009906: FF 93 98 FC FF FF  call        qword ptr [rbx+FFFFFFFFFFFFFC98h]
  000000001000990C: 48 8B 83 C0 FC FF  mov         rax,qword ptr [rbx+FFFFFFFFFFFFFCC0h]
                    FF
  0000000010009913: 48 83 38 00        cmp         qword ptr [rax],0
  0000000010009917: 75 0D              jne         0000000010009926
  0000000010009919: 48 8B 8D 78 FF FF  mov         rcx,qword ptr [rbp+FFFFFFFFFFFFFF78h]
                    FF
  0000000010009920: FF 93 90 FC FF FF  call        qword ptr [rbx+FFFFFFFFFFFFFC90h]
  0000000010009926: 48 8B 83 C0 FC FF  mov         rax,qword ptr [rbx+FFFFFFFFFFFFFCC0h]
                    FF
  000000001000992D: 48 83 38 00        cmp         qword ptr [rax],0
  0000000010009931: 75 39              jne         000000001000996C
  0000000010009933: 48 8D 8B 40 FC FF  lea         rcx,[rbx+FFFFFFFFFFFFFC40h]
                    FF
  000000001000993A: BA 16 00 00 00     mov         edx,16h
  000000001000993F: FF 93 88 FC FF FF  call        qword ptr [rbx+FFFFFFFFFFFFFC88h]
  0000000010009945: 48 8D 4D 80        lea         rcx,[rbp-80h]
  0000000010009949: BA 40 00 00 00     mov         edx,40h
  000000001000994E: FF 93 88 FC FF FF  call        qword ptr [rbx+FFFFFFFFFFFFFC88h]
  0000000010009954: 48 8D 8B 70 FC FF  lea         rcx,[rbx+FFFFFFFFFFFFFC70h]
                    FF
  000000001000995B: BA 05 00 00 00     mov         edx,5
  0000000010009960: FF 93 88 FC FF FF  call        qword ptr [rbx+FFFFFFFFFFFFFC88h]
  0000000010009966: FF 93 80 FC FF FF  call        qword ptr [rbx+FFFFFFFFFFFFFC80h]
  000000001000996C: 48 8B 9D 60 FF FF  mov         rbx,qword ptr [rbp+FFFFFFFFFFFFFF60h]
                    FF
  0000000010009973: 48 8B B5 68 FF FF  mov         rsi,qword ptr [rbp+FFFFFFFFFFFFFF68h]
                    FF
  000000001000997A: 48 8B BD 70 FF FF  mov         rdi,qword ptr [rbp+FFFFFFFFFFFFFF70h]
                    FF
  0000000010009981: C9                 leave
  0000000010009982: C3                 ret
  0000000010009983: 90                 nop
  0000000010009984: 90                 nop
  0000000010009985: 90                 nop
  0000000010009986: 90                 nop
  0000000010009987: 90                 nop
  0000000010009988: 90                 nop
  0000000010009989: 90                 nop
  000000001000998A: 90                 nop
  000000001000998B: 90                 nop
  000000001000998C: 90                 nop
  000000001000998D: 90                 nop
  000000001000998E: 90                 nop
  000000001000998F: 90                 nop
  0000000010009990: 55                 push        rbp
  0000000010009991: 48 8B EC           mov         rbp,rsp
  0000000010009994: 48 8D 05 B5 F2 FF  lea         rax,[0000000010008C50h]
                    FF
  000000001000999B: 48 89 83 E0 DF FF  mov         qword ptr [rbx+FFFFFFFFFFFFDFE0h],rax
                    FF
  00000000100099A2: 48 8D 05 B7 D6 FF  lea         rax,[0000000010007060h]
                    FF
  00000000100099A9: 48 89 83 D8 DF FF  mov         qword ptr [rbx+FFFFFFFFFFFFDFD8h],rax
                    FF
  00000000100099B0: 48 8D 05 D9 E6 FF  lea         rax,[0000000010008090h]
                    FF
  00000000100099B7: 48 89 83 D0 DF FF  mov         qword ptr [rbx+FFFFFFFFFFFFDFD0h],rax
                    FF
  00000000100099BE: C9                 leave
  00000000100099BF: C3                 ret
  00000000100099C0: 83 FA 01           cmp         edx,1
  00000000100099C3: 74 01              je          00000000100099C6
  00000000100099C5: C3                 ret
  00000000100099C6: 56                 push        rsi
  00000000100099C7: 57                 push        rdi
  00000000100099C8: 53                 push        rbx
  00000000100099C9: 48 83 EC 20        sub         rsp,20h
  00000000100099CD: 48 8D 1D 2C A6 FF  lea         rbx,[0000000010004000h]
                    FF
  00000000100099D4: FF 53 E0           call        qword ptr [rbx-20h]
  00000000100099D7: 48 89 43 C0        mov         qword ptr [rbx-40h],rax
  00000000100099DB: 48 8D 8B 60 FF FF  lea         rcx,[rbx+FFFFFFFFFFFFFF60h]
                    FF
  00000000100099E2: FF 53 D0           call        qword ptr [rbx-30h]
  00000000100099E5: 48 85 C0           test        rax,rax
  00000000100099E8: 74 02              je          00000000100099EC
  00000000100099EA: EB 08              jmp         00000000100099F4
  00000000100099EC: B0 05              mov         al,5
  00000000100099EE: B9 01 9B 00 00     mov         ecx,9B01h
  00000000100099F3: CC                 int         3
  00000000100099F4: 48 8B F0           mov         rsi,rax
  00000000100099F7: 48 B8 6B 60 F2 02  mov         rax,0B4F9D4EF02F2606Bh
                    EF D4 F9 B4
  0000000010009A01: 48 3B 86 F0 03 00  cmp         rax,qword ptr [rsi+00000000000003F0h]
                    00
  0000000010009A08: 75 02              jne         0000000010009A0C
  0000000010009A0A: EB 08              jmp         0000000010009A14
  0000000010009A0C: B0 05              mov         al,5
  0000000010009A0E: B9 01 9B 00 00     mov         ecx,9B01h
  0000000010009A13: CC                 int         3
  0000000010009A14: 48 B8 86 5E A9 E6  mov         rax,95BD889CE6A95E86h
                    9C 88 BD 95
  0000000010009A1E: 48 3B 86 F8 03 00  cmp         rax,qword ptr [rsi+00000000000003F8h]
                    00
  0000000010009A25: 75 02              jne         0000000010009A29
  0000000010009A27: EB 08              jmp         0000000010009A31
  0000000010009A29: B0 05              mov         al,5
  0000000010009A2B: B9 01 9B 00 00     mov         ecx,9B01h
  0000000010009A30: CC                 int         3
  0000000010009A31: 48 8B CE           mov         rcx,rsi
  0000000010009A34: BA 1D 00 00 00     mov         edx,1Dh
  0000000010009A39: FF 53 D8           call        qword ptr [rbx-28h]
  0000000010009A3C: 48 89 83 80 FC FF  mov         qword ptr [rbx+FFFFFFFFFFFFFC80h],rax
                    FF
  0000000010009A43: 48 8B CE           mov         rcx,rsi
  0000000010009A46: BA 1C 00 00 00     mov         edx,1Ch
  0000000010009A4B: FF 53 D8           call        qword ptr [rbx-28h]
  0000000010009A4E: 48 89 83 88 FC FF  mov         qword ptr [rbx+FFFFFFFFFFFFFC88h],rax
                    FF
  0000000010009A55: 48 8D 8B 40 FF FF  lea         rcx,[rbx+FFFFFFFFFFFFFF40h]
                    FF
  0000000010009A5C: FF 53 D0           call        qword ptr [rbx-30h]
  0000000010009A5F: 48 85 C0           test        rax,rax
  0000000010009A62: 74 02              je          0000000010009A66
  0000000010009A64: EB 08              jmp         0000000010009A6E
  0000000010009A66: B0 05              mov         al,5
  0000000010009A68: B9 01 9B 00 00     mov         ecx,9B01h
  0000000010009A6D: CC                 int         3
  0000000010009A6E: 48 8B F0           mov         rsi,rax
  0000000010009A71: 48 B8 EC 70 F0 AE  mov         rax,0B36F7297AEF070ECh
                    97 72 6F B3
  0000000010009A7B: 48 3B 86 F0 03 00  cmp         rax,qword ptr [rsi+00000000000003F0h]
                    00
  0000000010009A82: 75 02              jne         0000000010009A86
  0000000010009A84: EB 08              jmp         0000000010009A8E
  0000000010009A86: B0 05              mov         al,5
  0000000010009A88: B9 01 9B 00 00     mov         ecx,9B01h
  0000000010009A8D: CC                 int         3
  0000000010009A8E: 48 B8 6F 2D 25 B7  mov         rax,8E9365A8B7252D6Fh
                    A8 65 93 8E
  0000000010009A98: 48 3B 86 F8 03 00  cmp         rax,qword ptr [rsi+00000000000003F8h]
                    00
  0000000010009A9F: 75 02              jne         0000000010009AA3
  0000000010009AA1: EB 08              jmp         0000000010009AAB
  0000000010009AA3: B0 05              mov         al,5
  0000000010009AA5: B9 01 9B 00 00     mov         ecx,9B01h
  0000000010009AAA: CC                 int         3
  0000000010009AAB: 48 8D 8B 20 FF FF  lea         rcx,[rbx+FFFFFFFFFFFFFF20h]
                    FF
  0000000010009AB2: FF 53 D0           call        qword ptr [rbx-30h]
  0000000010009AB5: 48 85 C0           test        rax,rax
  0000000010009AB8: 74 02              je          0000000010009ABC
  0000000010009ABA: EB 08              jmp         0000000010009AC4
  0000000010009ABC: B0 05              mov         al,5
  0000000010009ABE: B9 01 9B 00 00     mov         ecx,9B01h
  0000000010009AC3: CC                 int         3
  0000000010009AC4: 48 8B F0           mov         rsi,rax
  0000000010009AC7: 48 B8 0E 2D C5 F8  mov         rax,6D74401DF8C52D0Eh
                    1D 40 74 6D
  0000000010009AD1: 48 3B 86 F0 03 00  cmp         rax,qword ptr [rsi+00000000000003F0h]
                    00
  0000000010009AD8: 75 02              jne         0000000010009ADC
  0000000010009ADA: EB 08              jmp         0000000010009AE4
  0000000010009ADC: B0 05              mov         al,5
  0000000010009ADE: B9 01 9B 00 00     mov         ecx,9B01h
  0000000010009AE3: CC                 int         3
  0000000010009AE4: 48 B8 52 5C 92 A6  mov         rax,8D5EB16FA6925C52h
                    6F B1 5E 8D
  0000000010009AEE: 48 3B 86 F8 03 00  cmp         rax,qword ptr [rsi+00000000000003F8h]
                    00
  0000000010009AF5: 75 02              jne         0000000010009AF9
  0000000010009AF7: EB 08              jmp         0000000010009B01
  0000000010009AF9: B0 05              mov         al,5
  0000000010009AFB: B9 01 9B 00 00     mov         ecx,9B01h
  0000000010009B00: CC                 int         3
  0000000010009B01: 48 8B CE           mov         rcx,rsi
  0000000010009B04: BA 07 00 00 00     mov         edx,7
  0000000010009B09: FF 53 D8           call        qword ptr [rbx-28h]
  0000000010009B0C: 48 89 83 C0 FC FF  mov         qword ptr [rbx+FFFFFFFFFFFFFCC0h],rax
                    FF
  0000000010009B13: 48 8B CE           mov         rcx,rsi
  0000000010009B16: BA 02 00 00 00     mov         edx,2
  0000000010009B1B: FF 53 D8           call        qword ptr [rbx-28h]
  0000000010009B1E: 48 89 83 88 FD FF  mov         qword ptr [rbx+FFFFFFFFFFFFFD88h],rax
                    FF
  0000000010009B25: 48 8B CE           mov         rcx,rsi
  0000000010009B28: BA 05 00 00 00     mov         edx,5
  0000000010009B2D: FF 53 D8           call        qword ptr [rbx-28h]
  0000000010009B30: 48 89 83 90 FD FF  mov         qword ptr [rbx+FFFFFFFFFFFFFD90h],rax
                    FF
  0000000010009B37: 48 8B CE           mov         rcx,rsi
  0000000010009B3A: BA 01 00 00 00     mov         edx,1
  0000000010009B3F: FF 53 D8           call        qword ptr [rbx-28h]
  0000000010009B42: 48 89 83 A0 FD FF  mov         qword ptr [rbx+FFFFFFFFFFFFFDA0h],rax
                    FF
  0000000010009B49: 48 8B CE           mov         rcx,rsi
  0000000010009B4C: BA 04 00 00 00     mov         edx,4
  0000000010009B51: FF 53 D8           call        qword ptr [rbx-28h]
  0000000010009B54: 48 89 83 28 FE FF  mov         qword ptr [rbx+FFFFFFFFFFFFFE28h],rax
                    FF
  0000000010009B5B: 48 8B CE           mov         rcx,rsi
  0000000010009B5E: BA 08 00 00 00     mov         edx,8
  0000000010009B63: FF 53 D8           call        qword ptr [rbx-28h]
  0000000010009B66: 48 89 83 38 FE FF  mov         qword ptr [rbx+FFFFFFFFFFFFFE38h],rax
                    FF
  0000000010009B6D: 48 8B CE           mov         rcx,rsi
  0000000010009B70: BA 09 00 00 00     mov         edx,9
  0000000010009B75: FF 53 D8           call        qword ptr [rbx-28h]
  0000000010009B78: 48 89 83 B0 FE FF  mov         qword ptr [rbx+FFFFFFFFFFFFFEB0h],rax
                    FF
  0000000010009B7F: 48 8B CE           mov         rcx,rsi
  0000000010009B82: BA 0A 00 00 00     mov         edx,0Ah
  0000000010009B87: FF 53 D8           call        qword ptr [rbx-28h]
  0000000010009B8A: 48 89 83 B8 FE FF  mov         qword ptr [rbx+FFFFFFFFFFFFFEB8h],rax
                    FF
  0000000010009B91: 48 8D 8B 00 FF FF  lea         rcx,[rbx+FFFFFFFFFFFFFF00h]
                    FF
  0000000010009B98: FF 53 D0           call        qword ptr [rbx-30h]
  0000000010009B9B: 48 85 C0           test        rax,rax
  0000000010009B9E: 74 02              je          0000000010009BA2
  0000000010009BA0: EB 08              jmp         0000000010009BAA
  0000000010009BA2: B0 05              mov         al,5
  0000000010009BA4: B9 01 9B 00 00     mov         ecx,9B01h
  0000000010009BA9: CC                 int         3
  0000000010009BAA: 48 8B F0           mov         rsi,rax
  0000000010009BAD: 48 B8 8F 8B 77 42  mov         rax,8C9392EC42778B8Fh
                    EC 92 93 8C
  0000000010009BB7: 48 3B 86 F0 03 00  cmp         rax,qword ptr [rsi+00000000000003F0h]
                    00
  0000000010009BBE: 75 02              jne         0000000010009BC2
  0000000010009BC0: EB 08              jmp         0000000010009BCA
  0000000010009BC2: B0 05              mov         al,5
  0000000010009BC4: B9 01 9B 00 00     mov         ecx,9B01h
  0000000010009BC9: CC                 int         3
  0000000010009BCA: 48 B8 A6 63 21 0F  mov         rax,867481D10F2163A6h
                    D1 81 74 86
  0000000010009BD4: 48 3B 86 F8 03 00  cmp         rax,qword ptr [rsi+00000000000003F8h]
                    00
  0000000010009BDB: 75 02              jne         0000000010009BDF
  0000000010009BDD: EB 08              jmp         0000000010009BE7
  0000000010009BDF: B0 05              mov         al,5
  0000000010009BE1: B9 01 9B 00 00     mov         ecx,9B01h
  0000000010009BE6: CC                 int         3
  0000000010009BE7: 48 8B CE           mov         rcx,rsi
  0000000010009BEA: BA 44 00 00 00     mov         edx,44h
  0000000010009BEF: FF 53 D8           call        qword ptr [rbx-28h]
  0000000010009BF2: 48 89 83 98 FC FF  mov         qword ptr [rbx+FFFFFFFFFFFFFC98h],rax
                    FF
  0000000010009BF9: 48 8B CE           mov         rcx,rsi
  0000000010009BFC: BA 47 00 00 00     mov         edx,47h
  0000000010009C01: FF 53 D8           call        qword ptr [rbx-28h]
  0000000010009C04: 48 89 83 A8 FC FF  mov         qword ptr [rbx+FFFFFFFFFFFFFCA8h],rax
                    FF
  0000000010009C0B: 48 8B CE           mov         rcx,rsi
  0000000010009C0E: BA 45 00 00 00     mov         edx,45h
  0000000010009C13: FF 53 D8           call        qword ptr [rbx-28h]
  0000000010009C16: 48 89 83 B8 FC FF  mov         qword ptr [rbx+FFFFFFFFFFFFFCB8h],rax
                    FF
  0000000010009C1D: 48 8B CE           mov         rcx,rsi
  0000000010009C20: BA 46 00 00 00     mov         edx,46h
  0000000010009C25: FF 53 D8           call        qword ptr [rbx-28h]
  0000000010009C28: 48 89 83 C8 FC FF  mov         qword ptr [rbx+FFFFFFFFFFFFFCC8h],rax
                    FF
  0000000010009C2F: 48 8B CE           mov         rcx,rsi
  0000000010009C32: BA 42 00 00 00     mov         edx,42h
  0000000010009C37: FF 53 D8           call        qword ptr [rbx-28h]
  0000000010009C3A: 48 89 83 D0 FC FF  mov         qword ptr [rbx+FFFFFFFFFFFFFCD0h],rax
                    FF
  0000000010009C41: 48 8B CE           mov         rcx,rsi
  0000000010009C44: BA 36 00 00 00     mov         edx,36h
  0000000010009C49: FF 53 D8           call        qword ptr [rbx-28h]
  0000000010009C4C: 48 89 83 D8 FC FF  mov         qword ptr [rbx+FFFFFFFFFFFFFCD8h],rax
                    FF
  0000000010009C53: 48 8B CE           mov         rcx,rsi
  0000000010009C56: BA 31 00 00 00     mov         edx,31h
  0000000010009C5B: FF 53 D8           call        qword ptr [rbx-28h]
  0000000010009C5E: 48 89 83 F0 FC FF  mov         qword ptr [rbx+FFFFFFFFFFFFFCF0h],rax
                    FF
  0000000010009C65: 48 8B CE           mov         rcx,rsi
  0000000010009C68: BA 3F 00 00 00     mov         edx,3Fh
  0000000010009C6D: FF 53 D8           call        qword ptr [rbx-28h]
  0000000010009C70: 48 89 83 F8 FC FF  mov         qword ptr [rbx+FFFFFFFFFFFFFCF8h],rax
                    FF
  0000000010009C77: 48 8B CE           mov         rcx,rsi
  0000000010009C7A: BA 3D 00 00 00     mov         edx,3Dh
  0000000010009C7F: FF 53 D8           call        qword ptr [rbx-28h]
  0000000010009C82: 48 89 83 00 FD FF  mov         qword ptr [rbx+FFFFFFFFFFFFFD00h],rax
                    FF
  0000000010009C89: 48 8B CE           mov         rcx,rsi
  0000000010009C8C: BA 3C 00 00 00     mov         edx,3Ch
  0000000010009C91: FF 53 D8           call        qword ptr [rbx-28h]
  0000000010009C94: 48 89 83 08 FD FF  mov         qword ptr [rbx+FFFFFFFFFFFFFD08h],rax
                    FF
  0000000010009C9B: 48 8B CE           mov         rcx,rsi
  0000000010009C9E: BA 3B 00 00 00     mov         edx,3Bh
  0000000010009CA3: FF 53 D8           call        qword ptr [rbx-28h]
  0000000010009CA6: 48 89 83 10 FD FF  mov         qword ptr [rbx+FFFFFFFFFFFFFD10h],rax
                    FF
  0000000010009CAD: 48 8B CE           mov         rcx,rsi
  0000000010009CB0: BA 34 00 00 00     mov         edx,34h
  0000000010009CB5: FF 53 D8           call        qword ptr [rbx-28h]
  0000000010009CB8: 48 89 83 18 FD FF  mov         qword ptr [rbx+FFFFFFFFFFFFFD18h],rax
                    FF
  0000000010009CBF: 48 8B CE           mov         rcx,rsi
  0000000010009CC2: BA 1B 00 00 00     mov         edx,1Bh
  0000000010009CC7: FF 53 D8           call        qword ptr [rbx-28h]
  0000000010009CCA: 48 89 83 28 FD FF  mov         qword ptr [rbx+FFFFFFFFFFFFFD28h],rax
                    FF
  0000000010009CD1: 48 8B CE           mov         rcx,rsi
  0000000010009CD4: BA 3E 00 00 00     mov         edx,3Eh
  0000000010009CD9: FF 53 D8           call        qword ptr [rbx-28h]
  0000000010009CDC: 48 89 83 30 FD FF  mov         qword ptr [rbx+FFFFFFFFFFFFFD30h],rax
                    FF
  0000000010009CE3: 48 8B CE           mov         rcx,rsi
  0000000010009CE6: BA 41 00 00 00     mov         edx,41h
  0000000010009CEB: FF 53 D8           call        qword ptr [rbx-28h]
  0000000010009CEE: 48 89 83 38 FD FF  mov         qword ptr [rbx+FFFFFFFFFFFFFD38h],rax
                    FF
  0000000010009CF5: 48 8B CE           mov         rcx,rsi
  0000000010009CF8: BA 40 00 00 00     mov         edx,40h
  0000000010009CFD: FF 53 D8           call        qword ptr [rbx-28h]
  0000000010009D00: 48 89 83 40 FD FF  mov         qword ptr [rbx+FFFFFFFFFFFFFD40h],rax
                    FF
  0000000010009D07: 48 8B CE           mov         rcx,rsi
  0000000010009D0A: BA 33 00 00 00     mov         edx,33h
  0000000010009D0F: FF 53 D8           call        qword ptr [rbx-28h]
  0000000010009D12: 48 89 83 48 FD FF  mov         qword ptr [rbx+FFFFFFFFFFFFFD48h],rax
                    FF
  0000000010009D19: 48 8B CE           mov         rcx,rsi
  0000000010009D1C: BA 3A 00 00 00     mov         edx,3Ah
  0000000010009D21: FF 53 D8           call        qword ptr [rbx-28h]
  0000000010009D24: 48 89 83 50 FD FF  mov         qword ptr [rbx+FFFFFFFFFFFFFD50h],rax
                    FF
  0000000010009D2B: 48 8B CE           mov         rcx,rsi
  0000000010009D2E: BA 19 00 00 00     mov         edx,19h
  0000000010009D33: FF 53 D8           call        qword ptr [rbx-28h]
  0000000010009D36: 48 89 83 58 FD FF  mov         qword ptr [rbx+FFFFFFFFFFFFFD58h],rax
                    FF
  0000000010009D3D: 48 8B CE           mov         rcx,rsi
  0000000010009D40: BA 18 00 00 00     mov         edx,18h
  0000000010009D45: FF 53 D8           call        qword ptr [rbx-28h]
  0000000010009D48: 48 89 83 60 FD FF  mov         qword ptr [rbx+FFFFFFFFFFFFFD60h],rax
                    FF
  0000000010009D4F: 48 8B CE           mov         rcx,rsi
  0000000010009D52: BA 30 00 00 00     mov         edx,30h
  0000000010009D57: FF 53 D8           call        qword ptr [rbx-28h]
  0000000010009D5A: 48 89 83 68 FD FF  mov         qword ptr [rbx+FFFFFFFFFFFFFD68h],rax
                    FF
  0000000010009D61: 48 8B CE           mov         rcx,rsi
  0000000010009D64: BA 43 00 00 00     mov         edx,43h
  0000000010009D69: FF 53 D8           call        qword ptr [rbx-28h]
  0000000010009D6C: 48 89 83 70 FD FF  mov         qword ptr [rbx+FFFFFFFFFFFFFD70h],rax
                    FF
  0000000010009D73: 48 8B CE           mov         rcx,rsi
  0000000010009D76: BA 37 00 00 00     mov         edx,37h
  0000000010009D7B: FF 53 D8           call        qword ptr [rbx-28h]
  0000000010009D7E: 48 89 83 78 FD FF  mov         qword ptr [rbx+FFFFFFFFFFFFFD78h],rax
                    FF
  0000000010009D85: 48 8B CE           mov         rcx,rsi
  0000000010009D88: BA 35 00 00 00     mov         edx,35h
  0000000010009D8D: FF 53 D8           call        qword ptr [rbx-28h]
  0000000010009D90: 48 89 83 98 FD FF  mov         qword ptr [rbx+FFFFFFFFFFFFFD98h],rax
                    FF
  0000000010009D97: 48 8B CE           mov         rcx,rsi
  0000000010009D9A: BA 11 00 00 00     mov         edx,11h
  0000000010009D9F: FF 53 D8           call        qword ptr [rbx-28h]
  0000000010009DA2: 48 89 83 D0 FD FF  mov         qword ptr [rbx+FFFFFFFFFFFFFDD0h],rax
                    FF
  0000000010009DA9: 48 8B CE           mov         rcx,rsi
  0000000010009DAC: BA 0D 00 00 00     mov         edx,0Dh
  0000000010009DB1: FF 53 D8           call        qword ptr [rbx-28h]
  0000000010009DB4: 48 89 83 00 FE FF  mov         qword ptr [rbx+FFFFFFFFFFFFFE00h],rax
                    FF
  0000000010009DBB: 48 8B CE           mov         rcx,rsi
  0000000010009DBE: BA 0A 00 00 00     mov         edx,0Ah
  0000000010009DC3: FF 53 D8           call        qword ptr [rbx-28h]
  0000000010009DC6: 48 89 83 10 FE FF  mov         qword ptr [rbx+FFFFFFFFFFFFFE10h],rax
                    FF
  0000000010009DCD: 48 8B CE           mov         rcx,rsi
  0000000010009DD0: BA 0C 00 00 00     mov         edx,0Ch
  0000000010009DD5: FF 53 D8           call        qword ptr [rbx-28h]
  0000000010009DD8: 48 89 83 18 FE FF  mov         qword ptr [rbx+FFFFFFFFFFFFFE18h],rax
                    FF
  0000000010009DDF: 48 8B CE           mov         rcx,rsi
  0000000010009DE2: BA 1C 00 00 00     mov         edx,1Ch
  0000000010009DE7: FF 53 D8           call        qword ptr [rbx-28h]
  0000000010009DEA: 48 89 83 20 FE FF  mov         qword ptr [rbx+FFFFFFFFFFFFFE20h],rax
                    FF
  0000000010009DF1: 48 8B CE           mov         rcx,rsi
  0000000010009DF4: BA 0E 00 00 00     mov         edx,0Eh
  0000000010009DF9: FF 53 D8           call        qword ptr [rbx-28h]
  0000000010009DFC: 48 89 83 30 FE FF  mov         qword ptr [rbx+FFFFFFFFFFFFFE30h],rax
                    FF
  0000000010009E03: 48 8B CE           mov         rcx,rsi
  0000000010009E06: BA 1A 00 00 00     mov         edx,1Ah
  0000000010009E0B: FF 53 D8           call        qword ptr [rbx-28h]
  0000000010009E0E: 48 89 83 40 FE FF  mov         qword ptr [rbx+FFFFFFFFFFFFFE40h],rax
                    FF
  0000000010009E15: 48 8B CE           mov         rcx,rsi
  0000000010009E18: BA 26 00 00 00     mov         edx,26h
  0000000010009E1D: FF 53 D8           call        qword ptr [rbx-28h]
  0000000010009E20: 48 89 83 48 FE FF  mov         qword ptr [rbx+FFFFFFFFFFFFFE48h],rax
                    FF
  0000000010009E27: 48 8B CE           mov         rcx,rsi
  0000000010009E2A: BA 32 00 00 00     mov         edx,32h
  0000000010009E2F: FF 53 D8           call        qword ptr [rbx-28h]
  0000000010009E32: 48 89 83 50 FE FF  mov         qword ptr [rbx+FFFFFFFFFFFFFE50h],rax
                    FF
  0000000010009E39: 48 8B CE           mov         rcx,rsi
  0000000010009E3C: BA 14 00 00 00     mov         edx,14h
  0000000010009E41: FF 53 D8           call        qword ptr [rbx-28h]
  0000000010009E44: 48 89 83 58 FE FF  mov         qword ptr [rbx+FFFFFFFFFFFFFE58h],rax
                    FF
  0000000010009E4B: 48 8B CE           mov         rcx,rsi
  0000000010009E4E: BA 10 00 00 00     mov         edx,10h
  0000000010009E53: FF 53 D8           call        qword ptr [rbx-28h]
  0000000010009E56: 48 89 83 60 FE FF  mov         qword ptr [rbx+FFFFFFFFFFFFFE60h],rax
                    FF
  0000000010009E5D: 48 8B CE           mov         rcx,rsi
  0000000010009E60: BA 08 00 00 00     mov         edx,8
  0000000010009E65: FF 53 D8           call        qword ptr [rbx-28h]
  0000000010009E68: 48 89 83 68 FE FF  mov         qword ptr [rbx+FFFFFFFFFFFFFE68h],rax
                    FF
  0000000010009E6F: 48 8B CE           mov         rcx,rsi
  0000000010009E72: BA 13 00 00 00     mov         edx,13h
  0000000010009E77: FF 53 D8           call        qword ptr [rbx-28h]
  0000000010009E7A: 48 89 83 70 FE FF  mov         qword ptr [rbx+FFFFFFFFFFFFFE70h],rax
                    FF
  0000000010009E81: 48 8B CE           mov         rcx,rsi
  0000000010009E84: BA 12 00 00 00     mov         edx,12h
  0000000010009E89: FF 53 D8           call        qword ptr [rbx-28h]
  0000000010009E8C: 48 89 83 78 FE FF  mov         qword ptr [rbx+FFFFFFFFFFFFFE78h],rax
                    FF
  0000000010009E93: 48 8B CE           mov         rcx,rsi
  0000000010009E96: BA 0F 00 00 00     mov         edx,0Fh
  0000000010009E9B: FF 53 D8           call        qword ptr [rbx-28h]
  0000000010009E9E: 48 89 83 80 FE FF  mov         qword ptr [rbx+FFFFFFFFFFFFFE80h],rax
                    FF
  0000000010009EA5: 48 8B CE           mov         rcx,rsi
  0000000010009EA8: BA 15 00 00 00     mov         edx,15h
  0000000010009EAD: FF 53 D8           call        qword ptr [rbx-28h]
  0000000010009EB0: 48 89 83 88 FE FF  mov         qword ptr [rbx+FFFFFFFFFFFFFE88h],rax
                    FF
  0000000010009EB7: 48 8B CE           mov         rcx,rsi
  0000000010009EBA: BA 0B 00 00 00     mov         edx,0Bh
  0000000010009EBF: FF 53 D8           call        qword ptr [rbx-28h]
  0000000010009EC2: 48 89 83 90 FE FF  mov         qword ptr [rbx+FFFFFFFFFFFFFE90h],rax
                    FF
  0000000010009EC9: 48 8B CE           mov         rcx,rsi
  0000000010009ECC: BA 06 00 00 00     mov         edx,6
  0000000010009ED1: FF 53 D8           call        qword ptr [rbx-28h]
  0000000010009ED4: 48 89 83 98 FE FF  mov         qword ptr [rbx+FFFFFFFFFFFFFE98h],rax
                    FF
  0000000010009EDB: 48 8B CE           mov         rcx,rsi
  0000000010009EDE: BA 09 00 00 00     mov         edx,9
  0000000010009EE3: FF 53 D8           call        qword ptr [rbx-28h]
  0000000010009EE6: 48 89 83 A0 FE FF  mov         qword ptr [rbx+FFFFFFFFFFFFFEA0h],rax
                    FF
  0000000010009EED: 48 8B CE           mov         rcx,rsi
  0000000010009EF0: BA 16 00 00 00     mov         edx,16h
  0000000010009EF5: FF 53 D8           call        qword ptr [rbx-28h]
  0000000010009EF8: 48 89 83 A8 FE FF  mov         qword ptr [rbx+FFFFFFFFFFFFFEA8h],rax
                    FF
  0000000010009EFF: 48 8B CE           mov         rcx,rsi
  0000000010009F02: BA 04 00 00 00     mov         edx,4
  0000000010009F07: FF 53 D8           call        qword ptr [rbx-28h]
  0000000010009F0A: 48 89 83 C0 FE FF  mov         qword ptr [rbx+FFFFFFFFFFFFFEC0h],rax
                    FF
  0000000010009F11: 48 8B CE           mov         rcx,rsi
  0000000010009F14: BA 03 00 00 00     mov         edx,3
  0000000010009F19: FF 53 D8           call        qword ptr [rbx-28h]
  0000000010009F1C: 48 89 83 C8 FE FF  mov         qword ptr [rbx+FFFFFFFFFFFFFEC8h],rax
                    FF
  0000000010009F23: 48 8B CE           mov         rcx,rsi
  0000000010009F26: BA 02 00 00 00     mov         edx,2
  0000000010009F2B: FF 53 D8           call        qword ptr [rbx-28h]
  0000000010009F2E: 48 89 83 D0 FE FF  mov         qword ptr [rbx+FFFFFFFFFFFFFED0h],rax
                    FF
  0000000010009F35: 48 8B CE           mov         rcx,rsi
  0000000010009F38: BA 01 00 00 00     mov         edx,1
  0000000010009F3D: FF 53 D8           call        qword ptr [rbx-28h]
  0000000010009F40: 48 89 83 D8 FE FF  mov         qword ptr [rbx+FFFFFFFFFFFFFED8h],rax
                    FF
  0000000010009F47: 48 8D 8B E0 FE FF  lea         rcx,[rbx+FFFFFFFFFFFFFEE0h]
                    FF
  0000000010009F4E: FF 53 D0           call        qword ptr [rbx-30h]
  0000000010009F51: 48 85 C0           test        rax,rax
  0000000010009F54: 74 02              je          0000000010009F58
  0000000010009F56: EB 08              jmp         0000000010009F60
  0000000010009F58: B0 05              mov         al,5
  0000000010009F5A: B9 01 9B 00 00     mov         ecx,9B01h
  0000000010009F5F: CC                 int         3
  0000000010009F60: 48 8B F0           mov         rsi,rax
  0000000010009F63: 48 B8 A4 82 AD 54  mov         rax,5FF6CDB254AD82A4h
                    B2 CD F6 5F
  0000000010009F6D: 48 3B 86 F0 03 00  cmp         rax,qword ptr [rsi+00000000000003F0h]
                    00
  0000000010009F74: 75 02              jne         0000000010009F78
  0000000010009F76: EB 08              jmp         0000000010009F80
  0000000010009F78: B0 05              mov         al,5
  0000000010009F7A: B9 01 9B 00 00     mov         ecx,9B01h
  0000000010009F7F: CC                 int         3
  0000000010009F80: 48 B8 44 82 FC ED  mov         rax,0CC68C408EDFC8244h
                    08 C4 68 CC
  0000000010009F8A: 48 3B 86 F8 03 00  cmp         rax,qword ptr [rsi+00000000000003F8h]
                    00
  0000000010009F91: 75 02              jne         0000000010009F95
  0000000010009F93: EB 08              jmp         0000000010009F9D
  0000000010009F95: B0 05              mov         al,5
  0000000010009F97: B9 01 9B 00 00     mov         ecx,9B01h
  0000000010009F9C: CC                 int         3
  0000000010009F9D: 48 8B CE           mov         rcx,rsi
  0000000010009FA0: BA 12 00 00 00     mov         edx,12h
  0000000010009FA5: FF 53 D8           call        qword ptr [rbx-28h]
  0000000010009FA8: 48 89 83 90 FC FF  mov         qword ptr [rbx+FFFFFFFFFFFFFC90h],rax
                    FF
  0000000010009FAF: 48 8B CE           mov         rcx,rsi
  0000000010009FB2: BA 11 00 00 00     mov         edx,11h
  0000000010009FB7: FF 53 D8           call        qword ptr [rbx-28h]
  0000000010009FBA: 48 89 83 A0 FC FF  mov         qword ptr [rbx+FFFFFFFFFFFFFCA0h],rax
                    FF
  0000000010009FC1: 48 8B CE           mov         rcx,rsi
  0000000010009FC4: BA 04 00 00 00     mov         edx,4
  0000000010009FC9: FF 53 D8           call        qword ptr [rbx-28h]
  0000000010009FCC: 48 89 83 B0 FC FF  mov         qword ptr [rbx+FFFFFFFFFFFFFCB0h],rax
                    FF
  0000000010009FD3: 48 8B CE           mov         rcx,rsi
  0000000010009FD6: BA 03 00 00 00     mov         edx,3
  0000000010009FDB: FF 53 D8           call        qword ptr [rbx-28h]
  0000000010009FDE: 48 89 83 E0 FC FF  mov         qword ptr [rbx+FFFFFFFFFFFFFCE0h],rax
                    FF
  0000000010009FE5: 48 8B CE           mov         rcx,rsi
  0000000010009FE8: BA 02 00 00 00     mov         edx,2
  0000000010009FED: FF 53 D8           call        qword ptr [rbx-28h]
  0000000010009FF0: 48 89 83 E8 FC FF  mov         qword ptr [rbx+FFFFFFFFFFFFFCE8h],rax
                    FF
  0000000010009FF7: 48 8B CE           mov         rcx,rsi
  0000000010009FFA: BA 01 00 00 00     mov         edx,1
  0000000010009FFF: FF 53 D8           call        qword ptr [rbx-28h]
  000000001000A002: 48 89 83 20 FD FF  mov         qword ptr [rbx+FFFFFFFFFFFFFD20h],rax
                    FF
  000000001000A009: 48 8B CE           mov         rcx,rsi
  000000001000A00C: BA 09 00 00 00     mov         edx,9
  000000001000A011: FF 53 D8           call        qword ptr [rbx-28h]
  000000001000A014: 48 89 83 80 FD FF  mov         qword ptr [rbx+FFFFFFFFFFFFFD80h],rax
                    FF
  000000001000A01B: 48 8B CE           mov         rcx,rsi
  000000001000A01E: BA 10 00 00 00     mov         edx,10h
  000000001000A023: FF 53 D8           call        qword ptr [rbx-28h]
  000000001000A026: 48 89 83 A8 FD FF  mov         qword ptr [rbx+FFFFFFFFFFFFFDA8h],rax
                    FF
  000000001000A02D: 48 8B CE           mov         rcx,rsi
  000000001000A030: BA 07 00 00 00     mov         edx,7
  000000001000A035: FF 53 D8           call        qword ptr [rbx-28h]
  000000001000A038: 48 89 83 B0 FD FF  mov         qword ptr [rbx+FFFFFFFFFFFFFDB0h],rax
                    FF
  000000001000A03F: 48 8B CE           mov         rcx,rsi
  000000001000A042: BA 08 00 00 00     mov         edx,8
  000000001000A047: FF 53 D8           call        qword ptr [rbx-28h]
  000000001000A04A: 48 89 83 B8 FD FF  mov         qword ptr [rbx+FFFFFFFFFFFFFDB8h],rax
                    FF
  000000001000A051: 48 8B CE           mov         rcx,rsi
  000000001000A054: BA 06 00 00 00     mov         edx,6
  000000001000A059: FF 53 D8           call        qword ptr [rbx-28h]
  000000001000A05C: 48 89 83 C0 FD FF  mov         qword ptr [rbx+FFFFFFFFFFFFFDC0h],rax
                    FF
  000000001000A063: 48 8B CE           mov         rcx,rsi
  000000001000A066: BA 0F 00 00 00     mov         edx,0Fh
  000000001000A06B: FF 53 D8           call        qword ptr [rbx-28h]
  000000001000A06E: 48 89 83 C8 FD FF  mov         qword ptr [rbx+FFFFFFFFFFFFFDC8h],rax
                    FF
  000000001000A075: 48 8B CE           mov         rcx,rsi
  000000001000A078: BA 0E 00 00 00     mov         edx,0Eh
  000000001000A07D: FF 53 D8           call        qword ptr [rbx-28h]
  000000001000A080: 48 89 83 D8 FD FF  mov         qword ptr [rbx+FFFFFFFFFFFFFDD8h],rax
                    FF
  000000001000A087: 48 8B CE           mov         rcx,rsi
  000000001000A08A: BA 0D 00 00 00     mov         edx,0Dh
  000000001000A08F: FF 53 D8           call        qword ptr [rbx-28h]
  000000001000A092: 48 89 83 E0 FD FF  mov         qword ptr [rbx+FFFFFFFFFFFFFDE0h],rax
                    FF
  000000001000A099: 48 8B CE           mov         rcx,rsi
  000000001000A09C: BA 0C 00 00 00     mov         edx,0Ch
  000000001000A0A1: FF 53 D8           call        qword ptr [rbx-28h]
  000000001000A0A4: 48 89 83 E8 FD FF  mov         qword ptr [rbx+FFFFFFFFFFFFFDE8h],rax
                    FF
  000000001000A0AB: 48 8B CE           mov         rcx,rsi
  000000001000A0AE: BA 0B 00 00 00     mov         edx,0Bh
  000000001000A0B3: FF 53 D8           call        qword ptr [rbx-28h]
  000000001000A0B6: 48 89 83 F0 FD FF  mov         qword ptr [rbx+FFFFFFFFFFFFFDF0h],rax
                    FF
  000000001000A0BD: 48 8B CE           mov         rcx,rsi
  000000001000A0C0: BA 0A 00 00 00     mov         edx,0Ah
  000000001000A0C5: FF 53 D8           call        qword ptr [rbx-28h]
  000000001000A0C8: 48 89 83 F8 FD FF  mov         qword ptr [rbx+FFFFFFFFFFFFFDF8h],rax
                    FF
  000000001000A0CF: 48 8B CE           mov         rcx,rsi
  000000001000A0D2: BA 05 00 00 00     mov         edx,5
  000000001000A0D7: FF 53 D8           call        qword ptr [rbx-28h]
  000000001000A0DA: 48 89 83 08 FE FF  mov         qword ptr [rbx+FFFFFFFFFFFFFE08h],rax
                    FF
  000000001000A0E1: 48 C7 83 70 EE FF  mov         qword ptr [rbx+FFFFFFFFFFFFEE70h],90h
                    FF 90 00 00 00
  000000001000A0EC: E8 9F F8 FF FF     call        0000000010009990
  000000001000A0F1: B8 01 00 00 00     mov         eax,1
  000000001000A0F6: 48 83 C4 20        add         rsp,20h
  000000001000A0FA: 5B                 pop         rbx
  000000001000A0FB: 5F                 pop         rdi
  000000001000A0FC: 5E                 pop         rsi
  000000001000A0FD: C3                 ret

RAW DATA #3
  0000000010004000: 55 48 8B EC 48 83 EC 20 48 8D 8B F8 DF FF FF FF  UH.?H.? H..øßÿÿÿ
  0000000010004010: 93 B8 FE FF FF C9 C3 90 90 90 90 90 90 90 90 90  .¸?ÿÿÉ?.........
  0000000010004020: 55 48 8B EC 48 83 EC 20 48 89 4D 10 48 89 55 18  UH.?H.? H.M.H.U.
  0000000010004030: 48 8B 4D 10 48 8B 55 18 FF 93 B0 FE FF FF C9 C3  H.M.H.U.ÿ.°?ÿÿÉ?
  0000000010004040: 55 48 8B EC 48 83 EC 20 48 89 4D 10 48 8B 83 F8  UH.?H.? H.M.H..ø
  0000000010004050: DF FF FF 48 8B 4D 10 48 3B C1 75 0A E8 9F FF FF  ßÿÿH.M.H;Áu.è.ÿÿ
  0000000010004060: FF E9 AC 01 00 00 48 83 7D 10 34 75 16 48 8D 8B  ÿé¬...H.}.4u.H..
  0000000010004070: D0 EE FF FF BA 05 00 00 00 E8 A2 FF FF FF E9 8F  ?îÿÿº....è¢ÿÿÿé.
  0000000010004080: 01 00 00 48 83 7D 10 09 75 16 48 8D 8B E0 EE FF  ...H.}..u.H..àîÿ
  0000000010004090: FF BA 05 00 00 00 E8 85 FF FF FF E9 72 01 00 00  ÿº....è.ÿÿÿér...
  00000000100040A0: 48 83 7D 10 29 75 16 48 8D 8B F0 EE FF FF BA 05  H.}.)u.H..?îÿÿº.
  00000000100040B0: 00 00 00 E8 68 FF FF FF E9 55 01 00 00 48 83 7D  ...èhÿÿÿéU...H.}
  00000000100040C0: 10 30 75 16 48 8D 8B 00 EF FF FF BA 06 00 00 00  .0u.H...ïÿÿº....
  00000000100040D0: E8 4B FF FF FF E9 38 01 00 00 48 83 7D 10 35 75  èKÿÿÿé8...H.}.5u
  00000000100040E0: 16 48 8D 8B 10 EF FF FF BA 07 00 00 00 E8 2E FF  .H...ïÿÿº....è.ÿ
  00000000100040F0: FF FF E9 1B 01 00 00 48 83 7D 10 32 75 16 48 8D  ÿÿé....H.}.2u.H.
  0000000010004100: 8B 20 EF FF FF BA 06 00 00 00 E8 11 FF FF FF E9  . ïÿÿº....è.ÿÿÿé
  0000000010004110: FE 00 00 00 48 83 7D 10 2C 75 16 48 8D 8B 30 EF  ?...H.}.,u.H..0ï
  0000000010004120: FF FF BA 05 00 00 00 E8 F4 FE FF FF E9 E1 00 00  ÿÿº....èô?ÿÿéá..
  0000000010004130: 00 48 83 7D 10 2D 75 16 48 8D 8B 40 EF FF FF BA  .H.}.-u.H..@ïÿÿº
  0000000010004140: 05 00 00 00 E8 D7 FE FF FF E9 C4 00 00 00 48 83  ....è×?ÿÿéÄ...H.
  0000000010004150: 7D 10 2E 75 16 48 8D 8B 50 EF FF FF BA 05 00 00  }..u.H..Pïÿÿº...
  0000000010004160: 00 E8 BA FE FF FF E9 A7 00 00 00 48 83 7D 10 2F  .èº?ÿÿé§...H.}./
  0000000010004170: 75 16 48 8D 8B 60 EF FF FF BA 08 00 00 00 E8 9D  u.H..`ïÿÿº....è.
  0000000010004180: FE FF FF E9 8A 00 00 00 48 83 7D 10 31 75 13 48  ?ÿÿé....H.}.1u.H
  0000000010004190: 8D 8B 70 EF FF FF BA 06 00 00 00 E8 80 FE FF FF  ..pïÿÿº....è.?ÿÿ
  00000000100041A0: EB 70 48 83 7D 10 39 75 13 48 8D 8B 80 EF FF FF  ëpH.}.9u.H...ïÿÿ
  00000000100041B0: BA 09 00 00 00 E8 66 FE FF FF EB 56 48 83 7D 10  º....èf?ÿÿëVH.}.
  00000000100041C0: 2A 75 13 48 8D 8B A0 EF FF FF BA 06 00 00 00 E8  *u.H...ïÿÿº....è
  00000000100041D0: 4C FE FF FF EB 3C 48 83 7D 10 12 75 13 48 8D 8B  L?ÿÿë<H.}..u.H..
  00000000100041E0: B0 EF FF FF BA 05 00 00 00 E8 32 FE FF FF EB 22  °ïÿÿº....è2?ÿÿë"
  00000000100041F0: 48 83 7D 10 28 75 13 48 8D 8B C0 EF FF FF BA 05  H.}.(u.H..Àïÿÿº.
  0000000010004200: 00 00 00 E8 18 FE FF FF EB 08 B0 03 B9 99 05 00  ...è.?ÿÿë.°.¹...
  0000000010004210: 00 CC C9 C3 90 90 90 90 90 90 90 90 90 90 90 90  .?É?............
  0000000010004220: 55 48 8B EC 48 83 EC 20 48 89 4D 10 48 83 7D 10  UH.?H.? H.M.H.}.
  0000000010004230: 1F 75 13 48 8D 8B D0 EF FF FF BA 0A 00 00 00 E8  .u.H..?ïÿÿº....è
  0000000010004240: DC FD FF FF EB 56 48 83 7D 10 3A 75 13 48 8D 8B  Ü?ÿÿëVH.}.:u.H..
  0000000010004250: F0 EF FF FF BA 0B 00 00 00 E8 C2 FD FF FF EB 3C  ?ïÿÿº....èÂ?ÿÿë<
  0000000010004260: 48 83 7D 10 28 75 13 48 8D 8B 10 F0 FF FF BA 05  H.}.(u.H...?ÿÿº.
  0000000010004270: 00 00 00 E8 A8 FD FF FF EB 22 48 83 7D 10 34 75  ...è¨?ÿÿë"H.}.4u
  0000000010004280: 13 48 8D 8B 20 F0 FF FF BA 05 00 00 00 E8 8E FD  .H.. ?ÿÿº....è.?
  0000000010004290: FF FF EB 08 B0 03 B9 90 06 00 00 CC C9 C3 90 90  ÿÿë.°.¹....?É?..
  00000000100042A0: 55 48 8B EC 48 89 4D 10 48 8B 45 10 48 8B 8B A8  UH.?H.M.H.E.H..¨
  00000000100042B0: FE FF FF 48 8B 09 48 3B C1 74 18 48 8B 45 10 48  ?ÿÿH..H;Át.H.E.H
  00000000100042C0: 83 38 07 75 15 48 8B 45 10 48 8B 40 40 48 83 38  .8.u.H.E.H.@@H.8
  00000000100042D0: 03 75 07 B8 01 00 00 00 EB 02 31 C0 C9 C3 90 90  .u.¸....ë.1ÀÉ?..
  00000000100042E0: 55 48 8B EC 48 83 EC 20 48 89 4D 10 48 89 55 18  UH.?H.? H.M.H.U.
  00000000100042F0: 48 8B 4D 10 48 8B 55 18 48 3B CA 74 2A 48 8B 4D  H.M.H.U.H;Êt*H.M
  0000000010004300: 10 48 8B 49 20 48 8B 55 18 48 8B 52 20 48 3B CA  .H.I H.U.H.R H;Ê
  0000000010004310: 7E 1C 48 8B 4D 10 48 8B 49 40 48 8B 55 18 E8 BD  ~.H.M.H.I@H.U.è½
  0000000010004320: FF FF FF 85 C0 74 07 B8 01 00 00 00 EB 02 31 C0  ÿÿÿ.Àt.¸....ë.1À
  0000000010004330: C9 C3 90 90 90 90 90 90 90 90 90 90 90 90 90 90  É?..............
  0000000010004340: 55 48 8B EC 48 83 EC 20 48 89 4D 10 48 89 55 18  UH.?H.? H.M.H.U.
  0000000010004350: 48 8B 45 10 48 83 38 05 75 0C 48 8B 45 10 48 8B  H.E.H.8.u.H.E.H.
  0000000010004360: 40 40 48 89 45 10 48 8B 45 18 48 83 38 05 75 0C  @@H.E.H.E.H.8.u.
  0000000010004370: 48 8B 45 18 48 8B 40 40 48 89 45 18 48 8B 4D 10  H.E.H.@@H.E.H.M.
  0000000010004380: 48 8B 55 18 E8 57 FF FF FF C9 C3 90 90 90 90 90  H.U.èWÿÿÿÉ?.....
  0000000010004390: 55 48 8B EC 48 89 4D 10 48 8B 4D 10 48 8B 49 F8  UH.?H.M.H.M.H.Iø
  00000000100043A0: 48 8B 93 A0 FE FF FF 48 39 51 10 75 32 48 8B 8B  H...?ÿÿH9Q.u2H..
  00000000100043B0: A0 FE FF FF 48 8B 55 10 48 8B 52 F8 48 39 4A 10  .?ÿÿH.U.H.RøH9J.
  00000000100043C0: 75 02 EB 08 B0 02 B9 9D 08 00 00 CC 48 8B 4D 10  u.ë.°.¹....?H.M.
  00000000100043D0: 0F B6 49 41 85 C9 74 07 B9 01 00 00 00 EB 02 31  .¶IA.Ét.¹....ë.1
  00000000100043E0: C9 48 8B C1 C9 C3 90 90 90 90 90 90 90 90 90 90  ÉH.ÁÉ?..........
  00000000100043F0: 55 48 8B EC 48 89 4D 10 48 8B 4D 10 48 8B 49 F8  UH.?H.M.H.M.H.Iø
  0000000010004400: 48 8B 93 98 FE FF FF 48 39 51 08 74 3F 48 8B 4D  H...?ÿÿH9Q.t?H.M
  0000000010004410: 10 48 8B 49 F8 48 8B 93 90 FE FF FF 48 39 51 10  .H.IøH...?ÿÿH9Q.
  0000000010004420: 75 31 48 8B 8B 90 FE FF FF 48 8B 55 10 48 8B 52  u1H...?ÿÿH.U.H.R
  0000000010004430: F8 48 39 4A 10 75 02 EB 08 B0 02 B9 13 09 00 00  øH9J.u.ë.°.¹....
  0000000010004440: CC 48 8B 4D 10 48 83 79 48 00 7C 07 B9 01 00 00  ?H.M.H.yH.|.¹...
  0000000010004450: 00 EB 02 31 C9 48 8B C1 C9 C3 90 90 90 90 90 90  .ë.1ÉH.ÁÉ?......
  0000000010004460: 55 48 8B EC 48 89 4D 10 48 8B 4D 10 48 83 39 07  UH.?H.M.H.M.H.9.
  0000000010004470: 75 12 48 8B 4D 10 48 83 79 20 00 7D 07 B9 01 00  u.H.M.H.y .}.¹..
  0000000010004480: 00 00 EB 02 31 C9 48 8B C1 C9 C3 90 90 90 90 90  ..ë.1ÉH.ÁÉ?.....
  0000000010004490: 55 48 8B EC 48 83 EC 20 48 89 4D 10 48 89 55 18  UH.?H.? H.M.H.U.
  00000000100044A0: 48 83 7D 10 00 75 0B 48 83 7D 18 00 0F 84 50 01  H.}..u.H.}....P.
  00000000100044B0: 00 00 48 83 7D 10 00 0F 84 4C 01 00 00 48 83 7D  ..H.}....L...H.}
  00000000100044C0: 18 00 0F 84 41 01 00 00 48 8B 4D 10 48 8B 93 A0  ....A...H.M.H...
  00000000100044D0: FE FF FF 4C 8B 81 88 00 00 00 4D 8B 40 F8 49 39  ?ÿÿL......M.@øI9
  00000000100044E0: 50 10 75 02 EB 08 B0 02 B9 18 0A 00 00 CC 48 8B  P.u.ë.°.¹....?H.
  00000000100044F0: 89 88 00 00 00 0F B6 49 41 48 8B 55 18 4C 8B 83  ......¶IAH.U.L..
  0000000010004500: A0 FE FF FF 4C 8B 8A 88 00 00 00 4D 8B 49 F8 4D  .?ÿÿL......M.IøM
  0000000010004510: 39 41 10 75 02 EB 08 B0 02 B9 2F 0A 00 00 CC 48  9A.u.ë.°.¹/...?H
  0000000010004520: 8B 92 88 00 00 00 0F B6 52 41 48 3B CA 0F 85 D6  .......¶RAH;Ê..Ö
  0000000010004530: 00 00 00 48 8B 4D 10 48 8B 89 88 00 00 00 48 8B  ...H.M.H......H.
  0000000010004540: 49 08 48 8B 55 18 48 8B 92 88 00 00 00 48 8B 52  I.H.U.H......H.R
  0000000010004550: 08 48 3B CA 0F 84 89 00 00 00 48 8B 4D 10 48 8B  .H;Ê......H.M.H.
  0000000010004560: 89 88 00 00 00 48 8B 49 08 48 83 39 07 0F 85 96  .....H.I.H.9....
  0000000010004570: 00 00 00 48 8B 4D 18 48 8B 89 88 00 00 00 48 8B  ...H.M.H......H.
  0000000010004580: 49 08 48 83 39 07 0F 85 7D 00 00 00 48 8B 4D 10  I.H.9...}...H.M.
  0000000010004590: 48 8B 89 88 00 00 00 48 8B 49 08 48 83 79 20 00  H......H.I.H.y .
  00000000100045A0: 7D 67 48 8B 4D 18 48 8B 89 88 00 00 00 48 8B 49  }gH.M.H......H.I
  00000000100045B0: 08 48 83 79 20 00 7D 51 48 8B 4D 10 48 8B 89 88  .H.y .}QH.M.H...
  00000000100045C0: 00 00 00 48 8B 49 08 48 8B 49 40 48 8B 55 18 48  ...H.I.H.I@H.U.H
  00000000100045D0: 8B 92 88 00 00 00 48 8B 52 08 48 8B 52 40 48 3B  ......H.R.H.R@H;
  00000000100045E0: CA 75 26 48 8B 4D 10 48 8B 89 90 00 00 00 48 8B  Êu&H.M.H......H.
  00000000100045F0: 55 18 48 8B 92 90 00 00 00 E8 92 FE FF FF 85 C0  U.H......è.?ÿÿ.À
  0000000010004600: 74 07 B8 01 00 00 00 EB 02 31 C0 C9 C3 90 90 90  t.¸....ë.1ÀÉ?...
  0000000010004610: 55 48 8B EC 48 83 EC 20 48 89 4D 10 48 89 55 18  UH.?H.? H.M.H.U.
  0000000010004620: 48 8B 4D 10 48 8B 49 40 48 8B 55 18 48 8B 52 40  H.M.H.I@H.U.H.R@
  0000000010004630: 48 3B CA 75 35 48 8B 4D 10 48 8B 49 58 48 8B 55  H;Êu5H.M.H.IXH.U
  0000000010004640: 18 48 8B 52 58 48 3B CA 75 20 48 8B 4D 10 48 8B  .H.RXH;Êu H.M.H.
  0000000010004650: 49 48 48 8B 55 18 48 8B 52 48 E8 31 FE FF FF 85  IHH.U.H.RHè1?ÿÿ.
  0000000010004660: C0 74 07 B8 01 00 00 00 EB 02 31 C0 C9 C3 90 90  Àt.¸....ë.1ÀÉ?..
  0000000010004670: 55 48 8B EC 48 83 EC 20 48 89 4D 10 48 89 55 18  UH.?H.? H.M.H.U.
  0000000010004680: 48 8B 4D 10 48 8B 55 18 48 3B CA 0F 84 DC 00 00  H.M.H.U.H;Ê..Ü..
  0000000010004690: 00 48 8B 4D 10 48 83 39 00 75 0E 48 8B 4D 18 48  .H.M.H.9.u.H.M.H
  00000000100046A0: 83 39 00 0F 84 C4 00 00 00 48 8B 4D 10 48 83 39  .9...Ä...H.M.H.9
  00000000100046B0: 03 75 1C 48 8B 4D 18 E8 E4 FB FF FF 85 C0 74 0F  .u.H.M.èäûÿÿ.Àt.
  00000000100046C0: 48 8B 45 18 48 83 78 20 02 0F 8E 9E 00 00 00 48  H.E.H.x .......H
  00000000100046D0: 8B 4D 10 E8 C8 FB FF FF 85 C0 74 11 48 8B 4D 18  .M.èÈûÿÿ.Àt.H.M.
  00000000100046E0: E8 BB FB FF FF 85 C0 0F 85 80 00 00 00 48 8B 45  è»ûÿÿ.À......H.E
  00000000100046F0: 10 48 8B 00 B9 60 00 00 00 48 0F A3 C1 73 13 48  .H..¹`...H.£Ás.H
  0000000010004700: 8B 45 18 48 8B 8B 88 FE FF FF 48 8B 09 48 3B C1  .E.H...?ÿÿH..H;Á
  0000000010004710: 74 5B 48 8B 45 10 48 8B 00 B9 20 01 00 00 48 0F  t[H.E.H..¹ ...H.
  0000000010004720: A3 C1 73 24 48 8B 45 10 48 8B 00 48 8B 4D 18 48  £Ás$H.E.H..H.M.H
  0000000010004730: 8B 09 48 3B C1 75 11 48 8B 4D 18 48 8B 55 10 E8  ..H;Áu.H.M.H.U.è
  0000000010004740: FC FB FF FF 85 C0 75 25 48 8B 45 10 48 83 38 06  üûÿÿ.Àu%H.E.H.8.
  0000000010004750: 75 22 48 8B 45 18 48 83 38 06 75 18 48 8B 4D 10  u"H.E.H.8.u.H.M.
  0000000010004760: 48 8B 55 18 E8 A7 FE FF FF 85 C0 74 07 B8 01 00  H.U.è§?ÿÿ.Àt.¸..
  0000000010004770: 00 00 EB 02 31 C0 C9 C3 90 90 90 90 90 90 90 90  ..ë.1ÀÉ?........
  0000000010004780: 55 48 8B EC 48 83 EC 20 48 89 4D 10 48 89 55 18  UH.?H.? H.M.H.U.
  0000000010004790: 48 8B 4D 10 48 8B 55 18 E8 D3 FE FF FF 85 C0 75  H.M.H.U.èÓ?ÿÿ.Àu
  00000000100047A0: 11 48 8B 4D 18 48 8B 55 10 E8 C2 FE FF FF 85 C0  .H.M.H.U.èÂ?ÿÿ.À
  00000000100047B0: 74 07 B8 01 00 00 00 EB 02 31 C0 C9 C3 90 90 90  t.¸....ë.1ÀÉ?...
  00000000100047C0: 55 48 8B EC 48 83 EC 20 48 89 4D 10 48 8B 45 10  UH.?H.? H.M.H.E.
  00000000100047D0: 48 8B 40 08 48 83 38 00 74 11 48 8D 8B 30 F0 FF  H.@.H.8.t.H..0?ÿ
  00000000100047E0: FF BA 08 00 00 00 E8 35 F8 FF FF C9 C3 90 90 90  ÿº....è5øÿÿÉ?...
  00000000100047F0: 55 48 8B EC 48 83 EC 20 48 89 4D 10 48 8B 45 10  UH.?H.? H.M.H.E.
  0000000010004800: 48 8B 40 08 48 8B 8B 80 FE FF FF 48 8B 09 48 3B  H.@.H...?ÿÿH..H;
  0000000010004810: C1 74 11 48 8D 8B 40 F0 FF FF BA 0C 00 00 00 E8  Át.H..@?ÿÿº....è
  0000000010004820: FC F7 FF FF C9 C3 90 90 90 90 90 90 90 90 90 90  ü÷ÿÿÉ?..........
  0000000010004830: 55 48 8B EC 48 83 EC 20 48 89 4D 10 48 8B 45 10  UH.?H.? H.M.H.E.
  0000000010004840: 48 8B 40 08 48 8B 8B 78 FE FF FF 48 8B 09 48 3B  H.@.H..x?ÿÿH..H;
  0000000010004850: C1 74 11 48 8D 8B 60 F0 FF FF BA 09 00 00 00 E8  Át.H..`?ÿÿº....è
  0000000010004860: BC F7 FF FF C9 C3 90 90 90 90 90 90 90 90 90 90  ¼÷ÿÿÉ?..........
  0000000010004870: 55 48 8B EC 48 83 EC 20 48 89 4D 10 48 8B 45 10  UH.?H.? H.M.H.E.
  0000000010004880: 48 8B 40 08 48 8B 8B 70 FE FF FF 48 8B 09 48 3B  H.@.H..p?ÿÿH..H;
  0000000010004890: C1 74 11 48 8D 8B 80 F0 FF FF BA 08 00 00 00 E8  Át.H...?ÿÿº....è
  00000000100048A0: 7C F7 FF FF C9 C3 90 90 90 90 90 90 90 90 90 90  |÷ÿÿÉ?..........
  00000000100048B0: 55 48 8B EC 48 83 EC 20 48 89 4D 10 48 8B 45 10  UH.?H.? H.M.H.E.
  00000000100048C0: 48 8B 40 08 48 83 38 04 74 11 48 8D 8B 90 F0 FF  H.@.H.8.t.H...?ÿ
  00000000100048D0: FF BA 10 00 00 00 E8 45 F7 FF FF C9 C3 90 90 90  ÿº....èE÷ÿÿÉ?...
  00000000100048E0: 55 48 8B EC 48 83 EC 20 48 89 4D 10 48 8B 45 10  UH.?H.? H.M.H.E.
  00000000100048F0: 48 8B 40 08 48 83 38 05 75 0F 48 8B 45 10 48 8B  H.@.H.8.u.H.E.H.
  0000000010004900: 40 08 48 83 78 40 00 75 1B 48 8B 45 10 48 8B 40  @.H.x@.u.H.E.H.@
  0000000010004910: 08 48 83 38 08 75 14 48 8B 4D 10 E8 70 FA FF FF  .H.8.u.H.M.èpúÿÿ
  0000000010004920: 85 C0 74 07 B8 01 00 00 00 EB 02 31 C0 C9 C3 90  .Àt.¸....ë.1ÀÉ?.
  0000000010004930: 55 48 8B EC 48 83 EC 30 48 89 4D 10 48 89 55 18  UH.?H.?0H.M.H.U.
  0000000010004940: 48 8B 45 10 48 83 38 02 75 2B 48 8B 83 C0 FE FF  H.E.H.8.u+H..À?ÿ
  0000000010004950: FF 48 8B 4D 10 48 8B 49 F8 48 39 41 08 75 02 EB  ÿH.M.H.IøH9A.u.ë
  0000000010004960: 08 B0 02 B9 23 11 00 00 CC 48 8B 45 10 48 8B 40  .°.¹#...?H.E.H.@
  0000000010004970: 28 48 89 45 F8 48 8B 45 10 48 8B 40 F8 48 8B 8B  (H.EøH.E.H.@øH..
  0000000010004980: 68 FE FF FF 48 39 48 08 75 46 0F B6 45 18 85 C0  h?ÿÿH9H.uF.¶E..À
  0000000010004990: 75 3C 48 8B 83 68 FE FF FF 48 8B 4D 10 48 8B 49  u<H..h?ÿÿH.M.H.I
  00000000100049A0: F8 48 39 41 08 75 02 EB 08 B0 02 B9 58 11 00 00  øH9A.u.ë.°.¹X...
  00000000100049B0: CC 48 8B 45 10 0F B6 40 40 85 C0 74 11 48 8D 8B  ?H.E..¶@@.Àt.H..
  00000000100049C0: B0 F0 FF FF BA 0A 00 00 00 E8 52 F6 FF FF EB 7D  °?ÿÿº....èRöÿÿë}
  00000000100049D0: 48 8B 45 10 48 83 38 02 75 62 48 83 7D F8 11 74  H.E.H.8.ubH.}ø.t
  00000000100049E0: 15 48 83 7D F8 12 74 0E 48 83 7D F8 1C 74 07 48  .H.}ø.t.H.}ø.t.H
  00000000100049F0: 83 7D F8 1D 75 46 0F B6 45 18 85 C0 75 3C 48 8B  .}ø.uF.¶E..Àu<H.
  0000000010004A00: 83 C0 FE FF FF 48 8B 4D 10 48 8B 49 F8 48 39 41  .À?ÿÿH.M.H.IøH9A
  0000000010004A10: 08 75 02 EB 08 B0 02 B9 06 12 00 00 CC 48 8B 45  .u.ë.°.¹....?H.E
  0000000010004A20: 10 0F B6 40 40 85 C0 74 11 48 8D 8B D0 F0 FF FF  ..¶@@.Àt.H..??ÿÿ
  0000000010004A30: BA 0A 00 00 00 E8 E6 F5 FF FF EB 11 48 8D 8B F0  º....èæ?ÿÿë.H..?
  0000000010004A40: F0 FF FF BA 08 00 00 00 E8 D3 F5 FF FF C9 C3 90  ?ÿÿº....èÓ?ÿÿÉ?.
  0000000010004A50: 55 48 8B EC 48 83 EC 40 48 89 4D 10 48 89 55 18  UH.?H.?@H.M.H.U.
  0000000010004A60: 48 C7 45 F8 00 00 00 00 48 C7 45 F0 00 00 00 00  HÇEø....HÇE?....
  0000000010004A70: 48 8B 45 18 48 8B 40 08 48 89 45 F8 48 8B 45 10  H.E.H.@.H.EøH.E.
  0000000010004A80: 48 8B 40 08 48 89 45 F0 48 8B 45 10 0F B6 40 41  H.@.H.E?H.E..¶@A
  0000000010004A90: 85 C0 75 27 48 8B 4D F0 48 8B 55 F8 E8 CF FB FF  .Àu'H.M?H.UøèÏûÿ
  0000000010004AA0: FF 85 C0 75 11 48 8D 8B 00 F1 FF FF BA 11 00 00  ÿ.Àu.H...ñÿÿº...
  0000000010004AB0: 00 E8 6A F5 FF FF E9 1D 01 00 00 48 8B 45 10 0F  .èj?ÿÿé....H.E..
  0000000010004AC0: B6 40 41 85 C0 0F 84 0D 01 00 00 48 8B 4D 18 48  ¶@A.À......H.M.H
  0000000010004AD0: 8B 55 10 0F B6 52 40 E8 54 FE FF FF 48 8B 45 F8  .U..¶R@èT?ÿÿH.Eø
  0000000010004AE0: 48 8B 00 48 89 45 E8 48 8B 45 F0 48 8B 00 48 89  H..H.EèH.E?H..H.
  0000000010004AF0: 45 E0 48 8B 45 F8 48 8B 4D F0 48 3B C1 0F 84 C2  EàH.EøH.M?H;Á..Â
  0000000010004B00: 00 00 00 48 83 7D E0 08 75 1C 48 83 7D E8 08 75  ...H.}à.u.H.}è.u
  0000000010004B10: 15 48 8B 4D F8 48 8B 55 F0 E8 22 F8 FF FF 85 C0  .H.MøH.U?è"øÿÿ.À
  0000000010004B20: 0F 85 9F 00 00 00 48 8B 4D F0 E8 31 F9 FF FF 85  ......H.M?è1ùÿÿ.
  0000000010004B30: C0 74 1C 48 83 7D E8 07 75 15 48 8B 45 F0 48 8B  Àt.H.}è.u.H.E?H.
  0000000010004B40: 40 40 48 8B 4D F8 48 8B 49 40 48 3B C1 74 76 48  @@H.MøH.I@H;ÁtvH
  0000000010004B50: 83 7D E0 07 75 31 48 83 7D E8 07 75 2A 48 8B 45  .}à.u1H.}è.u*H.E
  0000000010004B60: F0 48 8B 40 40 48 8B 4D F8 48 8B 49 40 48 3B C1  ?H.@@H.MøH.I@H;Á
  0000000010004B70: 75 15 48 8B 45 F0 48 8B 40 20 48 8B 4D F8 48 8B  u.H.E?H.@ H.MøH.
  0000000010004B80: 49 20 48 3B C1 74 3E 48 8B 4D F0 E8 D0 F8 FF FF  I H;Át>H.M?è?øÿÿ
  0000000010004B90: 85 C0 74 17 48 8B 45 F0 48 8B 40 40 48 8B 8B 60  .Àt.H.E?H.@@H..`
  0000000010004BA0: FE FF FF 48 8B 09 48 3B C1 74 1A 48 8B 4D F8 E8  ?ÿÿH..H;Át.H.Møè
  0000000010004BB0: EC F6 FF FF 85 C0 74 0F 48 8B 4D F0 E8 DF F6 FF  ?öÿÿ.Àt.H.M?èßöÿ
  0000000010004BC0: FF 85 C0 74 02 EB 11 48 8D 8B 30 F1 FF FF BA 0D  ÿ.Àt.ë.H..0ñÿÿº.
  0000000010004BD0: 00 00 00 E8 48 F4 FF FF C9 C3 90 90 90 90 90 90  ...èHôÿÿÉ?......
  0000000010004BE0: 55 48 8B EC 48 83 EC 20 48 89 4D 10 48 89 55 18  UH.?H.? H.M.H.U.
  0000000010004BF0: 48 83 7D 18 09 7C 60 48 83 7D 18 0E 7F 59 48 8B  H.}..|`H.}...YH.
  0000000010004C00: 45 10 48 8B 40 08 48 8B 00 B9 19 02 00 00 48 0F  E.H.@.H..¹....H.
  0000000010004C10: A3 C1 72 2E 48 8B 4D 10 48 8B 49 08 E8 7F F6 FF  £Ár.H.M.H.I.è.öÿ
  0000000010004C20: FF 85 C0 75 1D 48 83 7D 18 0A 7F 18 48 8B 45 10  ÿ.Àu.H.}....H.E.
  0000000010004C30: 48 8B 40 08 48 8B 00 B9 66 04 00 00 48 0F A3 C1  H.@.H..¹f...H.£Á
  0000000010004C40: 73 02 EB 11 48 8D 8B 50 F1 FF FF BA 0D 00 00 00  s.ë.H..Pñÿÿº....
  0000000010004C50: E8 CB F3 FF FF EB 27 48 83 7D 18 10 75 20 48 8B  èËóÿÿë'H.}..u H.
  0000000010004C60: 4D 10 E8 79 FC FF FF 85 C0 74 02 EB 11 48 8D 8B  M.èyüÿÿ.Àt.ë.H..
  0000000010004C70: 50 F1 FF FF BA 0D 00 00 00 E8 A2 F3 FF FF C9 C3  Pñÿÿº....è¢óÿÿÉ?
  0000000010004C80: 55 48 8B EC 48 83 EC 20 48 89 4D 10 48 89 55 18  UH.?H.? H.M.H.U.
  0000000010004C90: 48 8B 45 10 48 8B 40 08 48 8B 00 48 8B 4D 18 48  H.E.H.@.H..H.M.H
  0000000010004CA0: 0F A3 C1 72 11 48 8D 8B 70 F1 FF FF BA 0D 00 00  .£Ár.H..pñÿÿº...
  0000000010004CB0: 00 E8 6A F3 FF FF C9 C3 90 90 90 90 90 90 90 90  .èjóÿÿÉ?........
  0000000010004CC0: 55 48 8B EC 48 83 EC 20 48 89 4D 10 48 89 55 18  UH.?H.? H.M.H.U.
  0000000010004CD0: 48 8B 45 10 48 8B 00 48 8B 40 08 48 8B 8B 58 FE  H.E.H..H.@.H..X?
  0000000010004CE0: FF FF 48 8B 09 48 3B C1 0F 85 B9 00 00 00 48 8B  ÿÿH..H;Á..¹...H.
  0000000010004CF0: 45 18 48 8B 00 48 8B 40 F8 48 8B 8B 90 FE FF FF  E.H..H.@øH...?ÿÿ
  0000000010004D00: 48 39 48 10 0F 85 9D 00 00 00 48 8B 83 90 FE FF  H9H.......H...?ÿ
  0000000010004D10: FF 48 8B 4D 18 48 8B 09 48 8B 49 F8 48 39 41 10  ÿH.M.H..H.IøH9A.
  0000000010004D20: 75 02 EB 08 B0 02 B9 C5 17 00 00 CC 48 8B 45 18  u.ë.°.¹Å...?H.E.
  0000000010004D30: 48 8B 00 48 83 78 50 02 7F 6D 48 8B 8B 58 FE FF  H..H.xP..mH..X?ÿ
  0000000010004D40: FF 48 8B 09 48 8B 93 48 FE FF FF 48 8B 83 90 FE  ÿH..H..H?ÿÿH...?
  0000000010004D50: FF FF 4C 8B 45 18 4D 8B 00 4D 8B 40 F8 49 39 40  ÿÿL.E.M..M.@øI9@
  0000000010004D60: 10 75 02 EB 08 B0 02 B9 09 18 00 00 CC 48 8B 45  .u.ë.°.¹....?H.E
  0000000010004D70: 18 48 8B 00 48 8B 40 48 48 81 F8 00 00 10 00 73  .H..H.@HH.ø....s
  0000000010004D80: 02 EB 08 B0 01 B9 09 18 00 00 CC 48 C1 E0 01 48  .ë.°.¹....?HÁà.H
  0000000010004D90: 03 D0 0F B7 12 FF 93 50 FE FF FF 48 8B 4D 18 48  .?.·.ÿ.P?ÿÿH.M.H
  0000000010004DA0: 89 01 E9 D2 00 00 00 48 8B 45 18 48 8B 00 48 8B  ..é?...H.E.H..H.
  0000000010004DB0: 40 08 48 8B 8B 58 FE FF FF 48 8B 09 48 3B C1 0F  @.H..X?ÿÿH..H;Á.
  0000000010004DC0: 85 B4 00 00 00 48 8B 45 10 48 8B 00 48 8B 40 F8  .´...H.E.H..H.@ø
  0000000010004DD0: 48 8B 8B 90 FE FF FF 48 39 48 10 0F 85 98 00 00  H...?ÿÿH9H......
  0000000010004DE0: 00 48 8B 83 90 FE FF FF 48 8B 4D 10 48 8B 09 48  .H...?ÿÿH.M.H..H
  0000000010004DF0: 8B 49 F8 48 39 41 10 75 02 EB 08 B0 02 B9 4C 18  .IøH9A.u.ë.°.¹L.
  0000000010004E00: 00 00 CC 48 8B 45 10 48 8B 00 48 83 78 50 02 7F  ..?H.E.H..H.xP..
  0000000010004E10: 68 48 8B 8B 58 FE FF FF 48 8B 09 48 8B 93 48 FE  hH..X?ÿÿH..H..H?
  0000000010004E20: FF FF 48 8B 83 90 FE FF FF 4C 8B 45 10 4D 8B 00  ÿÿH...?ÿÿL.E.M..
  0000000010004E30: 4D 8B 40 F8 49 39 40 10 75 02 EB 08 B0 02 B9 90  M.@øI9@.u.ë.°.¹.
  0000000010004E40: 18 00 00 CC 48 8B 45 10 48 8B 00 48 8B 40 48 48  ...?H.E.H..H.@HH
  0000000010004E50: 81 F8 00 00 10 00 73 02 EB 08 B0 01 B9 90 18 00  .ø....s.ë.°.¹...
  0000000010004E60: 00 CC 48 C1 E0 01 48 03 D0 0F B7 12 FF 93 50 FE  .?HÁà.H.?.·.ÿ.P?
  0000000010004E70: FF FF 48 8B 4D 10 48 89 01 C9 C3 90 90 90 90 90  ÿÿH.M.H..É?.....
  0000000010004E80: 55 48 8B EC 48 83 EC 40 48 89 75 E0 48 89 7D E8  UH.?H.?@H.uàH.}è
  0000000010004E90: 48 89 4D 10 48 C7 45 F8 00 00 00 00 48 C7 45 F0  H.M.HÇEø....HÇE?
  0000000010004EA0: 00 00 00 00 48 8B 4B C0 BA 08 00 00 00 41 B8 A8  ....H.KÀº....A¸¨
  0000000010004EB0: 00 00 00 FF 53 E8 48 83 C0 10 48 8B 8B D0 FE FF  ...ÿSèH.À.H..??ÿ
  0000000010004EC0: FF 48 89 48 F8 48 89 45 F8 48 8B 7D F8 48 8D 7F  ÿH.HøH.EøH.}øH..
  0000000010004ED0: 02 48 8B 75 10 31 C9 31 C0 48 83 C1 01 BA 40 00  .H.u.1É1ÀH.Á.º@.
  0000000010004EE0: 00 00 48 3B CA 77 02 EB 08 B0 07 B9 C4 19 00 00  ..H;Êw.ë.°.¹Ä...
  0000000010004EF0: CC BA 40 00 00 00 48 3B CA 77 02 EB 08 B0 07 B9  ?º@...H;Êw.ë.°.¹
  0000000010004F00: C4 19 00 00 CC 66 AD 66 AB 85 C0 75 CC 48 8B 45  Ä...?f­f«.Àu?H.E
  0000000010004F10: F8 31 C9 48 89 88 90 00 00 00 48 8B 45 F8 31 C9  ø1ÉH......H.Eø1É
  0000000010004F20: 88 08 48 8B 83 40 FE FF FF 48 8B 00 48 83 38 00  ..H..@?ÿÿH..H.8.
  0000000010004F30: 75 16 48 8B 83 40 FE FF FF 48 8B 00 48 8B 4D F8  u.H..@?ÿÿH..H.Mø
  0000000010004F40: 48 89 08 E9 D6 00 00 00 48 8B 83 40 FE FF FF 48  H..éÖ...H..@?ÿÿH
  0000000010004F50: 8B 00 48 8B 00 48 89 45 F0 48 8B 45 F0 48 83 B8  ..H..H.E?H.E?H.¸
  0000000010004F60: 90 00 00 00 00 74 50 48 8B 75 F0 48 8D 76 02 48  .....tPH.u?H.v.H
  0000000010004F70: 8B 7D 10 31 C0 48 83 C0 01 48 83 F8 40 77 02 EB  .}.1ÀH.À.H.ø@w.ë
  0000000010004F80: 08 B0 07 B9 72 1A 00 00 CC 48 83 F8 40 77 02 EB  .°.¹r...?H.ø@w.ë
  0000000010004F90: 08 B0 07 B9 72 1A 00 00 CC 66 A7 75 07 66 83 7E  .°.¹r...?f§u.f.~
  0000000010004FA0: FE 00 75 D1 74 11 48 8B 45 F0 48 8B 80 90 00 00  ?.uÑt.H.E?H.....
  0000000010004FB0: 00 48 89 45 F0 EB A2 48 8B 75 F0 48 8D 76 02 48  .H.E?ë¢H.u?H.v.H
  0000000010004FC0: 8B 7D 10 31 C0 48 83 C0 01 48 83 F8 40 77 02 EB  .}.1ÀH.À.H.ø@w.ë
  0000000010004FD0: 08 B0 07 B9 9B 1A 00 00 CC 48 83 F8 40 77 02 EB  .°.¹....?H.ø@w.ë
  0000000010004FE0: 08 B0 07 B9 9B 1A 00 00 CC 66 A7 75 07 66 83 7E  .°.¹....?f§u.f.~
  0000000010004FF0: FE 00 75 D1 75 19 48 8D 8B 90 F1 FF FF BA 13 00  ?.uÑu.H...ñÿÿº..
  0000000010005000: 00 00 E8 19 F0 FF FF 31 C0 48 89 45 F8 EB 0F 48  ..è.?ÿÿ1ÀH.Eøë.H
  0000000010005010: 8B 45 F0 48 8B 4D F8 48 89 88 90 00 00 00 48 8B  .E?H.MøH......H.
  0000000010005020: 45 F8 48 8B 75 E0 48 8B 7D E8 C9 C3 90 90 90 90  EøH.uàH.}èÉ?....
  0000000010005030: 55 48 8B EC 48 83 EC 30 48 89 75 F0 48 89 4D 10  UH.?H.?0H.u?H.M.
  0000000010005040: 48 89 55 18 4C 89 45 20 48 C7 45 F8 00 00 00 00  H.U.L.E HÇEø....
  0000000010005050: 48 8B 4B C0 BA 08 00 00 00 41 B8 60 00 00 00 FF  H.KÀº....A¸`...ÿ
  0000000010005060: 53 E8 48 83 C0 10 48 8B 8B C0 FE FF FF 48 89 48  SèH.À.H..À?ÿÿH.H
  0000000010005070: F8 48 89 45 F8 48 8B 45 F8 48 C7 00 02 00 00 00  øH.EøH.EøHÇ.....
  0000000010005080: 48 8B 45 F8 48 8B 4D 10 48 89 48 28 48 8B 75 F8  H.EøH.M.H.H(H.uø
  0000000010005090: FF 93 38 FE FF FF 48 89 46 48 48 8B 45 F8 48 8B  ÿ.8?ÿÿH.FHH.EøH.
  00000000100050A0: 4D 18 48 89 48 30 48 8B 45 F8 48 8B 4D 20 48 89  M.H.H0H.EøH.M H.
  00000000100050B0: 48 38 48 8B 45 F8 31 C9 88 48 40 48 8B 45 F8 48  H8H.Eø1É.H@H.EøH
  00000000100050C0: 8B 75 F0 C9 C3 90 90 90 90 90 90 90 90 90 90 90  .u?É?...........
  00000000100050D0: 55 48 8B EC 48 83 EC 60 48 89 75 C0 48 89 7D C8  UH.?H.?`H.uÀH.}È
  00000000100050E0: 48 C7 45 E8 00 00 00 00 48 C7 45 E0 00 00 00 00  HÇEè....HÇEà....
  00000000100050F0: 48 C7 45 D8 00 00 00 00 48 8B 83 40 FE FF FF 48  HÇEØ....H..@?ÿÿH
  0000000010005100: 8B 00 48 89 45 D8 31 C0 88 45 FF 48 83 7D D8 00  ..H.EØ1À.EÿH.}Ø.
  0000000010005110: 0F 84 27 01 00 00 0F B6 45 FF 85 C0 0F 85 1B 01  ..'....¶Eÿ.À....
  0000000010005120: 00 00 48 8B 45 D8 48 8B 00 48 89 45 E0 48 83 7D  ..H.EØH..H.EàH.}
  0000000010005130: E0 00 74 53 48 8B 75 E0 48 8D 76 02 48 8B BB 28  à.tSH.uàH.v.H.»(
  0000000010005140: FE FF FF 31 C0 48 83 C0 01 48 83 F8 40 77 02 EB  ?ÿÿ1ÀH.À.H.ø@w.ë
  0000000010005150: 08 B0 07 B9 97 1D 00 00 CC 48 83 F8 40 77 02 EB  .°.¹....?H.ø@w.ë
  0000000010005160: 08 B0 07 B9 97 1D 00 00 CC 66 A7 75 07 66 83 7E  .°.¹....?f§u.f.~
  0000000010005170: FE 00 75 D1 74 11 48 8B 45 E0 48 8B 80 90 00 00  ?.uÑt.H.EàH.....
  0000000010005180: 00 48 89 45 E0 EB A6 48 83 7D E0 00 0F 84 9A 00  .H.Eàë¦H.}à.....
  0000000010005190: 00 00 48 8B 45 E0 48 8B 80 88 00 00 00 48 89 45  ..H.EàH......H.E
  00000000100051A0: E8 C6 45 FF 01 48 83 7D E8 00 75 13 48 8D 8B C0  èÆEÿ.H.}è.u.H..À
  00000000100051B0: F1 FF FF BA 15 00 00 00 E8 63 EE FF FF EB 6B 48  ñÿÿº....ècîÿÿëkH
  00000000100051C0: 8B 45 E8 48 8B 40 F8 48 8B 8B 68 FE FF FF 48 39  .EèH.@øH..h?ÿÿH9
  00000000100051D0: 48 08 75 56 48 8B 83 68 FE FF FF 48 8B 4D E8 48  H.uVH..h?ÿÿH.MèH
  00000000100051E0: 8B 49 F8 48 39 41 08 75 02 EB 08 B0 02 B9 4D 1E  .IøH9A.u.ë.°.¹M.
  00000000100051F0: 00 00 CC 48 8B 45 E8 48 8B 40 38 48 89 45 F0 48  ..?H.EèH.@8H.E?H
  0000000010005200: 83 7D F0 00 7E 24 48 8B 45 F0 48 8B 8B 20 FE FF  .}?.~$H.E?H.. ?ÿ
  0000000010005210: FF 48 8B 09 48 3B C1 74 11 48 8D 8B F0 F1 FF FF  ÿH..H;Át.H..?ñÿÿ
  0000000010005220: BA 26 00 00 00 E8 F6 ED FF FF EB 0C 48 8B 45 D8  º&...èöíÿÿë.H.EØ
  0000000010005230: 48 8B 40 08 48 89 45 D8 E9 CE FE FF FF 48 8B 45  H.@.H.EØéÎ?ÿÿH.E
  0000000010005240: E8 48 8B 75 C0 48 8B 7D C8 C9 C3 90 90 90 90 90  èH.uÀH.}ÈÉ?.....
  0000000010005250: 55 48 8B EC 48 83 EC 50 48 89 75 D0 48 89 7D D8  UH.?H.?PH.u?H.}Ø
  0000000010005260: 48 C7 45 F8 00 00 00 00 48 C7 45 F0 00 00 00 00  HÇEø....HÇE?....
  0000000010005270: 48 C7 45 E8 00 00 00 00 E8 53 FE FF FF 48 89 45  HÇEè....èS?ÿÿH.E
  0000000010005280: F8 E8 7A ED FF FF 48 83 7D F8 00 0F 84 5D 02 00  øèzíÿÿH.}ø...]..
  0000000010005290: 00 48 8B 45 F8 48 8B 40 F8 48 8B 8B 18 FE FF FF  .H.EøH.@øH...?ÿÿ
  00000000100052A0: 48 39 48 08 0F 85 44 02 00 00 48 83 BB F8 DF FF  H9H...D...H.»øßÿ
  00000000100052B0: FF 12 0F 85 36 02 00 00 E8 43 ED FF FF 48 83 BB  ÿ...6...èCíÿÿH.»
  00000000100052C0: F8 DF FF FF 1F 0F 85 11 02 00 00 48 8B 83 18 FE  øßÿÿ.......H...?
  00000000100052D0: FF FF 48 8B 4D F8 48 8B 49 F8 48 39 41 08 75 02  ÿÿH.MøH.IøH9A.u.
  00000000100052E0: EB 08 B0 02 B9 EF 1F 00 00 CC 48 8B 45 F8 48 89  ë.°.¹ï...?H.EøH.
  00000000100052F0: 45 F0 48 8B 45 F0 48 8B 80 C8 02 00 00 48 89 45  E?H.E?H..È...H.E
  0000000010005300: E8 48 83 7D E8 00 74 53 48 8B 75 E8 48 8D 76 02  èH.}è.tSH.uèH.v.
  0000000010005310: 48 8B BB 28 FE FF FF 31 C0 48 83 C0 01 48 83 F8  H.»(?ÿÿ1ÀH.À.H.ø
  0000000010005320: 40 77 02 EB 08 B0 07 B9 2A 20 00 00 CC 48 83 F8  @w.ë.°.¹* ..?H.ø
  0000000010005330: 40 77 02 EB 08 B0 07 B9 2A 20 00 00 CC 66 A7 75  @w.ë.°.¹* ..?f§u
  0000000010005340: 07 66 83 7E FE 00 75 D1 74 11 48 8B 45 E8 48 8B  .f.~?.uÑt.H.EèH.
  0000000010005350: 80 90 00 00 00 48 89 45 E8 EB A6 48 83 7D E8 00  .....H.Eèë¦H.}è.
  0000000010005360: 0F 84 58 01 00 00 48 8B 45 E8 48 8B 80 88 00 00  ..X...H.EèH.....
  0000000010005370: 00 48 89 45 F8 48 8B 45 F8 48 8B 40 F8 48 8B 8B  .H.EøH.EøH.@øH..
  0000000010005380: 68 FE FF FF 48 39 48 08 75 54 48 8B 83 68 FE FF  h?ÿÿH9H.uTH..h?ÿ
  0000000010005390: FF 48 8B 4D F8 48 8B 49 F8 48 39 41 08 75 02 EB  ÿH.MøH.IøH9A.u.ë
  00000000100053A0: 08 B0 02 B9 A0 20 00 00 CC 48 8B 45 F8 48 83 78  .°.¹. ..?H.EøH.x
  00000000100053B0: 38 FF 7D 2A 48 8B 83 68 FE FF FF 48 8B 4D F8 48  8ÿ}*H..h?ÿÿH.MøH
  00000000100053C0: 8B 49 F8 48 39 41 08 75 02 EB 08 B0 02 B9 B6 20  .IøH9A.u.ë.°.¹¶ 
  00000000100053D0: 00 00 CC 48 8B 45 F8 48 83 78 28 00 74 69 48 8B  ..?H.EøH.x(.tiH.
  00000000100053E0: 45 F8 48 8B 40 F8 48 8B 8B 10 FE FF FF 48 39 48  EøH.@øH...?ÿÿH9H
  00000000100053F0: 08 75 64 48 8B 83 10 FE FF FF 48 8B 4D F8 48 8B  .udH...?ÿÿH.MøH.
  0000000010005400: 49 F8 48 39 41 08 75 02 EB 08 B0 02 B9 E2 20 00  IøH9A.u.ë.°.¹â .
  0000000010005410: 00 CC 48 8B 45 F8 48 83 78 38 FF 7D 3A 48 8B 83  .?H.EøH.x8ÿ}:H..
  0000000010005420: 10 FE FF FF 48 8B 4D F8 48 8B 49 F8 48 39 41 08  .?ÿÿH.MøH.IøH9A.
  0000000010005430: 75 02 EB 08 B0 02 B9 F9 20 00 00 CC 48 8B 45 F8  u.ë.°.¹ù ..?H.Eø
  0000000010005440: 48 83 78 28 00 75 10 48 8B 4D F8 48 8B 55 F0 FF  H.x(.u.H.MøH.U?ÿ
  0000000010005450: 93 08 FE FF FF EB 65 48 8B 45 F8 48 83 38 01 75  ..?ÿÿëeH.EøH.8.u
  0000000010005460: 5B 48 8B 45 F8 48 8B 40 08 48 83 78 30 FF 7D 4C  [H.EøH.@.H.x0ÿ}L
  0000000010005470: 48 8B 45 F8 48 8B 40 08 48 83 38 08 75 0F 48 8B  H.EøH.@.H.8.u.H.
  0000000010005480: 45 F8 48 8B 40 08 48 83 78 28 00 74 21 48 8B 45  EøH.@.H.x(.t!H.E
  0000000010005490: F8 48 8B 40 08 48 83 38 05 75 21 48 8B 45 F8 48  øH.@.H.8.u!H.EøH
  00000000100054A0: 8B 40 08 48 8B 40 40 48 83 78 28 00 75 0E 48 8B  .@.H.@@H.x(.u.H.
  00000000100054B0: 4D F8 48 8B 55 F0 FF 93 08 FE FF FF EB 17 48 8D  MøH.U?ÿ..?ÿÿë.H.
  00000000100054C0: 8B 40 F2 FF FF BA 0A 00 00 00 E8 51 EB FF FF 31  .@?ÿÿº....èQëÿÿ1
  00000000100054D0: C0 48 89 45 F8 E8 26 EB FF FF EB 10 B9 1F 00 00  ÀH.Eøè&ëÿÿë.¹...
  00000000100054E0: 00 E8 3A ED FF FF 31 C0 48 89 45 F8 EB 22 48 83  .è:íÿÿ1ÀH.Eøë"H.
  00000000100054F0: 7D F8 00 74 1B 48 8B 45 F8 48 8B 40 F8 48 8B 8B  }ø.t.H.EøH.@øH..
  0000000010005500: 18 FE FF FF 48 39 48 08 75 06 31 C0 48 89 45 F8  .?ÿÿH9H.u.1ÀH.Eø
  0000000010005510: 48 8B 45 F8 48 8B 75 D0 48 8B 7D D8 C9 C3 90 90  H.EøH.u?H.}ØÉ?..
  0000000010005520: 55 48 8B EC 48 83 EC 30 48 89 4D 10 48 89 55 18  UH.?H.?0H.M.H.U.
  0000000010005530: 48 C7 45 F8 00 00 00 00 48 C7 45 F0 00 00 00 00  HÇEø....HÇE?....
  0000000010005540: 48 8B 83 D8 DF FF FF FF D0 48 89 45 F8 48 83 7D  H..Øßÿÿÿ?H.EøH.}
  0000000010005550: 18 00 74 36 48 8B 4D 18 48 8B 83 A0 FE FF FF 48  ..t6H.M.H...?ÿÿH
  0000000010005560: 8B 91 88 00 00 00 48 8B 52 F8 48 39 42 10 75 02  ......H.RøH9B.u.
  0000000010005570: EB 08 B0 02 B9 BF 23 00 00 CC 48 8B 89 88 00 00  ë.°.¹¿#..?H.....
  0000000010005580: 00 48 8B 55 F8 E8 C6 F4 FF FF B9 65 00 00 00 48  .H.UøèÆôÿÿ¹e...H
  0000000010005590: 8B 55 F8 45 31 C0 E8 95 FA FF FF 48 89 45 F0 48  .UøE1Àè.úÿÿH.E?H
  00000000100055A0: 8B 45 10 48 8B 00 48 8B 4D F0 48 89 48 38 48 8B  .E.H..H.M?H.H8H.
  00000000100055B0: 45 F0 48 8B 4D 10 48 89 01 C9 C3 90 90 90 90 90  E?H.M.H..É?.....
  00000000100055C0: 55 48 8B EC 48 83 EC 50 48 89 4D 10 48 C7 45 F8  UH.?H.?PH.M.HÇEø
  00000000100055D0: 00 00 00 00 48 C7 45 F0 00 00 00 00 48 C7 45 E8  ....HÇE?....HÇEè
  00000000100055E0: 00 00 00 00 48 C7 45 E0 00 00 00 00 48 8B 45 10  ....HÇEà....H.E.
  00000000100055F0: 48 8B 40 08 48 89 45 E8 B9 64 00 00 00 48 8B 55  H.@.H.Eè¹d...H.U
  0000000010005600: 10 45 31 C0 E8 27 FA FF FF 48 89 45 F8 48 8B 45  .E1Àè'úÿÿH.EøH.E
  0000000010005610: F8 48 8B 4D E8 48 8B 49 40 48 89 48 08 48 83 BB  øH.MèH.I@H.H.H.»
  0000000010005620: F8 DF FF FF 1C 0F 85 18 01 00 00 E8 D0 E9 FF FF  øßÿÿ.......è?éÿÿ
  0000000010005630: 48 83 BB F8 DF FF FF 2C 0F 84 DA 00 00 00 48 8B  H.»øßÿÿ,..Ú...H.
  0000000010005640: 45 F8 48 89 45 F0 48 8B 45 E8 48 8B 40 48 48 89  EøH.E?H.EèH.@HH.
  0000000010005650: 45 E0 48 8D 4D F0 48 8B 55 E0 E8 C1 FE FF FF 48  EàH.M?H.UàèÁ?ÿÿH
  0000000010005660: C7 45 D8 01 00 00 00 48 83 BB F8 DF FF FF 28 75  ÇEØ....H.»øßÿÿ(u
  0000000010005670: 53 48 83 7D E0 00 74 0F 48 8B 45 E0 48 8B 80 90  SH.}à.t.H.EàH...
  0000000010005680: 00 00 00 48 89 45 E0 E8 74 E9 FF FF 48 83 BB F8  ...H.EàètéÿÿH.»ø
  0000000010005690: DF FF FF 2C 74 1B 48 8D 4D F0 48 8B 55 E0 E8 7D  ßÿÿ,t.H.M?H.Uàè}
  00000000100056A0: FE FF FF 48 8B 45 D8 48 83 C0 01 48 89 45 D8 EB  ?ÿÿH.EØH.À.H.EØë
  00000000100056B0: 11 48 8D 8B 60 F2 FF FF BA 09 00 00 00 E8 5E E9  .H..`?ÿÿº....è^é
  00000000100056C0: FF FF EB A3 48 8B 45 D8 48 8B 4D E8 48 8B 49 58  ÿÿë£H.EØH.MèH.IX
  00000000100056D0: 48 3B C1 75 02 EB 35 48 8B 45 D8 48 8B 4D E8 48  H;Áu.ë5H.EØH.MèH
  00000000100056E0: 8B 49 58 48 3B C1 7E 13 48 8D 8B 80 F2 FF FF BA  .IXH;Á~.H...?ÿÿº
  00000000100056F0: 10 00 00 00 E8 27 E9 FF FF EB 11 48 8D 8B A0 F2  ....è'éÿÿë.H...?
  0000000010005700: FF FF BA 12 00 00 00 E8 14 E9 FF FF B9 2C 00 00  ÿÿº....è.éÿÿ¹,..
  0000000010005710: 00 E8 2A E9 FF FF EB 2B 48 83 BB F8 DF FF FF 2C  .è*éÿÿë+H.»øßÿÿ,
  0000000010005720: 75 21 48 8B 45 E8 48 83 78 58 00 74 11 48 8D 8B  u!H.EèH.xX.t.H..
  0000000010005730: D0 F2 FF FF BA 0C 00 00 00 E8 E2 E8 FF FF E8 BD  ??ÿÿº....èâèÿÿè½
  0000000010005740: E8 FF FF 48 8B 45 F8 C9 C3 90 90 90 90 90 90 90  èÿÿH.EøÉ?.......
  0000000010005750: 55 48 8B EC 48 81 EC 00 01 00 00 48 89 B5 20 FF  UH.?H.?....H.µ ÿ
  0000000010005760: FF FF 48 89 BD 28 FF FF FF 48 C7 45 F8 00 00 00  ÿÿH.½(ÿÿÿHÇEø...
  0000000010005770: 00 48 C7 45 F0 00 00 00 00 48 C7 85 68 FF FF FF  .HÇE?....HÇ.hÿÿÿ
  0000000010005780: 00 00 00 00 48 C7 85 58 FF FF FF 00 00 00 00 48  ....HÇ.Xÿÿÿ....H
  0000000010005790: C7 85 50 FF FF FF 00 00 00 00 48 C7 85 48 FF FF  Ç.Pÿÿÿ....HÇ.Hÿÿ
  00000000100057A0: FF 00 00 00 00 48 C7 85 40 FF FF FF 00 00 00 00  ÿ....HÇ.@ÿÿÿ....
  00000000100057B0: 48 C7 85 38 FF FF FF 00 00 00 00 E8 90 FA FF FF  HÇ.8ÿÿÿ....è.úÿÿ
  00000000100057C0: 48 89 45 F8 48 83 7D F8 00 74 0A 48 8B 45 F8 48  H.EøH.}ø.t.H.EøH
  00000000100057D0: 83 38 01 7F 27 48 8B 8B 80 FE FF FF 48 8B 09 31  .8..'H...?ÿÿH..1
  00000000100057E0: D2 FF 93 50 FE FF FF 48 89 45 F8 48 8D 8B F0 F2  ?ÿ.P?ÿÿH.EøH..??
  00000000100057F0: FF FF BA 0E 00 00 00 E8 24 E8 FF FF 48 8B 45 F8  ÿÿº....è$èÿÿH.Eø
  0000000010005800: 48 8B 40 F8 48 8B 8B 68 FE FF FF 48 39 48 08 75  H.@øH..h?ÿÿH9H.u
  0000000010005810: 2D 48 8B 83 68 FE FF FF 48 8B 4D F8 48 8B 49 F8  -H..h?ÿÿH.MøH.Iø
  0000000010005820: 48 39 41 08 75 02 EB 08 B0 02 B9 32 28 00 00 CC  H9A.u.ë.°.¹2(..?
  0000000010005830: 48 8B 45 F8 0F B6 40 40 88 85 67 FF FF FF 48 83  H.Eø.¶@@..gÿÿÿH.
  0000000010005840: BB F8 DF FF FF 12 0F 85 56 02 00 00 48 8B 4D F8  »øßÿÿ...V...H.Mø
  0000000010005850: BA 20 01 00 00 E8 26 F4 FF FF E8 A1 E7 FF FF 48  º ...è&ôÿÿè¡çÿÿH
  0000000010005860: 83 BB F8 DF FF FF 1F 74 16 48 8D 8B 10 F3 FF FF  .»øßÿÿ.t.H...óÿÿ
  0000000010005870: BA 0A 00 00 00 E8 A6 E7 FF FF E9 1E 02 00 00 48  º....è¦çÿÿé....H
  0000000010005880: 8D BD 70 FF FF FF 48 8B B3 28 FE FF FF 31 C9 31  .½pÿÿÿH.³(?ÿÿ1É1
  0000000010005890: C0 48 83 C1 01 BA 40 00 00 00 48 3B CA 77 02 EB  ÀH.Á.º@...H;Êw.ë
  00000000100058A0: 08 B0 07 B9 BF 28 00 00 CC BA 40 00 00 00 48 3B  .°.¹¿(..?º@...H;
  00000000100058B0: CA 77 02 EB 08 B0 07 B9 BF 28 00 00 CC 66 AD 66  Êw.ë.°.¹¿(..?f­f
  00000000100058C0: AB 85 C0 75 CC 48 8B 45 F8 48 8B 40 08 48 89 85  «.Àu?H.EøH.@.H..
  00000000100058D0: 38 FF FF FF 48 8B 85 38 FF FF FF 48 83 38 05 75  8ÿÿÿH..8ÿÿÿH.8.u
  00000000100058E0: 78 48 8B 85 38 FF FF FF 48 83 78 40 00 74 6A B9  xH..8ÿÿÿH.x@.tj¹
  00000000100058F0: 11 00 00 00 48 8B 55 F8 45 31 C0 E8 30 F7 FF FF  ....H.UøE1Àè0÷ÿÿ
  0000000010005900: 48 89 45 F8 48 8B 83 C0 FE FF FF 48 8B 4D F8 48  H.EøH..À?ÿÿH.MøH
  0000000010005910: 8B 49 F8 48 39 41 08 75 02 EB 08 B0 02 B9 40 29  .IøH9A.u.ë.°.¹@)
  0000000010005920: 00 00 CC 48 8B 45 F8 31 C9 88 48 40 31 C0 88 85  ..?H.Eø1É.H@1À..
  0000000010005930: 67 FF FF FF 48 8B 45 F8 48 8B 8D 38 FF FF FF 48  gÿÿÿH.EøH..8ÿÿÿH
  0000000010005940: 8B 49 40 48 89 48 08 48 8B 85 38 FF FF FF 48 8B  .I@H.H.H..8ÿÿÿH.
  0000000010005950: 40 40 48 89 85 38 FF FF FF 48 8B 85 38 FF FF FF  @@H..8ÿÿÿH..8ÿÿÿ
  0000000010005960: 48 83 38 08 0F 85 2E 01 00 00 48 8B 85 38 FF FF  H.8.......H..8ÿÿ
  0000000010005970: FF 48 8B 40 48 48 89 85 68 FF FF FF 48 83 BD 68  ÿH.@HH..hÿÿÿH.½h
  0000000010005980: FF FF FF 00 74 5C 48 8B B5 68 FF FF FF 48 8D 76  ÿÿÿ.t\H.µhÿÿÿH.v
  0000000010005990: 02 48 8D BD 70 FF FF FF 31 C0 48 83 C0 01 48 83  .H.½pÿÿÿ1ÀH.À.H.
  00000000100059A0: F8 40 77 02 EB 08 B0 07 B9 07 2A 00 00 CC 48 83  ø@w.ë.°.¹.*..?H.
  00000000100059B0: F8 40 77 02 EB 08 B0 07 B9 07 2A 00 00 CC 66 A7  ø@w.ë.°.¹.*..?f§
  00000000100059C0: 75 07 66 83 7E FE 00 75 D1 74 17 48 8B 85 68 FF  u.f.~?.uÑt.H..hÿ
  00000000100059D0: FF FF 48 8B 80 90 00 00 00 48 89 85 68 FF FF FF  ÿÿH......H..hÿÿÿ
  00000000100059E0: EB 9A 48 83 BD 68 FF FF FF 00 74 67 48 8B 85 68  ë.H.½hÿÿÿ.tgH..h
  00000000100059F0: FF FF FF 48 8B 80 88 00 00 00 48 89 45 F0 B9 12  ÿÿÿH......H.E?¹.
  0000000010005A00: 00 00 00 48 8B 55 F8 4C 8B 45 F0 E8 20 F6 FF FF  ...H.UøL.E?è öÿÿ
  0000000010005A10: 48 89 45 F8 48 8B 45 F8 48 8B 4D F0 48 8B 49 08  H.EøH.EøH.M?H.I.
  0000000010005A20: 48 89 48 08 48 8B 83 C0 FE FF FF 48 8B 4D F8 48  H.H.H..À?ÿÿH.MøH
  0000000010005A30: 8B 49 F8 48 39 41 08 75 02 EB 08 B0 02 B9 A1 2A  .IøH9A.u.ë.°.¹¡*
  0000000010005A40: 00 00 CC 48 8B 45 F8 0F B6 8D 67 FF FF FF 88 48  ..?H.Eø.¶.gÿÿÿ.H
  0000000010005A50: 40 EB 12 48 8B 85 38 FF FF FF 48 8B 40 40 48 89  @ë.H..8ÿÿÿH.@@H.
  0000000010005A60: 85 38 FF FF FF 48 83 BD 38 FF FF FF 00 75 11 48  .8ÿÿÿH.½8ÿÿÿ.u.H
  0000000010005A70: 8D 8B 30 F3 FF FF BA 10 00 00 00 E8 A0 E5 FF FF  ..0óÿÿº....è.åÿÿ
  0000000010005A80: 48 83 BD 68 FF FF FF 00 75 0E 48 83 BD 38 FF FF  H.½hÿÿÿ.u.H.½8ÿÿ
  0000000010005A90: FF 00 0F 85 D2 FE FF FF E8 63 E5 FF FF E9 9C FD  ÿ...??ÿÿècåÿÿé.?
  0000000010005AA0: FF FF 48 83 BB F8 DF FF FF 1D 0F 85 8D 01 00 00  ÿÿH.»øßÿÿ.......
  0000000010005AB0: 48 8B 4D F8 BA 80 00 00 00 E8 C2 F1 FF FF E8 3D  H.Møº....èÂñÿÿè=
  0000000010005AC0: E5 FF FF 48 8B 83 D8 DF FF FF FF D0 48 89 45 F0  åÿÿH..Øßÿÿÿ?H.E?
  0000000010005AD0: 48 8B 4D F0 E8 E7 EC FF FF 48 8B 45 F8 48 8B 40  H.M?èç?ÿÿH.EøH.@
  0000000010005AE0: 08 48 89 85 48 FF FF FF B9 1D 00 00 00 48 8B 55  .H..Hÿÿÿ¹....H.U
  0000000010005AF0: F8 4C 8B 45 F0 E8 36 F5 FF FF 48 89 45 F8 48 8B  øL.E?è6?ÿÿH.EøH.
  0000000010005B00: 83 C0 FE FF FF 48 8B 4D F8 48 8B 49 F8 48 39 41  .À?ÿÿH.MøH.IøH9A
  0000000010005B10: 08 75 02 EB 08 B0 02 B9 F2 2B 00 00 CC 48 8B 45  .u.ë.°.¹?+..?H.E
  0000000010005B20: F8 0F B6 8D 67 FF FF FF 88 48 40 48 8B 85 48 FF  ø.¶.gÿÿÿ.H@H..Hÿ
  0000000010005B30: FF FF 48 83 78 40 00 74 15 48 8B 45 F8 48 8B 8D  ÿÿH.x@.t.H.EøH..
  0000000010005B40: 48 FF FF FF 48 8B 49 40 48 89 48 08 EB 0F 48 8B  HÿÿÿH.I@H.H.ë.H.
  0000000010005B50: 45 F8 48 8B 8D 48 FF FF FF 48 89 48 08 48 83 BB  EøH..HÿÿÿH.H.H.»
  0000000010005B60: F8 DF FF FF 28 0F 85 C3 00 00 00 48 8B 45 F8 48  øßÿÿ(..?...H.EøH
  0000000010005B70: 8B 40 08 48 83 38 07 74 11 48 8D 8B 50 F3 FF FF  .@.H.8.t.H..Póÿÿ
  0000000010005B80: BA 14 00 00 00 E8 96 E4 FF FF E8 71 E4 FF FF 48  º....è.äÿÿèqäÿÿH
  0000000010005B90: 8B 83 D8 DF FF FF FF D0 48 89 45 F0 48 8B 4D F0  ..Øßÿÿÿ?H.E?H.M?
  0000000010005BA0: E8 1B EC FF FF 48 8B 45 F8 48 8B 40 08 48 89 85  è.?ÿÿH.EøH.@.H..
  0000000010005BB0: 48 FF FF FF B9 1D 00 00 00 48 8B 55 F8 4C 8B 45  Hÿÿÿ¹....H.UøL.E
  0000000010005BC0: F0 E8 6A F4 FF FF 48 89 45 F8 48 8B 83 C0 FE FF  ?èjôÿÿH.EøH..À?ÿ
  0000000010005BD0: FF 48 8B 4D F8 48 8B 49 F8 48 39 41 08 75 02 EB  ÿH.MøH.IøH9A.u.ë
  0000000010005BE0: 08 B0 02 B9 14 2D 00 00 CC 48 8B 45 F8 0F B6 8D  .°.¹.-..?H.Eø.¶.
  0000000010005BF0: 67 FF FF FF 88 48 40 48 8B 85 48 FF FF FF 48 83  gÿÿÿ.H@H..HÿÿÿH.
  0000000010005C00: 78 40 00 74 15 48 8B 45 F8 48 8B 8D 48 FF FF FF  x@.t.H.EøH..Hÿÿÿ
  0000000010005C10: 48 8B 49 40 48 89 48 08 EB 0F 48 8B 45 F8 48 8B  H.I@H.H.ë.H.EøH.
  0000000010005C20: 8D 48 FF FF FF 48 89 48 08 E9 2F FF FF FF B9 2D  .HÿÿÿH.H.é/ÿÿÿ¹-
  0000000010005C30: 00 00 00 E8 08 E4 FF FF E9 01 FC FF FF 48 83 BB  ...è.äÿÿé.üÿÿH.»
  0000000010005C40: F8 DF FF FF 11 0F 85 9E 00 00 00 48 8B 4D F8 BA  øßÿÿ.......H.Møº
  0000000010005C50: 20 00 00 00 E8 27 F0 FF FF 48 8B 45 F8 48 8B 40   ...è'?ÿÿH.EøH.@
  0000000010005C60: 08 48 89 85 48 FF FF FF B9 11 00 00 00 48 8B 55  .H..Hÿÿÿ¹....H.U
  0000000010005C70: F8 45 31 C0 E8 B7 F3 FF FF 48 89 45 F8 48 8B 85  øE1Àè·óÿÿH.EøH..
  0000000010005C80: 48 FF FF FF 48 83 78 40 00 74 15 48 8B 45 F8 48  HÿÿÿH.x@.t.H.EøH
  0000000010005C90: 8B 8D 48 FF FF FF 48 8B 49 40 48 89 48 08 EB 0F  ..HÿÿÿH.I@H.H.ë.
  0000000010005CA0: 48 8B 45 F8 48 8B 8D 48 FF FF FF 48 89 48 08 48  H.EøH..HÿÿÿH.H.H
  0000000010005CB0: 8B 83 C0 FE FF FF 48 8B 4D F8 48 8B 49 F8 48 39  ..À?ÿÿH.MøH.IøH9
  0000000010005CC0: 41 08 75 02 EB 08 B0 02 B9 4B 2E 00 00 CC 48 8B  A.u.ë.°.¹K...?H.
  0000000010005CD0: 45 F8 31 C9 88 48 40 31 C0 88 85 67 FF FF FF E8  Eø1É.H@1À..gÿÿÿè
  0000000010005CE0: 1C E3 FF FF E9 55 FB FF FF 48 83 BB F8 DF FF FF  .?ÿÿéUûÿÿH.»øßÿÿ
  0000000010005CF0: 1C 0F 85 68 01 00 00 48 8B 4D F8 E8 E0 EB FF FF  ...h...H.Møèàëÿÿ
  0000000010005D00: 85 C0 0F 84 57 01 00 00 48 8B 45 F8 48 8B 40 08  .À..W...H.EøH.@.
  0000000010005D10: 48 89 85 48 FF FF FF E8 E4 E2 FF FF 31 C0 48 89  H..Hÿÿÿèäâÿÿ1ÀH.
  0000000010005D20: 45 F0 48 83 BB F8 DF FF FF 1F 75 0B E8 1F F5 FF  E?H.»øßÿÿ.u.è.?ÿ
  0000000010005D30: FF 48 89 45 F0 EB 0A B9 1F 00 00 00 E8 DF E4 FF  ÿH.E?ë.¹....èßäÿ
  0000000010005D40: FF 48 83 7D F0 00 74 1B 48 8B 45 F0 48 83 38 01  ÿH.}?.t.H.E?H.8.
  0000000010005D50: 75 11 48 8B 45 F0 48 8B 40 08 48 89 85 40 FF FF  u.H.E?H.@.H..@ÿÿ
  0000000010005D60: FF EB 1F 48 8D 8B 80 F3 FF FF BA 09 00 00 00 E8  ÿë.H...óÿÿº....è
  0000000010005D70: AC E2 FF FF 48 8B 85 48 FF FF FF 48 89 85 40 FF  ¬âÿÿH..HÿÿÿH..@ÿ
  0000000010005D80: FF FF B9 1C 00 00 00 48 8B 55 F8 4C 8B 45 F0 E8  ÿÿ¹....H.UøL.E?è
  0000000010005D90: 9C F2 FF FF 48 89 45 F8 48 8B 83 C0 FE FF FF 48  .?ÿÿH.EøH..À?ÿÿH
  0000000010005DA0: 8B 4D F8 48 8B 49 F8 48 39 41 08 75 02 EB 08 B0  .MøH.IøH9A.u.ë.°
  0000000010005DB0: 02 B9 A2 2F 00 00 CC 48 8B 45 F8 0F B6 8D 67 FF  .¹¢/..?H.Eø.¶.gÿ
  0000000010005DC0: FF FF 88 48 40 48 8B 85 48 FF FF FF 48 8B 00 48  ÿÿ.H@H..HÿÿÿH..H
  0000000010005DD0: 8B 8D 40 FF FF FF 48 8B 09 48 3B C1 75 28 48 8B  ..@ÿÿÿH..H;Áu(H.
  0000000010005DE0: 8D 40 FF FF FF 48 8B 95 48 FF FF FF E8 4F E5 FF  .@ÿÿÿH..HÿÿÿèOåÿ
  0000000010005DF0: FF 85 C0 74 11 48 8B 45 F8 48 8B 8D 40 FF FF FF  ÿ.Àt.H.EøH..@ÿÿÿ
  0000000010005E00: 48 89 48 08 EB 4A 48 8B 85 48 FF FF FF 48 83 38  H.H.ëJH..HÿÿÿH.8
  0000000010005E10: 08 75 2C 48 8B 8D 40 FF FF FF 48 8B 95 48 FF FF  .u,H..@ÿÿÿH..Hÿÿ
  0000000010005E20: FF E8 1A E5 FF FF 85 C0 74 15 48 8B 45 F8 48 8B  ÿè.åÿÿ.Àt.H.EøH.
  0000000010005E30: 8D 40 FF FF FF 48 8B 49 40 48 89 48 08 EB 11 48  .@ÿÿÿH.I@H.H.ë.H
  0000000010005E40: 8D 8B A0 F3 FF FF BA 0D 00 00 00 E8 D0 E1 FF FF  ...óÿÿº....è?áÿÿ
  0000000010005E50: B9 2C 00 00 00 E8 E6 E1 FF FF E9 DF F9 FF FF 48  ¹,...èæáÿÿéßùÿÿH
  0000000010005E60: 8B 45 F8 48 8B B5 20 FF FF FF 48 8B BD 28 FF FF  .EøH.µ ÿÿÿH.½(ÿÿ
  0000000010005E70: FF C9 C3 90 90 90 90 90 90 90 90 90 90 90 90 90  ÿÉ?.............
  0000000010005E80: 55 48 8B EC 48 83 EC 50 48 89 4D 10 48 C7 45 F8  UH.?H.?PH.M.HÇEø
  0000000010005E90: 00 00 00 00 48 C7 45 F0 00 00 00 00 48 C7 45 E8  ....HÇE?....HÇEè
  0000000010005EA0: 00 00 00 00 48 C7 45 E0 00 00 00 00 48 C7 45 D8  ....HÇEà....HÇEØ
  0000000010005EB0: 00 00 00 00 E8 47 E1 FF FF 48 8B 45 10 48 83 78  ....èGáÿÿH.E.H.x
  0000000010005EC0: 28 08 0F 85 8C 00 00 00 48 8B 83 D8 DF FF FF FF  (.......H..Øßÿÿÿ
  0000000010005ED0: D0 48 89 45 E0 48 8B 4D E0 BA 11 00 00 00 E8 9D  ?H.EàH.Màº....è.
  0000000010005EE0: ED FF FF 48 8B 45 E0 48 8B 40 F8 48 8B 8B 98 FE  íÿÿH.EàH.@øH...?
  0000000010005EF0: FF FF 48 39 48 08 75 10 48 8B 4D E0 FF 93 F8 FD  ÿÿH9H.u.H.Màÿ.ø?
  0000000010005F00: FF FF 48 89 45 E8 EB 47 B9 6E 00 00 00 48 8B 55  ÿÿH.EèëG¹n...H.U
  0000000010005F10: E0 45 31 C0 E8 17 F1 FF FF 48 89 45 E8 48 8B 45  àE1Àè.ñÿÿH.EèH.E
  0000000010005F20: E0 48 8B 40 08 48 83 38 00 75 14 48 8B 45 E8 48  àH.@.H.8.u.H.EèH
  0000000010005F30: 8B 8B 80 FE FF FF 48 8B 09 48 89 48 08 EB 10 48  ...?ÿÿH..H.H.ë.H
  0000000010005F40: 8B 45 E8 48 8B 4D E0 48 8B 49 08 48 89 48 08 E9  .EèH.MàH.I.H.H.é
  0000000010005F50: 1C 06 00 00 48 8B 45 10 48 83 78 28 09 75 67 48  ....H.E.H.x(.ugH
  0000000010005F60: 8B 83 D8 DF FF FF FF D0 48 89 45 E0 48 8B 4D E0  ..Øßÿÿÿ?H.EàH.Mà
  0000000010005F70: E8 4B E8 FF FF 48 8B 45 E0 48 8B 40 F8 48 8B 8B  èKèÿÿH.EàH.@øH..
  0000000010005F80: 98 FE FF FF 48 39 48 08 75 10 48 8B 4D E0 FF 93  .?ÿÿH9H.u.H.Màÿ.
  0000000010005F90: F0 FD FF FF 48 89 45 E8 EB 27 B9 6F 00 00 00 48  ??ÿÿH.Eèë'¹o...H
  0000000010005FA0: 8B 55 E0 45 31 C0 E8 85 F0 FF FF 48 89 45 E8 48  .UàE1Àè.?ÿÿH.EèH
  0000000010005FB0: 8B 45 E8 48 8B 8B 78 FE FF FF 48 8B 09 48 89 48  .EèH..x?ÿÿH..H.H
  0000000010005FC0: 08 E9 AA 05 00 00 48 8B 45 10 48 83 78 28 0A 75  .éª...H.E.H.x(.u
  0000000010005FD0: 74 E8 7A F7 FF FF 48 89 45 E0 48 8B 4D E0 BA 80  tèz÷ÿÿH.EàH.Màº.
  0000000010005FE0: 00 00 00 E8 98 EC FF FF 48 8B 45 E0 48 8B 40 08  ...è.?ÿÿH.EàH.@.
  0000000010005FF0: 48 83 78 20 00 7C 22 48 8B 8B 80 FE FF FF 48 8B  H.x .|"H...?ÿÿH.
  0000000010006000: 09 48 8B 55 E0 48 8B 52 08 48 8B 52 20 FF 93 50  .H.UàH.R.H.R ÿ.P
  0000000010006010: FE FF FF 48 89 45 E8 EB 27 B9 70 00 00 00 48 8B  ?ÿÿH.Eèë'¹p...H.
  0000000010006020: 55 E0 45 31 C0 E8 06 F0 FF FF 48 89 45 E8 48 8B  UàE1Àè.?ÿÿH.EèH.
  0000000010006030: 45 E8 48 8B 8B 80 FE FF FF 48 8B 09 48 89 48 08  EèH...?ÿÿH..H.H.
  0000000010006040: E9 2B 05 00 00 48 8B 45 10 48 83 78 28 71 0F 8C  é+...H.E.H.x(q..
  0000000010006050: BB 00 00 00 48 8B 45 10 48 83 78 28 73 0F 8F AC  »...H.E.H.x(s..¬
  0000000010006060: 00 00 00 48 8B 83 D8 DF FF FF FF D0 48 89 45 E0  ...H..Øßÿÿÿ?H.Eà
  0000000010006070: 48 8B 4D E0 E8 47 E7 FF FF B9 28 00 00 00 E8 BD  H.MàèGçÿÿ¹(...è½
  0000000010006080: DF FF FF 48 8B 83 D8 DF FF FF FF D0 48 89 45 D8  ßÿÿH..Øßÿÿÿ?H.EØ
  0000000010006090: 48 8B 4D D8 E8 27 E7 FF FF 48 8B 45 E0 48 8B 40  H.MØè'çÿÿH.EàH.@
  00000000100060A0: F8 48 8B 8B 98 FE FF FF 48 39 48 08 75 31 48 8B  øH...?ÿÿH9H.u1H.
  00000000100060B0: 45 D8 48 8B 40 F8 48 8B 8B 98 FE FF FF 48 39 48  EØH.@øH...?ÿÿH9H
  00000000100060C0: 08 75 1C 48 8B 4D 10 48 8B 49 28 48 8B 55 E0 4C  .u.H.M.H.I(H.UàL
  00000000100060D0: 8B 45 D8 FF 93 E8 FD FF FF 48 89 45 E8 EB 2B 48  .EØÿ.è?ÿÿH.Eèë+H
  00000000100060E0: 8B 4D 10 48 8B 49 28 48 8B 55 E0 4C 8B 45 D8 E8  .M.H.I(H.UàL.EØè
  00000000100060F0: 3C EF FF FF 48 89 45 E8 48 8B 45 E8 48 8B 8B 80  <ïÿÿH.EèH.EèH...
  0000000010006100: FE FF FF 48 8B 09 48 89 48 08 E9 61 04 00 00 48  ?ÿÿH..H.H.éa...H
  0000000010006110: 8B 45 10 48 83 78 28 0E 75 67 48 8B 83 D8 DF FF  .E.H.x(.ugH..Øßÿ
  0000000010006120: FF FF D0 48 89 45 E0 48 8B 4D E0 E8 80 E7 FF FF  ÿÿ?H.EàH.Màè.çÿÿ
  0000000010006130: 48 8B 45 E0 48 8B 40 F8 48 8B 8B 98 FE FF FF 48  H.EàH.@øH...?ÿÿH
  0000000010006140: 39 48 08 75 10 48 8B 4D E0 FF 93 E0 FD FF FF 48  9H.u.H.Màÿ.à?ÿÿH
  0000000010006150: 89 45 E8 EB 27 B9 74 00 00 00 48 8B 55 E0 45 31  .Eèë'¹t...H.UàE1
  0000000010006160: C0 E8 CA EE FF FF 48 89 45 E8 48 8B 45 E8 48 8B  ÀèÊîÿÿH.EèH.EèH.
  0000000010006170: 8B 80 FE FF FF 48 8B 09 48 89 48 08 E9 EF 03 00  ..?ÿÿH..H.H.éï..
  0000000010006180: 00 48 8B 45 10 48 83 78 28 0F 75 67 48 8B 83 D8  .H.E.H.x(.ugH..Ø
  0000000010006190: DF FF FF FF D0 48 89 45 E0 48 8B 4D E0 E8 1E E6  ßÿÿÿ?H.EàH.Màè.æ
  00000000100061A0: FF FF 48 8B 45 E0 48 8B 40 F8 48 8B 8B 98 FE FF  ÿÿH.EàH.@øH...?ÿ
  00000000100061B0: FF 48 39 48 08 75 10 48 8B 4D E0 FF 93 D8 FD FF  ÿH9H.u.H.Màÿ.Ø?ÿ
  00000000100061C0: FF 48 89 45 E8 EB 27 B9 75 00 00 00 48 8B 55 E0  ÿH.Eèë'¹u...H.Uà
  00000000100061D0: 45 31 C0 E8 58 EE FF FF 48 89 45 E8 48 8B 45 E8  E1ÀèXîÿÿH.EèH.Eè
  00000000100061E0: 48 8B 8B D0 FD FF FF 48 8B 09 48 89 48 08 E9 7D  H..??ÿÿH..H.H.é}
  00000000100061F0: 03 00 00 48 8B 45 10 48 83 78 28 10 0F 85 AF 00  ...H.E.H.x(...¯.
  0000000010006200: 00 00 48 8B 83 D8 DF FF FF FF D0 48 89 45 E0 48  ..H..Øßÿÿÿ?H.EàH
  0000000010006210: 8B 45 E0 48 8B 40 08 48 8B 8B A8 FE FF FF 48 8B  .EàH.@.H..¨?ÿÿH.
  0000000010006220: 09 48 3B C1 75 2A 48 8B 83 90 FE FF FF 48 8B 4D  .H;Áu*H...?ÿÿH.M
  0000000010006230: E0 48 8B 49 F8 48 39 41 10 75 02 EB 08 B0 02 B9  àH.IøH9A.u.ë.°.¹
  0000000010006240: 00 37 00 00 CC 48 8B 45 E0 48 83 78 50 02 7E 0E  .7..?H.EàH.xP.~.
  0000000010006250: 48 8B 4D E0 BA 0E 00 00 00 E8 22 EA FF FF 48 8B  H.Màº....è"êÿÿH.
  0000000010006260: 4D E0 E8 89 E1 FF FF 85 C0 74 1A 48 8B 8B 80 FE  Màè.áÿÿ.Àt.H...?
  0000000010006270: FF FF 48 8B 09 48 8B 55 E0 FF 93 C8 FD FF FF 48  ÿÿH..H.Uàÿ.È?ÿÿH
  0000000010006280: 89 45 E8 EB 27 B9 76 00 00 00 48 8B 55 E0 45 31  .Eèë'¹v...H.UàE1
  0000000010006290: C0 E8 9A ED FF FF 48 89 45 E8 48 8B 45 E8 48 8B  Àè.íÿÿH.EèH.EèH.
  00000000100062A0: 8B 80 FE FF FF 48 8B 09 48 89 48 08 E9 BF 02 00  ..?ÿÿH..H.H.é¿..
  00000000100062B0: 00 48 8B 45 10 48 83 78 28 11 75 71 48 8B 83 D8  .H.E.H.x(.uqH..Ø
  00000000100062C0: DF FF FF FF D0 48 89 45 E0 48 8B 4D E0 E8 EE E4  ßÿÿÿ?H.EàH.Màèîä
  00000000100062D0: FF FF 48 8B 45 E0 48 8B 40 F8 48 8B 8B 98 FE FF  ÿÿH.EàH.@øH...?ÿ
  00000000100062E0: FF 48 39 48 08 75 1A 48 8B 8B 58 FE FF FF 48 8B  ÿH9H.u.H..X?ÿÿH.
  00000000100062F0: 09 48 8B 55 E0 FF 93 C8 FD FF FF 48 89 45 E8 EB  .H.Uàÿ.È?ÿÿH.Eèë
  0000000010006300: 27 B9 77 00 00 00 48 8B 55 E0 45 31 C0 E8 1E ED  '¹w...H.UàE1Àè.í
  0000000010006310: FF FF 48 89 45 E8 48 8B 45 E8 48 8B 8B 58 FE FF  ÿÿH.EèH.EèH..X?ÿ
  0000000010006320: FF 48 8B 09 48 89 48 08 E9 43 02 00 00 48 8B 45  ÿH..H.H.éC...H.E
  0000000010006330: 10 48 83 78 28 17 75 40 E8 13 F4 FF FF 48 89 45  .H.x(.u@è.ôÿÿH.E
  0000000010006340: E0 48 8B 4D E0 B2 01 E8 E4 E5 FF FF B9 78 00 00  àH.Mà².èäåÿÿ¹x..
  0000000010006350: 00 48 8B 55 E0 45 31 C0 E8 D3 EC FF FF 48 89 45  .H.UàE1ÀèÓ?ÿÿH.E
  0000000010006360: E8 48 8B 45 E8 48 8B 8B 80 FE FF FF 48 8B 09 48  èH.EèH...?ÿÿH..H
  0000000010006370: 89 48 08 E9 F8 01 00 00 48 8B 45 10 48 83 78 28  .H.éø...H.E.H.x(
  0000000010006380: 18 75 49 E8 C8 EE FF FF 48 89 45 E0 48 8B 45 E0  .uIèÈîÿÿH.EàH.Eà
  0000000010006390: 48 83 38 01 74 11 48 8D 8B C0 F3 FF FF BA 09 00  H.8.t.H..Àóÿÿº..
  00000000100063A0: 00 00 E8 79 DC FF FF 48 8B 8B 80 FE FF FF 48 8B  ..èyÜÿÿH...?ÿÿH.
  00000000100063B0: 09 48 8B 55 E0 48 8B 52 08 48 8B 52 08 FF 93 50  .H.UàH.R.H.R.ÿ.P
  00000000100063C0: FE FF FF 48 89 45 E8 E9 A4 01 00 00 48 8B 45 10  ?ÿÿH.Eèé¤...H.E.
  00000000100063D0: 48 83 78 28 19 75 63 48 8B 83 D8 DF FF FF FF D0  H.x(.ucH..Øßÿÿÿ?
  00000000100063E0: 48 89 45 E0 48 8B 4D E0 E8 D3 E3 FF FF B9 28 00  H.EàH.MàèÓ?ÿÿ¹(.
  00000000100063F0: 00 00 E8 49 DC FF FF 48 8B 83 D8 DF FF FF FF D0  ..èIÜÿÿH..Øßÿÿÿ?
  0000000010006400: 48 89 45 D8 48 8B 4D D8 E8 B3 E3 FF FF B9 79 00  H.EØH.MØè³?ÿÿ¹y.
  0000000010006410: 00 00 48 8B 55 E0 4C 8B 45 D8 E8 11 EC FF FF 48  ..H.UàL.EØè.?ÿÿH
  0000000010006420: 89 45 E8 48 8B 45 E8 48 8B 8B 78 FE FF FF 48 8B  .EèH.EèH..x?ÿÿH.
  0000000010006430: 09 48 89 48 08 E9 36 01 00 00 48 8B 45 10 48 83  .H.H.é6...H.E.H.
  0000000010006440: 78 28 1A 0F 85 27 01 00 00 E8 02 EE FF FF 48 89  x(...'...è.îÿÿH.
  0000000010006450: 45 E0 48 8B 45 E0 48 83 38 01 74 13 48 8D 8B E0  EàH.EàH.8.t.H..à
  0000000010006460: F3 FF FF BA 09 00 00 00 E8 B3 DB FF FF EB 27 48  óÿÿº....è³Ûÿÿë'H
  0000000010006470: 8B 45 E0 48 8B 40 08 48 8B 00 B9 80 01 00 00 48  .EàH.@.H..¹....H
  0000000010006480: 0F A3 C1 73 11 48 8D 8B 00 F4 FF FF BA 0B 00 00  .£Ás.H...ôÿÿº...
  0000000010006490: 00 E8 8A DB FF FF B9 28 00 00 00 E8 A0 DB FF FF  .è.Ûÿÿ¹(...è.Ûÿÿ
  00000000100064A0: 48 8B 83 D8 DF FF FF FF D0 48 89 45 D8 48 8B 45  H..Øßÿÿÿ?H.EØH.E
  00000000100064B0: D8 48 8B 40 08 48 8B 00 B9 80 01 00 00 48 0F A3  ØH.@.H..¹....H.£
  00000000100064C0: C1 73 13 48 8D 8B 20 F4 FF FF BA 0B 00 00 00 E8  Ás.H.. ôÿÿº....è
  00000000100064D0: 4C DB FF FF EB 50 48 8B 45 D8 48 8B 40 F8 48 8B  LÛÿÿëPH.EØH.@øH.
  00000000100064E0: 8B 90 FE FF FF 48 39 48 10 75 3B 48 8B 83 90 FE  ..?ÿÿH9H.u;H...?
  00000000100064F0: FF FF 48 8B 4D D8 48 8B 49 F8 48 39 41 10 75 02  ÿÿH.MØH.IøH9A.u.
  0000000010006500: EB 08 B0 02 B9 62 3B 00 00 CC 48 8B 45 D8 48 83  ë.°.¹b;..?H.EØH.
  0000000010006510: 78 50 02 7E 11 48 8D 8B 40 F4 FF FF BA 0B 00 00  xP.~.H..@ôÿÿº...
  0000000010006520: 00 E8 FA DA FF FF 48 8B 4D D8 E8 C1 DE FF FF 85  .èúÚÿÿH.MØèÁ?ÿÿ.
  0000000010006530: C0 74 18 48 8B 4D E0 48 8B 49 08 48 8B 55 D8 FF  Àt.H.MàH.I.H.UØÿ
  0000000010006540: 93 C8 FD FF FF 48 89 45 E8 EB 25 B9 7A 00 00 00  .È?ÿÿH.Eèë%¹z...
  0000000010006550: 48 8B 55 D8 45 31 C0 E8 D4 EA FF FF 48 89 45 E8  H.UØE1ÀèÔêÿÿH.Eè
  0000000010006560: 48 8B 45 E8 48 8B 4D E0 48 8B 49 08 48 89 48 08  H.EèH.MàH.I.H.H.
  0000000010006570: B9 2C 00 00 00 E8 C6 DA FF FF 48 8B 45 E8 C9 C3  ¹,...èÆÚÿÿH.EèÉ?
  0000000010006580: 55 48 8B EC 48 83 EC 30 48 C7 45 F8 00 00 00 00  UH.?H.?0HÇEø....
  0000000010006590: 48 C7 45 F0 00 00 00 00 48 8B 83 D8 DF FF FF FF  HÇE?....H..Øßÿÿÿ
  00000000100065A0: D0 48 89 45 F8 48 8B 4D F8 E8 12 E2 FF FF 48 8B  ?H.EøH.Møè.âÿÿH.
  00000000100065B0: 4D F8 FF 93 C0 FD FF FF 48 83 BB F8 DF FF FF 2B  Møÿ.À?ÿÿH.»øßÿÿ+
  00000000100065C0: 0F 85 7D 00 00 00 E8 35 DA FF FF 48 8B 83 D8 DF  ..}...è5ÚÿÿH..Øß
  00000000100065D0: FF FF FF D0 48 89 45 F0 48 8B 4D F0 E8 DF E1 FF  ÿÿÿ?H.E?H.M?èßáÿ
  00000000100065E0: FF 48 8B 4D F0 FF 93 C0 FD FF FF 48 8B 4D F8 E8  ÿH.M?ÿ.À?ÿÿH.Møè
  00000000100065F0: FC DD FF FF 85 C0 74 21 48 8B 4D F0 E8 EF DD FF  ü?ÿÿ.Àt!H.M?èï?ÿ
  0000000010006600: FF 85 C0 74 14 48 8B 4D F8 48 8B 55 F0 FF 93 B8  ÿ.Àt.H.MøH.U?ÿ.¸
  0000000010006610: FD FF FF 48 89 45 F8 EB 28 B9 2B 00 00 00 48 8B  ?ÿÿH.Eøë(¹+...H.
  0000000010006620: 55 F8 4C 8B 45 F0 E8 05 EA FF FF 48 89 45 F8 48  UøL.E?è.êÿÿH.EøH
  0000000010006630: 8B 45 F8 48 8B 8B 70 FE FF FF 48 8B 09 48 89 48  .EøH..p?ÿÿH..H.H
  0000000010006640: 08 EB 44 48 8B 4D F8 E8 A4 DD FF FF 85 C0 74 10  .ëDH.Møè¤?ÿÿ.Àt.
  0000000010006650: 48 8B 4D F8 FF 93 B0 FD FF FF 48 89 45 F8 EB 27  H.Møÿ.°?ÿÿH.Eøë'
  0000000010006660: B9 68 00 00 00 48 8B 55 F8 45 31 C0 E8 BF E9 FF  ¹h...H.UøE1Àè¿éÿ
  0000000010006670: FF 48 89 45 F8 48 8B 45 F8 48 8B 8B 70 FE FF FF  ÿH.EøH.EøH..p?ÿÿ
  0000000010006680: 48 8B 09 48 89 48 08 48 8B 45 F8 C9 C3 90 90 90  H..H.H.H.EøÉ?...
  0000000010006690: 55 48 8B EC 48 83 EC 50 48 C7 45 F8 00 00 00 00  UH.?H.?PHÇEø....
  00000000100066A0: 48 C7 45 F0 00 00 00 00 48 C7 45 E8 00 00 00 00  HÇE?....HÇEè....
  00000000100066B0: 48 C7 45 E0 00 00 00 00 48 C7 45 D8 00 00 00 00  HÇEà....HÇEØ....
  00000000100066C0: 48 8B 8B 70 FE FF FF 48 8B 09 31 D2 FF 93 50 FE  H..p?ÿÿH..1?ÿ.P?
  00000000100066D0: FF FF 48 89 45 F8 E8 25 D9 FF FF 48 83 BB F8 DF  ÿÿH.Eøè%ÙÿÿH.»øß
  00000000100066E0: FF FF 2E 0F 84 2D 01 00 00 E8 92 FE FF FF 48 89  ÿÿ...-...è.?ÿÿH.
  00000000100066F0: 45 E8 48 8B 4D E8 E8 F5 DC FF FF 85 C0 75 0A 48  EèH.Mèè?Üÿÿ.Àu.H
  0000000010006700: 8B 45 E8 48 89 45 F0 EB 17 B9 06 00 00 00 48 8B  .EèH.E?ë.¹....H.
  0000000010006710: 55 F8 4C 8B 45 E8 FF 93 A8 FD FF FF 48 89 45 F8  UøL.Eèÿ.¨?ÿÿH.Eø
  0000000010006720: 48 83 BB F8 DF FF FF 28 0F 85 8F 00 00 00 E8 CD  H.»øßÿÿ(......èÍ
  0000000010006730: D8 FF FF 48 83 BB F8 DF FF FF 2E 74 6A E8 3E FE  ØÿÿH.»øßÿÿ.tjè>?
  0000000010006740: FF FF 48 89 45 E8 48 8B 4D E8 E8 A1 DC FF FF 85  ÿÿH.EèH.Mèè¡Üÿÿ.
  0000000010006750: C0 74 19 B9 06 00 00 00 48 8B 55 F8 4C 8B 45 E8  Àt.¹....H.UøL.Eè
  0000000010006760: FF 93 A8 FD FF FF 48 89 45 F8 EB 39 48 83 7D F0  ÿ.¨?ÿÿH.Eøë9H.}?
  0000000010006770: 00 74 2A B9 06 00 00 00 48 8B 55 F0 4C 8B 45 E8  .t*¹....H.U?L.Eè
  0000000010006780: E8 AB E8 FF FF 48 89 45 F0 48 8B 45 F0 48 8B 8B  è«èÿÿH.E?H.E?H..
  0000000010006790: 70 FE FF FF 48 8B 09 48 89 48 08 EB 08 48 8B 45  p?ÿÿH..H.H.ë.H.E
  00000000100067A0: E8 48 89 45 F0 EB 11 48 8D 8B 60 F4 FF FF BA 09  èH.E?ë.H..`ôÿÿº.
  00000000100067B0: 00 00 00 E8 68 D8 FF FF E9 63 FF FF FF 48 8B 83  ...èhØÿÿécÿÿÿH..
  00000000100067C0: 98 FE FF FF 48 8B 4D F8 48 8B 49 F8 48 39 41 08  .?ÿÿH.MøH.IøH9A.
  00000000100067D0: 75 02 EB 08 B0 02 B9 4B 40 00 00 CC 48 8B 45 F8  u.ë.°.¹K@..?H.Eø
  00000000100067E0: 48 83 78 28 00 74 2F 48 83 7D F0 00 74 28 B9 06  H.x(.t/H.}?.t(¹.
  00000000100067F0: 00 00 00 48 8B 55 F0 4C 8B 45 F8 E8 30 E8 FF FF  ...H.U?L.Eøè0èÿÿ
  0000000010006800: 48 89 45 F0 48 8B 45 F0 48 8B 8B 70 FE FF FF 48  H.E?H.E?H..p?ÿÿH
  0000000010006810: 8B 09 48 89 48 08 B9 2E 00 00 00 E8 20 D8 FF FF  ..H.H.¹....è Øÿÿ
  0000000010006820: 48 83 7D F0 00 75 08 48 8B 45 F8 48 89 45 F0 48  H.}?.u.H.EøH.E?H
  0000000010006830: 8B 45 F0 C9 C3 90 90 90 90 90 90 90 90 90 90 90  .E?É?...........
  0000000010006840: 55 48 8B EC 48 83 EC 30 48 C7 45 F8 00 00 00 00  UH.?H.?0HÇEø....
  0000000010006850: 48 83 BB F8 DF FF FF 15 75 28 48 8B 8B 80 FE FF  H.»øßÿÿ.u(H...?ÿ
  0000000010006860: FF 48 8B 09 48 8B 93 A0 FD FF FF 48 8B 12 FF 93  ÿH..H...?ÿÿH..ÿ.
  0000000010006870: 50 FE FF FF 48 89 45 F8 E8 83 D7 FF FF E9 D2 02  P?ÿÿH.Eøè.×ÿÿé?.
  0000000010006880: 00 00 48 83 BB F8 DF FF FF 16 75 28 48 8B 8B D0  ..H.»øßÿÿ.u(H..?
  0000000010006890: FD FF FF 48 8B 09 48 8B 93 A0 FD FF FF 48 8B 12  ?ÿÿH..H...?ÿÿH..
  00000000100068A0: FF 93 50 FE FF FF 48 89 45 F8 E8 51 D7 FF FF E9  ÿ.P?ÿÿH.EøèQ×ÿÿé
  00000000100068B0: A0 02 00 00 48 83 BB F8 DF FF FF 1A 75 25 48 8B  ....H.»øßÿÿ.u%H.
  00000000100068C0: 8B 90 FD FF FF 48 8B 93 88 FD FF FF 48 8B 12 FF  ..?ÿÿH...?ÿÿH..ÿ
  00000000100068D0: 93 98 FD FF FF 48 89 45 F8 E8 22 D7 FF FF E9 71  ..?ÿÿH.Eøè"×ÿÿéq
  00000000100068E0: 02 00 00 48 83 BB F8 DF FF FF 19 75 20 48 8B 8B  ...H.»øßÿÿ.u H..
  00000000100068F0: 88 FE FF FF 48 8B 09 31 D2 FF 93 50 FE FF FF 48  .?ÿÿH..1?ÿ.P?ÿÿH
  0000000010006900: 89 45 F8 E8 F8 D6 FF FF E9 47 02 00 00 48 83 BB  .EøèøÖÿÿéG...H.»
  0000000010006910: F8 DF FF FF 18 75 23 48 8B 8B 78 FE FF FF 48 8B  øßÿÿ.u#H..x?ÿÿH.
  0000000010006920: 09 BA 01 00 00 00 FF 93 50 FE FF FF 48 89 45 F8  .º....ÿ.P?ÿÿH.Eø
  0000000010006930: E8 CB D6 FF FF E9 1A 02 00 00 48 83 BB F8 DF FF  èËÖÿÿé....H.»øßÿ
  0000000010006940: FF 17 75 20 48 8B 8B 78 FE FF FF 48 8B 09 31 D2  ÿ.u H..x?ÿÿH..1?
  0000000010006950: FF 93 50 FE FF FF 48 89 45 F8 E8 A1 D6 FF FF E9  ÿ.P?ÿÿH.Eøè¡Öÿÿé
  0000000010006960: F0 01 00 00 48 83 BB F8 DF FF FF 1E 75 0E E8 1D  ?...H.»øßÿÿ.u.è.
  0000000010006970: FD FF FF 48 89 45 F8 E9 D8 01 00 00 48 83 BB F8  ?ÿÿH.EøéØ...H.»ø
  0000000010006980: DF FF FF 1F 0F 85 11 01 00 00 E8 C1 ED FF FF 48  ßÿÿ.......èÁíÿÿH
  0000000010006990: 89 45 F8 48 8B 45 F8 48 83 38 07 75 2C 48 8D 8B  .EøH.EøH.8.u,H..
  00000000100069A0: 80 F4 FF FF BA 0D 00 00 00 E8 72 D6 FF FF 48 8B  .ôÿÿº....èrÖÿÿH.
  00000000100069B0: 8B 80 FE FF FF 48 8B 09 31 D2 FF 93 50 FE FF FF  ..?ÿÿH..1?ÿ.P?ÿÿ
  00000000100069C0: 48 89 45 F8 E9 CD 00 00 00 48 8B 45 F8 48 83 38  H.EøéÍ...H.EøH.8
  00000000100069D0: 08 75 61 48 83 BB F8 DF FF FF 1C 74 29 48 8D 8B  .uaH.»øßÿÿ.t)H..
  00000000100069E0: A0 F4 FF FF BA 0F 00 00 00 E8 32 D6 FF FF 48 8B  .ôÿÿº....è2ÖÿÿH.
  00000000100069F0: 8B 80 FE FF FF 48 8B 09 31 D2 FF 93 50 FE FF FF  ..?ÿÿH..1?ÿ.P?ÿÿ
  0000000010006A00: 48 89 45 F8 EB 2C 48 8B 83 00 FE FF FF 48 8B 4D  H.Eøë,H...?ÿÿH.M
  0000000010006A10: F8 48 8B 49 F8 48 39 41 08 75 02 EB 08 B0 02 B9  øH.IøH9A.u.ë.°.¹
  0000000010006A20: FC 43 00 00 CC 48 8B 4D F8 E8 52 F4 FF FF 48 89  üC..?H.MøèRôÿÿH.
  0000000010006A30: 45 F8 EB 62 48 83 BB F8 DF FF FF 1C 75 58 48 8B  EøëbH.»øßÿÿ.uXH.
  0000000010006A40: 45 F8 48 8B 40 08 48 83 38 06 75 4A 48 8B 45 F8  EøH.@.H.8.uJH.Eø
  0000000010006A50: 48 8B 40 08 48 83 78 40 00 75 11 48 8D 8B C0 F4  H.@.H.x@.u.H..Àô
  0000000010006A60: FF FF BA 0D 00 00 00 E8 B4 D5 FF FF 48 8B 4D F8  ÿÿº....è´?ÿÿH.Mø
  0000000010006A70: E8 4B EB FF FF 48 89 45 F8 48 8B 45 F8 48 83 78  èKëÿÿH.EøH.EøH.x
  0000000010006A80: 08 00 75 12 48 8B 45 F8 48 8B 8B 80 FE FF FF 48  ..u.H.EøH...?ÿÿH
  0000000010006A90: 8B 09 48 89 48 08 E9 B9 00 00 00 48 83 BB F8 DF  ..H.H.é¹...H.»øß
  0000000010006AA0: FF FF 1C 75 21 E8 56 D5 FF FF 48 8B 83 D8 DF FF  ÿÿ.u!èV?ÿÿH..Øßÿ
  0000000010006AB0: FF FF D0 48 89 45 F8 B9 2C 00 00 00 E8 7F D5 FF  ÿÿ?H.Eø¹,...è.?ÿ
  0000000010006AC0: FF E9 8E 00 00 00 48 83 BB F8 DF FF FF 1B 75 5D  ÿé....H.»øßÿÿ.u]
  0000000010006AD0: E8 2B D5 FF FF E8 66 FD FF FF 48 89 45 F8 48 8B  è+?ÿÿèf?ÿÿH.EøH.
  0000000010006AE0: 4D F8 E8 49 DD FF FF 48 8B 4D F8 E8 00 D9 FF FF  MøèI?ÿÿH.Møè.Ùÿÿ
  0000000010006AF0: 85 C0 74 10 48 8B 4D F8 FF 93 80 FD FF FF 48 89  .Àt.H.Møÿ..?ÿÿH.
  0000000010006B00: 45 F8 EB 27 B9 1B 00 00 00 48 8B 55 F8 45 31 C0  Eøë'¹....H.UøE1À
  0000000010006B10: E8 1B E5 FF FF 48 89 45 F8 48 8B 45 F8 48 8B 8B  è.åÿÿH.EøH.EøH..
  0000000010006B20: 78 FE FF FF 48 8B 09 48 89 48 08 EB 27 48 8D 8B  x?ÿÿH..H.H.ë'H..
  0000000010006B30: E0 F4 FF FF BA 0F 00 00 00 E8 E2 D4 FF FF 48 8B  àôÿÿº....èâÔÿÿH.
  0000000010006B40: 8B 80 FE FF FF 48 8B 09 31 D2 FF 93 50 FE FF FF  ..?ÿÿH..1?ÿ.P?ÿÿ
  0000000010006B50: 48 89 45 F8 48 8B 45 F8 C9 C3 90 90 90 90 90 90  H.EøH.EøÉ?......
  0000000010006B60: 55 48 8B EC 48 83 EC 40 48 C7 45 F8 00 00 00 00  UH.?H.?@HÇEø....
  0000000010006B70: 48 C7 45 F0 00 00 00 00 48 C7 45 E8 00 00 00 00  HÇE?....HÇEè....
  0000000010006B80: E8 BB FC FF FF 48 89 45 F8 48 83 BB F8 DF FF FF  è»üÿÿH.EøH.»øßÿÿ
  0000000010006B90: 01 0F 85 AC 00 00 00 48 8B 4D F8 BA 15 00 00 00  ...¬...H.Møº....
  0000000010006BA0: E8 DB E0 FF FF E8 56 D4 FF FF E8 91 FC FF FF 48  èÛàÿÿèVÔÿÿè.üÿÿH
  0000000010006BB0: 89 45 F0 48 8B 4D F8 48 8B 49 08 48 8B 55 F0 48  .E?H.MøH.I.H.U?H
  0000000010006BC0: 8B 52 08 E8 A8 DA FF FF 85 C0 75 11 48 8D 8B 00  .R.è¨Úÿÿ.Àu.H...
  0000000010006BD0: F5 FF FF BA 0D 00 00 00 E8 43 D4 FF FF 48 8B 4D  ?ÿÿº....èCÔÿÿH.M
  0000000010006BE0: F8 E8 0A D8 FF FF 85 C0 74 26 48 8B 4D F0 E8 FD  øè.Øÿÿ.Àt&H.M?è?
  0000000010006BF0: D7 FF FF 85 C0 74 19 B9 01 00 00 00 48 8B 55 F8  ×ÿÿ.Àt.¹....H.Uø
  0000000010006C00: 4C 8B 45 F0 FF 93 A8 FD FF FF 48 89 45 F8 EB 2E  L.E?ÿ.¨?ÿÿH.Eøë.
  0000000010006C10: 48 8B 45 F8 48 8B 40 08 48 89 45 E8 B9 01 00 00  H.EøH.@.H.Eè¹...
  0000000010006C20: 00 48 8B 55 F8 4C 8B 45 F0 E8 02 E4 FF FF 48 89  .H.UøL.E?è.äÿÿH.
  0000000010006C30: 45 F8 48 8B 45 F8 48 8B 4D E8 48 89 48 08 E9 46  EøH.EøH.MèH.H.éF
  0000000010006C40: FF FF FF 48 83 BB F8 DF FF FF 02 0F 85 AC 00 00  ÿÿÿH.»øßÿÿ...¬..
  0000000010006C50: 00 48 8B 4D F8 BA 14 00 00 00 E8 21 E0 FF FF E8  .H.Møº....è!àÿÿè
  0000000010006C60: 9C D3 FF FF E8 D7 FB FF FF 48 89 45 F0 48 8B 4D  .Óÿÿè×ûÿÿH.E?H.M
  0000000010006C70: F8 48 8B 49 08 48 8B 55 F0 48 8B 52 08 E8 EE D9  øH.I.H.U?H.R.èîÙ
  0000000010006C80: FF FF 85 C0 75 11 48 8D 8B 20 F5 FF FF BA 0D 00  ÿÿ.Àu.H.. ?ÿÿº..
  0000000010006C90: 00 00 E8 89 D3 FF FF 48 8B 4D F8 E8 50 D7 FF FF  ..è.ÓÿÿH.MøèP×ÿÿ
  0000000010006CA0: 85 C0 74 26 48 8B 4D F0 E8 43 D7 FF FF 85 C0 74  .Àt&H.M?èC×ÿÿ.Àt
  0000000010006CB0: 19 B9 02 00 00 00 48 8B 55 F8 4C 8B 45 F0 FF 93  .¹....H.UøL.E?ÿ.
  0000000010006CC0: A8 FD FF FF 48 89 45 F8 EB 2E 48 8B 45 F8 48 8B  ¨?ÿÿH.Eøë.H.EøH.
  0000000010006CD0: 40 08 48 89 45 E8 B9 01 00 00 00 48 8B 55 F8 4C  @.H.Eè¹....H.UøL
  0000000010006CE0: 8B 45 F0 E8 48 E3 FF FF 48 89 45 F8 48 8B 45 F8  .E?èH?ÿÿH.EøH.Eø
  0000000010006CF0: 48 8B 4D E8 48 89 48 08 E9 8C FE FF FF 48 83 BB  H.MèH.H.é.?ÿÿH.»
  0000000010006D00: F8 DF FF FF 03 74 0E 48 83 BB F8 DF FF FF 04 0F  øßÿÿ.t.H.»øßÿÿ..
  0000000010006D10: 85 89 00 00 00 48 8B 4D F8 E8 A2 DA FF FF 48 8B  .....H.Møè¢ÚÿÿH.
  0000000010006D20: 83 F8 DF FF FF 48 89 45 E0 E8 D2 D2 FF FF E8 0D  .øßÿÿH.Eàè??ÿÿè.
  0000000010006D30: FB FF FF 48 89 45 F0 48 8B 4D F0 E8 80 DA FF FF  ûÿÿH.E?H.M?è.Úÿÿ
  0000000010006D40: 48 8B 4D F8 E8 A7 D6 FF FF 85 C0 74 25 48 8B 4D  H.Møè§Öÿÿ.Àt%H.M
  0000000010006D50: F0 E8 9A D6 FF FF 85 C0 74 18 48 8B 4D E0 48 8B  ?è.Öÿÿ.Àt.H.MàH.
  0000000010006D60: 55 F8 4C 8B 45 F0 FF 93 A8 FD FF FF 48 89 45 F8  UøL.E?ÿ.¨?ÿÿH.Eø
  0000000010006D70: EB 27 48 8B 4D E0 48 8B 55 F8 4C 8B 45 F0 E8 AD  ë'H.MàH.UøL.E?è­
  0000000010006D80: E2 FF FF 48 89 45 F8 48 8B 45 F8 48 8B 8B 80 FE  âÿÿH.EøH.EøH...?
  0000000010006D90: FF FF 48 8B 09 48 89 48 08 E9 EB FD FF FF 48 83  ÿÿH..H.H.éë?ÿÿH.
  0000000010006DA0: BB F8 DF FF FF 05 0F 85 80 00 00 00 48 8B 4D F8  »øßÿÿ.......H.Mø
  0000000010006DB0: E8 7B DA FF FF E8 46 D2 FF FF E8 81 FA FF FF 48  è{ÚÿÿèF?ÿÿè.úÿÿH
  0000000010006DC0: 89 45 F0 48 8B 4D F0 E8 64 DA FF FF 48 8B 4D F8  .E?H.M?èdÚÿÿH.Mø
  0000000010006DD0: E8 1B D6 FF FF 85 C0 74 26 48 8B 4D F0 E8 0E D6  è.Öÿÿ.Àt&H.M?è.Ö
  0000000010006DE0: FF FF 85 C0 74 19 B9 05 00 00 00 48 8B 55 F8 4C  ÿÿ.Àt.¹....H.UøL
  0000000010006DF0: 8B 45 F0 FF 93 A8 FD FF FF 48 89 45 F8 EB 28 B9  .E?ÿ.¨?ÿÿH.Eøë(¹
  0000000010006E00: 05 00 00 00 48 8B 55 F8 4C 8B 45 F0 E8 1F E2 FF  ....H.UøL.E?è.âÿ
  0000000010006E10: FF 48 89 45 F8 48 8B 45 F8 48 8B 8B 78 FE FF FF  ÿH.EøH.EøH..x?ÿÿ
  0000000010006E20: 48 8B 09 48 89 48 08 E9 5D FD FF FF 48 8B 45 F8  H..H.H.é]?ÿÿH.Eø
  0000000010006E30: C9 C3 90 90 90 90 90 90 90 90 90 90 90 90 90 90  É?..............
  0000000010006E40: 55 48 8B EC 48 83 EC 40 48 C7 45 F8 00 00 00 00  UH.?H.?@HÇEø....
  0000000010006E50: 48 C7 45 F0 00 00 00 00 48 C7 45 E8 00 00 00 00  HÇE?....HÇEè....
  0000000010006E60: 48 83 BB F8 DF FF FF 06 75 10 E8 91 D1 FF FF E8  H.»øßÿÿ.u.è.Ñÿÿè
  0000000010006E70: EC FC FF FF 48 89 45 F8 EB 7B 48 83 BB F8 DF FF  ?üÿÿH.Eøë{H.»øßÿ
  0000000010006E80: FF 07 75 68 E8 77 D1 FF FF E8 D2 FC FF FF 48 89  ÿ.uhèwÑÿÿè?üÿÿH.
  0000000010006E90: 45 F8 48 8B 45 F8 48 8B 40 08 48 89 45 E8 48 8B  EøH.EøH.@.H.EèH.
  0000000010006EA0: 4D F8 BA 15 00 00 00 E8 D4 DD FF FF 48 8B 4D F8  Møº....èÔ?ÿÿH.Mø
  0000000010006EB0: E8 3B D5 FF FF 85 C0 74 10 48 8B 4D F8 FF 93 80  è;?ÿÿ.Àt.H.Møÿ..
  0000000010006EC0: FD FF FF 48 89 45 F8 EB 21 B9 07 00 00 00 48 8B  ?ÿÿH.Eøë!¹....H.
  0000000010006ED0: 55 F8 45 31 C0 E8 56 E1 FF FF 48 89 45 F8 48 8B  UøE1ÀèVáÿÿH.EøH.
  0000000010006EE0: 45 F8 48 8B 4D E8 48 89 48 08 EB 09 E8 6F FC FF  EøH.MèH.H.ë.èoüÿ
  0000000010006EF0: FF 48 89 45 F8 48 83 BB F8 DF FF FF 06 74 0E 48  ÿH.EøH.»øßÿÿ.t.H
  0000000010006F00: 83 BB F8 DF FF FF 07 0F 85 B5 00 00 00 48 8B 4D  .»øßÿÿ...µ...H.M
  0000000010006F10: F8 BA 15 00 00 00 E8 65 DD FF FF 48 8B 83 F8 DF  øº....èe?ÿÿH..øß
  0000000010006F20: FF FF 48 89 45 E0 E8 D5 D0 FF FF E8 30 FC FF FF  ÿÿH.Eàè??ÿÿè0üÿÿ
  0000000010006F30: 48 89 45 F0 48 8B 4D F8 48 8B 49 08 48 8B 55 F0  H.E?H.MøH.I.H.U?
  0000000010006F40: 48 8B 52 08 E8 27 D7 FF FF 85 C0 75 11 48 8D 8B  H.R.è'×ÿÿ.Àu.H..
  0000000010006F50: 40 F5 FF FF BA 0D 00 00 00 E8 C2 D0 FF FF 48 8B  @?ÿÿº....èÂ?ÿÿH.
  0000000010006F60: 4D F8 E8 89 D4 FF FF 85 C0 74 25 48 8B 4D F0 E8  Møè.Ôÿÿ.Àt%H.M?è
  0000000010006F70: 7C D4 FF FF 85 C0 74 18 48 8B 4D E0 48 8B 55 F8  |Ôÿÿ.Àt.H.MàH.Uø
  0000000010006F80: 4C 8B 45 F0 FF 93 A8 FD FF FF 48 89 45 F8 EB 2D  L.E?ÿ.¨?ÿÿH.Eøë-
  0000000010006F90: 48 8B 45 F8 48 8B 40 08 48 89 45 E8 48 8B 4D E0  H.EøH.@.H.EèH.Mà
  0000000010006FA0: 48 8B 55 F8 4C 8B 45 F0 E8 83 E0 FF FF 48 89 45  H.UøL.E?è.àÿÿH.E
  0000000010006FB0: F8 48 8B 45 F8 48 8B 4D E8 48 89 48 08 E9 33 FF  øH.EøH.MèH.H.é3ÿ
  0000000010006FC0: FF FF 48 83 BB F8 DF FF FF 08 0F 85 80 00 00 00  ÿÿH.»øßÿÿ.......
  0000000010006FD0: 48 8B 4D F8 E8 57 D8 FF FF E8 22 D0 FF FF E8 7D  H.MøèWØÿÿè"?ÿÿè}
  0000000010006FE0: FB FF FF 48 89 45 F0 48 8B 4D F0 E8 40 D8 FF FF  ûÿÿH.E?H.M?è@Øÿÿ
  0000000010006FF0: 48 8B 4D F8 E8 F7 D3 FF FF 85 C0 74 26 48 8B 4D  H.Møè÷Óÿÿ.Àt&H.M
  0000000010007000: F0 E8 EA D3 FF FF 85 C0 74 19 B9 08 00 00 00 48  ?èêÓÿÿ.Àt.¹....H
  0000000010007010: 8B 55 F8 4C 8B 45 F0 FF 93 A8 FD FF FF 48 89 45  .UøL.E?ÿ.¨?ÿÿH.E
  0000000010007020: F8 EB 28 B9 08 00 00 00 48 8B 55 F8 4C 8B 45 F0  øë(¹....H.UøL.E?
  0000000010007030: E8 FB DF FF FF 48 89 45 F8 48 8B 45 F8 48 8B 8B  èûßÿÿH.EøH.EøH..
  0000000010007040: 78 FE FF FF 48 8B 09 48 89 48 08 E9 A5 FE FF FF  x?ÿÿH..H.H.é¥?ÿÿ
  0000000010007050: 48 8B 45 F8 C9 C3 90 90 90 90 90 90 90 90 90 90  H.EøÉ?..........
  0000000010007060: 55 48 8B EC 48 83 EC 40 48 C7 45 F8 00 00 00 00  UH.?H.?@HÇEø....
  0000000010007070: 48 C7 45 F0 00 00 00 00 48 C7 45 E8 00 00 00 00  HÇE?....HÇEè....
  0000000010007080: E8 BB FD FF FF 48 89 45 F8 48 83 BB F8 DF FF FF  è»?ÿÿH.EøH.»øßÿÿ
  0000000010007090: 09 0F 8C CC 00 00 00 48 83 BB F8 DF FF FF 0E 0F  ...?...H.»øßÿÿ..
  00000000100070A0: 8F BE 00 00 00 48 8B 4D F8 48 8B 93 F8 DF FF FF  .¾...H.MøH..øßÿÿ
  00000000100070B0: E8 2B DB FF FF 48 8B 83 F8 DF FF FF 48 89 45 E0  è+ÛÿÿH..øßÿÿH.Eà
  00000000100070C0: E8 3B CF FF FF E8 76 FD FF FF 48 89 45 F0 48 8B  è;Ïÿÿèv?ÿÿH.E?H.
  00000000100070D0: 4D F8 48 8B 49 08 48 8B 55 F0 48 8B 52 08 E8 9D  MøH.I.H.U?H.R.è.
  00000000100070E0: D6 FF FF 85 C0 75 11 48 8D 8B 60 F5 FF FF BA 0D  Öÿÿ.Àu.H..`?ÿÿº.
  00000000100070F0: 00 00 00 E8 28 CF FF FF 48 8D 4D F8 48 8D 55 F0  ...è(ÏÿÿH.MøH.U?
  0000000010007100: E8 BB DB FF FF 48 8B 4D F8 E8 E2 D2 FF FF 85 C0  è»ÛÿÿH.Møèâ?ÿÿ.À
  0000000010007110: 74 25 48 8B 4D F0 E8 D5 D2 FF FF 85 C0 74 18 48  t%H.M?è??ÿÿ.Àt.H
  0000000010007120: 8B 4D E0 48 8B 55 F8 4C 8B 45 F0 FF 93 A8 FD FF  .MàH.UøL.E?ÿ.¨?ÿ
  0000000010007130: FF 48 89 45 F8 EB 27 48 8B 4D E0 48 8B 55 F8 4C  ÿH.Eøë'H.MàH.UøL
  0000000010007140: 8B 45 F0 E8 E8 DE FF FF 48 89 45 F8 48 8B 45 F8  .E?èè?ÿÿH.EøH.Eø
  0000000010007150: 48 8B 8B 78 FE FF FF 48 8B 09 48 89 48 08 E9 8B  H..x?ÿÿH..H.H.é.
  0000000010007160: 01 00 00 48 83 BB F8 DF FF FF 0F 0F 85 89 00 00  ...H.»øßÿÿ......
  0000000010007170: 00 48 8B 4D F8 E8 46 D6 FF FF 48 8B 4D F8 FF 93  .H.MøèFÖÿÿH.Møÿ.
  0000000010007180: C0 FD FF FF E8 77 CE FF FF E8 B2 FC FF FF 48 89  À?ÿÿèwÎÿÿè²üÿÿH.
  0000000010007190: 45 F0 48 8B 4D F0 E8 D5 D6 FF FF 48 8B 4D F8 E8  E?H.M?è?ÖÿÿH.Møè
  00000000100071A0: 4C D2 FF FF 85 C0 74 25 48 8B 4D F0 E8 3F D2 FF  L?ÿÿ.Àt%H.M?è??ÿ
  00000000100071B0: FF 85 C0 74 18 48 8B 4D E0 48 8B 55 F8 4C 8B 45  ÿ.Àt.H.MàH.UøL.E
  00000000100071C0: F0 FF 93 A8 FD FF FF 48 89 45 F8 EB 28 B9 0F 00  ?ÿ.¨?ÿÿH.Eøë(¹..
  00000000100071D0: 00 00 48 8B 55 F8 4C 8B 45 F0 E8 51 DE FF FF 48  ..H.UøL.E?èQ?ÿÿH
  00000000100071E0: 89 45 F8 48 8B 45 F8 48 8B 8B 78 FE FF FF 48 8B  .EøH.EøH..x?ÿÿH.
  00000000100071F0: 09 48 89 48 08 E9 F4 00 00 00 48 83 BB F8 DF FF  .H.H.éô...H.»øßÿ
  0000000010007200: FF 10 0F 85 E6 00 00 00 48 8B 4D F8 BA 10 00 00  ÿ...æ...H.Møº...
  0000000010007210: 00 E8 CA D9 FF FF E8 E5 CD FF FF 48 83 BB F8 DF  .èÊÙÿÿèåÍÿÿH.»øß
  0000000010007220: FF FF 1F 75 0B E8 26 E0 FF FF 48 89 45 F0 EB 0A  ÿÿ.u.è&àÿÿH.E?ë.
  0000000010007230: B9 1F 00 00 00 E8 E6 CF FF FF 48 83 7D F0 00 74  ¹....èæÏÿÿH.}?.t
  0000000010007240: 74 48 8B 45 F0 48 83 38 01 75 6A 48 8B 45 F0 48  tH.E?H.8.ujH.E?H
  0000000010007250: 8B 40 08 48 89 45 E8 48 8B 45 E8 48 83 38 05 75  .@.H.EèH.EèH.8.u
  0000000010007260: 20 48 8B 45 E8 48 83 78 40 00 74 15 48 8B 4D E8   H.EèH.x@.t.H.Mè
  0000000010007270: 48 8B 55 F8 48 8B 52 08 E8 C3 D0 FF FF 85 C0 75  H.UøH.R.è??ÿÿ.Àu
  0000000010007280: 1F 48 8B 45 E8 48 83 38 08 75 17 48 8B 4D E8 48  .H.EèH.8.u.H.MèH
  0000000010007290: 8B 55 F8 48 8B 52 08 E8 A4 D0 FF FF 85 C0 74 02  .UøH.R.è¤?ÿÿ.Àt.
  00000000100072A0: EB 11 48 8D 8B 80 F5 FF FF BA 0D 00 00 00 E8 6D  ë.H...?ÿÿº....èm
  00000000100072B0: CD FF FF EB 11 48 8D 8B A0 F5 FF FF BA 09 00 00  Íÿÿë.H...?ÿÿº...
  00000000100072C0: 00 E8 5A CD FF FF B9 10 00 00 00 48 8B 55 F8 4C  .èZÍÿÿ¹....H.UøL
  00000000100072D0: 8B 45 F0 E8 58 DD FF FF 48 89 45 F8 48 8B 45 F8  .E?èX?ÿÿH.EøH.Eø
  00000000100072E0: 48 8B 8B 78 FE FF FF 48 8B 09 48 89 48 08 48 8B  H..x?ÿÿH..H.H.H.
  00000000100072F0: 45 F8 C9 C3 90 90 90 90 90 90 90 90 90 90 90 90  EøÉ?............
  0000000010007300: 55 48 8B EC 48 83 EC 30 48 C7 45 F8 00 00 00 00  UH.?H.?0HÇEø....
  0000000010007310: E8 4B FD FF FF 48 89 45 F8 48 8B 4D F8 E8 CE D0  èK?ÿÿH.EøH.MøèÎ?
  0000000010007320: FF FF 85 C0 74 02 EB 27 48 8D 8B C0 F5 FF FF BA  ÿÿ.Àt.ë'H..À?ÿÿº
  0000000010007330: 0A 00 00 00 E8 E7 CC FF FF 48 8B 8B 80 FE FF FF  ....èç?ÿÿH...?ÿÿ
  0000000010007340: 48 8B 09 31 D2 FF 93 50 FE FF FF 48 89 45 F8 48  H..1?ÿ.P?ÿÿH.EøH
  0000000010007350: 8B 45 F8 C9 C3 90 90 90 90 90 90 90 90 90 90 90  .EøÉ?...........
  0000000010007360: 55 48 8B EC 48 83 EC 70 48 89 75 B0 48 89 7D B8  UH.?H.?pH.u°H.}¸
  0000000010007370: 4C 89 65 C0 4C 89 6D C8 4C 89 75 D0 4C 89 7D D8  L.eÀL.mÈL.u?L.}Ø
  0000000010007380: 48 89 4D 10 48 C7 45 F8 00 00 00 00 48 C7 45 F0  H.M.HÇEø....HÇE?
  0000000010007390: 00 00 00 00 48 C7 45 E8 00 00 00 00 48 C7 45 E0  ....HÇEè....HÇEà
  00000000100073A0: 00 00 00 00 B9 1C 00 00 00 E8 92 CC FF FF 48 8B  ....¹....è.?ÿÿH.
  00000000100073B0: 45 10 48 81 78 28 82 00 00 00 74 0E 48 8B 45 10  E.H.x(....t.H.E.
  00000000100073C0: 48 81 78 28 83 00 00 00 75 76 E8 81 E3 FF FF 48  H.x(....uvè.?ÿÿH
  00000000100073D0: 89 45 F8 48 8B 4D F8 E8 E4 D3 FF FF 48 8B 4D F8  .EøH.MøèäÓÿÿH.Mø
  00000000100073E0: 31 D2 E8 49 D5 FF FF 48 83 BB F8 DF FF FF 28 75  1?èI?ÿÿH.»øßÿÿ(u
  00000000100073F0: 32 E8 0A CC FF FF E8 65 FC FF FF 48 89 45 F0 48  2è.?ÿÿèeüÿÿH.E?H
  0000000010007400: 8B 4D F0 E8 B8 D3 FF FF 48 8B 4D 10 48 8B 49 28  .M?è¸ÓÿÿH.M.H.I(
  0000000010007410: 48 8B 55 F8 4C 8B 45 F0 E8 13 DC FF FF 48 89 45  H.UøL.E?è.ÜÿÿH.E
  0000000010007420: F8 EB 18 48 8B 4D 10 48 8B 49 28 48 8B 55 F8 45  øë.H.M.H.I(H.UøE
  0000000010007430: 31 C0 E8 F9 DB FF FF 48 89 45 F8 E9 31 06 00 00  1ÀèùÛÿÿH.Eøé1...
  0000000010007440: 48 8B 45 10 48 81 78 28 84 00 00 00 74 0E 48 8B  H.E.H.x(....t.H.
  0000000010007450: 45 10 48 81 78 28 85 00 00 00 75 57 E8 EF E2 FF  E.H.x(....uWèïâÿ
  0000000010007460: FF 48 89 45 F8 48 8B 4D F8 E8 02 D4 FF FF 48 8B  ÿH.EøH.Møè.ÔÿÿH.
  0000000010007470: 4D F8 31 D2 E8 B7 D4 FF FF B9 28 00 00 00 E8 BD  Mø1?è·Ôÿÿ¹(...è½
  0000000010007480: CB FF FF E8 D8 FB FF FF 48 89 45 F0 48 8B 4D F0  ËÿÿèØûÿÿH.E?H.M?
  0000000010007490: E8 2B D3 FF FF 48 8B 4D 10 48 8B 49 28 48 8B 55  è+ÓÿÿH.M.H.I(H.U
  00000000100074A0: F8 4C 8B 45 F0 E8 86 DB FF FF 48 89 45 F8 E9 BE  øL.E?è.ÛÿÿH.Eøé¾
  00000000100074B0: 05 00 00 48 8B 45 10 48 83 78 28 04 0F 85 D4 00  ...H.E.H.x(...Ô.
  00000000100074C0: 00 00 E8 89 E2 FF FF 48 89 45 F8 48 8B 4D F8 BA  ..è.âÿÿH.EøH.Møº
  00000000100074D0: 20 00 00 00 E8 A7 D7 FF FF 48 8B 4D F8 31 D2 E8   ...è§×ÿÿH.Mø1?è
  00000000100074E0: 4C D4 FF FF 48 8B 45 F8 48 8B 40 08 48 8B 40 40  LÔÿÿH.EøH.@.H.@@
  00000000100074F0: 48 83 78 30 FF 0F 8D 81 00 00 00 48 8B 45 F8 48  H.x0ÿ......H.EøH
  0000000010007500: 8B 40 08 48 8B 40 40 48 83 78 28 00 75 6E 48 8B  .@.H.@@H.x(.unH.
  0000000010007510: 45 F8 48 8B 40 08 48 8B 40 40 48 8B 40 60 48 89  EøH.@.H.@@H.@`H.
  0000000010007520: 45 E0 48 83 7D E0 00 75 10 48 8B 45 F8 48 8B 40  EàH.}à.u.H.EøH.@
  0000000010007530: 08 48 8B 40 60 48 89 45 E0 48 83 7D E0 00 75 16  .H.@`H.EàH.}à.u.
  0000000010007540: 48 8B 4D F8 48 8B 49 08 48 8B 49 40 FF 93 78 FD  H.MøH.I.H.I@ÿ.x?
  0000000010007550: FF FF 48 89 45 E0 48 8B 75 E0 48 8B 4D F8 48 8B  ÿÿH.EàH.uàH.MøH.
  0000000010007560: 49 08 48 8B 49 40 48 8B 49 30 FF 93 70 FD FF FF  I.H.I@H.I0ÿ.p?ÿÿ
  0000000010007570: 48 8B D0 48 8B CE FF 93 08 FE FF FF B9 86 00 00  H.?H.Îÿ..?ÿÿ¹...
  0000000010007580: 00 48 8B 55 F8 45 31 C0 E8 A3 DA FF FF 48 89 45  .H.UøE1Àè£ÚÿÿH.E
  0000000010007590: F8 E9 DB 04 00 00 48 8B 45 10 48 83 78 28 05 75  øéÛ...H.E.H.x(.u
  00000000100075A0: 2C E8 BA FA FF FF 48 89 45 F8 48 8B 4D F8 E8 7D  ,èºúÿÿH.EøH.Møè}
  00000000100075B0: D2 FF FF B9 87 00 00 00 48 8B 55 F8 45 31 C0 E8  ?ÿÿ¹....H.UøE1Àè
  00000000100075C0: 6C DA FF FF 48 89 45 F8 E9 A4 04 00 00 48 8B 45  lÚÿÿH.Eøé¤...H.E
  00000000100075D0: 10 48 83 78 28 06 75 54 E8 73 E1 FF FF 48 89 45  .H.x(.uTèsáÿÿH.E
  00000000100075E0: F8 48 8B 4D F8 E8 C6 D2 FF FF 48 8B 4D F8 31 D2  øH.MøèÆ?ÿÿH.Mø1?
  00000000100075F0: E8 3B D3 FF FF B9 28 00 00 00 E8 41 CA FF FF E8  è;Óÿÿ¹(...èAÊÿÿè
  0000000010007600: 5C FA FF FF 48 89 45 F0 48 8B 4D F0 E8 AF D1 FF  \úÿÿH.E?H.M?è¯Ñÿ
  0000000010007610: FF B9 88 00 00 00 48 8B 55 F8 4C 8B 45 F0 E8 0D  ÿ¹....H.UøL.E?è.
  0000000010007620: DA FF FF 48 89 45 F8 E9 45 04 00 00 48 8B 45 10  ÚÿÿH.EøéE...H.E.
  0000000010007630: 48 83 78 28 07 75 5F E8 14 E1 FF FF 48 89 45 F8  H.x(.u_è.áÿÿH.Eø
  0000000010007640: 48 8B 4D F8 E8 77 D1 FF FF 48 8B 4D F8 31 D2 E8  H.MøèwÑÿÿH.Mø1?è
  0000000010007650: DC D2 FF FF B9 28 00 00 00 E8 E2 C9 FF FF E8 ED  Ü?ÿÿ¹(...èâÉÿÿèí
  0000000010007660: E0 FF FF 48 89 45 F0 48 8B 4D F0 E8 50 D1 FF FF  àÿÿH.E?H.M?èPÑÿÿ
  0000000010007670: 48 8B 4D F0 31 D2 E8 B5 D2 FF FF B9 89 00 00 00  H.M?1?èµ?ÿÿ¹....
  0000000010007680: 48 8B 55 F8 4C 8B 45 F0 E8 A3 D9 FF FF 48 89 45  H.UøL.E?è£ÙÿÿH.E
  0000000010007690: F8 E9 DB 03 00 00 48 8B 45 10 48 83 78 28 12 75  øéÛ...H.E.H.x(.u
  00000000100076A0: 72 E8 BA F9 FF FF 48 89 45 F8 48 8B 4D F8 E8 0D  rèºùÿÿH.EøH.Møè.
  00000000100076B0: D1 FF FF B9 28 00 00 00 E8 83 C9 FF FF E8 8E E0  Ñÿÿ¹(...è.Éÿÿè.à
  00000000100076C0: FF FF 48 89 45 F0 48 8B 4D F0 31 D2 E8 5F D2 FF  ÿÿH.E?H.M?1?è_?ÿ
  00000000100076D0: FF B9 8A 00 00 00 48 8B 55 F8 4C 8B 45 F0 E8 4D  ÿ¹....H.UøL.E?èM
  00000000100076E0: D9 FF FF 48 89 45 F8 48 8B 45 F0 48 8B 40 08 48  ÙÿÿH.EøH.E?H.@.H
  00000000100076F0: 8B 00 B9 80 01 00 00 48 0F A3 C1 73 11 48 8D 8B  ..¹....H.£Ás.H..
  0000000010007700: E0 F5 FF FF BA 0D 00 00 00 E8 12 C9 FF FF E9 5E  à?ÿÿº....è.Éÿÿé^
  0000000010007710: 03 00 00 48 8B 45 10 48 83 78 28 13 75 67 E8 3D  ...H.E.H.x(.ugè=
  0000000010007720: F9 FF FF 48 89 45 F8 48 8B 4D F8 E8 90 D0 FF FF  ùÿÿH.EøH.Møè.?ÿÿ
  0000000010007730: B9 28 00 00 00 E8 06 C9 FF FF E8 21 F9 FF FF 48  ¹(...è.Éÿÿè!ùÿÿH
  0000000010007740: 89 45 F0 B9 8B 00 00 00 48 8B 55 F8 4C 8B 45 F0  .E?¹....H.UøL.E?
  0000000010007750: E8 DB D8 FF FF 48 89 45 F8 48 8B 45 F0 48 8B 40  èÛØÿÿH.EøH.E?H.@
  0000000010007760: 08 48 8B 00 B9 80 01 00 00 48 0F A3 C1 73 11 48  .H..¹....H.£Ás.H
  0000000010007770: 8D 8B 00 F6 FF FF BA 0D 00 00 00 E8 A0 C8 FF FF  ...öÿÿº....è.Èÿÿ
  0000000010007780: E9 EC 02 00 00 48 8B 45 10 48 83 78 28 14 75 79  é?...H.E.H.x(.uy
  0000000010007790: E8 CB F8 FF FF 48 89 45 F8 48 8B 4D F8 E8 1E D0  èËøÿÿH.EøH.Møè.?
  00000000100077A0: FF FF B9 28 00 00 00 E8 94 C8 FF FF E8 AF F8 FF  ÿÿ¹(...è.Èÿÿè¯øÿ
  00000000100077B0: FF 48 89 45 F0 48 8B 4D F0 E8 02 D0 FF FF B9 28  ÿH.E?H.M?è.?ÿÿ¹(
  00000000100077C0: 00 00 00 E8 78 C8 FF FF E8 93 F8 FF FF 48 89 45  ...èxÈÿÿè.øÿÿH.E
  00000000100077D0: E8 48 8B 4D E8 E8 E6 CF FF FF BE 8C 00 00 00 48  èH.MèèæÏÿÿ¾....H
  00000000100077E0: 8B 7D F8 31 C9 48 8B 55 F0 4C 8B 45 E8 E8 3E D8  .}ø1ÉH.U?L.Eèè>Ø
  00000000100077F0: FF FF 4C 8B C0 48 8B D7 48 8B CE E8 30 D8 FF FF  ÿÿL.ÀH.×H.Îè0Øÿÿ
  0000000010007800: 48 89 45 F8 E9 68 02 00 00 48 8B 45 10 48 83 78  H.Eøéh...H.E.H.x
  0000000010007810: 28 15 0F 85 F7 00 00 00 E8 33 DF FF FF 48 89 45  (...÷...è3ßÿÿH.E
  0000000010007820: F8 48 8B 4D F8 31 D2 E8 04 D1 FF FF 48 8B 45 F8  øH.Mø1?è.ÑÿÿH.Eø
  0000000010007830: 48 8B 40 08 48 8B 8B 80 FE FF FF 48 8B 09 48 3B  H.@.H...?ÿÿH..H;
  0000000010007840: C1 74 11 48 8D 8B 20 F6 FF FF BA 0C 00 00 00 E8  Át.H.. öÿÿº....è
  0000000010007850: CC C7 FF FF B9 28 00 00 00 E8 E2 C7 FF FF E8 FD  ?Çÿÿ¹(...èâÇÿÿè?
  0000000010007860: F7 FF FF 48 89 45 F0 48 8B 4D F0 48 8B 49 08 FF  ÷ÿÿH.E?H.M?H.I.ÿ
  0000000010007870: 93 68 FD FF FF 85 C0 75 11 48 8D 8B 40 F6 FF FF  .h?ÿÿ.Àu.H..@öÿÿ
  0000000010007880: BA 0B 00 00 00 E8 96 C7 FF FF BE 2A 00 00 00 48  º....è.Çÿÿ¾*...H
  0000000010007890: 8B 7D F8 41 BC 64 00 00 00 4C 8B AB 60 FD FF FF  .}øA¼d...L.«`?ÿÿ
  00000000100078A0: 4D 8B 6D 00 B9 65 00 00 00 48 8B 55 F0 45 31 C0  M.m.¹e...H.U?E1À
  00000000100078B0: E8 7B D7 FF FF 4C 8B C0 49 8B D5 49 8B CC E8 6D  è{×ÿÿL.ÀI.?I.?èm
  00000000100078C0: D7 FF FF 4C 8B C0 48 8B D7 48 8B CE E8 5F D7 FF  ×ÿÿL.ÀH.×H.Îè_×ÿ
  00000000100078D0: FF 48 89 45 F8 48 8B 83 C0 FE FF FF 48 8B 4D F8  ÿH.EøH..À?ÿÿH.Mø
  00000000100078E0: 48 8B 49 F8 48 39 41 08 75 02 EB 08 B0 02 B9 24  H.IøH9A.u.ë.°.¹$
  00000000100078F0: 5D 00 00 CC 48 8B 45 F8 48 8B 40 38 48 8B 8B 80  ]..?H.EøH.@8H...
  0000000010007900: FE FF FF 48 8B 09 48 89 48 08 E9 62 01 00 00 48  ?ÿÿH..H.H.éb...H
  0000000010007910: 8B 45 10 48 83 78 28 16 0F 85 1C 01 00 00 E8 2D  .E.H.x(.......è-
  0000000010007920: DE FF FF 48 89 45 F8 48 8B 4D F8 31 D2 E8 FE CF  ?ÿÿH.EøH.Mø1?è?Ï
  0000000010007930: FF FF 48 8B 45 F8 48 8B 40 08 48 83 38 06 74 28  ÿÿH.EøH.@.H.8.t(
  0000000010007940: 48 8B 45 F8 48 8B 40 08 48 8B 8B 80 FE FF FF 48  H.EøH.@.H...?ÿÿH
  0000000010007950: 8B 09 48 3B C1 74 11 48 8D 8B 60 F6 FF FF BA 22  ..H;Át.H..`öÿÿº"
  0000000010007960: 00 00 00 E8 B8 C6 FF FF B9 28 00 00 00 E8 CE C6  ...è¸Æÿÿ¹(...èÎÆ
  0000000010007970: FF FF E8 E9 F6 FF FF 48 89 45 F0 48 8B 4D F0 E8  ÿÿèéöÿÿH.E?H.M?è
  0000000010007980: 3C CE FF FF B9 28 00 00 00 E8 B2 C6 FF FF E8 CD  <Îÿÿ¹(...è²ÆÿÿèÍ
  0000000010007990: F6 FF FF 48 89 45 E8 48 8B 4D E8 E8 20 CE FF FF  öÿÿH.EèH.Mèè Îÿÿ
  00000000100079A0: BE 2A 00 00 00 48 8B 7D F8 41 BC 64 00 00 00 4C  ¾*...H.}øA¼d...L
  00000000100079B0: 8B AB 58 FD FF FF 4D 8B 6D 00 41 BE 65 00 00 00  .«X?ÿÿM.m.A¾e...
  00000000100079C0: 4C 8B 7D F0 B9 65 00 00 00 48 8B 55 E8 45 31 C0  L.}?¹e...H.UèE1À
  00000000100079D0: E8 5B D6 FF FF 4C 8B C0 49 8B D7 49 8B CE E8 4D  è[ÖÿÿL.ÀI.×I.ÎèM
  00000000100079E0: D6 FF FF 4C 8B C0 49 8B D5 49 8B CC E8 3F D6 FF  ÖÿÿL.ÀI.?I.?è?Öÿ
  00000000100079F0: FF 4C 8B C0 48 8B D7 48 8B CE E8 31 D6 FF FF 48  ÿL.ÀH.×H.Îè1ÖÿÿH
  0000000010007A00: 89 45 F8 48 8B 83 C0 FE FF FF 48 8B 4D F8 48 8B  .EøH..À?ÿÿH.MøH.
  0000000010007A10: 49 F8 48 39 41 08 75 02 EB 08 B0 02 B9 F1 5E 00  IøH9A.u.ë.°.¹ñ^.
  0000000010007A20: 00 CC 48 8B 45 F8 48 8B 40 38 48 8B 8B 80 FE FF  .?H.EøH.@8H...?ÿ
  0000000010007A30: FF 48 8B 09 48 89 48 08 EB 37 48 8B 45 10 48 81  ÿH..H.H.ë7H.E.H.
  0000000010007A40: 78 28 8D 00 00 00 75 18 48 8B 4D 10 48 8B 49 28  x(....u.H.M.H.I(
  0000000010007A50: 31 D2 45 31 C0 E8 D6 D5 FF FF 48 89 45 F8 EB 11  1?E1ÀèÖ?ÿÿH.Eøë.
  0000000010007A60: 48 8D 8B B0 F6 FF FF BA 0C 00 00 00 E8 AF C5 FF  H..°öÿÿº....è¯Åÿ
  0000000010007A70: FF B9 2C 00 00 00 E8 C5 C5 FF FF 48 8B 45 F8 48  ÿ¹,...èÅÅÿÿH.EøH
  0000000010007A80: 8B 75 B0 48 8B 7D B8 4C 8B 65 C0 4C 8B 6D C8 4C  .u°H.}¸L.eÀL.mÈL
  0000000010007A90: 8B 75 D0 4C 8B 7D D8 C9 C3 90 90 90 90 90 90 90  .u?L.}ØÉ?.......
  0000000010007AA0: 55 48 8B EC 48 83 EC 40 48 89 75 E0 48 89 4D 10  UH.?H.?@H.uàH.M.
  0000000010007AB0: 48 C7 45 F8 00 00 00 00 48 C7 45 F0 00 00 00 00  HÇEø....HÇE?....
  0000000010007AC0: 48 C7 45 E8 00 00 00 00 E8 33 C5 FF FF E8 8E F5  HÇEè....è3Åÿÿè.?
  0000000010007AD0: FF FF 48 89 45 F8 48 8B 4D F8 E8 51 CD FF FF B9  ÿÿH.EøH.MøèQÍÿÿ¹
  0000000010007AE0: 2F 00 00 00 E8 57 C5 FF FF BE 2F 00 00 00 48 8B  /...èWÅÿÿ¾/...H.
  0000000010007AF0: 83 D0 DF FF FF FF D0 45 31 C0 48 8B D0 48 8B CE  .?ßÿÿÿ?E1ÀH.?H.Î
  0000000010007B00: E8 2B D5 FF FF 48 89 45 E8 B9 20 00 00 00 48 8B  è+?ÿÿH.Eè¹ ...H.
  0000000010007B10: 55 F8 4C 8B 45 E8 E8 15 D5 FF FF 48 89 45 F0 48  UøL.Eèè.?ÿÿH.E?H
  0000000010007B20: 83 BB F8 DF FF FF 38 75 17 48 8B 75 E8 48 8B 4D  .»øßÿÿ8u.H.uèH.M
  0000000010007B30: 10 48 83 C1 01 E8 66 FF FF FF 48 89 46 38 EB 2C  .H.Á.èfÿÿÿH.F8ë,
  0000000010007B40: 48 83 BB F8 DF FF FF 37 75 18 E8 B1 C4 FF FF 48  H.»øßÿÿ7u.è±ÄÿÿH
  0000000010007B50: 8B 75 E8 48 8B 83 D0 DF FF FF FF D0 48 89 46 38  .uèH..?ßÿÿÿ?H.F8
  0000000010007B60: EB 0A 48 8B 45 E8 31 C9 48 89 48 38 48 83 7D 10  ë.H.Eè1ÉH.H8H.}.
  0000000010007B70: 00 75 0A B9 35 00 00 00 E8 C3 C4 FF FF 48 8B 45  .u.¹5...è?ÄÿÿH.E
  0000000010007B80: F0 48 8B 75 E0 C9 C3 90 90 90 90 90 90 90 90 90  ?H.uàÉ?.........
  0000000010007B90: 55 48 8B EC 48 83 EC 40 48 89 75 E0 48 89 4D 10  UH.?H.?@H.uàH.M.
  0000000010007BA0: 48 C7 45 F8 00 00 00 00 48 C7 45 F0 00 00 00 00  HÇEø....HÇE?....
  0000000010007BB0: 48 C7 45 E8 00 00 00 00 E8 43 C4 FF FF E8 9E F4  HÇEè....èCÄÿÿè.ô
  0000000010007BC0: FF FF 48 89 45 F8 48 8B 4D F8 E8 61 CC FF FF B9  ÿÿH.EøH.Møèa?ÿÿ¹
  0000000010007BD0: 31 00 00 00 E8 67 C4 FF FF BE 31 00 00 00 48 8B  1...ègÄÿÿ¾1...H.
  0000000010007BE0: 83 D0 DF FF FF FF D0 45 31 C0 48 8B D0 48 8B CE  .?ßÿÿÿ?E1ÀH.?H.Î
  0000000010007BF0: E8 3B D4 FF FF 48 89 45 E8 B9 22 00 00 00 48 8B  è;ÔÿÿH.Eè¹"...H.
  0000000010007C00: 55 F8 4C 8B 45 E8 E8 25 D4 FF FF 48 89 45 F0 48  UøL.Eèè%ÔÿÿH.E?H
  0000000010007C10: 83 BB F8 DF FF FF 38 75 17 48 8B 75 E8 48 8B 4D  .»øßÿÿ8u.H.uèH.M
  0000000010007C20: 10 48 83 C1 01 E8 66 FF FF FF 48 89 46 38 EB 0A  .H.Á.èfÿÿÿH.F8ë.
  0000000010007C30: 48 8B 45 E8 31 C9 48 89 48 38 48 83 7D 10 00 75  H.Eè1ÉH.H8H.}..u
  0000000010007C40: 0A B9 35 00 00 00 E8 F5 C3 FF FF 48 8B 45 F0 48  .¹5...è??ÿÿH.E?H
  0000000010007C50: 8B 75 E0 C9 C3 90 90 90 90 90 90 90 90 90 90 90  .uàÉ?...........
  0000000010007C60: 55 48 8B EC 48 83 EC 50 48 89 75 D0 48 C7 45 F8  UH.?H.?PH.u?HÇEø
  0000000010007C70: 00 00 00 00 48 C7 45 F0 00 00 00 00 48 C7 45 E8  ....HÇE?....HÇEè
  0000000010007C80: 00 00 00 00 48 C7 45 E0 00 00 00 00 48 C7 45 D8  ....HÇEà....HÇEØ
  0000000010007C90: 00 00 00 00 B9 25 00 00 00 31 D2 45 31 C0 E8 8D  ....¹%...1?E1Àè.
  0000000010007CA0: D3 FF FF 48 89 45 F0 E8 54 C3 FF FF 48 83 BB F8  ÓÿÿH.E?èT?ÿÿH.»ø
  0000000010007CB0: DF FF FF 1F 75 10 E8 15 D4 FF FF 48 89 45 F8 E8  ßÿÿ.u.è.ÔÿÿH.Eøè
  0000000010007CC0: 3C C3 FF FF EB 0A B9 1F 00 00 00 E8 50 C5 FF FF  <?ÿÿë.¹....èPÅÿÿ
  0000000010007CD0: 48 83 7D F8 00 74 14 48 8B 4D F8 E8 10 CB FF FF  H.}ø.t.H.Møè.Ëÿÿ
  0000000010007CE0: 48 8B 4D F8 31 D2 E8 45 CC FF FF 31 C9 48 8B 55  H.Mø1?èE?ÿÿ1ÉH.U
  0000000010007CF0: F8 45 31 C0 E8 37 D3 FF FF 48 89 45 E8 48 8B 45  øE1Àè7ÓÿÿH.EèH.E
  0000000010007D00: F0 48 8B 4D E8 48 89 48 30 B9 2A 00 00 00 E8 2D  ?H.MèH.H0¹*...è-
  0000000010007D10: C3 FF FF E8 48 F3 FF FF 48 89 45 F8 48 8B 4D F8  ?ÿÿèHóÿÿH.EøH.Mø
  0000000010007D20: E8 CB CA FF FF 31 C9 48 8B 55 F8 45 31 C0 E8 FD  èËÊÿÿ1ÉH.UøE1Àè?
  0000000010007D30: D2 FF FF 48 89 45 E0 48 8B 45 E8 48 8B 4D E0 48  ?ÿÿH.EàH.EèH.MàH
  0000000010007D40: 89 48 38 B9 32 00 00 00 E8 F3 C2 FF FF E8 0E F3  .H8¹2...èóÂÿÿè.ó
  0000000010007D50: FF FF 48 89 45 F8 48 8B 4D F8 E8 91 CA FF FF 31  ÿÿH.EøH.Møè.Êÿÿ1
  0000000010007D60: C9 48 8B 55 F8 45 31 C0 E8 C3 D2 FF FF 48 89 45  ÉH.UøE1Àè??ÿÿH.E
  0000000010007D70: D8 48 8B 45 E0 48 8B 4D D8 48 89 48 38 48 83 BB  ØH.EàH.MØH.H8H.»
  0000000010007D80: F8 DF FF FF 33 75 30 E8 74 C2 FF FF E8 6F F5 FF  øßÿÿ3u0ètÂÿÿèo?ÿ
  0000000010007D90: FF 48 89 45 F8 48 8B 4D F8 E8 22 CA FF FF 48 8B  ÿH.EøH.Møè"ÊÿÿH.
  0000000010007DA0: 75 D8 B9 33 00 00 00 48 8B 55 F8 45 31 C0 E8 7D  uØ¹3...H.UøE1Àè}
  0000000010007DB0: D2 FF FF 48 89 46 38 B9 31 00 00 00 E8 7F C2 FF  ?ÿÿH.F8¹1...è.Âÿ
  0000000010007DC0: FF 48 8B 75 F0 48 8B 83 D0 DF FF FF FF D0 48 89  ÿH.u?H..?ßÿÿÿ?H.
  0000000010007DD0: 46 38 B9 35 00 00 00 E8 64 C2 FF FF 48 8B 45 F0  F8¹5...èdÂÿÿH.E?
  0000000010007DE0: 48 8B 75 D0 C9 C3 90 90 90 90 90 90 90 90 90 90  H.u?É?..........
  0000000010007DF0: 55 48 8B EC 48 83 EC 60 48 89 75 C0 48 89 7D C8  UH.?H.?`H.uÀH.}È
  0000000010007E00: 4C 89 65 D0 48 89 4D 10 48 C7 45 F8 00 00 00 00  L.e?H.M.HÇEø....
  0000000010007E10: 48 C7 45 F0 00 00 00 00 48 C7 45 E8 00 00 00 00  HÇE?....HÇEè....
  0000000010007E20: B9 36 00 00 00 31 D2 45 31 C0 E8 01 D2 FF FF 48  ¹6...1?E1Àè.?ÿÿH
  0000000010007E30: 89 45 F8 E8 18 D4 FF FF 48 89 45 F0 48 8B 45 10  .Eøè.ÔÿÿH.E?H.E.
  0000000010007E40: 48 8B 40 08 48 89 45 E8 48 8B 45 10 48 8B 40 08  H.@.H.EèH.E.H.@.
  0000000010007E50: 48 8B 00 48 89 45 E0 48 8B 45 F0 48 8B 40 08 48  H..H.EàH.E?H.@.H
  0000000010007E60: 8B 00 48 89 45 D8 48 83 7D F0 00 0F 84 B2 00 00  ..H.EØH.}?...²..
  0000000010007E70: 00 48 8B 45 F0 48 83 38 01 0F 85 A4 00 00 00 48  .H.E?H.8...¤...H
  0000000010007E80: 83 7D E0 05 75 1C 48 83 7D D8 05 75 15 48 8B 4D  .}à.u.H.}Ø.u.H.M
  0000000010007E90: F0 48 8B 49 08 48 8B 55 E8 E8 A2 C4 FF FF 85 C0  ?H.I.H.Uèè¢Äÿÿ.À
  0000000010007EA0: 75 23 48 83 7D E0 08 75 2E 48 83 7D D8 08 75 27  u#H.}à.u.H.}Ø.u'
  0000000010007EB0: 48 8B 4D F0 48 8B 49 08 48 8B 55 E8 E8 7F C4 FF  H.M?H.I.H.Uèè.Äÿ
  0000000010007EC0: FF 85 C0 74 12 48 8B 45 10 48 8B 4D F0 48 8B 49  ÿ.Àt.H.E.H.M?H.I
  0000000010007ED0: 08 48 89 48 08 EB 4A 48 83 7D E0 08 75 32 48 83  .H.H.ëJH.}à.u2H.
  0000000010007EE0: 7D D8 05 75 2B 48 8B 4D F0 48 8B 49 08 48 8B 55  }Ø.u+H.M?H.I.H.U
  0000000010007EF0: E8 E8 4A C4 FF FF 85 C0 74 16 48 8B 45 10 48 8B  èèJÄÿÿ.Àt.H.E.H.
  0000000010007F00: 4D F0 48 8B 49 08 48 8B 49 40 48 89 48 08 EB 11  M?H.I.H.I@H.H.ë.
  0000000010007F10: 48 8D 8B D0 F6 FF FF BA 0D 00 00 00 E8 FF C0 FF  H..?öÿÿº....èÿÀÿ
  0000000010007F20: FF EB 11 48 8D 8B F0 F6 FF FF BA 09 00 00 00 E8  ÿë.H..?öÿÿº....è
  0000000010007F30: EC C0 FF FF B9 29 00 00 00 E8 02 C1 FF FF 48 8B  ?Àÿÿ¹)...è.ÁÿÿH.
  0000000010007F40: 75 F8 31 FF 4C 8B 65 F0 48 8B 83 D0 DF FF FF FF  uø1ÿL.e?H..?ßÿÿÿ
  0000000010007F50: D0 4C 8B C0 49 8B D4 48 8B CF E8 D1 D0 FF FF 48  ?L.ÀI.ÔH.ÏèÑ?ÿÿH
  0000000010007F60: 89 46 30 48 8B 45 10 48 8B 4D E8 48 89 48 08 48  .F0H.E.H.MèH.H.H
  0000000010007F70: 8B 45 F8 48 8B 75 C0 48 8B 7D C8 4C 8B 65 D0 C9  .EøH.uÀH.}ÈL.e?É
  0000000010007F80: C3 90 90 90 90 90 90 90 90 90 90 90 90 90 90 90  ?...............
  0000000010007F90: 55 48 8B EC 48 83 EC 50 48 C7 45 F8 00 00 00 00  UH.?H.?PHÇEø....
  0000000010007FA0: 48 C7 45 F0 00 00 00 00 48 C7 45 E8 00 00 00 00  HÇE?....HÇEè....
  0000000010007FB0: 48 C7 45 E0 00 00 00 00 48 C7 45 D8 00 00 00 00  HÇEà....HÇEØ....
  0000000010007FC0: B9 24 00 00 00 31 D2 45 31 C0 E8 61 D0 FF FF 48  ¹$...1?E1Àèa?ÿÿH
  0000000010007FD0: 89 45 E8 E8 28 C0 FF FF E8 83 F0 FF FF 48 89 45  .Eèè(Àÿÿè.?ÿÿH.E
  0000000010007FE0: F8 48 8B 45 E8 48 8B 4D F8 48 89 48 30 48 8B 4D  øH.EèH.MøH.H0H.M
  0000000010007FF0: F8 E8 EA C8 FF FF 85 C0 74 0C 48 8B 45 F8 48 83  øèêÈÿÿ.Àt.H.EøH.
  0000000010008000: 38 03 75 02 EB 11 48 8D 8B 10 F7 FF FF BA 18 00  8.u.ë.H...÷ÿÿº..
  0000000010008010: 00 00 E8 09 C0 FF FF B9 30 00 00 00 E8 1F C0 FF  ..è.Àÿÿ¹0...è.Àÿ
  0000000010008020: FF 48 83 BB F8 DF FF FF 36 75 05 E8 D0 BF FF FF  ÿH.»øßÿÿ6u.è?¿ÿÿ
  0000000010008030: 48 83 BB F8 DF FF FF 36 74 3A 48 8B 4D F8 E8 AD  H.»øßÿÿ6t:H.Møè­
  0000000010008040: FD FF FF 48 89 45 D8 48 8B 45 E8 48 83 78 38 00  ?ÿÿH.EØH.EèH.x8.
  0000000010008050: 75 0E 48 8B 45 E8 48 8B 4D D8 48 89 48 38 EB 0C  u.H.EèH.MØH.H8ë.
  0000000010008060: 48 8B 45 E0 48 8B 4D D8 48 89 48 38 48 8B 45 D8  H.EàH.MØH.H8H.EØ
  0000000010008070: 48 89 45 E0 48 83 BB F8 DF FF FF 36 74 A3 B9 35  H.EàH.»øßÿÿ6t£¹5
  0000000010008080: 00 00 00 E8 B8 BF FF FF 48 8B 45 E8 C9 C3 90 90  ...è¸¿ÿÿH.EèÉ?..
  0000000010008090: 55 48 8B EC 48 83 EC 60 48 89 75 C0 48 C7 45 F8  UH.?H.?`H.uÀHÇEø
  00000000100080A0: 00 00 00 00 48 C7 45 F0 00 00 00 00 48 C7 45 E8  ....HÇE?....HÇEè
  00000000100080B0: 00 00 00 00 48 C7 45 E0 00 00 00 00 48 C7 45 D8  ....HÇEà....HÇEØ
  00000000100080C0: 00 00 00 00 48 C7 45 D0 00 00 00 00 B9 34 00 00  ....HÇE?....¹4..
  00000000100080D0: 00 31 D2 45 31 C0 E8 55 CF FF FF 48 89 45 E8 48  .1?E1ÀèUÏÿÿH.EèH
  00000000100080E0: 8B 45 E8 48 89 45 E0 48 83 BB F8 DF FF FF 1F 74  .EèH.EàH.»øßÿÿ.t
  00000000100080F0: 1E 48 83 BB F8 DF FF FF 34 7D 14 48 83 BB F8 DF  .H.»øßÿÿ4}.H.»øß
  0000000010008100: FF FF 20 7C 0C 48 83 BB F8 DF FF FF 25 7F 02 EB  ÿÿ |.H.»øßÿÿ%..ë
  0000000010008110: 2A 48 8D 8B 40 F7 FF FF BA 0B 00 00 00 E8 FE BE  *H..@÷ÿÿº....è?¾
  0000000010008120: FF FF E8 D9 BE FF FF 48 83 BB F8 DF FF FF 1F 74  ÿÿèÙ¾ÿÿH.»øßÿÿ.t
  0000000010008130: 0A 48 83 BB F8 DF FF FF 34 7C E7 48 83 BB F8 DF  .H.»øßÿÿ4|çH.»øß
  0000000010008140: FF FF 1F 0F 85 85 01 00 00 E8 02 D6 FF FF 48 89  ÿÿ.......è.ÖÿÿH.
  0000000010008150: 45 F8 48 83 BB F8 DF FF FF 2A 0F 85 AD 00 00 00  EøH.»øßÿÿ*..­...
  0000000010008160: 48 8B 4D F8 31 D2 E8 C5 C7 FF FF E8 90 BE FF FF  H.Mø1?èÅÇÿÿè.¾ÿÿ
  0000000010008170: E8 EB EE FF FF 48 89 45 F0 48 8B 4D F8 48 8B 49  èëîÿÿH.E?H.MøH.I
  0000000010008180: 08 48 8B 55 F0 48 8B 52 08 E8 E2 C4 FF FF 85 C0  .H.U?H.R.èâÄÿÿ.À
  0000000010008190: 75 3C 48 8B 45 F8 48 8B 40 08 48 83 38 07 75 30  u<H.EøH.@.H.8.u0
  00000000100081A0: 48 8B 4D F0 48 8B 49 08 E8 B3 C2 FF FF 85 C0 74  H.M?H.I.è³Âÿÿ.Àt
  00000000100081B0: 1F 48 8B 45 F0 48 8B 40 08 48 8B 40 40 48 8B 4D  .H.E?H.@.H.@@H.M
  00000000100081C0: F8 48 8B 49 08 48 8B 49 40 48 3B C1 75 02 EB 11  øH.I.H.I@H;Áu.ë.
  00000000100081D0: 48 8D 8B 60 F7 FF FF BA 13 00 00 00 E8 3F BE FF  H..`÷ÿÿº....è?¾ÿ
  00000000100081E0: FF 48 8D 4D F8 48 8D 55 F0 E8 D2 CA FF FF 48 8B  ÿH.MøH.U?è?ÊÿÿH.
  00000000100081F0: 75 E0 B9 2A 00 00 00 48 8B 55 F8 4C 8B 45 F0 E8  uà¹*...H.UøL.E?è
  0000000010008200: 2C CE FF FF 48 89 46 30 E9 BC 00 00 00 48 83 BB  ,ÎÿÿH.F0é¼...H.»
  0000000010008210: F8 DF FF FF 09 75 24 48 8D 8B 90 F7 FF FF BA 0D  øßÿÿ.u$H...÷ÿÿº.
  0000000010008220: 00 00 00 E8 F8 BD FF FF E8 D3 BD FF FF E8 2E EE  ...èø½ÿÿèÓ½ÿÿè.î
  0000000010008230: FF FF 48 89 45 F0 E9 8E 00 00 00 48 8B 45 F8 48  ÿÿH.E?é....H.EøH
  0000000010008240: 8B 40 08 48 83 38 06 75 33 48 8B 45 F8 48 8B 40  .@.H.8.u3H.EøH.@
  0000000010008250: 08 48 83 78 40 00 74 11 48 8D 8B B0 F7 FF FF BA  .H.x@.t.H..°÷ÿÿº
  0000000010008260: 15 00 00 00 E8 B7 BD FF FF 48 8B 75 E0 48 8B 4D  ....è·½ÿÿH.uàH.M
  0000000010008270: F8 E8 4A D3 FF FF 48 89 46 30 EB 4D 48 8B 45 F8  øèJÓÿÿH.F0ëMH.Eø
  0000000010008280: 48 83 38 07 75 32 48 8B 75 E0 48 8B 83 00 FE FF  H.8.u2H.uàH...?ÿ
  0000000010008290: FF 48 8B 4D F8 48 8B 49 F8 48 39 41 08 75 02 EB  ÿH.MøH.IøH9A.u.ë
  00000000100082A0: 08 B0 02 B9 D4 6E 00 00 CC 48 8B 4D F8 E8 AE F0  .°.¹Ôn..?H.Møè®?
  00000000100082B0: FF FF 48 89 46 30 EB 11 48 8D 8B E0 F7 FF FF BA  ÿÿH.F0ë.H..à÷ÿÿº
  00000000100082C0: 12 00 00 00 E8 57 BD FF FF E9 D1 00 00 00 48 83  ....èW½ÿÿéÑ...H.
  00000000100082D0: BB F8 DF FF FF 20 75 14 48 8B 75 E0 31 C9 E8 BD  »øßÿÿ u.H.uà1Éè½
  00000000100082E0: F7 FF FF 48 89 46 30 E9 B3 00 00 00 48 83 BB F8  ÷ÿÿH.F0é³...H.»ø
  00000000100082F0: DF FF FF 22 75 14 48 8B 75 E0 31 C9 E8 8F F8 FF  ßÿÿ"u.H.uà1Éè.øÿ
  0000000010008300: FF 48 89 46 30 E9 95 00 00 00 48 83 BB F8 DF FF  ÿH.F0é....H.»øßÿ
  0000000010008310: FF 23 75 5B E8 E7 BC FF FF BE 23 00 00 00 48 8B  ÿ#u[èç¼ÿÿ¾#...H.
  0000000010008320: 83 D0 DF FF FF FF D0 45 31 C0 48 8B D0 48 8B CE  .?ßÿÿÿ?E1ÀH.?H.Î
  0000000010008330: E8 FB CC FF FF 48 89 45 D0 B9 39 00 00 00 E8 FD  èû?ÿÿH.E?¹9...è?
  0000000010008340: BC FF FF E8 18 ED FF FF 48 89 45 F8 48 8B 4D F8  ¼ÿÿè.íÿÿH.EøH.Mø
  0000000010008350: E8 DB C4 FF FF 48 8B 45 D0 48 8B 4D F8 48 89 48  èÛÄÿÿH.E?H.MøH.H
  0000000010008360: 38 48 8B 45 E0 48 8B 4D D0 48 89 48 30 EB 30 48  8H.EàH.M?H.H0ë0H
  0000000010008370: 83 BB F8 DF FF FF 25 75 0F 48 8B 75 E0 E8 DE F8  .»øßÿÿ%u.H.uàè?ø
  0000000010008380: FF FF 48 89 46 30 EB 17 48 83 BB F8 DF FF FF 24  ÿÿH.F0ë.H.»øßÿÿ$
  0000000010008390: 75 0D 48 8B 75 E0 E8 F5 FB FF FF 48 89 46 30 48  u.H.uàè?ûÿÿH.F0H
  00000000100083A0: 83 BB F8 DF FF FF 34 7F 31 B9 34 00 00 00 E8 8D  .»øßÿÿ4.1¹4...è.
  00000000100083B0: BC FF FF B9 34 00 00 00 31 D2 45 31 C0 E8 6E CC  ¼ÿÿ¹4...1?E1Àèn?
  00000000100083C0: FF FF 48 89 45 D8 48 8B 45 E0 48 8B 4D D8 48 89  ÿÿH.EØH.EàH.MØH.
  00000000100083D0: 48 38 48 8B 45 D8 48 89 45 E0 48 83 BB F8 DF FF  H8H.EØH.EàH.»øßÿ
  00000000100083E0: FF 34 0F 8E FF FC FF FF 48 8B 45 E8 48 8B 75 C0  ÿ4..ÿüÿÿH.EèH.uÀ
  00000000100083F0: C9 C3 90 90 90 90 90 90 90 90 90 90 90 90 90 90  É?..............
  0000000010008400: 55 48 8B EC 48 83 EC 20 48 89 4D 10 48 83 BB F8  UH.?H.? H.M.H.»ø
  0000000010008410: DF FF FF 01 75 33 48 8B 83 20 FE FF FF 48 83 38  ßÿÿ.u3H.. ?ÿÿH.8
  0000000010008420: 00 75 10 48 83 7D 10 00 74 07 48 8B 45 10 C6 00  .u.H.}..t.H.E.Æ.
  0000000010008430: 01 EB 11 48 8D 8B 10 F8 FF FF BA 09 00 00 00 E8  .ë.H...øÿÿº....è
  0000000010008440: DC BB FF FF E8 B7 BB FF FF C9 C3 90 90 90 90 90  Ü»ÿÿè·»ÿÿÉ?.....
  0000000010008450: 55 48 8B EC 48 83 EC 40 48 89 75 E0 48 C7 45 F8  UH.?H.?@H.uàHÇEø
  0000000010008460: 00 00 00 00 48 C7 45 F0 00 00 00 00 48 8B 83 80  ....HÇE?....H...
  0000000010008470: FE FF FF 48 8B 00 48 89 45 F0 48 83 BB F8 DF FF  ?ÿÿH..H.E?H.»øßÿ
  0000000010008480: FF 1F 75 3B E8 C7 CD FF FF 48 89 45 F8 48 83 7D  ÿ.u;èÇÍÿÿH.EøH.}
  0000000010008490: F8 00 74 18 48 8B 45 F8 48 83 38 01 75 0E 48 8B  ø.t.H.EøH.8.u.H.
  00000000100084A0: 45 F8 48 8B 40 08 48 89 45 F0 EB 11 48 8D 8B 30  EøH.@.H.E?ë.H..0
  00000000100084B0: F8 FF FF BA 09 00 00 00 E8 63 BB FF FF EB 51 48  øÿÿº....èc»ÿÿëQH
  00000000100084C0: 83 BB F8 DF FF FF 3C 75 47 31 C9 48 83 C1 FF FF  .»øßÿÿ<uG1ÉH.Áÿÿ
  00000000100084D0: 93 50 FD FF FF 48 89 45 F0 E8 22 BB FF FF B9 30  .P?ÿÿH.E?è"»ÿÿ¹0
  00000000100084E0: 00 00 00 E8 58 BB FF FF 48 83 BB F8 DF FF FF 3C  ...èX»ÿÿH.»øßÿÿ<
  00000000100084F0: 75 11 48 8D 8B 50 F8 FF FF BA 23 00 00 00 E8 1D  u.H..Pøÿÿº#...è.
  0000000010008500: BB FF FF 48 8B 75 F0 E8 44 FF FF FF 48 89 46 40  »ÿÿH.u?èDÿÿÿH.F@
  0000000010008510: 48 8B 45 F0 48 8B 75 E0 C9 C3 90 90 90 90 90 90  H.E?H.uàÉ?......
  0000000010008520: 55 48 8B EC 48 83 EC 50 48 89 75 D0 48 89 4D 10  UH.?H.?PH.u?H.M.
  0000000010008530: 48 C7 45 F0 00 00 00 00 48 C7 45 E8 00 00 00 00  HÇE?....HÇEè....
  0000000010008540: 48 C7 45 E0 00 00 00 00 48 83 BB F8 DF FF FF 48  HÇEà....H.»øßÿÿH
  0000000010008550: 75 0B C6 45 FE 01 E8 A5 BA FF FF EB 05 31 C0 88  u.ÆE?.è¥ºÿÿë.1À.
  0000000010008560: 45 FE 48 83 BB F8 DF FF FF 1F 75 69 48 8B 8B 28  E?H.»øßÿÿ.uiH..(
  0000000010008570: FE FF FF E8 08 C9 FF FF 48 89 45 F0 E8 7F BA FF  ?ÿÿè.ÉÿÿH.E?è.ºÿ
  0000000010008580: FF 48 83 BB F8 DF FF FF 28 75 48 E8 70 BA FF FF  ÿH.»øßÿÿ(uHèpºÿÿ
  0000000010008590: 48 83 BB F8 DF FF FF 1F 75 26 48 8B 8B 28 FE FF  H.»øßÿÿ.u&H..(?ÿ
  00000000100085A0: FF E8 DA C8 FF FF 48 89 45 E8 E8 51 BA FF FF 48  ÿèÚÈÿÿH.EèèQºÿÿH
  00000000100085B0: 83 7D F0 00 75 08 48 8B 45 E8 48 89 45 F0 EB 11  .}?.u.H.EèH.E?ë.
  00000000100085C0: 48 8D 8B A0 F8 FF FF BA 09 00 00 00 E8 4F BA FF  H...øÿÿº....èOºÿ
  00000000100085D0: FF EB AE EB 11 48 8D 8B C0 F8 FF FF BA 0B 00 00  ÿë®ë.H..Àøÿÿº...
  00000000100085E0: 00 E8 3A BA FF FF B9 29 00 00 00 E8 50 BA FF FF  .è:ºÿÿ¹)...èPºÿÿ
  00000000100085F0: E8 5B FE FF FF 48 89 45 E0 48 8B 45 F0 48 89 45  è[?ÿÿH.EàH.E?H.E
  0000000010008600: E8 48 83 7D E8 00 74 42 48 8B 75 E8 48 8B 4D 10  èH.}è.tBH.uèH.M.
  0000000010008610: 48 8B 55 E0 44 0F B6 45 FE FF 93 48 FD FF FF 48  H.UàD.¶E?ÿ.H?ÿÿH
  0000000010008620: 89 86 88 00 00 00 48 8B 45 E8 48 8B 80 88 00 00  ......H.EèH.....
  0000000010008630: 00 48 8B 4D E8 48 89 48 10 48 8B 45 E8 48 8B 80  .H.MèH.H.H.EèH..
  0000000010008640: 90 00 00 00 48 89 45 E8 EB B7 48 8B 75 D0 C9 C3  ....H.Eèë·H.u?É?
  0000000010008650: 55 48 8B EC 48 83 EC 30 48 89 4D 10 48 C7 45 F8  UH.?H.?0H.M.HÇEø
  0000000010008660: 00 00 00 00 48 C7 45 F0 00 00 00 00 E8 8F B9 FF  ....HÇE?....è.¹ÿ
  0000000010008670: FF 48 83 BB F8 DF FF FF 1F 74 0A 48 83 BB F8 DF  ÿH.»øßÿÿ.t.H.»øß
  0000000010008680: FF FF 48 75 6B FF 93 40 FD FF FF 48 8B 4D 10 E8  ÿÿHukÿ.@?ÿÿH.M.è
  0000000010008690: 8C FE FF FF 48 83 BB F8 DF FF FF 34 75 37 E8 5D  .?ÿÿH.»øßÿÿ4u7è]
  00000000100086A0: B9 FF FF 48 83 BB F8 DF FF FF 1F 74 0A 48 83 BB  ¹ÿÿH.»øßÿÿ.t.H.»
  00000000100086B0: F8 DF FF FF 48 75 0B 48 8B 4D 10 E8 60 FE FF FF  øßÿÿHu.H.M.è`?ÿÿ
  00000000100086C0: EB 11 48 8D 8B E0 F8 FF FF BA 0F 00 00 00 E8 4D  ë.H..àøÿÿº....èM
  00000000100086D0: B9 FF FF EB BF 48 8B 45 10 48 8B 8B 40 FE FF FF  ¹ÿÿë¿H.E.H..@?ÿÿ
  00000000100086E0: 48 8B 09 48 8B 09 48 89 48 48 FF 93 38 FD FF FF  H..H..H.HHÿ.8?ÿÿ
  00000000100086F0: B9 2C 00 00 00 E8 46 B9 FF FF 48 83 BB F8 DF FF  ¹,...èF¹ÿÿH.»øßÿ
  0000000010008700: FF 29 0F 85 81 00 00 00 E8 F3 B8 FF FF 48 83 BB  ÿ)......èó¸ÿÿH.»
  0000000010008710: F8 DF FF FF 1F 75 0B E8 34 CB FF FF 48 89 45 F0  øßÿÿ.u.è4ËÿÿH.E?
  0000000010008720: EB 0A B9 1F 00 00 00 E8 F4 BA FF FF 48 83 7D F0  ë.¹....èôºÿÿH.}?
  0000000010008730: 00 74 45 48 8B 45 F0 48 83 38 01 75 3B 48 8B 45  .tEH.E?H.8.u;H.E
  0000000010008740: F0 48 8B 40 08 48 8B 00 B9 80 01 00 00 48 0F A3  ?H.@.H..¹....H.£
  0000000010008750: C1 72 12 48 8B 45 10 48 8B 4D F0 48 8B 49 08 48  Ár.H.E.H.M?H.I.H
  0000000010008760: 89 48 40 EB 11 48 8D 8B 00 F9 FF FF BA 0D 00 00  .H@ë.H...ùÿÿº...
  0000000010008770: 00 E8 AA B8 FF FF EB 11 48 8D 8B 20 F9 FF FF BA  .èª¸ÿÿë.H.. ùÿÿº
  0000000010008780: 09 00 00 00 E8 97 B8 FF FF C9 C3 90 90 90 90 90  ....è.¸ÿÿÉ?.....
  0000000010008790: 55 48 8B EC 48 83 EC 50 48 89 75 D0 48 89 7D D8  UH.?H.?PH.u?H.}Ø
  00000000100087A0: 48 89 4D 10 48 C7 45 F8 00 00 00 00 48 C7 45 F0  H.M.HÇEø....HÇE?
  00000000100087B0: 00 00 00 00 48 C7 45 E8 00 00 00 00 48 C7 45 E0  ....HÇEè....HÇEà
  00000000100087C0: 00 00 00 00 FF 93 30 FD FF FF 48 89 45 F8 E8 2D  ....ÿ.0?ÿÿH.Eøè-
  00000000100087D0: B8 FF FF B9 32 00 00 00 E8 63 B8 FF FF 48 83 7D  ¸ÿÿ¹2...èc¸ÿÿH.}
  00000000100087E0: 10 00 74 0C 48 8B 45 10 48 8B 4D F8 48 89 48 08  ..t.H.E.H.MøH.H.
  00000000100087F0: 48 83 BB F8 DF FF FF 1F 0F 85 5C 01 00 00 48 8B  H.»øßÿÿ...\...H.
  0000000010008800: 83 28 FD FF FF 48 8B 00 48 8B 00 48 89 45 F0 48  .(?ÿÿH..H..H.E?H
  0000000010008810: 83 7D F0 00 74 53 48 8B 75 F0 48 8D 76 02 48 8B  .}?.tSH.u?H.v.H.
  0000000010008820: BB 28 FE FF FF 31 C0 48 83 C0 01 48 83 F8 40 77  »(?ÿÿ1ÀH.À.H.ø@w
  0000000010008830: 02 EB 08 B0 07 B9 1C 7B 00 00 CC 48 83 F8 40 77  .ë.°.¹.{..?H.ø@w
  0000000010008840: 02 EB 08 B0 07 B9 1C 7B 00 00 CC 66 A7 75 07 66  .ë.°.¹.{..?f§u.f
  0000000010008850: 83 7E FE 00 75 D1 74 11 48 8B 45 F0 48 8B 80 90  .~?.uÑt.H.E?H...
  0000000010008860: 00 00 00 48 89 45 F0 EB A6 48 83 7D F0 00 74 4F  ...H.E?ë¦H.}?.tO
  0000000010008870: 48 8B 45 F0 48 8B 80 88 00 00 00 48 89 45 E8 48  H.E?H......H.EèH
  0000000010008880: 8B 45 E8 48 83 38 01 75 20 48 8B 45 E8 48 8B 40  .EèH.8.u H.EèH.@
  0000000010008890: 08 48 83 38 08 75 12 48 8B 45 F8 48 8B 4D E8 48  .H.8.u.H.EøH.MèH
  00000000100088A0: 8B 49 08 48 89 48 40 EB 11 48 8D 8B 40 F9 FF FF  .I.H.H@ë.H..@ùÿÿ
  00000000100088B0: BA 10 00 00 00 E8 66 B7 FF FF E9 94 00 00 00 48  º....èf·ÿÿé....H
  00000000100088C0: 8B 4B C0 BA 08 00 00 00 41 B8 A0 00 00 00 FF 53  .KÀº....A¸....ÿS
  00000000100088D0: E8 48 83 C0 10 48 8D 8B 70 EE FF FF 48 89 48 F8  èH.À.H..pîÿÿH.Hø
  00000000100088E0: 48 89 45 E0 48 8B 45 E0 48 8B 4D F8 48 89 88 80  H.EàH.EàH.MøH...
  00000000100088F0: 00 00 00 48 8B 7D E0 48 8B B3 28 FE FF FF 31 C9  ...H.}àH.³(?ÿÿ1É
  0000000010008900: 31 C0 48 83 C1 01 BA 40 00 00 00 48 3B CA 77 02  1ÀH.Á.º@...H;Êw.
  0000000010008910: EB 08 B0 07 B9 19 7C 00 00 CC BA 40 00 00 00 48  ë.°.¹.|..?º@...H
  0000000010008920: 3B CA 77 02 EB 08 B0 07 B9 19 7C 00 00 CC 66 AD  ;Êw.ë.°.¹.|..?f­
  0000000010008930: 66 AB 85 C0 75 CC 48 8B 45 E0 48 8B 8B F0 DF FF  f«.Àu?H.EàH..?ßÿ
  0000000010008940: FF 48 89 88 88 00 00 00 48 8B 45 E0 48 89 83 F0  ÿH......H.EàH..?
  0000000010008950: DF FF FF E8 A8 B6 FF FF EB 2E 48 83 BB F8 DF FF  ßÿÿè¨¶ÿÿë.H.»øßÿ
  0000000010008960: FF 3D 75 13 48 8B 75 F8 48 8B 83 E0 DF FF FF FF  ÿ=u.H.uøH..àßÿÿÿ
  0000000010008970: D0 48 89 46 40 EB 11 48 8D 8B 60 F9 FF FF BA 0B  ?H.F@ë.H..`ùÿÿº.
  0000000010008980: 00 00 00 E8 98 B6 FF FF 48 8B 4D F8 FF 93 20 FD  ...è.¶ÿÿH.Møÿ. ?
  0000000010008990: FF FF 48 8B 45 F8 48 8B 75 D0 48 8B 7D D8 C9 C3  ÿÿH.EøH.u?H.}ØÉ?
  00000000100089A0: 55 48 8B EC 48 83 EC 40 48 89 75 E0 48 89 4D 10  UH.?H.?@H.uàH.M.
  00000000100089B0: 48 C7 45 F8 00 00 00 00 48 C7 45 F0 00 00 00 00  HÇEø....HÇE?....
  00000000100089C0: 48 C7 45 E8 00 00 00 00 48 8B 8B 28 FE FF FF E8  HÇEè....H..(?ÿÿè
  00000000100089D0: AC C4 FF FF 48 89 45 F8 E8 23 B6 FF FF 48 8B 4D  ¬ÄÿÿH.Eøè#¶ÿÿH.M
  00000000100089E0: F8 E8 1A FA FF FF 48 83 BB F8 DF FF FF 28 75 67  øè.úÿÿH.»øßÿÿ(ug
  00000000100089F0: E8 0B B6 FF FF 48 83 BB F8 DF FF FF 1F 75 2F 48  è.¶ÿÿH.»øßÿÿ.u/H
  0000000010008A00: 8B 8B 28 FE FF FF E8 75 C4 FF FF 48 89 45 F0 E8  ..(?ÿÿèuÄÿÿH.E?è
  0000000010008A10: EC B5 FF FF 48 8B 4D F0 E8 E3 F9 FF FF 48 83 7D  ?µÿÿH.M?è?ùÿÿH.}
  0000000010008A20: F8 00 75 08 48 8B 45 F0 48 89 45 F8 EB 27 48 83  ø.u.H.E?H.Eøë'H.
  0000000010008A30: BB F8 DF FF FF 1F 7D 0C B9 1F 00 00 00 E8 DE B7  »øßÿÿ.}.¹....è?·
  0000000010008A40: FF FF EB 11 48 8D 8B 80 F9 FF FF BA 09 00 00 00  ÿÿë.H...ùÿÿº....
  0000000010008A50: E8 CB B5 FF FF EB 8F B9 29 00 00 00 E8 DF B5 FF  èËµÿÿë.¹)...èßµÿ
  0000000010008A60: FF 48 8B 83 E0 DF FF FF FF D0 48 89 45 E8 48 8B  ÿH..àßÿÿÿ?H.EèH.
  0000000010008A70: 45 F8 48 89 45 F0 48 83 7D F0 00 74 2A 48 8B 75  EøH.E?H.}?.t*H.u
  0000000010008A80: F0 48 8B 4D 10 48 8B 55 E8 FF 93 18 FD FF FF 48  ?H.M.H.Uèÿ..?ÿÿH
  0000000010008A90: 89 86 88 00 00 00 48 8B 45 F0 48 8B 80 90 00 00  ......H.E?H.....
  0000000010008AA0: 00 48 89 45 F0 EB CF 48 8B 75 E0 C9 C3 90 90 90  .H.E?ëÏH.uàÉ?...
  0000000010008AB0: 55 48 8B EC 48 83 EC 40 48 C7 45 F8 00 00 00 00  UH.?H.?@HÇEø....
  0000000010008AC0: 48 C7 45 F0 00 00 00 00 48 C7 45 E8 00 00 00 00  HÇE?....HÇEè....
  0000000010008AD0: 48 83 BB F8 DF FF FF 1F 0F 85 C6 00 00 00 E8 6D  H.»øßÿÿ...Æ...èm
  0000000010008AE0: C7 FF FF 48 89 45 E8 48 83 7D E8 00 0F 84 B0 00  ÇÿÿH.EèH.}è...°.
  0000000010008AF0: 00 00 48 8B 45 E8 48 83 38 01 75 1C 48 8B 45 E8  ..H.EèH.8.u.H.Eè
  0000000010008B00: 48 8B 40 08 48 83 38 08 75 0E 48 8B 45 E8 48 8B  H.@.H.8.u.H.EèH.
  0000000010008B10: 40 08 48 89 45 F8 EB 61 48 8B 45 E8 48 83 38 01  @.H.EøëaH.EèH.8.
  0000000010008B20: 75 46 48 8B 45 E8 48 8B 40 08 48 83 38 05 75 38  uFH.EèH.@.H.8.u8
  0000000010008B30: 48 8B 45 E8 48 8B 40 08 48 89 45 F0 48 8B 45 F0  H.EèH.@.H.E?H.E?
  0000000010008B40: 48 83 78 40 00 74 0E 48 8B 45 F0 48 8B 40 40 48  H.x@.t.H.E?H.@@H
  0000000010008B50: 89 45 F8 EB 11 48 8D 8B A0 F9 FF FF BA 1D 00 00  .Eøë.H...ùÿÿº...
  0000000010008B60: 00 E8 BA B4 FF FF EB 11 48 8D 8B E0 F9 FF FF BA  .èº´ÿÿë.H..àùÿÿº
  0000000010008B70: 10 00 00 00 E8 A7 B4 FF FF 48 83 7D F8 00 74 22  ....è§´ÿÿH.}ø.t"
  0000000010008B80: 48 8B 45 F8 48 83 78 20 07 7C 17 48 8D 8B 00 FA  H.EøH.x .|.H...ú
  0000000010008B90: FF FF BA 1C 00 00 00 E8 84 B4 FF FF 31 C0 48 89  ÿÿº....è.´ÿÿ1ÀH.
  0000000010008BA0: 45 F8 EB 0A B9 1F 00 00 00 E8 72 B6 FF FF 48 8B  Eøë.¹....èr¶ÿÿH.
  0000000010008BB0: 45 F8 C9 C3 90 90 90 90 90 90 90 90 90 90 90 90  EøÉ?............
  0000000010008BC0: 55 48 8B EC 48 83 EC 30 48 C7 45 F8 00 00 00 00  UH.?H.?0HÇEø....
  0000000010008BD0: E8 2B E7 FF FF 48 89 45 F8 31 C0 48 89 45 F0 48  è+çÿÿH.Eø1ÀH.E?H
  0000000010008BE0: 8B 45 F8 48 8B 40 08 48 83 38 00 75 2D 48 8B 83  .EøH.@.H.8.u-H..
  0000000010008BF0: 98 FE FF FF 48 8B 4D F8 48 8B 49 F8 48 39 41 08  .?ÿÿH.MøH.IøH9A.
  0000000010008C00: 75 02 EB 08 B0 02 B9 0A 82 00 00 CC 48 8B 45 F8  u.ë.°.¹....?H.Eø
  0000000010008C10: 48 8B 40 28 48 89 45 F0 EB 11 48 8D 8B 40 FA FF  H.@(H.E?ë.H..@úÿ
  0000000010008C20: FF BA 08 00 00 00 E8 F5 B3 FF FF 48 83 7D F0 00  ÿº....è?³ÿÿH.}?.
  0000000010008C30: 7D 11 48 8D 8B 50 FA FF FF BA 15 00 00 00 E8 DD  }.H..Púÿÿº....è?
  0000000010008C40: B3 FF FF 48 8B 45 F0 C9 C3 90 90 90 90 90 90 90  ³ÿÿH.E?É?.......
  0000000010008C50: 55 48 8B EC 48 83 EC 60 48 89 75 C0 48 C7 45 F8  UH.?H.?`H.uÀHÇEø
  0000000010008C60: 00 00 00 00 48 C7 45 F0 00 00 00 00 48 C7 45 E8  ....HÇE?....HÇEè
  0000000010008C70: 00 00 00 00 48 C7 45 E0 00 00 00 00 48 C7 45 D8  ....HÇEà....HÇEØ
  0000000010008C80: 00 00 00 00 48 C7 45 D0 00 00 00 00 48 8B 83 80  ....HÇE?....H...
  0000000010008C90: FE FF FF 48 8B 00 48 89 45 F8 48 83 BB F8 DF FF  ?ÿÿH..H.EøH.»øßÿ
  0000000010008CA0: FF 1F 75 3E E8 A7 C5 FF FF 48 89 45 E0 48 83 7D  ÿ.u>è§ÅÿÿH.EàH.}
  0000000010008CB0: E0 00 74 18 48 8B 45 E0 48 83 38 01 75 0E 48 8B  à.t.H.EàH.8.u.H.
  0000000010008CC0: 45 E0 48 8B 40 08 48 89 45 F8 EB 11 48 8D 8B 80  EàH.@.H.Eøë.H...
  0000000010008CD0: FA FF FF BA 09 00 00 00 E8 43 B3 FF FF E9 D2 01  úÿÿº....èC³ÿÿé?.
  0000000010008CE0: 00 00 48 83 BB F8 DF FF FF 3C 0F 85 9F 00 00 00  ..H.»øßÿÿ<......
  0000000010008CF0: E8 0B B3 FF FF E8 C6 FE FF FF 48 89 45 C8 48 8B  è.³ÿÿèÆ?ÿÿH.EÈH.
  0000000010008D00: 4D C8 FF 93 50 FD FF FF 48 89 45 F8 48 8B 45 F8  MÈÿ.P?ÿÿH.EøH.Eø
  0000000010008D10: 48 89 45 F0 48 83 BB F8 DF FF FF 28 75 4B E8 DD  H.E?H.»øßÿÿ(uKè?
  0000000010008D20: B2 FF FF 48 83 BB F8 DF FF FF 1F 7F 29 E8 8E FE  ²ÿÿH.»øßÿÿ..)è.?
  0000000010008D30: FF FF 48 89 45 C8 48 8B 75 F0 48 8B 4D C8 FF 93  ÿÿH.EÈH.u?H.MÈÿ.
  0000000010008D40: 50 FD FF FF 48 89 46 40 48 8B 45 F0 48 8B 40 40  P?ÿÿH.F@H.E?H.@@
  0000000010008D50: 48 89 45 F0 EB 11 48 8D 8B A0 FA FF FF BA 09 00  H.E?ë.H...úÿÿº..
  0000000010008D60: 00 00 E8 B9 B2 FF FF EB AB B9 30 00 00 00 E8 CD  ..è¹²ÿÿë«¹0...èÍ
  0000000010008D70: B2 FF FF 48 8B 75 F0 E8 D4 FE FF FF 48 89 46 40  ²ÿÿH.u?èÔ?ÿÿH.F@
  0000000010008D80: 48 8B 4D F8 FF 93 10 FD FF FF E9 25 01 00 00 48  H.Møÿ..?ÿÿé%...H
  0000000010008D90: 83 BB F8 DF FF FF 3D 0F 85 C1 00 00 00 FF 93 08  .»øßÿÿ=..Á...ÿ..
  0000000010008DA0: FD FF FF 48 89 45 F8 E8 54 B2 FF FF 48 83 BB F8  ?ÿÿH.EøèT²ÿÿH.»ø
  0000000010008DB0: DF FF FF 1C 75 31 E8 45 B2 FF FF 48 8B 75 F8 E8  ßÿÿ.u1èE²ÿÿH.uøè
  0000000010008DC0: EC FC FF FF 48 89 46 40 B9 2C 00 00 00 E8 6E B2  ?üÿÿH.F@¹,...èn²
  0000000010008DD0: FF FF 48 8B 45 F8 48 83 78 40 00 74 0A 48 8B 4D  ÿÿH.EøH.x@.t.H.M
  0000000010008DE0: F8 FF 93 00 FD FF FF FF 93 40 FD FF FF 48 83 BB  øÿ..?ÿÿÿ.@?ÿÿH.»
  0000000010008DF0: F8 DF FF FF 1F 75 40 48 8B 4D F8 E8 A0 FB FF FF  øßÿÿ.u@H.Møè.ûÿÿ
  0000000010008E00: 48 83 BB F8 DF FF FF 34 75 2D E8 F1 B1 FF FF 48  H.»øßÿÿ4u-èñ±ÿÿH
  0000000010008E10: 83 BB F8 DF FF FF 1F 75 0B 48 8B 4D F8 E8 7E FB  .»øßÿÿ.u.H.Møè~û
  0000000010008E20: FF FF EB 11 48 8D 8B C0 FA FF FF BA 17 00 00 00  ÿÿë.H..Àúÿÿº....
  0000000010008E30: E8 EB B1 FF FF EB C9 48 8B 45 F8 48 8B 8B 40 FE  èë±ÿÿëÉH.EøH..@?
  0000000010008E40: FF FF 48 8B 09 48 8B 09 48 89 48 48 FF 93 38 FD  ÿÿH..H..H.HHÿ.8?
  0000000010008E50: FF FF B9 35 00 00 00 E8 E4 B1 FF FF EB 56 48 83  ÿÿ¹5...èä±ÿÿëVH.
  0000000010008E60: BB F8 DF FF FF 3E 75 0D 31 C9 E8 21 F9 FF FF 48  »øßÿÿ>u.1Éè!ùÿÿH
  0000000010008E70: 89 45 F8 EB 3F 48 83 BB F8 DF FF FF 49 75 24 E8  .Eøë?H.»øßÿÿIu$è
  0000000010008E80: 7C B1 FF FF FF 93 F8 FC FF FF 48 89 45 F8 48 83  |±ÿÿÿ.øüÿÿH.EøH.
  0000000010008E90: BB F8 DF FF FF 1C 75 09 48 8B 4D F8 E8 AF F7 FF  »øßÿÿ.u.H.Møè¯÷ÿ
  0000000010008EA0: FF EB 11 48 8D 8B F0 FA FF FF BA 09 00 00 00 E8  ÿë.H..?úÿÿº....è
  0000000010008EB0: 6C B1 FF FF 48 8B 4D F8 FF 93 20 FD FF FF 48 8B  l±ÿÿH.Møÿ. ?ÿÿH.
  0000000010008EC0: 45 F8 48 8B 75 C0 C9 C3 90 90 90 90 90 90 90 90  EøH.uÀÉ?........
  0000000010008ED0: 55 48 8B EC 48 81 EC 80 00 00 00 48 89 75 A0 48  UH.?H.?....H.u.H
  0000000010008EE0: 89 7D A8 48 89 4D 10 48 C7 45 F8 00 00 00 00 48  .}¨H.M.HÇEø....H
  0000000010008EF0: C7 45 F0 00 00 00 00 48 C7 45 E8 00 00 00 00 48  ÇE?....HÇEè....H
  0000000010008F00: C7 45 E0 00 00 00 00 48 C7 45 D8 00 00 00 00 48  ÇEà....HÇEØ....H
  0000000010008F10: C7 45 D0 00 00 00 00 48 C7 45 C8 00 00 00 00 48  ÇE?....HÇEÈ....H
  0000000010008F20: C7 45 C0 00 00 00 00 48 C7 45 B8 00 00 00 00 48  ÇEÀ....HÇE¸....H
  0000000010008F30: C7 45 B0 00 00 00 00 48 83 BB F8 DF FF FF 46 75  ÇE°....H.»øßÿÿFu
  0000000010008F40: 6E E8 BA B0 FF FF 48 83 BB F8 DF FF FF 1F 75 5F  nèº°ÿÿH.»øßÿÿ.u_
  0000000010008F50: 48 8B 8B 28 FE FF FF E8 24 BF FF FF 48 89 45 F0  H..(?ÿÿè$¿ÿÿH.E?
  0000000010008F60: E8 9B B0 FF FF 48 8B 4D F0 E8 92 F4 FF FF B9 09  è.°ÿÿH.M?è.ôÿÿ¹.
  0000000010008F70: 00 00 00 E8 C8 B0 FF FF E8 83 E3 FF FF 48 89 45  ...èÈ°ÿÿè.?ÿÿH.E
  0000000010008F80: E0 48 83 7D F0 00 74 1B 48 8B 45 F0 48 8B 4D E0  àH.}?.t.H.E?H.Mà
  0000000010008F90: 48 89 88 88 00 00 00 48 8B 45 E0 48 8B 4D F0 48  H......H.EàH.M?H
  0000000010008FA0: 89 48 10 B9 34 00 00 00 E8 93 B0 FF FF EB 97 48  .H.¹4...è.°ÿÿë.H
  0000000010008FB0: 83 BB F8 DF FF FF 47 0F 85 E9 01 00 00 E8 3E B0  .»øßÿÿG..é...è>°
  0000000010008FC0: FF FF 31 C0 48 89 83 F0 DF FF FF 48 83 BB F8 DF  ÿÿ1ÀH..?ßÿÿH.»øß
  0000000010008FD0: FF FF 1F 0F 85 B2 01 00 00 48 8B 8B 28 FE FF FF  ÿÿ...²...H..(?ÿÿ
  0000000010008FE0: E8 9B BE FF FF 48 89 45 F0 E8 12 B0 FF FF 48 8B  è.¾ÿÿH.E?è.°ÿÿH.
  0000000010008FF0: 4D F0 E8 09 F4 FF FF B9 09 00 00 00 E8 3F B0 FF  M?è.ôÿÿ¹....è?°ÿ
  0000000010009000: FF 48 83 BB F8 DF FF FF 3E 74 3B E8 40 FC FF FF  ÿH.»øßÿÿ>t;è@üÿÿ
  0000000010009010: 48 89 45 D8 48 8B 4D D8 FF 93 78 FD FF FF 48 89  H.EØH.MØÿ.x?ÿÿH.
  0000000010009020: 45 E0 48 83 7D F0 00 74 1B 48 8B 45 F0 48 8B 4D  EàH.}?.t.H.E?H.M
  0000000010009030: E0 48 89 88 88 00 00 00 48 8B 45 E0 48 8B 4D F0  àH......H.EàH.M?
  0000000010009040: 48 89 48 10 EB 5A 48 8B 8B 80 FE FF FF 48 8B 09  H.H.ëZH...?ÿÿH..
  0000000010009050: FF 93 78 FD FF FF 48 89 45 E0 48 83 7D F0 00 74  ÿ.x?ÿÿH.EàH.}?.t
  0000000010009060: 1B 48 8B 45 F0 48 8B 4D E0 48 89 88 88 00 00 00  .H.E?H.MàH......
  0000000010009070: 48 8B 45 E0 48 8B 4D F0 48 89 48 10 48 8B 4D E0  H.EàH.M?H.H.H.Mà
  0000000010009080: E8 0B F7 FF FF 48 89 45 D8 48 8B 45 D8 48 83 78  è.÷ÿÿH.EØH.EØH.x
  0000000010009090: 60 00 75 0C 48 8B 45 D8 48 8B 4D E0 48 89 48 60  `.u.H.EØH.MàH.H`
  00000000100090A0: B9 34 00 00 00 E8 96 AF FF FF 48 83 7D F0 00 0F  ¹4...è.¯ÿÿH.}?..
  00000000100090B0: 84 D1 00 00 00 48 8B 45 E0 48 8B 40 08 48 83 38  .Ñ...H.EàH.@.H.8
  00000000100090C0: 08 0F 85 BF 00 00 00 48 8B 83 F0 DF FF FF 48 89  ...¿...H..?ßÿÿH.
  00000000100090D0: 45 B8 31 C0 48 89 45 B0 48 83 7D B8 00 74 58 48  E¸1ÀH.E°H.}¸.tXH
  00000000100090E0: 8B 75 B8 48 8B 7D F0 48 8D 7F 02 31 C0 48 83 C0  .u¸H.}?H...1ÀH.À
  00000000100090F0: 01 48 83 F8 40 77 02 EB 08 B0 07 B9 D0 8B 00 00  .H.ø@w.ë.°.¹?...
  0000000010009100: CC 48 83 F8 40 77 02 EB 08 B0 07 B9 D0 8B 00 00  ?H.ø@w.ë.°.¹?...
  0000000010009110: CC 66 A7 75 07 66 83 7E FE 00 75 D1 74 19 48 8B  ?f§u.f.~?.uÑt.H.
  0000000010009120: 45 B8 48 89 45 B0 48 8B 45 B8 48 8B 80 88 00 00  E¸H.E°H.E¸H.....
  0000000010009130: 00 48 89 45 B8 EB A1 48 83 7D B8 00 74 48 48 8B  .H.E¸ë¡H.}¸.tHH.
  0000000010009140: 45 B8 48 8B 80 80 00 00 00 48 8B 4D E0 48 8B 49  E¸H......H.MàH.I
  0000000010009150: 08 48 89 48 40 48 83 7D B0 00 74 18 48 8B 45 B0  .H.H@H.}°.t.H.E°
  0000000010009160: 48 8B 4D B8 48 8B 89 88 00 00 00 48 89 88 88 00  H.M¸H......H....
  0000000010009170: 00 00 EB 12 48 8B 45 B8 48 8B 80 88 00 00 00 48  ..ë.H.E¸H......H
  0000000010009180: 89 83 F0 DF FF FF E9 40 FE FF FF 48 83 BB F0 DF  ..?ßÿÿé@?ÿÿH.»?ß
  0000000010009190: FF FF 00 74 11 48 8D 8B 10 FB FF FF BA 23 00 00  ÿÿ.t.H...ûÿÿº#..
  00000000100091A0: 00 E8 7A AE FF FF 48 83 BB F8 DF FF FF 48 0F 85  .èz®ÿÿH.»øßÿÿH..
  00000000100091B0: 17 01 00 00 E8 47 AE FF FF 48 83 BB F8 DF FF FF  ....èG®ÿÿH.»øßÿÿ
  00000000100091C0: 1F 0F 85 04 01 00 00 48 8B 8B 28 FE FF FF E8 AD  .......H..(?ÿÿè­
  00000000100091D0: BC FF FF 48 89 45 F8 E8 24 AE FF FF 48 8B 4D F8  ¼ÿÿH.Eøè$®ÿÿH.Mø
  00000000100091E0: E8 1B F2 FF FF 48 83 BB F8 DF FF FF 28 75 50 E8  è.?ÿÿH.»øßÿÿ(uPè
  00000000100091F0: 0C AE FF FF 48 83 BB F8 DF FF FF 1F 75 2F 48 8B  .®ÿÿH.»øßÿÿ.u/H.
  0000000010009200: 8B 28 FE FF FF E8 76 BC FF FF 48 89 45 F0 E8 ED  .(?ÿÿèv¼ÿÿH.E?èí
  0000000010009210: AD FF FF 48 8B 4D F0 E8 E4 F1 FF FF 48 83 7D F8  ­ÿÿH.M?èäñÿÿH.}ø
  0000000010009220: 00 75 08 48 8B 45 F0 48 89 45 F8 EB 10 B9 1F 00  .u.H.E?H.Eøë.¹..
  0000000010009230: 00 00 E8 E9 AF FF FF 31 C0 48 89 45 F0 EB A6 B9  ..èé¯ÿÿ1ÀH.E?ë¦¹
  0000000010009240: 29 00 00 00 E8 F7 AD FF FF E8 02 FA FF FF 48 89  )...è÷­ÿÿè.úÿÿH.
  0000000010009250: 45 D8 48 8B 45 F8 48 89 45 F0 48 83 7D F0 00 74  EØH.EøH.E?H.}?.t
  0000000010009260: 5B 48 8B 4D D8 FF 93 F0 FC FF FF 48 89 45 E0 48  [H.MØÿ.?üÿÿH.EàH
  0000000010009270: 8B 45 F0 48 8B 4D E0 48 89 88 88 00 00 00 48 8B  .E?H.MàH......H.
  0000000010009280: 45 E0 48 8B 4D F0 48 89 48 10 48 83 7D 10 00 75  EàH.M?H.H.H.}..u
  0000000010009290: 0C 48 8B 4D E0 FF 93 E8 FC FF FF EB 0E 48 8B 4D  .H.Màÿ.èüÿÿë.H.M
  00000000100092A0: 10 48 8B 55 E0 FF 93 E0 FC FF FF 48 8B 45 F0 48  .H.Uàÿ.àüÿÿH.E?H
  00000000100092B0: 8B 80 90 00 00 00 48 89 45 F0 EB 9E B9 34 00 00  ......H.E?ë.¹4..
  00000000100092C0: 00 E8 7A AD FF FF E9 EE FE FF FF 48 83 BB F8 DF  .èz­ÿÿéî?ÿÿH.»øß
  00000000100092D0: FF FF 49 0F 85 0D 03 00 00 E8 22 AD FF FF 48 83  ÿÿI......è"­ÿÿH.
  00000000100092E0: BB F8 DF FF FF 1F 75 26 48 8B 8B 28 FE FF FF E8  »øßÿÿ.u&H..(?ÿÿè
  00000000100092F0: 8C BB FF FF 48 89 83 E8 DF FF FF E8 00 AD FF FF  .»ÿÿH..èßÿÿè.­ÿÿ
  0000000010009300: 48 8B 8B E8 DF FF FF E8 F4 F0 FF FF EB 1A 31 C0  H..èßÿÿèô?ÿÿë.1À
  0000000010009310: 48 89 83 E8 DF FF FF 48 8D 8B 60 FB FF FF BA 0B  H..èßÿÿH..`ûÿÿº.
  0000000010009320: 00 00 00 E8 F8 AC FF FF FF 93 D8 FC FF FF 48 89  ...èø¬ÿÿÿ.ØüÿÿH.
  0000000010009330: 45 D0 FF 93 F8 FC FF FF 48 89 45 D8 48 8B 45 D0  E?ÿ.øüÿÿH.EØH.E?
  0000000010009340: 48 8B 4D D8 48 89 48 08 48 83 BB F8 DF FF FF 1C  H.MØH.H.H.»øßÿÿ.
  0000000010009350: 75 09 48 8B 4D D8 E8 F5 F2 FF FF B9 34 00 00 00  u.H.MØè??ÿÿ¹4...
  0000000010009360: E8 DB AC FF FF 48 8B 4D D8 FF 93 20 FD FF FF FF  èÛ¬ÿÿH.MØÿ. ?ÿÿÿ
  0000000010009370: 93 40 FD FF FF B9 01 00 00 00 FF 93 D0 FC FF FF  .@?ÿÿ¹....ÿ.?üÿÿ
  0000000010009380: 48 8B 45 D8 48 8B 40 48 48 89 45 E8 48 83 7D E8  H.EØH.@HH.EèH.}è
  0000000010009390: 00 0F 84 A6 00 00 00 48 8B 4D E8 48 8D 49 02 E8  ...¦...H.MèH.I.è
  00000000100093A0: DC BA FF FF 48 89 45 F0 48 8B 4B C0 BA 08 00 00  ÜºÿÿH.E?H.KÀº...
  00000000100093B0: 00 41 B8 52 00 00 00 FF 53 E8 48 83 C0 10 48 8B  .A¸R...ÿSèH.À.H.
  00000000100093C0: 8B A0 FE FF FF 48 89 48 F8 48 89 45 C8 48 8B 45  ..?ÿÿH.HøH.EÈH.E
  00000000100093D0: F0 48 8B 4D C8 48 89 88 88 00 00 00 48 8B 7D C8  ?H.MÈH......H.}È
  00000000100093E0: 48 8B 75 E8 48 8B 83 A0 FE FF FF 48 8B 8E 88 00  H.uèH...?ÿÿH....
  00000000100093F0: 00 00 48 8B 49 F8 48 39 41 10 75 02 EB 08 B0 02  ..H.IøH9A.u.ë.°.
  0000000010009400: B9 80 91 00 00 CC 48 8B B6 88 00 00 00 B9 21 00  ¹....?H.¶....¹!.
  0000000010009410: 00 00 F3 66 A5 48 8B 45 C8 48 8B 4D F0 48 89 48  ..óf¥H.EÈH.M?H.H
  0000000010009420: 10 48 8B 45 C8 48 FF 40 38 48 8B 45 E8 48 8B 80  .H.EÈHÿ@8H.EèH..
  0000000010009430: 90 00 00 00 48 89 45 E8 E9 4F FF FF FF 48 83 BB  ....H.EèéOÿÿÿH.»
  0000000010009440: E8 DF FF FF 00 74 21 48 8B 83 E8 DF FF FF 48 8B  èßÿÿ.t!H..èßÿÿH.
  0000000010009450: 4D D0 48 89 88 88 00 00 00 48 8B 45 D0 48 8B 8B  M?H......H.E?H..
  0000000010009460: E8 DF FF FF 48 89 48 10 48 8B 83 E8 DF FF FF 48  èßÿÿH.H.H..èßÿÿH
  0000000010009470: 89 45 F0 48 8B 4D D0 E8 54 FA FF FF 48 8B 45 F0  .E?H.M?èTúÿÿH.E?
  0000000010009480: 48 89 83 E8 DF FF FF 48 8B 45 D0 48 8B 8B 40 FE  H..èßÿÿH.E?H..@?
  0000000010009490: FF FF 48 8B 09 48 8B 09 48 89 48 48 48 83 BB F8  ÿÿH..H..H.HHH.»ø
  00000000100094A0: DF FF FF 4A 75 12 E8 55 AB FF FF 48 8B 75 D0 E8  ßÿÿJu.èU«ÿÿH.u?è
  00000000100094B0: DC EB FF FF 48 89 46 50 48 83 BB F8 DF FF FF 3A  ÜëÿÿH.FPH.»øßÿÿ:
  00000000100094C0: 75 5F 48 8B 45 D8 48 83 78 40 00 75 11 48 8D 8B  u_H.EØH.x@.u.H..
  00000000100094D0: 80 FB FF FF BA 12 00 00 00 E8 42 AB FF FF E8 1D  .ûÿÿº....èB«ÿÿè.
  00000000100094E0: AB FF FF E8 78 DB FF FF 48 89 45 E0 48 8B 45 D0  «ÿÿèxÛÿÿH.EàH.E?
  00000000100094F0: 48 8B 4D E0 48 89 48 58 48 8B 45 E0 48 8B 40 08  H.MàH.HXH.EàH.@.
  0000000010009500: 48 8B 00 B9 80 01 00 00 48 0F A3 C1 73 11 48 8D  H..¹....H.£Ás.H.
  0000000010009510: 8B B0 FB FF FF BA 0D 00 00 00 E8 01 AB FF FF EB  .°ûÿÿº....è.«ÿÿë
  0000000010009520: 15 48 8B 45 D8 48 83 78 40 00 74 0A B9 3A 00 00  .H.EØH.x@.t.¹:..
  0000000010009530: 00 E8 EA AC FF FF FF 93 38 FD FF FF 31 C9 48 83  .èê¬ÿÿÿ.8?ÿÿ1ÉH.
  0000000010009540: C1 FF FF 93 D0 FC FF FF B9 35 00 00 00 E8 EE AA  Áÿÿ.?üÿÿ¹5...èîª
  0000000010009550: FF FF 48 83 BB F8 DF FF FF 1F 75 67 48 83 BB E8  ÿÿH.»øßÿÿ.ugH.»è
  0000000010009560: DF FF FF 00 74 56 48 8B B3 E8 DF FF FF 48 8D 76  ßÿÿ.tVH.³èßÿÿH.v
  0000000010009570: 02 48 8B BB 28 FE FF FF 31 C0 48 83 C0 01 48 83  .H.»(?ÿÿ1ÀH.À.H.
  0000000010009580: F8 40 77 02 EB 08 B0 07 B9 70 94 00 00 CC 48 83  ø@w.ë.°.¹p...?H.
  0000000010009590: F8 40 77 02 EB 08 B0 07 B9 70 94 00 00 CC 66 A7  ø@w.ë.°.¹p...?f§
  00000000100095A0: 75 07 66 83 7E FE 00 75 D1 74 11 48 8D 8B D0 FB  u.f.~?.uÑt.H..?û
  00000000100095B0: FF FF BA 11 00 00 00 E8 64 AA FF FF E8 3F AA FF  ÿÿº....èdªÿÿè?ªÿ
  00000000100095C0: FF EB 14 48 83 BB E8 DF FF FF 00 74 0A B9 1F 00  ÿë.H.»èßÿÿ.t.¹..
  00000000100095D0: 00 00 E8 49 AC FF FF B9 34 00 00 00 E8 5F AA FF  ..èI¬ÿÿ¹4...è_ªÿ
  00000000100095E0: FF E9 E5 FC FF FF 48 8B 75 A0 48 8B 7D A8 C9 C3  ÿéåüÿÿH.u.H.}¨É?
  00000000100095F0: 55 48 8B EC 48 81 EC C0 00 00 00 48 89 B5 60 FF  UH.?H.?À...H.µ`ÿ
  0000000010009600: FF FF 48 89 BD 68 FF FF FF 48 C7 45 F8 00 00 00  ÿÿH.½hÿÿÿHÇEø...
  0000000010009610: 00 48 8B 8B 28 FE FF FF E8 63 B8 FF FF 48 89 45  .H..(?ÿÿèc¸ÿÿH.E
  0000000010009620: F8 48 8D BD 78 FF FF FF 48 8B B3 28 FE FF FF 31  øH.½xÿÿÿH.³(?ÿÿ1
  0000000010009630: C9 31 C0 48 83 C1 01 BA 40 00 00 00 48 3B CA 77  É1ÀH.Á.º@...H;Êw
  0000000010009640: 02 EB 08 B0 07 B9 8E 95 00 00 CC BA 40 00 00 00  .ë.°.¹....?º@...
  0000000010009650: 48 3B CA 77 02 EB 08 B0 07 B9 8E 95 00 00 CC 66  H;Êw.ë.°.¹....?f
  0000000010009660: AD 66 AB 85 C0 75 CC E8 94 A9 FF FF 48 83 BB F8  ­f«.Àu?è.©ÿÿH.»ø
  0000000010009670: DF FF FF 2A 75 66 E8 85 A9 FF FF 48 83 BB F8 DF  ßÿÿ*ufè.©ÿÿH.»øß
  0000000010009680: FF FF 1F 75 4D 48 8D BD 78 FF FF FF 48 8B B3 28  ÿÿ.uMH.½xÿÿÿH.³(
  0000000010009690: FE FF FF 31 C9 31 C0 48 83 C1 01 BA 40 00 00 00  ?ÿÿ1É1ÀH.Á.º@...
  00000000100096A0: 48 3B CA 77 02 EB 08 B0 07 B9 E2 95 00 00 CC BA  H;Êw.ë.°.¹â...?º
  00000000100096B0: 40 00 00 00 48 3B CA 77 02 EB 08 B0 07 B9 E2 95  @...H;Êw.ë.°.¹â.
  00000000100096C0: 00 00 CC 66 AD 66 AB 85 C0 75 CC E8 30 A9 FF FF  ..?f­f«.Àu?è0©ÿÿ
  00000000100096D0: EB 0A B9 1F 00 00 00 E8 44 AB FF FF 48 8B 4D F8  ë.¹....èD«ÿÿH.Mø
  00000000100096E0: 48 8D 95 78 FF FF FF FF 93 C8 FC FF FF 48 8B B5  H..xÿÿÿÿ.ÈüÿÿH.µ
  00000000100096F0: 60 FF FF FF 48 8B BD 68 FF FF FF C9 C3 90 90 90  `ÿÿÿH.½hÿÿÿÉ?...
  0000000010009700: 55 48 8B EC 48 83 EC 20 E8 F3 A8 FF FF 48 83 BB  UH.?H.? èó¨ÿÿH.»
  0000000010009710: F8 DF FF FF 1F 75 07 E8 D4 FE FF FF EB 0A B9 1F  øßÿÿ.u.èÔ?ÿÿë.¹.
  0000000010009720: 00 00 00 E8 F8 AA FF FF 48 83 BB F8 DF FF FF 28  ...èøªÿÿH.»øßÿÿ(
  0000000010009730: 75 22 E8 C9 A8 FF FF 48 83 BB F8 DF FF FF 1F 75  u"èÉ¨ÿÿH.»øßÿÿ.u
  0000000010009740: 07 E8 AA FE FF FF EB 0A B9 1F 00 00 00 E8 CE AA  .èª?ÿÿë.¹....èÎª
  0000000010009750: FF FF EB D4 B9 34 00 00 00 E8 E2 A8 FF FF 48 8B  ÿÿëÔ¹4...èâ¨ÿÿH.
  0000000010009760: 83 C0 FC FF FF 48 83 38 00 75 0C FF 93 B8 FC FF  .ÀüÿÿH.8.u.ÿ.¸üÿ
  0000000010009770: FF FF 93 B0 FC FF FF C9 C3 90 90 90 90 90 90 90  ÿÿ.°üÿÿÉ?.......
  0000000010009780: 55 48 8B EC 48 81 EC C0 00 00 00 48 89 9D 60 FF  UH.?H.?À...H..`ÿ
  0000000010009790: FF FF 48 89 B5 68 FF FF FF 48 89 BD 70 FF FF FF  ÿÿH.µhÿÿÿH.½pÿÿÿ
  00000000100097A0: 48 8D 1D 59 A8 FF FF 48 C7 85 78 FF FF FF 00 00  H..Y¨ÿÿHÇ.xÿÿÿ..
  00000000100097B0: 00 00 E8 49 A8 FF FF 31 C0 66 89 45 80 48 83 BB  ..èI¨ÿÿ1Àf.E.H.»
  00000000100097C0: F8 DF FF FF 1F 75 4A 48 8D 7D 80 48 8B B3 28 FE  øßÿÿ.uJH.}.H.³(?
  00000000100097D0: FF FF 31 C9 31 C0 48 83 C1 01 BA 40 00 00 00 48  ÿÿ1É1ÀH.Á.º@...H
  00000000100097E0: 3B CA 77 02 EB 08 B0 07 B9 ED 97 00 00 CC BA 40  ;Êw.ë.°.¹í...?º@
  00000000100097F0: 00 00 00 48 3B CA 77 02 EB 08 B0 07 B9 ED 97 00  ...H;Êw.ë.°.¹í..
  0000000010009800: 00 CC 66 AD 66 AB 85 C0 75 CC E8 F1 A7 FF FF EB  .?f­f«.Àu?èñ§ÿÿë
  0000000010009810: 0A B9 1F 00 00 00 E8 05 AA FF FF B9 34 00 00 00  .¹....è.ªÿÿ¹4...
  0000000010009820: E8 1B A8 FF FF 48 8D 4D 80 FF 93 A8 FC FF FF 48  è.¨ÿÿH.M.ÿ.¨üÿÿH
  0000000010009830: 8D 4D 80 FF 93 A0 FC FF FF 48 83 BB F8 DF FF FF  .M.ÿ..üÿÿH.»øßÿÿ
  0000000010009840: 4C 75 05 E8 B8 FE FF FF 48 8B 83 C0 FC FF FF 48  Lu.è¸?ÿÿH..ÀüÿÿH
  0000000010009850: 83 38 00 0F 85 A0 00 00 00 31 C9 E8 70 F6 FF FF  .8.......1Éèpöÿÿ
  0000000010009860: 48 83 BB F8 DF FF FF 4A 75 11 E8 91 A7 FF FF E8  H.»øßÿÿJu.è.§ÿÿè
  0000000010009870: 1C E8 FF FF 48 89 85 78 FF FF FF B9 35 00 00 00  .èÿÿH..xÿÿÿ¹5...
  0000000010009880: E8 BB A7 FF FF 48 83 BB F8 DF FF FF 1F 75 56 48  è»§ÿÿH.»øßÿÿ.uVH
  0000000010009890: 8B B3 28 FE FF FF 48 8D 7D 80 31 C0 48 83 C0 01  .³(?ÿÿH.}.1ÀH.À.
  00000000100098A0: 48 83 F8 40 77 02 EB 08 B0 07 B9 2D 99 00 00 CC  H.ø@w.ë.°.¹-...?
  00000000100098B0: 48 83 F8 40 77 02 EB 08 B0 07 B9 2D 99 00 00 CC  H.ø@w.ë.°.¹-...?
  00000000100098C0: 66 A7 75 07 66 83 7E FE 00 75 D1 74 11 48 8D 8B  f§u.f.~?.uÑt.H..
  00000000100098D0: 10 FC FF FF BA 12 00 00 00 E8 42 A7 FF FF E8 1D  .üÿÿº....èB§ÿÿè.
  00000000100098E0: A7 FF FF EB 0A B9 1F 00 00 00 E8 31 A9 FF FF B9  §ÿÿë.¹....è1©ÿÿ¹
  00000000100098F0: 12 00 00 00 E8 47 A7 FF FF 48 8B 83 C0 FC FF FF  ....èG§ÿÿH..Àüÿÿ
  0000000010009900: 48 83 38 00 75 06 FF 93 98 FC FF FF 48 8B 83 C0  H.8.u.ÿ..üÿÿH..À
  0000000010009910: FC FF FF 48 83 38 00 75 0D 48 8B 8D 78 FF FF FF  üÿÿH.8.u.H..xÿÿÿ
  0000000010009920: FF 93 90 FC FF FF 48 8B 83 C0 FC FF FF 48 83 38  ÿ..üÿÿH..ÀüÿÿH.8
  0000000010009930: 00 75 39 48 8D 8B 40 FC FF FF BA 16 00 00 00 FF  .u9H..@üÿÿº....ÿ
  0000000010009940: 93 88 FC FF FF 48 8D 4D 80 BA 40 00 00 00 FF 93  ..üÿÿH.M.º@...ÿ.
  0000000010009950: 88 FC FF FF 48 8D 8B 70 FC FF FF BA 05 00 00 00  .üÿÿH..püÿÿº....
  0000000010009960: FF 93 88 FC FF FF FF 93 80 FC FF FF 48 8B 9D 60  ÿ..üÿÿÿ..üÿÿH..`
  0000000010009970: FF FF FF 48 8B B5 68 FF FF FF 48 8B BD 70 FF FF  ÿÿÿH.µhÿÿÿH.½pÿÿ
  0000000010009980: FF C9 C3 90 90 90 90 90 90 90 90 90 90 90 90 90  ÿÉ?.............
  0000000010009990: 55 48 8B EC 48 8D 05 B5 F2 FF FF 48 89 83 E0 DF  UH.?H..µ?ÿÿH..àß
  00000000100099A0: FF FF 48 8D 05 B7 D6 FF FF 48 89 83 D8 DF FF FF  ÿÿH..·ÖÿÿH..Øßÿÿ
  00000000100099B0: 48 8D 05 D9 E6 FF FF 48 89 83 D0 DF FF FF C9 C3  H..ÙæÿÿH..?ßÿÿÉ?
  00000000100099C0: 83 FA 01 74 01 C3 56 57 53 48 83 EC 20 48 8D 1D  .ú.t.?VWSH.? H..
  00000000100099D0: 2C A6 FF FF FF 53 E0 48 89 43 C0 48 8D 8B 60 FF  ,¦ÿÿÿSàH.CÀH..`ÿ
  00000000100099E0: FF FF FF 53 D0 48 85 C0 74 02 EB 08 B0 05 B9 01  ÿÿÿS?H.Àt.ë.°.¹.
  00000000100099F0: 9B 00 00 CC 48 8B F0 48 B8 6B 60 F2 02 EF D4 F9  ...?H.?H¸k`?.ïÔù
  0000000010009A00: B4 48 3B 86 F0 03 00 00 75 02 EB 08 B0 05 B9 01  ´H;.?...u.ë.°.¹.
  0000000010009A10: 9B 00 00 CC 48 B8 86 5E A9 E6 9C 88 BD 95 48 3B  ...?H¸.^©æ..½.H;
  0000000010009A20: 86 F8 03 00 00 75 02 EB 08 B0 05 B9 01 9B 00 00  .ø...u.ë.°.¹....
  0000000010009A30: CC 48 8B CE BA 1D 00 00 00 FF 53 D8 48 89 83 80  ?H.Îº....ÿSØH...
  0000000010009A40: FC FF FF 48 8B CE BA 1C 00 00 00 FF 53 D8 48 89  üÿÿH.Îº....ÿSØH.
  0000000010009A50: 83 88 FC FF FF 48 8D 8B 40 FF FF FF FF 53 D0 48  ..üÿÿH..@ÿÿÿÿS?H
  0000000010009A60: 85 C0 74 02 EB 08 B0 05 B9 01 9B 00 00 CC 48 8B  .Àt.ë.°.¹....?H.
  0000000010009A70: F0 48 B8 EC 70 F0 AE 97 72 6F B3 48 3B 86 F0 03  ?H¸?p?®.ro³H;.?.
  0000000010009A80: 00 00 75 02 EB 08 B0 05 B9 01 9B 00 00 CC 48 B8  ..u.ë.°.¹....?H¸
  0000000010009A90: 6F 2D 25 B7 A8 65 93 8E 48 3B 86 F8 03 00 00 75  o-%·¨e..H;.ø...u
  0000000010009AA0: 02 EB 08 B0 05 B9 01 9B 00 00 CC 48 8D 8B 20 FF  .ë.°.¹....?H.. ÿ
  0000000010009AB0: FF FF FF 53 D0 48 85 C0 74 02 EB 08 B0 05 B9 01  ÿÿÿS?H.Àt.ë.°.¹.
  0000000010009AC0: 9B 00 00 CC 48 8B F0 48 B8 0E 2D C5 F8 1D 40 74  ...?H.?H¸.-Åø.@t
  0000000010009AD0: 6D 48 3B 86 F0 03 00 00 75 02 EB 08 B0 05 B9 01  mH;.?...u.ë.°.¹.
  0000000010009AE0: 9B 00 00 CC 48 B8 52 5C 92 A6 6F B1 5E 8D 48 3B  ...?H¸R\.¦o±^.H;
  0000000010009AF0: 86 F8 03 00 00 75 02 EB 08 B0 05 B9 01 9B 00 00  .ø...u.ë.°.¹....
  0000000010009B00: CC 48 8B CE BA 07 00 00 00 FF 53 D8 48 89 83 C0  ?H.Îº....ÿSØH..À
  0000000010009B10: FC FF FF 48 8B CE BA 02 00 00 00 FF 53 D8 48 89  üÿÿH.Îº....ÿSØH.
  0000000010009B20: 83 88 FD FF FF 48 8B CE BA 05 00 00 00 FF 53 D8  ..?ÿÿH.Îº....ÿSØ
  0000000010009B30: 48 89 83 90 FD FF FF 48 8B CE BA 01 00 00 00 FF  H...?ÿÿH.Îº....ÿ
  0000000010009B40: 53 D8 48 89 83 A0 FD FF FF 48 8B CE BA 04 00 00  SØH...?ÿÿH.Îº...
  0000000010009B50: 00 FF 53 D8 48 89 83 28 FE FF FF 48 8B CE BA 08  .ÿSØH..(?ÿÿH.Îº.
  0000000010009B60: 00 00 00 FF 53 D8 48 89 83 38 FE FF FF 48 8B CE  ...ÿSØH..8?ÿÿH.Î
  0000000010009B70: BA 09 00 00 00 FF 53 D8 48 89 83 B0 FE FF FF 48  º....ÿSØH..°?ÿÿH
  0000000010009B80: 8B CE BA 0A 00 00 00 FF 53 D8 48 89 83 B8 FE FF  .Îº....ÿSØH..¸?ÿ
  0000000010009B90: FF 48 8D 8B 00 FF FF FF FF 53 D0 48 85 C0 74 02  ÿH...ÿÿÿÿS?H.Àt.
  0000000010009BA0: EB 08 B0 05 B9 01 9B 00 00 CC 48 8B F0 48 B8 8F  ë.°.¹....?H.?H¸.
  0000000010009BB0: 8B 77 42 EC 92 93 8C 48 3B 86 F0 03 00 00 75 02  .wB?...H;.?...u.
  0000000010009BC0: EB 08 B0 05 B9 01 9B 00 00 CC 48 B8 A6 63 21 0F  ë.°.¹....?H¸¦c!.
  0000000010009BD0: D1 81 74 86 48 3B 86 F8 03 00 00 75 02 EB 08 B0  Ñ.t.H;.ø...u.ë.°
  0000000010009BE0: 05 B9 01 9B 00 00 CC 48 8B CE BA 44 00 00 00 FF  .¹....?H.ÎºD...ÿ
  0000000010009BF0: 53 D8 48 89 83 98 FC FF FF 48 8B CE BA 47 00 00  SØH...üÿÿH.ÎºG..
  0000000010009C00: 00 FF 53 D8 48 89 83 A8 FC FF FF 48 8B CE BA 45  .ÿSØH..¨üÿÿH.ÎºE
  0000000010009C10: 00 00 00 FF 53 D8 48 89 83 B8 FC FF FF 48 8B CE  ...ÿSØH..¸üÿÿH.Î
  0000000010009C20: BA 46 00 00 00 FF 53 D8 48 89 83 C8 FC FF FF 48  ºF...ÿSØH..ÈüÿÿH
  0000000010009C30: 8B CE BA 42 00 00 00 FF 53 D8 48 89 83 D0 FC FF  .ÎºB...ÿSØH..?üÿ
  0000000010009C40: FF 48 8B CE BA 36 00 00 00 FF 53 D8 48 89 83 D8  ÿH.Îº6...ÿSØH..Ø
  0000000010009C50: FC FF FF 48 8B CE BA 31 00 00 00 FF 53 D8 48 89  üÿÿH.Îº1...ÿSØH.
  0000000010009C60: 83 F0 FC FF FF 48 8B CE BA 3F 00 00 00 FF 53 D8  .?üÿÿH.Îº?...ÿSØ
  0000000010009C70: 48 89 83 F8 FC FF FF 48 8B CE BA 3D 00 00 00 FF  H..øüÿÿH.Îº=...ÿ
  0000000010009C80: 53 D8 48 89 83 00 FD FF FF 48 8B CE BA 3C 00 00  SØH...?ÿÿH.Îº<..
  0000000010009C90: 00 FF 53 D8 48 89 83 08 FD FF FF 48 8B CE BA 3B  .ÿSØH...?ÿÿH.Îº;
  0000000010009CA0: 00 00 00 FF 53 D8 48 89 83 10 FD FF FF 48 8B CE  ...ÿSØH...?ÿÿH.Î
  0000000010009CB0: BA 34 00 00 00 FF 53 D8 48 89 83 18 FD FF FF 48  º4...ÿSØH...?ÿÿH
  0000000010009CC0: 8B CE BA 1B 00 00 00 FF 53 D8 48 89 83 28 FD FF  .Îº....ÿSØH..(?ÿ
  0000000010009CD0: FF 48 8B CE BA 3E 00 00 00 FF 53 D8 48 89 83 30  ÿH.Îº>...ÿSØH..0
  0000000010009CE0: FD FF FF 48 8B CE BA 41 00 00 00 FF 53 D8 48 89  ?ÿÿH.ÎºA...ÿSØH.
  0000000010009CF0: 83 38 FD FF FF 48 8B CE BA 40 00 00 00 FF 53 D8  .8?ÿÿH.Îº@...ÿSØ
  0000000010009D00: 48 89 83 40 FD FF FF 48 8B CE BA 33 00 00 00 FF  H..@?ÿÿH.Îº3...ÿ
  0000000010009D10: 53 D8 48 89 83 48 FD FF FF 48 8B CE BA 3A 00 00  SØH..H?ÿÿH.Îº:..
  0000000010009D20: 00 FF 53 D8 48 89 83 50 FD FF FF 48 8B CE BA 19  .ÿSØH..P?ÿÿH.Îº.
  0000000010009D30: 00 00 00 FF 53 D8 48 89 83 58 FD FF FF 48 8B CE  ...ÿSØH..X?ÿÿH.Î
  0000000010009D40: BA 18 00 00 00 FF 53 D8 48 89 83 60 FD FF FF 48  º....ÿSØH..`?ÿÿH
  0000000010009D50: 8B CE BA 30 00 00 00 FF 53 D8 48 89 83 68 FD FF  .Îº0...ÿSØH..h?ÿ
  0000000010009D60: FF 48 8B CE BA 43 00 00 00 FF 53 D8 48 89 83 70  ÿH.ÎºC...ÿSØH..p
  0000000010009D70: FD FF FF 48 8B CE BA 37 00 00 00 FF 53 D8 48 89  ?ÿÿH.Îº7...ÿSØH.
  0000000010009D80: 83 78 FD FF FF 48 8B CE BA 35 00 00 00 FF 53 D8  .x?ÿÿH.Îº5...ÿSØ
  0000000010009D90: 48 89 83 98 FD FF FF 48 8B CE BA 11 00 00 00 FF  H...?ÿÿH.Îº....ÿ
  0000000010009DA0: 53 D8 48 89 83 D0 FD FF FF 48 8B CE BA 0D 00 00  SØH..??ÿÿH.Îº...
  0000000010009DB0: 00 FF 53 D8 48 89 83 00 FE FF FF 48 8B CE BA 0A  .ÿSØH...?ÿÿH.Îº.
  0000000010009DC0: 00 00 00 FF 53 D8 48 89 83 10 FE FF FF 48 8B CE  ...ÿSØH...?ÿÿH.Î
  0000000010009DD0: BA 0C 00 00 00 FF 53 D8 48 89 83 18 FE FF FF 48  º....ÿSØH...?ÿÿH
  0000000010009DE0: 8B CE BA 1C 00 00 00 FF 53 D8 48 89 83 20 FE FF  .Îº....ÿSØH.. ?ÿ
  0000000010009DF0: FF 48 8B CE BA 0E 00 00 00 FF 53 D8 48 89 83 30  ÿH.Îº....ÿSØH..0
  0000000010009E00: FE FF FF 48 8B CE BA 1A 00 00 00 FF 53 D8 48 89  ?ÿÿH.Îº....ÿSØH.
  0000000010009E10: 83 40 FE FF FF 48 8B CE BA 26 00 00 00 FF 53 D8  .@?ÿÿH.Îº&...ÿSØ
  0000000010009E20: 48 89 83 48 FE FF FF 48 8B CE BA 32 00 00 00 FF  H..H?ÿÿH.Îº2...ÿ
  0000000010009E30: 53 D8 48 89 83 50 FE FF FF 48 8B CE BA 14 00 00  SØH..P?ÿÿH.Îº...
  0000000010009E40: 00 FF 53 D8 48 89 83 58 FE FF FF 48 8B CE BA 10  .ÿSØH..X?ÿÿH.Îº.
  0000000010009E50: 00 00 00 FF 53 D8 48 89 83 60 FE FF FF 48 8B CE  ...ÿSØH..`?ÿÿH.Î
  0000000010009E60: BA 08 00 00 00 FF 53 D8 48 89 83 68 FE FF FF 48  º....ÿSØH..h?ÿÿH
  0000000010009E70: 8B CE BA 13 00 00 00 FF 53 D8 48 89 83 70 FE FF  .Îº....ÿSØH..p?ÿ
  0000000010009E80: FF 48 8B CE BA 12 00 00 00 FF 53 D8 48 89 83 78  ÿH.Îº....ÿSØH..x
  0000000010009E90: FE FF FF 48 8B CE BA 0F 00 00 00 FF 53 D8 48 89  ?ÿÿH.Îº....ÿSØH.
  0000000010009EA0: 83 80 FE FF FF 48 8B CE BA 15 00 00 00 FF 53 D8  ..?ÿÿH.Îº....ÿSØ
  0000000010009EB0: 48 89 83 88 FE FF FF 48 8B CE BA 0B 00 00 00 FF  H...?ÿÿH.Îº....ÿ
  0000000010009EC0: 53 D8 48 89 83 90 FE FF FF 48 8B CE BA 06 00 00  SØH...?ÿÿH.Îº...
  0000000010009ED0: 00 FF 53 D8 48 89 83 98 FE FF FF 48 8B CE BA 09  .ÿSØH...?ÿÿH.Îº.
  0000000010009EE0: 00 00 00 FF 53 D8 48 89 83 A0 FE FF FF 48 8B CE  ...ÿSØH...?ÿÿH.Î
  0000000010009EF0: BA 16 00 00 00 FF 53 D8 48 89 83 A8 FE FF FF 48  º....ÿSØH..¨?ÿÿH
  0000000010009F00: 8B CE BA 04 00 00 00 FF 53 D8 48 89 83 C0 FE FF  .Îº....ÿSØH..À?ÿ
  0000000010009F10: FF 48 8B CE BA 03 00 00 00 FF 53 D8 48 89 83 C8  ÿH.Îº....ÿSØH..È
  0000000010009F20: FE FF FF 48 8B CE BA 02 00 00 00 FF 53 D8 48 89  ?ÿÿH.Îº....ÿSØH.
  0000000010009F30: 83 D0 FE FF FF 48 8B CE BA 01 00 00 00 FF 53 D8  .??ÿÿH.Îº....ÿSØ
  0000000010009F40: 48 89 83 D8 FE FF FF 48 8D 8B E0 FE FF FF FF 53  H..Ø?ÿÿH..à?ÿÿÿS
  0000000010009F50: D0 48 85 C0 74 02 EB 08 B0 05 B9 01 9B 00 00 CC  ?H.Àt.ë.°.¹....?
  0000000010009F60: 48 8B F0 48 B8 A4 82 AD 54 B2 CD F6 5F 48 3B 86  H.?H¸¤.­T²Íö_H;.
  0000000010009F70: F0 03 00 00 75 02 EB 08 B0 05 B9 01 9B 00 00 CC  ?...u.ë.°.¹....?
  0000000010009F80: 48 B8 44 82 FC ED 08 C4 68 CC 48 3B 86 F8 03 00  H¸D.üí.Äh?H;.ø..
  0000000010009F90: 00 75 02 EB 08 B0 05 B9 01 9B 00 00 CC 48 8B CE  .u.ë.°.¹....?H.Î
  0000000010009FA0: BA 12 00 00 00 FF 53 D8 48 89 83 90 FC FF FF 48  º....ÿSØH...üÿÿH
  0000000010009FB0: 8B CE BA 11 00 00 00 FF 53 D8 48 89 83 A0 FC FF  .Îº....ÿSØH...üÿ
  0000000010009FC0: FF 48 8B CE BA 04 00 00 00 FF 53 D8 48 89 83 B0  ÿH.Îº....ÿSØH..°
  0000000010009FD0: FC FF FF 48 8B CE BA 03 00 00 00 FF 53 D8 48 89  üÿÿH.Îº....ÿSØH.
  0000000010009FE0: 83 E0 FC FF FF 48 8B CE BA 02 00 00 00 FF 53 D8  .àüÿÿH.Îº....ÿSØ
  0000000010009FF0: 48 89 83 E8 FC FF FF 48 8B CE BA 01 00 00 00 FF  H..èüÿÿH.Îº....ÿ
  000000001000A000: 53 D8 48 89 83 20 FD FF FF 48 8B CE BA 09 00 00  SØH.. ?ÿÿH.Îº...
  000000001000A010: 00 FF 53 D8 48 89 83 80 FD FF FF 48 8B CE BA 10  .ÿSØH...?ÿÿH.Îº.
  000000001000A020: 00 00 00 FF 53 D8 48 89 83 A8 FD FF FF 48 8B CE  ...ÿSØH..¨?ÿÿH.Î
  000000001000A030: BA 07 00 00 00 FF 53 D8 48 89 83 B0 FD FF FF 48  º....ÿSØH..°?ÿÿH
  000000001000A040: 8B CE BA 08 00 00 00 FF 53 D8 48 89 83 B8 FD FF  .Îº....ÿSØH..¸?ÿ
  000000001000A050: FF 48 8B CE BA 06 00 00 00 FF 53 D8 48 89 83 C0  ÿH.Îº....ÿSØH..À
  000000001000A060: FD FF FF 48 8B CE BA 0F 00 00 00 FF 53 D8 48 89  ?ÿÿH.Îº....ÿSØH.
  000000001000A070: 83 C8 FD FF FF 48 8B CE BA 0E 00 00 00 FF 53 D8  .È?ÿÿH.Îº....ÿSØ
  000000001000A080: 48 89 83 D8 FD FF FF 48 8B CE BA 0D 00 00 00 FF  H..Ø?ÿÿH.Îº....ÿ
  000000001000A090: 53 D8 48 89 83 E0 FD FF FF 48 8B CE BA 0C 00 00  SØH..à?ÿÿH.Îº...
  000000001000A0A0: 00 FF 53 D8 48 89 83 E8 FD FF FF 48 8B CE BA 0B  .ÿSØH..è?ÿÿH.Îº.
  000000001000A0B0: 00 00 00 FF 53 D8 48 89 83 F0 FD FF FF 48 8B CE  ...ÿSØH..??ÿÿH.Î
  000000001000A0C0: BA 0A 00 00 00 FF 53 D8 48 89 83 F8 FD FF FF 48  º....ÿSØH..ø?ÿÿH
  000000001000A0D0: 8B CE BA 05 00 00 00 FF 53 D8 48 89 83 08 FE FF  .Îº....ÿSØH...?ÿ
  000000001000A0E0: FF 48 C7 83 70 EE FF FF 90 00 00 00 E8 9F F8 FF  ÿHÇ.pîÿÿ....è.øÿ
  000000001000A0F0: FF B8 01 00 00 00 48 83 C4 20 5B 5F 5E C3        ÿ¸....H.Ä [_^?

SECTION HEADER #4
  .idata name
     130 virtual size
    B000 virtual address (000000001000B000 to 000000001000B12F)
     200 size of raw data
    6600 file pointer to raw data (00006600 to 000067FF)
       0 file pointer to relocation table
       0 file pointer to line numbers
       0 number of relocations
       0 number of line numbers
C0000040 flags
         Initialized Data
         Read Write

RAW DATA #4
  000000001000B000: 28 B0 00 00 00 00 00 00 00 00 00 00 60 B0 00 00  (°..........`°..
  000000001000B010: C8 3F 00 00 00 00 00 00 00 00 00 00 00 00 00 00  È?..............
  000000001000B020: 00 00 00 00 00 00 00 00 70 B0 00 00 00 00 00 00  ........p°......
  000000001000B030: 90 B0 00 00 00 00 00 00 B0 B0 00 00 00 00 00 00  .°......°°......
  000000001000B040: D0 B0 00 00 00 00 00 00 F0 B0 00 00 00 00 00 00  ?°......?°......
  000000001000B050: 10 B1 00 00 00 00 00 00 00 00 00 00 00 00 00 00  .±..............
  000000001000B060: 4B 45 52 4E 45 4C 33 32 2E 44 4C 4C 00 00 00 00  KERNEL32.DLL....
  000000001000B070: 00 00 45 78 69 74 50 72 6F 63 65 73 73 00 00 00  ..ExitProcess...
  000000001000B080: 00 00 00 00 00 00 00 00 00 00 00 00 00 00 00 00  ................
  000000001000B090: 00 00 4C 6F 61 64 4C 69 62 72 61 72 79 57 00 00  ..LoadLibraryW..
  000000001000B0A0: 00 00 00 00 00 00 00 00 00 00 00 00 00 00 00 00  ................
  000000001000B0B0: 00 00 47 65 74 50 72 6F 63 41 64 64 72 65 73 73  ..GetProcAddress
  000000001000B0C0: 00 00 00 00 00 00 00 00 00 00 00 00 00 00 00 00  ................
  000000001000B0D0: 00 00 47 65 74 50 72 6F 63 65 73 73 48 65 61 70  ..GetProcessHeap
  000000001000B0E0: 00 00 00 00 00 00 00 00 00 00 00 00 00 00 00 00  ................
  000000001000B0F0: 00 00 48 65 61 70 41 6C 6C 6F 63 00 00 00 00 00  ..HeapAlloc.....
  000000001000B100: 00 00 00 00 00 00 00 00 00 00 00 00 00 00 00 00  ................
  000000001000B110: 00 00 48 65 61 70 46 72 65 65 00 00 00 00 00 00  ..HeapFree......
  000000001000B120: 00 00 00 00 00 00 00 00 00 00 00 00 00 00 00 00  ................

  Section contains the following imports:

    KERNEL32.DLL
              10003FC8 Import Address Table
              1000B028 Import Name Table
                     0 time date stamp
                     0 Index of first forwarder reference

                           0 ExitProcess
                           0 LoadLibraryW
                           0 GetProcAddress
                           0 GetProcessHeap
                           0 HeapAlloc
                           0 HeapFree

SECTION HEADER #5
  .reloc name
       C virtual size
    C000 virtual address (000000001000C000 to 000000001000C00B)
     200 size of raw data
    8800 file pointer to raw data (00008800 to 000089FF)
       0 file pointer to relocation table
       0 file pointer to line numbers
       0 number of relocations
       0 number of line numbers
42000040 flags
         Initialized Data
         Discardable
         Read Only

RAW DATA #5
  000000001000C000: 04 00 00 00 0C 00 00 00 00 00 00 00              ............

BASE RELOCATIONS #5
       4 RVA,        C SizeOfBlock
       0  ABS                        
       0  ABS                        

SECTION HEADER #6
  .edata name
      38 virtual size
    D000 virtual address (000000001000D000 to 000000001000D037)
     200 size of raw data
    8A00 file pointer to raw data (00008A00 to 00008BFF)
       0 file pointer to relocation table
       0 file pointer to line numbers
       0 number of relocations
       0 number of line numbers
40000040 flags
         Initialized Data
         Read Only

RAW DATA #6
  000000001000D000: 00 00 00 00 00 00 00 00 00 00 00 00 2C D0 00 00  ............,?..
  000000001000D010: 01 00 00 00 01 00 00 00 00 00 00 00 28 D0 00 00  ............(?..
  000000001000D020: 00 00 00 00 00 00 00 00 80 97 00 00 50 61 72 73  ............Pars
  000000001000D030: 65 72 31 2E 64 6C 6C 00                          er1.dll.

  Section contains the following exports for Parser1.dll

    00000000 characteristics
           0 time date stamp
        0.00 version
           1 ordinal base
           1 number of functions
           0 number of names

    ordinal hint RVA      name

          1      00009780 [NONAME]

  Summary

        1000 .bss
        2000 .data
        1000 .edata
        1000 .idata
        1000 .reloc
        7000 .text
