Microsoft (R) COFF/PE Dumper Version 14.00.24215.1
Copyright (C) Microsoft Corporation.  All rights reserved.


Dump of file Scanner1.dll

PE signature found

File Type: DLL

FILE HEADER VALUES
            8664 machine (x64)
               6 number of sections
               0 time date stamp
               0 file pointer to symbol table
               0 number of symbols
              F0 size of optional header
            2022 characteristics
                   Executable
                   Application can handle large (>2GB) addresses
                   DLL

OPTIONAL HEADER VALUES
             20B magic # (PE32+)
            0.00 linker version
            1A00 size of code
            1600 size of initialized data
          102000 size of uninitialized data
          1057C0 entry point (00000000101057C0)
          104000 base of code
        10000000 image base (0000000010000000 to 0000000010108FFF)
            1000 section alignment
             200 file alignment
            5.00 operating system version
            0.00 image version
            5.00 subsystem version
               0 Win32 version
          109000 size of image
             400 size of headers
               0 checksum
               2 subsystem (Windows GUI)
             140 DLL characteristics
                   Dynamic base
                   NX compatible
            1000 size of stack reserve
            1000 size of stack commit
           10000 size of heap reserve
               0 size of heap commit
               0 loader flags
              10 number of directories
          108000 [      65] RVA [size] of Export Directory
          106000 [     130] RVA [size] of Import Directory
               0 [       0] RVA [size] of Resource Directory
               0 [       0] RVA [size] of Exception Directory
               0 [       0] RVA [size] of Certificates Directory
          107000 [       C] RVA [size] of Base Relocation Directory
               0 [       0] RVA [size] of Debug Directory
               0 [       0] RVA [size] of Architecture Directory
               0 [       0] RVA [size] of Global Pointer Directory
               0 [       0] RVA [size] of Thread Storage Directory
               0 [       0] RVA [size] of Load Configuration Directory
               0 [       0] RVA [size] of Bound Import Directory
               0 [       0] RVA [size] of Import Address Table Directory
               0 [       0] RVA [size] of Delay Import Directory
               0 [       0] RVA [size] of COM Descriptor Directory
               0 [       0] RVA [size] of Reserved Directory


SECTION HEADER #1
    .bss name
  102000 virtual size
    1000 virtual address (0000000010001000 to 0000000010102FFF)
       0 size of raw data
       0 file pointer to raw data
       0 file pointer to relocation table
       0 file pointer to line numbers
       0 number of relocations
       0 number of line numbers
C0000080 flags
         Uninitialized Data
         Read Write

SECTION HEADER #2
   .data name
    1000 virtual size
  103000 virtual address (0000000010103000 to 0000000010103FFF)
    1000 size of raw data
    2000 file pointer to raw data (00002000 to 00002FFF)
       0 file pointer to relocation table
       0 file pointer to line numbers
       0 number of relocations
       0 number of line numbers
C0000040 flags
         Initialized Data
         Read Write

RAW DATA #2
  0000000010103000: 00 00 00 00 00 00 00 00 00 00 00 00 00 00 00 00  ................
  0000000010103010: 00 00 00 00 00 00 00 00 00 00 00 00 00 00 00 00  ................
  0000000010103020: 00 00 00 00 00 00 00 00 00 00 00 00 00 00 00 00  ................
  0000000010103030: 00 00 00 00 00 00 00 00 00 00 00 00 00 00 00 00  ................
  0000000010103040: 00 00 00 00 00 00 00 00 00 00 00 00 00 00 00 00  ................
  0000000010103050: 00 00 00 00 00 00 00 00 00 00 00 00 00 00 00 00  ................
  0000000010103060: 00 00 00 00 00 00 00 00 00 00 00 00 00 00 00 00  ................
  0000000010103070: 00 00 00 00 00 00 00 00 00 00 00 00 00 00 00 00  ................
  0000000010103080: 00 00 00 00 00 00 00 00 00 00 00 00 00 00 00 00  ................
  0000000010103090: 00 00 00 00 00 00 00 00 00 00 00 00 00 00 00 00  ................
  00000000101030A0: 00 00 00 00 00 00 00 00 00 00 00 00 00 00 00 00  ................
  00000000101030B0: 00 00 00 00 00 00 00 00 00 00 00 00 00 00 00 00  ................
  00000000101030C0: 00 00 00 00 00 00 00 00 00 00 00 00 00 00 00 00  ................
  00000000101030D0: 00 00 00 00 00 00 00 00 00 00 00 00 00 00 00 00  ................
  00000000101030E0: 00 00 00 00 00 00 00 00 00 00 00 00 00 00 00 00  ................
  00000000101030F0: 00 00 00 00 00 00 00 00 00 00 00 00 00 00 00 00  ................
  0000000010103100: 00 00 00 00 00 00 00 00 00 00 00 00 00 00 00 00  ................
  0000000010103110: 00 00 00 00 00 00 00 00 00 00 00 00 00 00 00 00  ................
  0000000010103120: 00 00 00 00 00 00 00 00 00 00 00 00 00 00 00 00  ................
  0000000010103130: 00 00 00 00 00 00 00 00 00 00 00 00 00 00 00 00  ................
  0000000010103140: 00 00 00 00 00 00 00 00 00 00 00 00 00 00 00 00  ................
  0000000010103150: 00 00 00 00 00 00 00 00 00 00 00 00 00 00 00 00  ................
  0000000010103160: 00 00 00 00 00 00 00 00 00 00 00 00 00 00 00 00  ................
  0000000010103170: 00 00 00 00 00 00 00 00 00 00 00 00 00 00 00 00  ................
  0000000010103180: 00 00 00 00 00 00 00 00 00 00 00 00 00 00 00 00  ................
  0000000010103190: 00 00 00 00 00 00 00 00 00 00 00 00 00 00 00 00  ................
  00000000101031A0: 00 00 00 00 00 00 00 00 00 00 00 00 00 00 00 00  ................
  00000000101031B0: 00 00 00 00 00 00 00 00 00 00 00 00 00 00 00 00  ................
  00000000101031C0: 00 00 00 00 00 00 00 00 00 00 00 00 00 00 00 00  ................
  00000000101031D0: 00 00 00 00 00 00 00 00 00 00 00 00 00 00 00 00  ................
  00000000101031E0: 00 00 00 00 00 00 00 00 00 00 00 00 00 00 00 00  ................
  00000000101031F0: 00 00 00 00 00 00 00 00 00 00 00 00 00 00 00 00  ................
  0000000010103200: 00 00 00 00 00 00 00 00 00 00 00 00 00 00 00 00  ................
  0000000010103210: 00 00 00 00 00 00 00 00 00 00 00 00 00 00 00 00  ................
  0000000010103220: 00 00 00 00 00 00 00 00 00 00 00 00 00 00 00 00  ................
  0000000010103230: 00 00 00 00 00 00 00 00 00 00 00 00 00 00 00 00  ................
  0000000010103240: 00 00 00 00 00 00 00 00 00 00 00 00 00 00 00 00  ................
  0000000010103250: 00 00 00 00 00 00 00 00 00 00 00 00 00 00 00 00  ................
  0000000010103260: 00 00 00 00 00 00 00 00 00 00 00 00 00 00 00 00  ................
  0000000010103270: 00 00 00 00 00 00 00 00 00 00 00 00 00 00 00 00  ................
  0000000010103280: 00 00 00 00 00 00 00 00 00 00 00 00 00 00 00 00  ................
  0000000010103290: 00 00 00 00 00 00 00 00 00 00 00 00 00 00 00 00  ................
  00000000101032A0: 00 00 00 00 00 00 00 00 00 00 00 00 00 00 00 00  ................
  00000000101032B0: 00 00 00 00 00 00 00 00 00 00 00 00 00 00 00 00  ................
  00000000101032C0: 00 00 00 00 00 00 00 00 00 00 00 00 00 00 00 00  ................
  00000000101032D0: 00 00 00 00 00 00 00 00 00 00 00 00 00 00 00 00  ................
  00000000101032E0: 00 00 00 00 00 00 00 00 00 00 00 00 00 00 00 00  ................
  00000000101032F0: 00 00 00 00 00 00 00 00 00 00 00 00 00 00 00 00  ................
  0000000010103300: 00 00 00 00 00 00 00 00 00 00 00 00 00 00 00 00  ................
  0000000010103310: 00 00 00 00 00 00 00 00 00 00 00 00 00 00 00 00  ................
  0000000010103320: 00 00 00 00 00 00 00 00 00 00 00 00 00 00 00 00  ................
  0000000010103330: 00 00 00 00 00 00 00 00 00 00 00 00 00 00 00 00  ................
  0000000010103340: 00 00 00 00 00 00 00 00 00 00 00 00 00 00 00 00  ................
  0000000010103350: 00 00 00 00 00 00 00 00 00 00 00 00 00 00 00 00  ................
  0000000010103360: 00 00 00 00 00 00 00 00 00 00 00 00 00 00 00 00  ................
  0000000010103370: 00 00 00 00 00 00 00 00 00 00 00 00 00 00 00 00  ................
  0000000010103380: 00 00 00 00 00 00 00 00 00 00 00 00 00 00 00 00  ................
  0000000010103390: 00 00 00 00 00 00 00 00 00 00 00 00 00 00 00 00  ................
  00000000101033A0: 00 00 00 00 00 00 00 00 00 00 00 00 00 00 00 00  ................
  00000000101033B0: 00 00 00 00 00 00 00 00 00 00 00 00 00 00 00 00  ................
  00000000101033C0: 00 00 00 00 00 00 00 00 00 00 00 00 00 00 00 00  ................
  00000000101033D0: 00 00 00 00 00 00 00 00 00 00 00 00 00 00 00 00  ................
  00000000101033E0: 00 00 00 00 00 00 00 00 00 00 00 00 00 00 00 00  ................
  00000000101033F0: 00 00 00 00 00 00 00 00 00 00 00 00 00 00 00 00  ................
  0000000010103400: 00 00 00 00 00 00 00 00 00 00 00 00 00 00 00 00  ................
  0000000010103410: 00 00 00 00 00 00 00 00 00 00 00 00 00 00 00 00  ................
  0000000010103420: 00 00 00 00 00 00 00 00 00 00 00 00 00 00 00 00  ................
  0000000010103430: 00 00 00 00 00 00 00 00 00 00 00 00 00 00 00 00  ................
  0000000010103440: 00 00 00 00 00 00 00 00 00 00 00 00 00 00 00 00  ................
  0000000010103450: 00 00 00 00 00 00 00 00 00 00 00 00 00 00 00 00  ................
  0000000010103460: 00 00 00 00 00 00 00 00 00 00 00 00 00 00 00 00  ................
  0000000010103470: 00 00 00 00 00 00 00 00 00 00 00 00 00 00 00 00  ................
  0000000010103480: 00 00 00 00 00 00 00 00 00 00 00 00 00 00 00 00  ................
  0000000010103490: 00 00 00 00 00 00 00 00 00 00 00 00 00 00 00 00  ................
  00000000101034A0: 00 00 00 00 00 00 00 00 00 00 00 00 00 00 00 00  ................
  00000000101034B0: 00 00 00 00 00 00 00 00 00 00 00 00 00 00 00 00  ................
  00000000101034C0: 00 00 00 00 00 00 00 00 00 00 00 00 00 00 00 00  ................
  00000000101034D0: 00 00 00 00 00 00 00 00 00 00 00 00 00 00 00 00  ................
  00000000101034E0: 00 00 00 00 00 00 00 00 00 00 00 00 00 00 00 00  ................
  00000000101034F0: 00 00 00 00 00 00 00 00 00 00 00 00 00 00 00 00  ................
  0000000010103500: 00 00 00 00 00 00 00 00 00 00 00 00 00 00 00 00  ................
  0000000010103510: 00 00 00 00 00 00 00 00 00 00 00 00 00 00 00 00  ................
  0000000010103520: 00 00 00 00 00 00 00 00 00 00 00 00 00 00 00 00  ................
  0000000010103530: 00 00 00 00 00 00 00 00 00 00 00 00 00 00 00 00  ................
  0000000010103540: 00 00 00 00 00 00 00 00 00 00 00 00 00 00 00 00  ................
  0000000010103550: 00 00 00 00 00 00 00 00 00 00 00 00 00 00 00 00  ................
  0000000010103560: 00 00 00 00 00 00 00 00 00 00 00 00 00 00 00 00  ................
  0000000010103570: 00 00 00 00 00 00 00 00 00 00 00 00 00 00 00 00  ................
  0000000010103580: 00 00 00 00 00 00 00 00 00 00 00 00 00 00 00 00  ................
  0000000010103590: 00 00 00 00 00 00 00 00 00 00 00 00 00 00 00 00  ................
  00000000101035A0: 00 00 00 00 00 00 00 00 00 00 00 00 00 00 00 00  ................
  00000000101035B0: 00 00 00 00 00 00 00 00 00 00 00 00 00 00 00 00  ................
  00000000101035C0: 00 00 00 00 00 00 00 00 00 00 00 00 00 00 00 00  ................
  00000000101035D0: 00 00 00 00 00 00 00 00 00 00 00 00 00 00 00 00  ................
  00000000101035E0: 00 00 00 00 00 00 00 00 00 00 00 00 00 00 00 00  ................
  00000000101035F0: 00 00 00 00 00 00 00 00 00 00 00 00 00 00 00 00  ................
  0000000010103600: 00 00 00 00 00 00 00 00 00 00 00 00 00 00 00 00  ................
  0000000010103610: 00 00 00 00 00 00 00 00 00 00 00 00 00 00 00 00  ................
  0000000010103620: 00 00 00 00 00 00 00 00 00 00 00 00 00 00 00 00  ................
  0000000010103630: 00 00 00 00 00 00 00 00 00 00 00 00 00 00 00 00  ................
  0000000010103640: 00 00 00 00 00 00 00 00 00 00 00 00 00 00 00 00  ................
  0000000010103650: 00 00 00 00 00 00 00 00 00 00 00 00 00 00 00 00  ................
  0000000010103660: 00 00 00 00 00 00 00 00 00 00 00 00 00 00 00 00  ................
  0000000010103670: 00 00 00 00 00 00 00 00 00 00 00 00 00 00 00 00  ................
  0000000010103680: 00 00 00 00 00 00 00 00 00 00 00 00 00 00 00 00  ................
  0000000010103690: 00 00 00 00 00 00 00 00 00 00 00 00 00 00 00 00  ................
  00000000101036A0: 00 00 00 00 00 00 00 00 00 00 00 00 00 00 00 00  ................
  00000000101036B0: 00 00 00 00 00 00 00 00 00 00 00 00 00 00 00 00  ................
  00000000101036C0: 00 00 00 00 00 00 00 00 00 00 00 00 00 00 00 00  ................
  00000000101036D0: 00 00 00 00 00 00 00 00 00 00 00 00 00 00 00 00  ................
  00000000101036E0: 00 00 00 00 00 00 00 00 00 00 00 00 00 00 00 00  ................
  00000000101036F0: 00 00 00 00 00 00 00 00 00 00 00 00 00 00 00 00  ................
  0000000010103700: 00 00 00 00 00 00 00 00 00 00 00 00 00 00 00 00  ................
  0000000010103710: 00 00 00 00 00 00 00 00 00 00 00 00 00 00 00 00  ................
  0000000010103720: 00 00 00 00 00 00 00 00 00 00 00 00 00 00 00 00  ................
  0000000010103730: 00 00 00 00 00 00 00 00 00 00 00 00 00 00 00 00  ................
  0000000010103740: 00 00 00 00 00 00 00 00 00 00 00 00 00 00 00 00  ................
  0000000010103750: 00 00 00 00 00 00 00 00 00 00 00 00 00 00 00 00  ................
  0000000010103760: 00 00 00 00 00 00 00 00 00 00 00 00 00 00 00 00  ................
  0000000010103770: 00 00 00 00 00 00 00 00 00 00 00 00 00 00 00 00  ................
  0000000010103780: 00 00 00 00 00 00 00 00 00 00 00 00 00 00 00 00  ................
  0000000010103790: 00 00 00 00 00 00 00 00 00 00 00 00 00 00 00 00  ................
  00000000101037A0: 00 00 00 00 00 00 00 00 00 00 00 00 00 00 00 00  ................
  00000000101037B0: 00 00 00 00 00 00 00 00 00 00 00 00 00 00 00 00  ................
  00000000101037C0: 00 00 00 00 00 00 00 00 00 00 00 00 00 00 00 00  ................
  00000000101037D0: 00 00 00 00 00 00 00 00 00 00 00 00 00 00 00 00  ................
  00000000101037E0: 00 00 00 00 00 00 00 00 00 00 00 00 00 00 00 00  ................
  00000000101037F0: 00 00 00 00 00 00 00 00 00 00 00 00 00 00 00 00  ................
  0000000010103800: 00 00 00 00 00 00 00 00 00 00 00 00 00 00 00 00  ................
  0000000010103810: 00 00 00 00 00 00 00 00 00 00 00 00 00 00 00 00  ................
  0000000010103820: 00 00 00 00 00 00 00 00 00 00 00 00 00 00 00 00  ................
  0000000010103830: 00 00 00 00 00 00 00 00 00 00 00 00 00 00 00 00  ................
  0000000010103840: 00 00 00 00 00 00 00 00 00 00 00 00 00 00 00 00  ................
  0000000010103850: 00 00 00 00 00 00 00 00 00 00 00 00 00 00 00 00  ................
  0000000010103860: 00 00 00 00 00 00 00 00 00 00 00 00 00 00 00 00  ................
  0000000010103870: 00 00 00 00 00 00 00 00 00 00 00 00 00 00 00 00  ................
  0000000010103880: 00 00 00 00 00 00 00 00 00 00 00 00 00 00 00 00  ................
  0000000010103890: 00 00 00 00 00 00 00 00 00 00 00 00 00 00 00 00  ................
  00000000101038A0: 00 00 00 00 00 00 00 00 00 00 00 00 00 00 00 00  ................
  00000000101038B0: 00 00 00 00 00 00 00 00 00 00 00 00 00 00 00 00  ................
  00000000101038C0: 00 00 00 00 00 00 00 00 00 00 00 00 00 00 00 00  ................
  00000000101038D0: 00 00 00 00 00 00 00 00 00 00 00 00 00 00 00 00  ................
  00000000101038E0: 00 00 00 00 00 00 00 00 00 00 00 00 00 00 00 00  ................
  00000000101038F0: 00 00 00 00 00 00 00 00 00 00 00 00 00 00 00 00  ................
  0000000010103900: 00 00 00 00 00 00 00 00 00 00 00 00 00 00 00 00  ................
  0000000010103910: 00 00 00 00 00 00 00 00 00 00 00 00 00 00 00 00  ................
  0000000010103920: 00 00 00 00 00 00 00 00 00 00 00 00 00 00 00 00  ................
  0000000010103930: 00 00 00 00 00 00 00 00 00 00 00 00 00 00 00 00  ................
  0000000010103940: 00 00 00 00 00 00 00 00 00 00 00 00 00 00 00 00  ................
  0000000010103950: 00 00 00 00 00 00 00 00 00 00 00 00 00 00 00 00  ................
  0000000010103960: 00 00 00 00 00 00 00 00 00 00 00 00 00 00 00 00  ................
  0000000010103970: 00 00 00 00 00 00 00 00 00 00 00 00 00 00 00 00  ................
  0000000010103980: 00 00 00 00 00 00 00 00 00 00 00 00 00 00 00 00  ................
  0000000010103990: 00 00 00 00 00 00 00 00 00 00 00 00 00 00 00 00  ................
  00000000101039A0: 00 00 00 00 00 00 00 00 00 00 00 00 00 00 00 00  ................
  00000000101039B0: 00 00 00 00 00 00 00 00 00 00 00 00 00 00 00 00  ................
  00000000101039C0: FF FF FF FF FF FF FF FF 00 00 00 00 00 00 00 00  ÿÿÿÿÿÿÿÿ........
  00000000101039D0: 66 00 69 00 6C 00 65 00 20 00 70 00 6F 00 73 00  f.i.l.e. .p.o.s.
  00000000101039E0: 20 00 00 00 00 00 00 00 00 00 00 00 00 00 00 00   ...............
  00000000101039F0: 3A 00 20 00 00 00 00 00 00 00 00 00 00 00 00 00  :. .............
  0000000010103A00: 30 00 00 00 39 00 00 00 41 00 00 00 5F 00 00 00  0...9...A..._...
  0000000010103A10: 5A 00 00 00 61 00 00 00 7A 00 00 00 00 00 00 00  Z...a...z.......
  0000000010103A20: 53 00 74 00 72 00 69 00 6E 00 67 00 20 00 74 00  S.t.r.i.n.g. .t.
  0000000010103A30: 6F 00 6F 00 20 00 6C 00 6F 00 6E 00 67 00 00 00  o.o. .l.o.n.g...
  0000000010103A40: 00 00 00 00 00 00 00 00 00 00 00 00 40 00 00 00  ............@...
  0000000010103A50: 24 00 00 00 20 00 00 00 09 00 00 00 0D 00 00 00  $... ...........
  0000000010103A60: 30 00 00 00 39 00 00 00 41 00 00 00 46 00 00 00  0...9...A...F...
  0000000010103A70: 48 00 65 00 78 00 20 00 64 00 69 00 67 00 69 00  H.e.x. .d.i.g.i.
  0000000010103A80: 74 00 20 00 65 00 78 00 70 00 65 00 63 00 74 00  t. .e.x.p.e.c.t.
  0000000010103A90: 65 00 64 00 00 00 00 00 00 00 00 00 00 00 00 00  e.d.............
  0000000010103AA0: 30 00 00 00 39 00 00 00 41 00 00 00 46 00 00 00  0...9...A...F...
  0000000010103AB0: 48 00 65 00 78 00 20 00 64 00 69 00 67 00 69 00  H.e.x. .d.i.g.i.
  0000000010103AC0: 74 00 20 00 65 00 78 00 70 00 65 00 63 00 74 00  t. .e.x.p.e.c.t.
  0000000010103AD0: 65 00 64 00 00 00 00 00 00 00 00 00 00 00 00 00  e.d.............
  0000000010103AE0: 53 00 74 00 72 00 69 00 6E 00 67 00 20 00 74 00  S.t.r.i.n.g. .t.
  0000000010103AF0: 6F 00 6F 00 20 00 6C 00 6F 00 6E 00 67 00 00 00  o.o. .l.o.n.g...
  0000000010103B00: 54 00 6F 00 6F 00 20 00 6D 00 61 00 6E 00 79 00  T.o.o. .m.a.n.y.
  0000000010103B10: 20 00 64 00 69 00 67 00 69 00 74 00 73 00 00 00   .d.i.g.i.t.s...
  0000000010103B20: 30 00 00 00 39 00 00 00 41 00 00 00 46 00 00 00  0...9...A...F...
  0000000010103B30: 48 00 00 00 52 00 00 00 58 00 00 00 58 00 00 00  H...R...X...X...
  0000000010103B40: 49 00 6C 00 6C 00 65 00 67 00 61 00 6C 00 20 00  I.l.l.e.g.a.l. .
  0000000010103B50: 76 00 61 00 6C 00 75 00 65 00 00 00 00 00 00 00  v.a.l.u.e.......
  0000000010103B60: 00 00 00 00 00 00 00 00 00 00 00 00 00 00 00 00  ................
  0000000010103B70: 52 00 00 00 2E 00 00 00 2E 00 00 00 7F 00 00 00  R...............
  0000000010103B80: 54 00 6F 00 6F 00 20 00 6C 00 61 00 72 00 67 00  T.o.o. .l.a.r.g.
  0000000010103B90: 65 00 00 00 00 00 00 00 00 00 00 00 00 00 00 00  e...............
  0000000010103BA0: 42 00 61 00 64 00 20 00 69 00 6E 00 74 00 65 00  B.a.d. .i.n.t.e.
  0000000010103BB0: 67 00 65 00 72 00 00 00 00 00 00 00 00 00 00 00  g.e.r...........
  0000000010103BC0: 00 00 00 00 00 00 00 00 30 00 00 00 39 00 00 00  ........0...9...
  0000000010103BD0: 45 00 00 00 44 00 00 00 2D 00 00 00 2B 00 00 00  E...D...-...+...
  0000000010103BE0: 30 00 00 00 39 00 00 00 30 00 00 00 39 00 00 00  0...9...0...9...
  0000000010103BF0: 44 00 69 00 67 00 69 00 74 00 3F 00 00 00 00 00  D.i.g.i.t.?.....
  0000000010103C00: 54 00 6F 00 6F 00 20 00 6C 00 61 00 72 00 67 00  T.o.o. .l.a.r.g.
  0000000010103C10: 65 00 00 00 00 00 00 00 00 00 00 00 00 00 00 00  e...............
  0000000010103C20: 54 00 6F 00 6F 00 20 00 6C 00 61 00 72 00 67 00  T.o.o. .l.a.r.g.
  0000000010103C30: 65 00 00 00 00 00 00 00 00 00 00 00 00 00 00 00  e...............
  0000000010103C40: 42 00 61 00 64 00 20 00 69 00 6E 00 74 00 65 00  B.a.d. .i.n.t.e.
  0000000010103C50: 67 00 65 00 72 00 00 00 00 00 00 00 00 00 00 00  g.e.r...........
  0000000010103C60: 00 00 00 00 2A 00 00 00 00 00 00 00 2A 00 00 00  ....*.......*...
  0000000010103C70: 49 00 6E 00 63 00 6F 00 72 00 72 00 65 00 63 00  I.n.c.o.r.r.e.c.
  0000000010103C80: 74 00 20 00 63 00 6F 00 6D 00 70 00 69 00 6C 00  t. .c.o.m.p.i.l.
  0000000010103C90: 65 00 72 00 20 00 64 00 69 00 72 00 65 00 63 00  e.r. .d.i.r.e.c.
  0000000010103CA0: 74 00 69 00 76 00 65 00 00 00 00 00 00 00 00 00  t.i.v.e.........
  0000000010103CB0: 24 00 00 00 28 00 00 00 2A 00 00 00 2A 00 00 00  $...(...*...*...
  0000000010103CC0: 29 00 00 00 20 00 00 00 41 00 00 00 30 00 00 00  )... ...A...0...
  0000000010103CD0: 22 00 00 00 27 00 00 00 23 00 00 00 24 00 00 00  "...'...#...$...
  0000000010103CE0: 26 00 00 00 28 00 00 00 2A 00 00 00 29 00 00 00  &...(...*...)...
  0000000010103CF0: 2A 00 00 00 2B 00 00 00 2C 00 00 00 2D 00 00 00  *...+...,...-...
  0000000010103D00: 2E 00 00 00 2E 00 00 00 2F 00 00 00 3A 00 00 00  ......../...:...
  0000000010103D10: 3A 00 00 00 3D 00 00 00 3B 00 00 00 3C 00 00 00  :...=...;...<...
  0000000010103D20: 3D 00 00 00 3D 00 00 00 3E 00 00 00 3D 00 00 00  =...=...>...=...
  0000000010103D30: 5B 00 00 00 61 00 00 00 5B 00 00 00 5D 00 00 00  [...a...[...]...
  0000000010103D40: 5E 00 00 00 5F 00 00 00 7B 00 00 00 7B 00 00 00  ^..._...{...{...
  0000000010103D50: 7D 00 00 00 7C 00 00 00 7E 00 00 00 7F 00 00 00  }...|...~.......
  0000000010103D60: 49 00 46 00 00 00 00 00 44 00 4F 00 00 00 00 00  I.F.....D.O.....
  0000000010103D70: 4F 00 46 00 00 00 00 00 4F 00 52 00 00 00 00 00  O.F.....O.R.....
  0000000010103D80: 54 00 4F 00 00 00 00 00 49 00 4E 00 00 00 00 00  T.O.....I.N.....
  0000000010103D90: 49 00 53 00 00 00 00 00 42 00 59 00 00 00 00 00  I.S.....B.Y.....
  0000000010103DA0: 45 00 4E 00 44 00 00 00 4E 00 49 00 4C 00 00 00  E.N.D...N.I.L...
  0000000010103DB0: 56 00 41 00 52 00 00 00 44 00 49 00 56 00 00 00  V.A.R...D.I.V...
  0000000010103DC0: 4D 00 4F 00 44 00 00 00 46 00 4F 00 52 00 00 00  M.O.D...F.O.R...
  0000000010103DD0: 45 00 4C 00 53 00 45 00 00 00 00 00 00 00 00 00  E.L.S.E.........
  0000000010103DE0: 54 00 48 00 45 00 4E 00 00 00 00 00 00 00 00 00  T.H.E.N.........
  0000000010103DF0: 54 00 52 00 55 00 45 00 00 00 00 00 00 00 00 00  T.R.U.E.........
  0000000010103E00: 54 00 59 00 50 00 45 00 00 00 00 00 00 00 00 00  T.Y.P.E.........
  0000000010103E10: 43 00 41 00 53 00 45 00 00 00 00 00 00 00 00 00  C.A.S.E.........
  0000000010103E20: 45 00 4C 00 53 00 49 00 46 00 00 00 00 00 00 00  E.L.S.I.F.......
  0000000010103E30: 46 00 41 00 4C 00 53 00 45 00 00 00 00 00 00 00  F.A.L.S.E.......
  0000000010103E40: 41 00 52 00 52 00 41 00 59 00 00 00 00 00 00 00  A.R.R.A.Y.......
  0000000010103E50: 42 00 45 00 47 00 49 00 4E 00 00 00 00 00 00 00  B.E.G.I.N.......
  0000000010103E60: 43 00 4F 00 4E 00 53 00 54 00 00 00 00 00 00 00  C.O.N.S.T.......
  0000000010103E70: 55 00 4E 00 54 00 49 00 4C 00 00 00 00 00 00 00  U.N.T.I.L.......
  0000000010103E80: 57 00 48 00 49 00 4C 00 45 00 00 00 00 00 00 00  W.H.I.L.E.......
  0000000010103E90: 52 00 45 00 43 00 4F 00 52 00 44 00 00 00 00 00  R.E.C.O.R.D.....
  0000000010103EA0: 52 00 45 00 50 00 45 00 41 00 54 00 00 00 00 00  R.E.P.E.A.T.....
  0000000010103EB0: 52 00 45 00 54 00 55 00 52 00 4E 00 00 00 00 00  R.E.T.U.R.N.....
  0000000010103EC0: 49 00 4D 00 50 00 4F 00 52 00 54 00 00 00 00 00  I.M.P.O.R.T.....
  0000000010103ED0: 4D 00 4F 00 44 00 55 00 4C 00 45 00 00 00 00 00  M.O.D.U.L.E.....
  0000000010103EE0: 50 00 4F 00 49 00 4E 00 54 00 45 00 52 00 00 00  P.O.I.N.T.E.R...
  0000000010103EF0: 50 00 52 00 4F 00 43 00 45 00 44 00 55 00 52 00  P.R.O.C.E.D.U.R.
  0000000010103F00: 45 00 00 00 00 00 00 00 00 00 00 00 00 00 00 00  E...............
  0000000010103F10: 45 00 58 00 54 00 45 00 4E 00 53 00 49 00 42 00  E.X.T.E.N.S.I.B.
  0000000010103F20: 4C 00 45 00 00 00 00 00 00 00 00 00 00 00 00 00  L.E.............
  0000000010103F30: 00 00 00 00 00 00 00 00 00 00 00 00 00 00 00 00  ................
  0000000010103F40: 00 00 00 00 00 00 00 00 00 00 00 00 00 00 00 00  ................
  0000000010103F50: 00 00 00 00 00 00 00 00 00 00 00 00 00 00 00 00  ................
  0000000010103F60: 42 00 61 00 73 00 65 00 53 00 79 00 73 00 2E 00  B.a.s.e.S.y.s...
  0000000010103F70: 64 00 6C 00 6C 00 00 00 00 00 00 00 00 00 00 00  d.l.l...........
  0000000010103F80: 00 00 00 00 00 00 00 00 00 00 00 00 00 00 00 00  ................
  0000000010103F90: 00 00 00 00 00 00 00 00 00 00 00 00 00 00 00 00  ................
  0000000010103FA0: 00 00 00 00 00 00 00 00 00 00 00 00 00 00 00 00  ................
  0000000010103FB0: 00 00 00 00 00 00 00 00 00 00 00 00 00 00 00 00  ................
  0000000010103FC0: 00 00 00 00 00 00 00 00 70 60 10 00 00 00 00 00  ........p`......
  0000000010103FD0: 90 60 10 00 00 00 00 00 B0 60 10 00 00 00 00 00  .`......°`......
  0000000010103FE0: D0 60 10 00 00 00 00 00 F0 60 10 00 00 00 00 00  ?`......?`......
  0000000010103FF0: 10 61 10 00 00 00 00 00 00 00 00 00 00 00 00 00  .a..............

SECTION HEADER #3
   .text name
    18BA virtual size
  104000 virtual address (0000000010104000 to 00000000101058B9)
    1A00 size of raw data
     400 file pointer to raw data (00000400 to 00001DFF)
       0 file pointer to relocation table
       0 file pointer to line numbers
       0 number of relocations
       0 number of line numbers
60000020 flags
         Code
         Execute Read

  0000000010104000: 55                 push        rbp
  0000000010104001: 48 8B EC           mov         rbp,rsp
  0000000010104004: 48 83 EC 10        sub         rsp,10h
  0000000010104008: 48 89 5D F0        mov         qword ptr [rbp-10h],rbx
  000000001010400C: 48 8D 1D ED FF FF  lea         rbx,[0000000010104000h]
                    FF
  0000000010104013: 48 8B 83 30 DA EF  mov         rax,qword ptr [rbx+FFFFFFFFFFEFDA30h]
                    FF
  000000001010401A: 48 8B 5D F0        mov         rbx,qword ptr [rbp-10h]
  000000001010401E: C9                 leave
  000000001010401F: C3                 ret
  0000000010104020: 55                 push        rbp
  0000000010104021: 48 8B EC           mov         rbp,rsp
  0000000010104024: 48 83 EC 30        sub         rsp,30h
  0000000010104028: 48 89 5D F0        mov         qword ptr [rbp-10h],rbx
  000000001010402C: 48 8D 1D CD FF FF  lea         rbx,[0000000010104000h]
                    FF
  0000000010104033: 48 89 4D 10        mov         qword ptr [rbp+10h],rcx
  0000000010104037: 48 89 55 18        mov         qword ptr [rbp+18h],rdx
  000000001010403B: 48 8B 83 38 DA EF  mov         rax,qword ptr [rbx+FFFFFFFFFFEFDA38h]
                    FF
  0000000010104042: 48 89 45 F8        mov         qword ptr [rbp-8],rax
  0000000010104046: 48 8B 45 F8        mov         rax,qword ptr [rbp-8]
  000000001010404A: 48 8B 8B 48 ED FF  mov         rcx,qword ptr [rbx+FFFFFFFFFFFFED48h]
                    FF
  0000000010104051: 48 3B C1           cmp         rax,rcx
  0000000010104054: 7E 53              jle         00000000101040A9
  0000000010104056: 48 83 BB 58 ED FF  cmp         qword ptr [rbx+FFFFFFFFFFFFED58h],19h
                    FF 19
  000000001010405E: 7D 49              jge         00000000101040A9
  0000000010104060: 48 8D 8B D0 F9 FF  lea         rcx,[rbx+FFFFFFFFFFFFF9D0h]
                    FF
  0000000010104067: BA 0A 00 00 00     mov         edx,0Ah
  000000001010406C: FF 93 50 FF FF FF  call        qword ptr [rbx+FFFFFFFFFFFFFF50h]
  0000000010104072: 48 8B 4D F8        mov         rcx,qword ptr [rbp-8]
  0000000010104076: FF 93 48 FF FF FF  call        qword ptr [rbx+FFFFFFFFFFFFFF48h]
  000000001010407C: 48 8D 8B F0 F9 FF  lea         rcx,[rbx+FFFFFFFFFFFFF9F0h]
                    FF
  0000000010104083: BA 03 00 00 00     mov         edx,3
  0000000010104088: FF 93 50 FF FF FF  call        qword ptr [rbx+FFFFFFFFFFFFFF50h]
  000000001010408E: 48 8B 4D 10        mov         rcx,qword ptr [rbp+10h]
  0000000010104092: 48 8B 55 18        mov         rdx,qword ptr [rbp+18h]
  0000000010104096: FF 93 50 FF FF FF  call        qword ptr [rbx+FFFFFFFFFFFFFF50h]
  000000001010409C: FF 93 40 FF FF FF  call        qword ptr [rbx+FFFFFFFFFFFFFF40h]
  00000000101040A2: 48 FF 83 58 ED FF  inc         qword ptr [rbx+FFFFFFFFFFFFED58h]
                    FF
  00000000101040A9: 48 8B 45 F8        mov         rax,qword ptr [rbp-8]
  00000000101040AD: 48 83 C0 04        add         rax,4
  00000000101040B1: 48 89 83 48 ED FF  mov         qword ptr [rbx+FFFFFFFFFFFFED48h],rax
                    FF
  00000000101040B8: 48 8B 5D F0        mov         rbx,qword ptr [rbp-10h]
  00000000101040BC: C9                 leave
  00000000101040BD: C3                 ret
  00000000101040BE: 90                 nop
  00000000101040BF: 90                 nop
  00000000101040C0: 55                 push        rbp
  00000000101040C1: 48 8B EC           mov         rbp,rsp
  00000000101040C4: 48 83 EC 10        sub         rsp,10h
  00000000101040C8: 48 8B 83 40 DA EF  mov         rax,qword ptr [rbx+FFFFFFFFFFEFDA40h]
                    FF
  00000000101040CF: 48 8B 8B 28 DA EF  mov         rcx,qword ptr [rbx+FFFFFFFFFFEFDA28h]
                    FF
  00000000101040D6: 48 3B C1           cmp         rax,rcx
  00000000101040D9: 7D 48              jge         0000000010104123
  00000000101040DB: 48 8D 83 48 DA EF  lea         rax,[rbx+FFFFFFFFFFEFDA48h]
                    FF
  00000000101040E2: 48 8B 8B 40 DA EF  mov         rcx,qword ptr [rbx+FFFFFFFFFFEFDA40h]
                    FF
  00000000101040E9: 48 81 F9 00 00 10  cmp         rcx,100000h
                    00
  00000000101040F0: 73 02              jae         00000000101040F4
  00000000101040F2: EB 08              jmp         00000000101040FC
  00000000101040F4: B0 01              mov         al,1
  00000000101040F6: B9 54 0E 00 00     mov         ecx,0E54h
  00000000101040FB: CC                 int         3
  00000000101040FC: 48 03 C1           add         rax,rcx
  00000000101040FF: 0F B6 00           movzx       eax,byte ptr [rax]
  0000000010104102: 48 81 E0 FF 00 00  and         rax,0FFh
                    00
  0000000010104109: 0F B7 C0           movzx       eax,ax
  000000001010410C: 66 89 83 56 ED FF  mov         word ptr [rbx+FFFFFFFFFFFFED56h],ax
                    FF
  0000000010104113: 48 FF 83 40 DA EF  inc         qword ptr [rbx+FFFFFFFFFFEFDA40h]
                    FF
  000000001010411A: 48 FF 83 30 DA EF  inc         qword ptr [rbx+FFFFFFFFFFEFDA30h]
                    FF
  0000000010104121: EB 10              jmp         0000000010104133
  0000000010104123: C6 83 55 ED FF FF  mov         byte ptr [rbx+FFFFFFFFFFFFED55h],1
                    01
  000000001010412A: 31 C0              xor         eax,eax
  000000001010412C: 66 89 83 56 ED FF  mov         word ptr [rbx+FFFFFFFFFFFFED56h],ax
                    FF
  0000000010104133: C9                 leave
  0000000010104134: C3                 ret
  0000000010104135: 90                 nop
  0000000010104136: 90                 nop
  0000000010104137: 90                 nop
  0000000010104138: 90                 nop
  0000000010104139: 90                 nop
  000000001010413A: 90                 nop
  000000001010413B: 90                 nop
  000000001010413C: 90                 nop
  000000001010413D: 90                 nop
  000000001010413E: 90                 nop
  000000001010413F: 90                 nop
  0000000010104140: 55                 push        rbp
  0000000010104141: 48 8B EC           mov         rbp,rsp
  0000000010104144: 48 83 EC 40        sub         rsp,40h
  0000000010104148: 48 89 75 E0        mov         qword ptr [rbp-20h],rsi
  000000001010414C: 48 89 7D E8        mov         qword ptr [rbp-18h],rdi
  0000000010104150: 48 89 4D 10        mov         qword ptr [rbp+10h],rcx
  0000000010104154: 31 C0              xor         eax,eax
  0000000010104156: 48 89 45 F8        mov         qword ptr [rbp-8],rax
  000000001010415A: 48 83 7D F8 3F     cmp         qword ptr [rbp-8],3Fh
  000000001010415F: 7D 30              jge         0000000010104191
  0000000010104161: 48 8D 83 68 EF FF  lea         rax,[rbx+FFFFFFFFFFFFEF68h]
                    FF
  0000000010104168: 48 8B 4D F8        mov         rcx,qword ptr [rbp-8]
  000000001010416C: 48 83 F9 40        cmp         rcx,40h
  0000000010104170: 73 02              jae         0000000010104174
  0000000010104172: EB 08              jmp         000000001010417C
  0000000010104174: B0 01              mov         al,1
  0000000010104176: B9 1D 0F 00 00     mov         ecx,0F1Dh
  000000001010417B: CC                 int         3
  000000001010417C: 48 C1 E1 01        shl         rcx,1
  0000000010104180: 48 03 C1           add         rax,rcx
  0000000010104183: 0F B7 8B 56 ED FF  movzx       ecx,word ptr [rbx+FFFFFFFFFFFFED56h]
                    FF
  000000001010418A: 66 89 08           mov         word ptr [rax],cx
  000000001010418D: 48 FF 45 F8        inc         qword ptr [rbp-8]
  0000000010104191: E8 2A FF FF FF     call        00000000101040C0
  0000000010104196: 66 83 BB 56 ED FF  cmp         word ptr [rbx+FFFFFFFFFFFFED56h],30h
                    FF 30
  000000001010419E: 72 40              jb          00000000101041E0
  00000000101041A0: 66 83 BB 56 ED FF  cmp         word ptr [rbx+FFFFFFFFFFFFED56h],39h
                    FF 39
  00000000101041A8: 76 0A              jbe         00000000101041B4
  00000000101041AA: 66 83 BB 56 ED FF  cmp         word ptr [rbx+FFFFFFFFFFFFED56h],41h
                    FF 41
  00000000101041B2: 72 2C              jb          00000000101041E0
  00000000101041B4: 66 83 BB 56 ED FF  cmp         word ptr [rbx+FFFFFFFFFFFFED56h],5Fh
                    FF 5F
  00000000101041BC: 74 14              je          00000000101041D2
  00000000101041BE: 66 83 BB 56 ED FF  cmp         word ptr [rbx+FFFFFFFFFFFFED56h],5Ah
                    FF 5A
  00000000101041C6: 76 0A              jbe         00000000101041D2
  00000000101041C8: 66 83 BB 56 ED FF  cmp         word ptr [rbx+FFFFFFFFFFFFED56h],61h
                    FF 61
  00000000101041D0: 72 0E              jb          00000000101041E0
  00000000101041D2: 66 83 BB 56 ED FF  cmp         word ptr [rbx+FFFFFFFFFFFFED56h],7Ah
                    FF 7A
  00000000101041DA: 0F 86 7A FF FF FF  jbe         000000001010415A
  00000000101041E0: 48 8D 83 68 EF FF  lea         rax,[rbx+FFFFFFFFFFFFEF68h]
                    FF
  00000000101041E7: 48 8B 4D F8        mov         rcx,qword ptr [rbp-8]
  00000000101041EB: 48 83 F9 40        cmp         rcx,40h
  00000000101041EF: 73 02              jae         00000000101041F3
  00000000101041F1: EB 08              jmp         00000000101041FB
  00000000101041F3: B0 01              mov         al,1
  00000000101041F5: B9 A5 0F 00 00     mov         ecx,0FA5h
  00000000101041FA: CC                 int         3
  00000000101041FB: 48 C1 E1 01        shl         rcx,1
  00000000101041FF: 48 03 C1           add         rax,rcx
  0000000010104202: 31 C9              xor         ecx,ecx
  0000000010104204: 66 89 08           mov         word ptr [rax],cx
  0000000010104207: 48 83 7D F8 0B     cmp         qword ptr [rbp-8],0Bh
  000000001010420C: 0F 8D 33 01 00 00  jge         0000000010104345
  0000000010104212: 48 8D 83 E0 EC FF  lea         rax,[rbx+FFFFFFFFFFFFECE0h]
                    FF
  0000000010104219: 48 8B 4D F8        mov         rcx,qword ptr [rbp-8]
  000000001010421D: 48 83 E9 01        sub         rcx,1
  0000000010104221: 48 83 F9 0B        cmp         rcx,0Bh
  0000000010104225: 73 02              jae         0000000010104229
  0000000010104227: EB 08              jmp         0000000010104231
  0000000010104229: B0 01              mov         al,1
  000000001010422B: B9 CD 0F 00 00     mov         ecx,0FCDh
  0000000010104230: CC                 int         3
  0000000010104231: 48 C1 E1 03        shl         rcx,3
  0000000010104235: 48 03 C1           add         rax,rcx
  0000000010104238: 48 8B 00           mov         rax,qword ptr [rax]
  000000001010423B: 48 89 45 F0        mov         qword ptr [rbp-10h],rax
  000000001010423F: 48 8D B3 68 EF FF  lea         rsi,[rbx+FFFFFFFFFFFFEF68h]
                    FF
  0000000010104246: 48 8D BB 48 DA FF  lea         rdi,[rbx+FFFFFFFFFFFFDA48h]
                    FF
  000000001010424D: 48 8B 45 F0        mov         rax,qword ptr [rbp-10h]
  0000000010104251: 48 83 F8 23        cmp         rax,23h
  0000000010104255: 73 02              jae         0000000010104259
  0000000010104257: EB 08              jmp         0000000010104261
  0000000010104259: B0 01              mov         al,1
  000000001010425B: B9 02 10 00 00     mov         ecx,1002h
  0000000010104260: CC                 int         3
  0000000010104261: 48 69 C0 88 00 00  imul        rax,rax,88h
                    00
  0000000010104268: 48 03 F8           add         rdi,rax
  000000001010426B: 48 8D 7F 08        lea         rdi,[rdi+8]
  000000001010426F: 31 C0              xor         eax,eax
  0000000010104271: 48 83 C0 01        add         rax,1
  0000000010104275: 48 83 F8 40        cmp         rax,40h
  0000000010104279: 77 02              ja          000000001010427D
  000000001010427B: EB 08              jmp         0000000010104285
  000000001010427D: B0 07              mov         al,7
  000000001010427F: B9 02 10 00 00     mov         ecx,1002h
  0000000010104284: CC                 int         3
  0000000010104285: 48 83 F8 40        cmp         rax,40h
  0000000010104289: 77 02              ja          000000001010428D
  000000001010428B: EB 08              jmp         0000000010104295
  000000001010428D: B0 07              mov         al,7
  000000001010428F: B9 02 10 00 00     mov         ecx,1002h
  0000000010104294: CC                 int         3
  0000000010104295: 66 A7              cmps        word ptr [rsi],word ptr [rdi]
  0000000010104297: 75 07              jne         00000000101042A0
  0000000010104299: 66 83 7E FE 00     cmp         word ptr [rsi-2],0
  000000001010429E: 75 D1              jne         0000000010104271
  00000000101042A0: 74 37              je          00000000101042D9
  00000000101042A2: 48 8B 4D F0        mov         rcx,qword ptr [rbp-10h]
  00000000101042A6: 48 8D 93 E0 EC FF  lea         rdx,[rbx+FFFFFFFFFFFFECE0h]
                    FF
  00000000101042AD: 4C 8B 45 F8        mov         r8,qword ptr [rbp-8]
  00000000101042B1: 49 83 F8 0B        cmp         r8,0Bh
  00000000101042B5: 73 02              jae         00000000101042B9
  00000000101042B7: EB 08              jmp         00000000101042C1
  00000000101042B9: B0 01              mov         al,1
  00000000101042BB: B9 15 10 00 00     mov         ecx,1015h
  00000000101042C0: CC                 int         3
  00000000101042C1: 49 C1 E0 03        shl         r8,3
  00000000101042C5: 49 03 D0           add         rdx,r8
  00000000101042C8: 48 8B 12           mov         rdx,qword ptr [rdx]
  00000000101042CB: 48 3B CA           cmp         rcx,rdx
  00000000101042CE: 7D 09              jge         00000000101042D9
  00000000101042D0: 48 FF 45 F0        inc         qword ptr [rbp-10h]
  00000000101042D4: E9 66 FF FF FF     jmp         000000001010423F
  00000000101042D9: 48 8B 45 F0        mov         rax,qword ptr [rbp-10h]
  00000000101042DD: 48 8D 8B E0 EC FF  lea         rcx,[rbx+FFFFFFFFFFFFECE0h]
                    FF
  00000000101042E4: 48 8B 55 F8        mov         rdx,qword ptr [rbp-8]
  00000000101042E8: 48 83 FA 0B        cmp         rdx,0Bh
  00000000101042EC: 73 02              jae         00000000101042F0
  00000000101042EE: EB 08              jmp         00000000101042F8
  00000000101042F0: B0 01              mov         al,1
  00000000101042F2: B9 38 10 00 00     mov         ecx,1038h
  00000000101042F7: CC                 int         3
  00000000101042F8: 48 C1 E2 03        shl         rdx,3
  00000000101042FC: 48 03 CA           add         rcx,rdx
  00000000101042FF: 48 8B 09           mov         rcx,qword ptr [rcx]
  0000000010104302: 48 3B C1           cmp         rax,rcx
  0000000010104305: 7D 31              jge         0000000010104338
  0000000010104307: 48 8D 83 48 DA FF  lea         rax,[rbx+FFFFFFFFFFFFDA48h]
                    FF
  000000001010430E: 48 8B 4D F0        mov         rcx,qword ptr [rbp-10h]
  0000000010104312: 48 83 F9 23        cmp         rcx,23h
  0000000010104316: 73 02              jae         000000001010431A
  0000000010104318: EB 08              jmp         0000000010104322
  000000001010431A: B0 01              mov         al,1
  000000001010431C: B9 4F 10 00 00     mov         ecx,104Fh
  0000000010104321: CC                 int         3
  0000000010104322: 48 69 C9 88 00 00  imul        rcx,rcx,88h
                    00
  0000000010104329: 48 03 C1           add         rax,rcx
  000000001010432C: 48 8B 00           mov         rax,qword ptr [rax]
  000000001010432F: 48 8B 4D 10        mov         rcx,qword ptr [rbp+10h]
  0000000010104333: 48 89 01           mov         qword ptr [rcx],rax
  0000000010104336: EB 0B              jmp         0000000010104343
  0000000010104338: 48 8B 45 10        mov         rax,qword ptr [rbp+10h]
  000000001010433C: 48 C7 00 1F 00 00  mov         qword ptr [rax],1Fh
                    00
  0000000010104343: EB 0B              jmp         0000000010104350
  0000000010104345: 48 8B 45 10        mov         rax,qword ptr [rbp+10h]
  0000000010104349: 48 C7 00 1F 00 00  mov         qword ptr [rax],1Fh
                    00
  0000000010104350: 48 8B 75 E0        mov         rsi,qword ptr [rbp-20h]
  0000000010104354: 48 8B 7D E8        mov         rdi,qword ptr [rbp-18h]
  0000000010104358: C9                 leave
  0000000010104359: C3                 ret
  000000001010435A: 90                 nop
  000000001010435B: 90                 nop
  000000001010435C: 90                 nop
  000000001010435D: 90                 nop
  000000001010435E: 90                 nop
  000000001010435F: 90                 nop
  0000000010104360: 55                 push        rbp
  0000000010104361: 48 8B EC           mov         rbp,rsp
  0000000010104364: 48 83 EC 30        sub         rsp,30h
  0000000010104368: 48 89 4D 10        mov         qword ptr [rbp+10h],rcx
  000000001010436C: 31 C0              xor         eax,eax
  000000001010436E: 48 89 45 F8        mov         qword ptr [rbp-8],rax
  0000000010104372: E8 49 FD FF FF     call        00000000101040C0
  0000000010104377: 0F B6 83 55 ED FF  movzx       eax,byte ptr [rbx+FFFFFFFFFFFFED55h]
                    FF
  000000001010437E: 85 C0              test        eax,eax
  0000000010104380: 75 67              jne         00000000101043E9
  0000000010104382: 0F B7 83 56 ED FF  movzx       eax,word ptr [rbx+FFFFFFFFFFFFED56h]
                    FF
  0000000010104389: 0F B7 4D 10        movzx       ecx,word ptr [rbp+10h]
  000000001010438D: 48 3B C1           cmp         rax,rcx
  0000000010104390: 74 57              je          00000000101043E9
  0000000010104392: 48 81 7D F8 FF 00  cmp         qword ptr [rbp-8],0FFh
                    00 00
  000000001010439A: 7D 35              jge         00000000101043D1
  000000001010439C: 48 8D 83 68 ED FF  lea         rax,[rbx+FFFFFFFFFFFFED68h]
                    FF
  00000000101043A3: 48 8B 4D F8        mov         rcx,qword ptr [rbp-8]
  00000000101043A7: 48 81 F9 00 01 00  cmp         rcx,100h
                    00
  00000000101043AE: 73 02              jae         00000000101043B2
  00000000101043B0: EB 08              jmp         00000000101043BA
  00000000101043B2: B0 01              mov         al,1
  00000000101043B4: B9 22 11 00 00     mov         ecx,1122h
  00000000101043B9: CC                 int         3
  00000000101043BA: 48 C1 E1 01        shl         rcx,1
  00000000101043BE: 48 03 C1           add         rax,rcx
  00000000101043C1: 0F B7 8B 56 ED FF  movzx       ecx,word ptr [rbx+FFFFFFFFFFFFED56h]
                    FF
  00000000101043C8: 66 89 08           mov         word ptr [rax],cx
  00000000101043CB: 48 FF 45 F8        inc         qword ptr [rbp-8]
  00000000101043CF: EB 11              jmp         00000000101043E2
  00000000101043D1: 48 8D 8B 20 FA FF  lea         rcx,[rbx+FFFFFFFFFFFFFA20h]
                    FF
  00000000101043D8: BA 10 00 00 00     mov         edx,10h
  00000000101043DD: E8 3E FC FF FF     call        0000000010104020
  00000000101043E2: E8 D9 FC FF FF     call        00000000101040C0
  00000000101043E7: EB 8E              jmp         0000000010104377
  00000000101043E9: 48 8D 83 68 ED FF  lea         rax,[rbx+FFFFFFFFFFFFED68h]
                    FF
  00000000101043F0: 48 8B 4D F8        mov         rcx,qword ptr [rbp-8]
  00000000101043F4: 48 81 F9 00 01 00  cmp         rcx,100h
                    00
  00000000101043FB: 73 02              jae         00000000101043FF
  00000000101043FD: EB 08              jmp         0000000010104407
  00000000101043FF: B0 01              mov         al,1
  0000000010104401: B9 70 11 00 00     mov         ecx,1170h
  0000000010104406: CC                 int         3
  0000000010104407: 48 C1 E1 01        shl         rcx,1
  000000001010440B: 48 03 C1           add         rax,rcx
  000000001010440E: 31 C9              xor         ecx,ecx
  0000000010104410: 66 89 08           mov         word ptr [rax],cx
  0000000010104413: E8 A8 FC FF FF     call        00000000101040C0
  0000000010104418: 48 8B 45 F8        mov         rax,qword ptr [rbp-8]
  000000001010441C: 48 83 C0 01        add         rax,1
  0000000010104420: 48 89 83 F0 EF FF  mov         qword ptr [rbx+FFFFFFFFFFFFEFF0h],rax
                    FF
  0000000010104427: 66 83 BB 56 ED FF  cmp         word ptr [rbx+FFFFFFFFFFFFED56h],40h
                    FF 40
  000000001010442F: 75 0E              jne         000000001010443F
  0000000010104431: E8 8A FC FF FF     call        00000000101040C0
  0000000010104436: C6 83 67 ED FF FF  mov         byte ptr [rbx+FFFFFFFFFFFFED67h],1
                    01
  000000001010443D: EB 08              jmp         0000000010104447
  000000001010443F: 31 C0              xor         eax,eax
  0000000010104441: 88 83 67 ED FF FF  mov         byte ptr [rbx+FFFFFFFFFFFFED67h],al
  0000000010104447: C9                 leave
  0000000010104448: C3                 ret
  0000000010104449: 90                 nop
  000000001010444A: 90                 nop
  000000001010444B: 90                 nop
  000000001010444C: 90                 nop
  000000001010444D: 90                 nop
  000000001010444E: 90                 nop
  000000001010444F: 90                 nop
  0000000010104450: 55                 push        rbp
  0000000010104451: 48 8B EC           mov         rbp,rsp
  0000000010104454: 48 83 EC 40        sub         rsp,40h
  0000000010104458: 31 C0              xor         eax,eax
  000000001010445A: 48 89 45 F8        mov         qword ptr [rbp-8],rax
  000000001010445E: E8 5D FC FF FF     call        00000000101040C0
  0000000010104463: 0F B6 83 55 ED FF  movzx       eax,byte ptr [rbx+FFFFFFFFFFFFED55h]
                    FF
  000000001010446A: 85 C0              test        eax,eax
  000000001010446C: 0F 84 77 01 00 00  je          00000000101045E9
  0000000010104472: 66 83 BB 56 ED FF  cmp         word ptr [rbx+FFFFFFFFFFFFED56h],24h
                    FF 24
  000000001010447A: 0F 84 69 01 00 00  je          00000000101045E9
  0000000010104480: 66 83 BB 56 ED FF  cmp         word ptr [rbx+FFFFFFFFFFFFED56h],20h
                    FF 20
  0000000010104488: 74 14              je          000000001010449E
  000000001010448A: 66 83 BB 56 ED FF  cmp         word ptr [rbx+FFFFFFFFFFFFED56h],9
                    FF 09
  0000000010104492: 74 0A              je          000000001010449E
  0000000010104494: 66 83 BB 56 ED FF  cmp         word ptr [rbx+FFFFFFFFFFFFED56h],0Dh
                    FF 0D
  000000001010449C: 75 07              jne         00000000101044A5
  000000001010449E: E8 1D FC FF FF     call        00000000101040C0
  00000000101044A3: EB DB              jmp         0000000010104480
  00000000101044A5: 66 B8 30 00        mov         ax,30h
  00000000101044A9: 0F B7 8B 56 ED FF  movzx       ecx,word ptr [rbx+FFFFFFFFFFFFED56h]
                    FF
  00000000101044B0: 48 3B C1           cmp         rax,rcx
  00000000101044B3: 77 1B              ja          00000000101044D0
  00000000101044B5: 66 83 BB 56 ED FF  cmp         word ptr [rbx+FFFFFFFFFFFFED56h],39h
                    FF 39
  00000000101044BD: 77 11              ja          00000000101044D0
  00000000101044BF: 0F B7 83 56 ED FF  movzx       eax,word ptr [rbx+FFFFFFFFFFFFED56h]
                    FF
  00000000101044C6: 48 83 E8 30        sub         rax,30h
  00000000101044CA: 48 89 45 F0        mov         qword ptr [rbp-10h],rax
  00000000101044CE: EB 42              jmp         0000000010104512
  00000000101044D0: 66 B8 41 00        mov         ax,41h
  00000000101044D4: 0F B7 8B 56 ED FF  movzx       ecx,word ptr [rbx+FFFFFFFFFFFFED56h]
                    FF
  00000000101044DB: 48 3B C1           cmp         rax,rcx
  00000000101044DE: 77 1B              ja          00000000101044FB
  00000000101044E0: 66 83 BB 56 ED FF  cmp         word ptr [rbx+FFFFFFFFFFFFED56h],46h
                    FF 46
  00000000101044E8: 77 11              ja          00000000101044FB
  00000000101044EA: 0F B7 83 56 ED FF  movzx       eax,word ptr [rbx+FFFFFFFFFFFFED56h]
                    FF
  00000000101044F1: 48 83 E8 37        sub         rax,37h
  00000000101044F5: 48 89 45 F0        mov         qword ptr [rbp-10h],rax
  00000000101044F9: EB 17              jmp         0000000010104512
  00000000101044FB: 31 C0              xor         eax,eax
  00000000101044FD: 48 89 45 F0        mov         qword ptr [rbp-10h],rax
  0000000010104501: 48 8D 8B 70 FA FF  lea         rcx,[rbx+FFFFFFFFFFFFFA70h]
                    FF
  0000000010104508: BA 13 00 00 00     mov         edx,13h
  000000001010450D: E8 0E FB FF FF     call        0000000010104020
  0000000010104512: E8 A9 FB FF FF     call        00000000101040C0
  0000000010104517: 66 B8 30 00        mov         ax,30h
  000000001010451B: 0F B7 8B 56 ED FF  movzx       ecx,word ptr [rbx+FFFFFFFFFFFFED56h]
                    FF
  0000000010104522: 48 3B C1           cmp         rax,rcx
  0000000010104525: 77 1B              ja          0000000010104542
  0000000010104527: 66 83 BB 56 ED FF  cmp         word ptr [rbx+FFFFFFFFFFFFED56h],39h
                    FF 39
  000000001010452F: 77 11              ja          0000000010104542
  0000000010104531: 0F B7 83 56 ED FF  movzx       eax,word ptr [rbx+FFFFFFFFFFFFED56h]
                    FF
  0000000010104538: 48 83 E8 30        sub         rax,30h
  000000001010453C: 48 89 45 E8        mov         qword ptr [rbp-18h],rax
  0000000010104540: EB 42              jmp         0000000010104584
  0000000010104542: 66 B8 41 00        mov         ax,41h
  0000000010104546: 0F B7 8B 56 ED FF  movzx       ecx,word ptr [rbx+FFFFFFFFFFFFED56h]
                    FF
  000000001010454D: 48 3B C1           cmp         rax,rcx
  0000000010104550: 77 1B              ja          000000001010456D
  0000000010104552: 66 83 BB 56 ED FF  cmp         word ptr [rbx+FFFFFFFFFFFFED56h],46h
                    FF 46
  000000001010455A: 77 11              ja          000000001010456D
  000000001010455C: 0F B7 83 56 ED FF  movzx       eax,word ptr [rbx+FFFFFFFFFFFFED56h]
                    FF
  0000000010104563: 48 83 E8 37        sub         rax,37h
  0000000010104567: 48 89 45 E8        mov         qword ptr [rbp-18h],rax
  000000001010456B: EB 17              jmp         0000000010104584
  000000001010456D: 31 C0              xor         eax,eax
  000000001010456F: 48 89 45 E8        mov         qword ptr [rbp-18h],rax
  0000000010104573: 48 8D 8B B0 FA FF  lea         rcx,[rbx+FFFFFFFFFFFFFAB0h]
                    FF
  000000001010457A: BA 13 00 00 00     mov         edx,13h
  000000001010457F: E8 9C FA FF FF     call        0000000010104020
  0000000010104584: 48 81 7D F8 FF 00  cmp         qword ptr [rbp-8],0FFh
                    00 00
  000000001010458C: 7D 40              jge         00000000101045CE
  000000001010458E: 48 8D 83 68 ED FF  lea         rax,[rbx+FFFFFFFFFFFFED68h]
                    FF
  0000000010104595: 48 8B 4D F8        mov         rcx,qword ptr [rbp-8]
  0000000010104599: 48 81 F9 00 01 00  cmp         rcx,100h
                    00
  00000000101045A0: 73 02              jae         00000000101045A4
  00000000101045A2: EB 08              jmp         00000000101045AC
  00000000101045A4: B0 01              mov         al,1
  00000000101045A6: B9 F5 13 00 00     mov         ecx,13F5h
  00000000101045AB: CC                 int         3
  00000000101045AC: 48 C1 E1 01        shl         rcx,1
  00000000101045B0: 48 03 C1           add         rax,rcx
  00000000101045B3: 48 8B 4D F0        mov         rcx,qword ptr [rbp-10h]
  00000000101045B7: 48 C1 E1 04        shl         rcx,4
  00000000101045BB: 48 8B 55 E8        mov         rdx,qword ptr [rbp-18h]
  00000000101045BF: 48 03 CA           add         rcx,rdx
  00000000101045C2: 0F B7 C9           movzx       ecx,cx
  00000000101045C5: 66 89 08           mov         word ptr [rax],cx
  00000000101045C8: 48 FF 45 F8        inc         qword ptr [rbp-8]
  00000000101045CC: EB 11              jmp         00000000101045DF
  00000000101045CE: 48 8D 8B E0 FA FF  lea         rcx,[rbx+FFFFFFFFFFFFFAE0h]
                    FF
  00000000101045D5: BA 10 00 00 00     mov         edx,10h
  00000000101045DA: E8 41 FA FF FF     call        0000000010104020
  00000000101045DF: E8 DC FA FF FF     call        00000000101040C0
  00000000101045E4: E9 7A FE FF FF     jmp         0000000010104463
  00000000101045E9: E8 D2 FA FF FF     call        00000000101040C0
  00000000101045EE: 48 8B 45 F8        mov         rax,qword ptr [rbp-8]
  00000000101045F2: 48 89 83 F0 EF FF  mov         qword ptr [rbx+FFFFFFFFFFFFEFF0h],rax
                    FF
  00000000101045F9: C9                 leave
  00000000101045FA: C3                 ret
  00000000101045FB: 90                 nop
  00000000101045FC: 90                 nop
  00000000101045FD: 90                 nop
  00000000101045FE: 90                 nop
  00000000101045FF: 90                 nop
  0000000010104600: 55                 push        rbp
  0000000010104601: 48 8B EC           mov         rbp,rsp
  0000000010104604: 48 83 EC 10        sub         rsp,10h
  0000000010104608: 48 89 4D 10        mov         qword ptr [rbp+10h],rcx
  000000001010460C: B8 00 00 80 3F     mov         eax,3F800000h
  0000000010104611: 66 4C 0F 6E F8     movd        xmm15,rax
  0000000010104616: F2 44 0F 11 7D F8  movsd       mmword ptr [rbp-8],xmm15
  000000001010461C: B8 00 00 20 41     mov         eax,41200000h
  0000000010104621: 66 4C 0F 6E F8     movd        xmm15,rax
  0000000010104626: F2 44 0F 11 7D F0  movsd       mmword ptr [rbp-10h],xmm15
  000000001010462C: 48 83 7D 10 00     cmp         qword ptr [rbp+10h],0
  0000000010104631: 7E 42              jle         0000000010104675
  0000000010104633: 48 8B 45 10        mov         rax,qword ptr [rbp+10h]
  0000000010104637: 83 E0 01           and         eax,1
  000000001010463A: 74 16              je          0000000010104652
  000000001010463C: F2 44 0F 10 7D F0  movsd       xmm15,mmword ptr [rbp-10h]
  0000000010104642: F2 0F 10 45 F8     movsd       xmm0,mmword ptr [rbp-8]
  0000000010104647: F2 44 0F 59 F8     mulsd       xmm15,xmm0
  000000001010464C: F2 44 0F 11 7D F8  movsd       mmword ptr [rbp-8],xmm15
  0000000010104652: F2 44 0F 10 7D F0  movsd       xmm15,mmword ptr [rbp-10h]
  0000000010104658: F2 0F 10 45 F0     movsd       xmm0,mmword ptr [rbp-10h]
  000000001010465D: F2 44 0F 59 F8     mulsd       xmm15,xmm0
  0000000010104662: F2 44 0F 11 7D F0  movsd       mmword ptr [rbp-10h],xmm15
  0000000010104668: 48 8B 45 10        mov         rax,qword ptr [rbp+10h]
  000000001010466C: 48 D1 F8           sar         rax,1
  000000001010466F: 48 89 45 10        mov         qword ptr [rbp+10h],rax
  0000000010104673: EB B7              jmp         000000001010462C
  0000000010104675: F2 44 0F 10 7D F8  movsd       xmm15,mmword ptr [rbp-8]
  000000001010467B: F2 49 0F 10 C7     movsd       xmm0,xmm15
  0000000010104680: C9                 leave
  0000000010104681: C3                 ret
  0000000010104682: 90                 nop
  0000000010104683: 90                 nop
  0000000010104684: 90                 nop
  0000000010104685: 90                 nop
  0000000010104686: 90                 nop
  0000000010104687: 90                 nop
  0000000010104688: 90                 nop
  0000000010104689: 90                 nop
  000000001010468A: 90                 nop
  000000001010468B: 90                 nop
  000000001010468C: 90                 nop
  000000001010468D: 90                 nop
  000000001010468E: 90                 nop
  000000001010468F: 90                 nop
  0000000010104690: 55                 push        rbp
  0000000010104691: 48 8B EC           mov         rbp,rsp
  0000000010104694: 48 81 EC 10 01 00  sub         rsp,110h
                    00
  000000001010469B: 48 89 4D 10        mov         qword ptr [rbp+10h],rcx
  000000001010469F: 31 C0              xor         eax,eax
  00000000101046A1: 48 89 83 F8 EF FF  mov         qword ptr [rbx+FFFFFFFFFFFFEFF8h],rax
                    FF
  00000000101046A8: 31 C0              xor         eax,eax
  00000000101046AA: 48 89 45 F8        mov         qword ptr [rbp-8],rax
  00000000101046AE: 31 C0              xor         eax,eax
  00000000101046B0: 48 89 45 E0        mov         qword ptr [rbp-20h],rax
  00000000101046B4: 31 C0              xor         eax,eax
  00000000101046B6: 48 89 45 F0        mov         qword ptr [rbp-10h],rax
  00000000101046BA: 48 83 7D E0 15     cmp         qword ptr [rbp-20h],15h
  00000000101046BF: 7D 36              jge         00000000101046F7
  00000000101046C1: 48 8D 85 20 FF FF  lea         rax,[rbp+FFFFFFFFFFFFFF20h]
                    FF
  00000000101046C8: 48 8B 4D E0        mov         rcx,qword ptr [rbp-20h]
  00000000101046CC: 48 83 F9 15        cmp         rcx,15h
  00000000101046D0: 73 02              jae         00000000101046D4
  00000000101046D2: EB 08              jmp         00000000101046DC
  00000000101046D4: B0 01              mov         al,1
  00000000101046D6: B9 3D 16 00 00     mov         ecx,163Dh
  00000000101046DB: CC                 int         3
  00000000101046DC: 48 C1 E1 03        shl         rcx,3
  00000000101046E0: 48 03 C1           add         rax,rcx
  00000000101046E3: 0F B7 8B 56 ED FF  movzx       ecx,word ptr [rbx+FFFFFFFFFFFFED56h]
                    FF
  00000000101046EA: 48 83 E9 30        sub         rcx,30h
  00000000101046EE: 48 89 08           mov         qword ptr [rax],rcx
  00000000101046F1: 48 FF 45 E0        inc         qword ptr [rbp-20h]
  00000000101046F5: EB 17              jmp         000000001010470E
  00000000101046F7: 48 8D 8B 00 FB FF  lea         rcx,[rbx+FFFFFFFFFFFFFB00h]
                    FF
  00000000101046FE: BA 10 00 00 00     mov         edx,10h
  0000000010104703: E8 18 F9 FF FF     call        0000000010104020
  0000000010104708: 31 C0              xor         eax,eax
  000000001010470A: 48 89 45 E0        mov         qword ptr [rbp-20h],rax
  000000001010470E: E8 AD F9 FF FF     call        00000000101040C0
  0000000010104713: 66 83 BB 56 ED FF  cmp         word ptr [rbx+FFFFFFFFFFFFED56h],30h
                    FF 30
  000000001010471B: 72 22              jb          000000001010473F
  000000001010471D: 66 83 BB 56 ED FF  cmp         word ptr [rbx+FFFFFFFFFFFFED56h],39h
                    FF 39
  0000000010104725: 76 0A              jbe         0000000010104731
  0000000010104727: 66 83 BB 56 ED FF  cmp         word ptr [rbx+FFFFFFFFFFFFED56h],41h
                    FF 41
  000000001010472F: 72 0E              jb          000000001010473F
  0000000010104731: 66 83 BB 56 ED FF  cmp         word ptr [rbx+FFFFFFFFFFFFED56h],46h
                    FF 46
  0000000010104739: 0F 86 7B FF FF FF  jbe         00000000101046BA
  000000001010473F: 66 83 BB 56 ED FF  cmp         word ptr [rbx+FFFFFFFFFFFFED56h],48h
                    FF 48
  0000000010104747: 74 18              je          0000000010104761
  0000000010104749: 66 83 BB 56 ED FF  cmp         word ptr [rbx+FFFFFFFFFFFFED56h],52h
                    FF 52
  0000000010104751: 74 0E              je          0000000010104761
  0000000010104753: 66 83 BB 56 ED FF  cmp         word ptr [rbx+FFFFFFFFFFFFED56h],58h
                    FF 58
  000000001010475B: 0F 85 2D 01 00 00  jne         000000001010488E
  0000000010104761: 48 8D 85 20 FF FF  lea         rax,[rbp+FFFFFFFFFFFFFF20h]
                    FF
  0000000010104768: 48 8B 4D F8        mov         rcx,qword ptr [rbp-8]
  000000001010476C: 48 83 F9 15        cmp         rcx,15h
  0000000010104770: 73 02              jae         0000000010104774
  0000000010104772: EB 08              jmp         000000001010477C
  0000000010104774: B0 01              mov         al,1
  0000000010104776: B9 21 17 00 00     mov         ecx,1721h
  000000001010477B: CC                 int         3
  000000001010477C: 48 C1 E1 03        shl         rcx,3
  0000000010104780: 48 03 C1           add         rax,rcx
  0000000010104783: 48 8B 00           mov         rax,qword ptr [rax]
  0000000010104786: 48 89 45 D0        mov         qword ptr [rbp-30h],rax
  000000001010478A: 48 83 7D D0 0A     cmp         qword ptr [rbp-30h],0Ah
  000000001010478F: 7C 0C              jl          000000001010479D
  0000000010104791: 48 8B 45 D0        mov         rax,qword ptr [rbp-30h]
  0000000010104795: 48 83 E8 07        sub         rax,7
  0000000010104799: 48 89 45 D0        mov         qword ptr [rbp-30h],rax
  000000001010479D: 48 8B 45 F0        mov         rax,qword ptr [rbp-10h]
  00000000101047A1: 48 C1 E0 04        shl         rax,4
  00000000101047A5: 48 8B 4D D0        mov         rcx,qword ptr [rbp-30h]
  00000000101047A9: 48 03 C1           add         rax,rcx
  00000000101047AC: 48 89 45 F0        mov         qword ptr [rbp-10h],rax
  00000000101047B0: 48 FF 45 F8        inc         qword ptr [rbp-8]
  00000000101047B4: 48 8B 45 F8        mov         rax,qword ptr [rbp-8]
  00000000101047B8: 48 8B 4D E0        mov         rcx,qword ptr [rbp-20h]
  00000000101047BC: 48 3B C1           cmp         rax,rcx
  00000000101047BF: 75 A0              jne         0000000010104761
  00000000101047C1: 66 83 BB 56 ED FF  cmp         word ptr [rbx+FFFFFFFFFFFFED56h],58h
                    FF 58
  00000000101047C9: 75 7A              jne         0000000010104845
  00000000101047CB: 48 8B 45 10        mov         rax,qword ptr [rbp+10h]
  00000000101047CF: 48 C7 00 1A 00 00  mov         qword ptr [rax],1Ah
                    00
  00000000101047D6: 48 81 7D F0 00 00  cmp         qword ptr [rbp-10h],10000h
                    01 00
  00000000101047DE: 7D 0D              jge         00000000101047ED
  00000000101047E0: 48 8B 45 F0        mov         rax,qword ptr [rbp-10h]
  00000000101047E4: 48 89 83 F8 EF FF  mov         qword ptr [rbx+FFFFFFFFFFFFEFF8h],rax
                    FF
  00000000101047EB: EB 1A              jmp         0000000010104807
  00000000101047ED: 48 8D 8B 40 FB FF  lea         rcx,[rbx+FFFFFFFFFFFFFB40h]
                    FF
  00000000101047F4: BA 0E 00 00 00     mov         edx,0Eh
  00000000101047F9: E8 22 F8 FF FF     call        0000000010104020
  00000000101047FE: 31 C0              xor         eax,eax
  0000000010104800: 48 89 83 F8 EF FF  mov         qword ptr [rbx+FFFFFFFFFFFFEFF8h],rax
                    FF
  0000000010104807: 48 83 7D F0 00     cmp         qword ptr [rbp-10h],0
  000000001010480C: 75 16              jne         0000000010104824
  000000001010480E: 31 C0              xor         eax,eax
  0000000010104810: 66 89 83 68 ED FF  mov         word ptr [rbx+FFFFFFFFFFFFED68h],ax
                    FF
  0000000010104817: 48 C7 83 F0 EF FF  mov         qword ptr [rbx+FFFFFFFFFFFFEFF0h],1
                    FF 01 00 00 00
  0000000010104822: EB 1F              jmp         0000000010104843
  0000000010104824: 0F B7 45 F0        movzx       eax,word ptr [rbp-10h]
  0000000010104828: 66 89 83 68 ED FF  mov         word ptr [rbx+FFFFFFFFFFFFED68h],ax
                    FF
  000000001010482F: 31 C0              xor         eax,eax
  0000000010104831: 66 89 83 6A ED FF  mov         word ptr [rbx+FFFFFFFFFFFFED6Ah],ax
                    FF
  0000000010104838: 48 C7 83 F0 EF FF  mov         qword ptr [rbx+FFFFFFFFFFFFEFF0h],2
                    FF 02 00 00 00
  0000000010104843: EB 3F              jmp         0000000010104884
  0000000010104845: 66 83 BB 56 ED FF  cmp         word ptr [rbx+FFFFFFFFFFFFED56h],52h
                    FF 52
  000000001010484D: 75 1F              jne         000000001010486E
  000000001010484F: 48 8B 45 10        mov         rax,qword ptr [rbp+10h]
  0000000010104853: 48 C7 00 16 00 00  mov         qword ptr [rax],16h
                    00
  000000001010485A: 48 8B 45 F0        mov         rax,qword ptr [rbp-10h]
  000000001010485E: 66 4C 0F 6E F8     movd        xmm15,rax
  0000000010104863: F2 44 0F 11 BB E8  movsd       mmword ptr [rbx+FFFFFFFFFFFFEFE8h],xmm15
                    EF FF FF
  000000001010486C: EB 16              jmp         0000000010104884
  000000001010486E: 48 8B 45 10        mov         rax,qword ptr [rbp+10h]
  0000000010104872: 48 C7 00 15 00 00  mov         qword ptr [rax],15h
                    00
  0000000010104879: 48 8B 45 F0        mov         rax,qword ptr [rbp-10h]
  000000001010487D: 48 89 83 F8 EF FF  mov         qword ptr [rbx+FFFFFFFFFFFFEFF8h],rax
                    FF
  0000000010104884: E8 37 F8 FF FF     call        00000000101040C0
  0000000010104889: E9 87 04 00 00     jmp         0000000010104D15
  000000001010488E: 66 83 BB 56 ED FF  cmp         word ptr [rbx+FFFFFFFFFFFFED56h],2Eh
                    FF 2E
  0000000010104896: 0F 85 6E 03 00 00  jne         0000000010104C0A
  000000001010489C: E8 1F F8 FF FF     call        00000000101040C0
  00000000101048A1: 66 83 BB 56 ED FF  cmp         word ptr [rbx+FFFFFFFFFFFFED56h],2Eh
                    FF 2E
  00000000101048A9: 0F 85 19 01 00 00  jne         00000000101049C8
  00000000101048AF: 66 C7 83 56 ED FF  mov         word ptr [rbx+FFFFFFFFFFFFED56h],7Fh
                    FF 7F 00
  00000000101048B8: 48 8D 85 20 FF FF  lea         rax,[rbp+FFFFFFFFFFFFFF20h]
                    FF
  00000000101048BF: 48 8B 4D F8        mov         rcx,qword ptr [rbp-8]
  00000000101048C3: 48 83 F9 15        cmp         rcx,15h
  00000000101048C7: 73 02              jae         00000000101048CB
  00000000101048C9: EB 08              jmp         00000000101048D3
  00000000101048CB: B0 01              mov         al,1
  00000000101048CD: B9 57 19 00 00     mov         ecx,1957h
  00000000101048D2: CC                 int         3
  00000000101048D3: 48 C1 E1 03        shl         rcx,3
  00000000101048D7: 48 03 C1           add         rax,rcx
  00000000101048DA: 48 83 38 0A        cmp         qword ptr [rax],0Ah
  00000000101048DE: 0F 8D A3 00 00 00  jge         0000000010104987
  00000000101048E4: 48 8B 4D F0        mov         rcx,qword ptr [rbp-10h]
  00000000101048E8: 48 B8 FF FF FF FF  mov         rax,7FFFFFFFFFFFFFFFh
                    FF FF FF 7F
  00000000101048F2: 48 8D 95 20 FF FF  lea         rdx,[rbp+FFFFFFFFFFFFFF20h]
                    FF
  00000000101048F9: 4C 8B 45 F8        mov         r8,qword ptr [rbp-8]
  00000000101048FD: 49 83 F8 15        cmp         r8,15h
  0000000010104901: 73 02              jae         0000000010104905
  0000000010104903: EB 08              jmp         000000001010490D
  0000000010104905: B0 01              mov         al,1
  0000000010104907: B9 7A 19 00 00     mov         ecx,197Ah
  000000001010490C: CC                 int         3
  000000001010490D: 49 C1 E0 03        shl         r8,3
  0000000010104911: 49 03 D0           add         rdx,r8
  0000000010104914: 48 8B 12           mov         rdx,qword ptr [rdx]
  0000000010104917: 48 2B C2           sub         rax,rdx
  000000001010491A: 41 B8 0A 00 00 00  mov         r8d,0Ah
  0000000010104920: 48 99              cqo
  0000000010104922: 49 F7 F8           idiv        rax,r8
  0000000010104925: 48 85 D2           test        rdx,rdx
  0000000010104928: 7C 02              jl          000000001010492C
  000000001010492A: EB 04              jmp         0000000010104930
  000000001010492C: 48 83 E8 01        sub         rax,1
  0000000010104930: 48 3B C8           cmp         rcx,rax
  0000000010104933: 7F 39              jg          000000001010496E
  0000000010104935: 48 8B 45 F0        mov         rax,qword ptr [rbp-10h]
  0000000010104939: 48 69 C0 0A 00 00  imul        rax,rax,0Ah
                    00
  0000000010104940: 48 8D 8D 20 FF FF  lea         rcx,[rbp+FFFFFFFFFFFFFF20h]
                    FF
  0000000010104947: 48 8B 55 F8        mov         rdx,qword ptr [rbp-8]
  000000001010494B: 48 83 FA 15        cmp         rdx,15h
  000000001010494F: 73 02              jae         0000000010104953
  0000000010104951: EB 08              jmp         000000001010495B
  0000000010104953: B0 01              mov         al,1
  0000000010104955: B9 9C 19 00 00     mov         ecx,199Ch
  000000001010495A: CC                 int         3
  000000001010495B: 48 C1 E2 03        shl         rdx,3
  000000001010495F: 48 03 CA           add         rcx,rdx
  0000000010104962: 48 8B 09           mov         rcx,qword ptr [rcx]
  0000000010104965: 48 03 C1           add         rax,rcx
  0000000010104968: 48 89 45 F0        mov         qword ptr [rbp-10h],rax
  000000001010496C: EB 17              jmp         0000000010104985
  000000001010496E: 48 8D 8B 80 FB FF  lea         rcx,[rbx+FFFFFFFFFFFFFB80h]
                    FF
  0000000010104975: BA 0A 00 00 00     mov         edx,0Ah
  000000001010497A: E8 A1 F6 FF FF     call        0000000010104020
  000000001010497F: 31 C0              xor         eax,eax
  0000000010104981: 48 89 45 F0        mov         qword ptr [rbp-10h],rax
  0000000010104985: EB 11              jmp         0000000010104998
  0000000010104987: 48 8D 8B A0 FB FF  lea         rcx,[rbx+FFFFFFFFFFFFFBA0h]
                    FF
  000000001010498E: BA 0C 00 00 00     mov         edx,0Ch
  0000000010104993: E8 88 F6 FF FF     call        0000000010104020
  0000000010104998: 48 FF 45 F8        inc         qword ptr [rbp-8]
  000000001010499C: 48 8B 45 F8        mov         rax,qword ptr [rbp-8]
  00000000101049A0: 48 8B 4D E0        mov         rcx,qword ptr [rbp-20h]
  00000000101049A4: 48 3B C1           cmp         rax,rcx
  00000000101049A7: 0F 85 0B FF FF FF  jne         00000000101048B8
  00000000101049AD: 48 8B 45 10        mov         rax,qword ptr [rbp+10h]
  00000000101049B1: 48 C7 00 15 00 00  mov         qword ptr [rax],15h
                    00
  00000000101049B8: 48 8B 45 F0        mov         rax,qword ptr [rbp-10h]
  00000000101049BC: 48 89 83 F8 EF FF  mov         qword ptr [rbx+FFFFFFFFFFFFEFF8h],rax
                    FF
  00000000101049C3: E9 3D 02 00 00     jmp         0000000010104C05
  00000000101049C8: 45 0F 57 FF        xorps       xmm15,xmm15
  00000000101049CC: F2 44 0F 11 7D C8  movsd       mmword ptr [rbp-38h],xmm15
  00000000101049D2: 31 C0              xor         eax,eax
  00000000101049D4: 48 89 45 E8        mov         qword ptr [rbp-18h],rax
  00000000101049D8: F2 44 0F 10 7D C8  movsd       xmm15,mmword ptr [rbp-38h]
  00000000101049DE: B8 00 00 20 41     mov         eax,41200000h
  00000000101049E3: 66 48 0F 6E C0     movd        xmm0,rax
  00000000101049E8: F2 44 0F 59 F8     mulsd       xmm15,xmm0
  00000000101049ED: 48 8D 85 20 FF FF  lea         rax,[rbp+FFFFFFFFFFFFFF20h]
                    FF
  00000000101049F4: 48 8B 4D F8        mov         rcx,qword ptr [rbp-8]
  00000000101049F8: 48 83 F9 15        cmp         rcx,15h
  00000000101049FC: 73 02              jae         0000000010104A00
  00000000101049FE: EB 08              jmp         0000000010104A08
  0000000010104A00: B0 01              mov         al,1
  0000000010104A02: B9 94 1A 00 00     mov         ecx,1A94h
  0000000010104A07: CC                 int         3
  0000000010104A08: 48 C1 E1 03        shl         rcx,3
  0000000010104A0C: 48 03 C1           add         rax,rcx
  0000000010104A0F: 48 8B 00           mov         rax,qword ptr [rax]
  0000000010104A12: F2 48 0F 2A C0     cvtsi2sd    xmm0,rax
  0000000010104A17: F2 44 0F 58 F8     addsd       xmm15,xmm0
  0000000010104A1C: F2 44 0F 11 7D C8  movsd       mmword ptr [rbp-38h],xmm15
  0000000010104A22: 48 FF 45 F8        inc         qword ptr [rbp-8]
  0000000010104A26: 48 8B 45 F8        mov         rax,qword ptr [rbp-8]
  0000000010104A2A: 48 8B 4D E0        mov         rcx,qword ptr [rbp-20h]
  0000000010104A2E: 48 3B C1           cmp         rax,rcx
  0000000010104A31: 75 A5              jne         00000000101049D8
  0000000010104A33: 66 83 BB 56 ED FF  cmp         word ptr [rbx+FFFFFFFFFFFFED56h],30h
                    FF 30
  0000000010104A3B: 72 45              jb          0000000010104A82
  0000000010104A3D: 66 83 BB 56 ED FF  cmp         word ptr [rbx+FFFFFFFFFFFFED56h],39h
                    FF 39
  0000000010104A45: 77 3B              ja          0000000010104A82
  0000000010104A47: F2 44 0F 10 7D C8  movsd       xmm15,mmword ptr [rbp-38h]
  0000000010104A4D: B8 00 00 20 41     mov         eax,41200000h
  0000000010104A52: 66 48 0F 6E C0     movd        xmm0,rax
  0000000010104A57: F2 44 0F 59 F8     mulsd       xmm15,xmm0
  0000000010104A5C: 0F B7 83 56 ED FF  movzx       eax,word ptr [rbx+FFFFFFFFFFFFED56h]
                    FF
  0000000010104A63: 48 83 E8 30        sub         rax,30h
  0000000010104A67: F2 48 0F 2A C0     cvtsi2sd    xmm0,rax
  0000000010104A6C: F2 44 0F 58 F8     addsd       xmm15,xmm0
  0000000010104A71: F2 44 0F 11 7D C8  movsd       mmword ptr [rbp-38h],xmm15
  0000000010104A77: 48 FF 4D E8        dec         qword ptr [rbp-18h]
  0000000010104A7B: E8 40 F6 FF FF     call        00000000101040C0
  0000000010104A80: EB B1              jmp         0000000010104A33
  0000000010104A82: 66 83 BB 56 ED FF  cmp         word ptr [rbx+FFFFFFFFFFFFED56h],45h
                    FF 45
  0000000010104A8A: 74 0E              je          0000000010104A9A
  0000000010104A8C: 66 83 BB 56 ED FF  cmp         word ptr [rbx+FFFFFFFFFFFFED56h],44h
                    FF 44
  0000000010104A94: 0F 85 C2 00 00 00  jne         0000000010104B5C
  0000000010104A9A: E8 21 F6 FF FF     call        00000000101040C0
  0000000010104A9F: 31 C0              xor         eax,eax
  0000000010104AA1: 48 89 45 D8        mov         qword ptr [rbp-28h],rax
  0000000010104AA5: 66 83 BB 56 ED FF  cmp         word ptr [rbx+FFFFFFFFFFFFED56h],2Dh
                    FF 2D
  0000000010104AAD: 75 0E              jne         0000000010104ABD
  0000000010104AAF: C6 85 1F FF FF FF  mov         byte ptr [rbp+FFFFFFFFFFFFFF1Fh],1
                    01
  0000000010104AB6: E8 05 F6 FF FF     call        00000000101040C0
  0000000010104ABB: EB 17              jmp         0000000010104AD4
  0000000010104ABD: 31 C0              xor         eax,eax
  0000000010104ABF: 88 85 1F FF FF FF  mov         byte ptr [rbp+FFFFFFFFFFFFFF1Fh],al
  0000000010104AC5: 66 83 BB 56 ED FF  cmp         word ptr [rbx+FFFFFFFFFFFFED56h],2Bh
                    FF 2B
  0000000010104ACD: 75 05              jne         0000000010104AD4
  0000000010104ACF: E8 EC F5 FF FF     call        00000000101040C0
  0000000010104AD4: 66 83 BB 56 ED FF  cmp         word ptr [rbx+FFFFFFFFFFFFED56h],30h
                    FF 30
  0000000010104ADC: 72 6D              jb          0000000010104B4B
  0000000010104ADE: 66 83 BB 56 ED FF  cmp         word ptr [rbx+FFFFFFFFFFFFED56h],39h
                    FF 39
  0000000010104AE6: 77 63              ja          0000000010104B4B
  0000000010104AE8: 48 8B 45 D8        mov         rax,qword ptr [rbp-28h]
  0000000010104AEC: 48 69 C0 0A 00 00  imul        rax,rax,0Ah
                    00
  0000000010104AF3: 0F B7 8B 56 ED FF  movzx       ecx,word ptr [rbx+FFFFFFFFFFFFED56h]
                    FF
  0000000010104AFA: 48 03 C1           add         rax,rcx
  0000000010104AFD: 48 83 E8 30        sub         rax,30h
  0000000010104B01: 48 89 45 D8        mov         qword ptr [rbp-28h],rax
  0000000010104B05: E8 B6 F5 FF FF     call        00000000101040C0
  0000000010104B0A: 66 83 BB 56 ED FF  cmp         word ptr [rbx+FFFFFFFFFFFFED56h],30h
                    FF 30
  0000000010104B12: 72 0A              jb          0000000010104B1E
  0000000010104B14: 66 83 BB 56 ED FF  cmp         word ptr [rbx+FFFFFFFFFFFFED56h],39h
                    FF 39
  0000000010104B1C: 76 CA              jbe         0000000010104AE8
  0000000010104B1E: 0F B6 85 1F FF FF  movzx       eax,byte ptr [rbp+FFFFFFFFFFFFFF1Fh]
                    FF
  0000000010104B25: 85 C0              test        eax,eax
  0000000010104B27: 74 11              je          0000000010104B3A
  0000000010104B29: 48 8B 45 E8        mov         rax,qword ptr [rbp-18h]
  0000000010104B2D: 48 8B 4D D8        mov         rcx,qword ptr [rbp-28h]
  0000000010104B31: 48 2B C1           sub         rax,rcx
  0000000010104B34: 48 89 45 E8        mov         qword ptr [rbp-18h],rax
  0000000010104B38: EB 0F              jmp         0000000010104B49
  0000000010104B3A: 48 8B 45 E8        mov         rax,qword ptr [rbp-18h]
  0000000010104B3E: 48 8B 4D D8        mov         rcx,qword ptr [rbp-28h]
  0000000010104B42: 48 03 C1           add         rax,rcx
  0000000010104B45: 48 89 45 E8        mov         qword ptr [rbp-18h],rax
  0000000010104B49: EB 11              jmp         0000000010104B5C
  0000000010104B4B: 48 8D 8B F0 FB FF  lea         rcx,[rbx+FFFFFFFFFFFFFBF0h]
                    FF
  0000000010104B52: BA 07 00 00 00     mov         edx,7
  0000000010104B57: E8 C4 F4 FF FF     call        0000000010104020
  0000000010104B5C: 48 83 7D E8 00     cmp         qword ptr [rbp-18h],0
  0000000010104B61: 7D 32              jge         0000000010104B95
  0000000010104B63: 48 83 7D E8 DA     cmp         qword ptr [rbp-18h],0FFFFFFFFFFFFFFDAh
  0000000010104B68: 7C 1F              jl          0000000010104B89
  0000000010104B6A: F2 44 0F 10 7D C8  movsd       xmm15,mmword ptr [rbp-38h]
  0000000010104B70: 48 8B 4D E8        mov         rcx,qword ptr [rbp-18h]
  0000000010104B74: 48 F7 D9           neg         rcx
  0000000010104B77: E8 84 FA FF FF     call        0000000010104600
  0000000010104B7C: F2 44 0F 59 F8     mulsd       xmm15,xmm0
  0000000010104B81: F2 44 0F 11 7D C8  movsd       mmword ptr [rbp-38h],xmm15
  0000000010104B87: EB 0A              jmp         0000000010104B93
  0000000010104B89: 45 0F 57 FF        xorps       xmm15,xmm15
  0000000010104B8D: F2 44 0F 11 7D C8  movsd       mmword ptr [rbp-38h],xmm15
  0000000010104B93: EB 44              jmp         0000000010104BD9
  0000000010104B95: 48 83 7D E8 00     cmp         qword ptr [rbp-18h],0
  0000000010104B9A: 7E 3D              jle         0000000010104BD9
  0000000010104B9C: 48 83 7D E8 26     cmp         qword ptr [rbp-18h],26h
  0000000010104BA1: 7F 1B              jg          0000000010104BBE
  0000000010104BA3: 48 8B 4D E8        mov         rcx,qword ptr [rbp-18h]
  0000000010104BA7: E8 54 FA FF FF     call        0000000010104600
  0000000010104BAC: F2 44 0F 10 7D C8  movsd       xmm15,mmword ptr [rbp-38h]
  0000000010104BB2: F2 41 0F 59 C7     mulsd       xmm0,xmm15
  0000000010104BB7: F2 0F 11 45 C8     movsd       mmword ptr [rbp-38h],xmm0
  0000000010104BBC: EB 1B              jmp         0000000010104BD9
  0000000010104BBE: 45 0F 57 FF        xorps       xmm15,xmm15
  0000000010104BC2: F2 44 0F 11 7D C8  movsd       mmword ptr [rbp-38h],xmm15
  0000000010104BC8: 48 8D 8B 00 FC FF  lea         rcx,[rbx+FFFFFFFFFFFFFC00h]
                    FF
  0000000010104BCF: BA 0A 00 00 00     mov         edx,0Ah
  0000000010104BD4: E8 47 F4 FF FF     call        0000000010104020
  0000000010104BD9: 48 8B 45 10        mov         rax,qword ptr [rbp+10h]
  0000000010104BDD: 48 C7 00 16 00 00  mov         qword ptr [rax],16h
                    00
  0000000010104BE4: F2 44 0F 10 7D C8  movsd       xmm15,mmword ptr [rbp-38h]
  0000000010104BEA: F2 44 0F 11 BB E8  movsd       mmword ptr [rbx+FFFFFFFFFFFFEFE8h],xmm15
                    EF FF FF
  0000000010104BF3: F2 44 0F 10 7D C8  movsd       xmm15,mmword ptr [rbp-38h]
  0000000010104BF9: 66 4C 0F 7E F8     movd        rax,xmm15
  0000000010104BFE: 48 89 83 F8 EF FF  mov         qword ptr [rbx+FFFFFFFFFFFFEFF8h],rax
                    FF
  0000000010104C05: E9 0B 01 00 00     jmp         0000000010104D15
  0000000010104C0A: 48 8D 85 20 FF FF  lea         rax,[rbp+FFFFFFFFFFFFFF20h]
                    FF
  0000000010104C11: 48 8B 4D F8        mov         rcx,qword ptr [rbp-8]
  0000000010104C15: 48 83 F9 15        cmp         rcx,15h
  0000000010104C19: 73 02              jae         0000000010104C1D
  0000000010104C1B: EB 08              jmp         0000000010104C25
  0000000010104C1D: B0 01              mov         al,1
  0000000010104C1F: B9 EA 1D 00 00     mov         ecx,1DEAh
  0000000010104C24: CC                 int         3
  0000000010104C25: 48 C1 E1 03        shl         rcx,3
  0000000010104C29: 48 03 C1           add         rax,rcx
  0000000010104C2C: 48 83 38 0A        cmp         qword ptr [rax],0Ah
  0000000010104C30: 0F 8D A3 00 00 00  jge         0000000010104CD9
  0000000010104C36: 48 8B 4D F0        mov         rcx,qword ptr [rbp-10h]
  0000000010104C3A: 48 B8 FF FF FF FF  mov         rax,7FFFFFFFFFFFFFFFh
                    FF FF FF 7F
  0000000010104C44: 48 8D 95 20 FF FF  lea         rdx,[rbp+FFFFFFFFFFFFFF20h]
                    FF
  0000000010104C4B: 4C 8B 45 F8        mov         r8,qword ptr [rbp-8]
  0000000010104C4F: 49 83 F8 15        cmp         r8,15h
  0000000010104C53: 73 02              jae         0000000010104C57
  0000000010104C55: EB 08              jmp         0000000010104C5F
  0000000010104C57: B0 01              mov         al,1
  0000000010104C59: B9 0C 1E 00 00     mov         ecx,1E0Ch
  0000000010104C5E: CC                 int         3
  0000000010104C5F: 49 C1 E0 03        shl         r8,3
  0000000010104C63: 49 03 D0           add         rdx,r8
  0000000010104C66: 48 8B 12           mov         rdx,qword ptr [rdx]
  0000000010104C69: 48 2B C2           sub         rax,rdx
  0000000010104C6C: 41 B8 0A 00 00 00  mov         r8d,0Ah
  0000000010104C72: 48 99              cqo
  0000000010104C74: 49 F7 F8           idiv        rax,r8
  0000000010104C77: 48 85 D2           test        rdx,rdx
  0000000010104C7A: 7C 02              jl          0000000010104C7E
  0000000010104C7C: EB 04              jmp         0000000010104C82
  0000000010104C7E: 48 83 E8 01        sub         rax,1
  0000000010104C82: 48 3B C8           cmp         rcx,rax
  0000000010104C85: 7F 39              jg          0000000010104CC0
  0000000010104C87: 48 8B 45 F0        mov         rax,qword ptr [rbp-10h]
  0000000010104C8B: 48 69 C0 0A 00 00  imul        rax,rax,0Ah
                    00
  0000000010104C92: 48 8D 8D 20 FF FF  lea         rcx,[rbp+FFFFFFFFFFFFFF20h]
                    FF
  0000000010104C99: 48 8B 55 F8        mov         rdx,qword ptr [rbp-8]
  0000000010104C9D: 48 83 FA 15        cmp         rdx,15h
  0000000010104CA1: 73 02              jae         0000000010104CA5
  0000000010104CA3: EB 08              jmp         0000000010104CAD
  0000000010104CA5: B0 01              mov         al,1
  0000000010104CA7: B9 2C 1E 00 00     mov         ecx,1E2Ch
  0000000010104CAC: CC                 int         3
  0000000010104CAD: 48 C1 E2 03        shl         rdx,3
  0000000010104CB1: 48 03 CA           add         rcx,rdx
  0000000010104CB4: 48 8B 09           mov         rcx,qword ptr [rcx]
  0000000010104CB7: 48 03 C1           add         rax,rcx
  0000000010104CBA: 48 89 45 F0        mov         qword ptr [rbp-10h],rax
  0000000010104CBE: EB 17              jmp         0000000010104CD7
  0000000010104CC0: 48 8D 8B 20 FC FF  lea         rcx,[rbx+FFFFFFFFFFFFFC20h]
                    FF
  0000000010104CC7: BA 0A 00 00 00     mov         edx,0Ah
  0000000010104CCC: E8 4F F3 FF FF     call        0000000010104020
  0000000010104CD1: 31 C0              xor         eax,eax
  0000000010104CD3: 48 89 45 F0        mov         qword ptr [rbp-10h],rax
  0000000010104CD7: EB 11              jmp         0000000010104CEA
  0000000010104CD9: 48 8D 8B 40 FC FF  lea         rcx,[rbx+FFFFFFFFFFFFFC40h]
                    FF
  0000000010104CE0: BA 0C 00 00 00     mov         edx,0Ch
  0000000010104CE5: E8 36 F3 FF FF     call        0000000010104020
  0000000010104CEA: 48 FF 45 F8        inc         qword ptr [rbp-8]
  0000000010104CEE: 48 8B 45 F8        mov         rax,qword ptr [rbp-8]
  0000000010104CF2: 48 8B 4D E0        mov         rcx,qword ptr [rbp-20h]
  0000000010104CF6: 48 3B C1           cmp         rax,rcx
  0000000010104CF9: 0F 85 0B FF FF FF  jne         0000000010104C0A
  0000000010104CFF: 48 8B 45 10        mov         rax,qword ptr [rbp+10h]
  0000000010104D03: 48 C7 00 15 00 00  mov         qword ptr [rax],15h
                    00
  0000000010104D0A: 48 8B 45 F0        mov         rax,qword ptr [rbp-10h]
  0000000010104D0E: 48 89 83 F8 EF FF  mov         qword ptr [rbx+FFFFFFFFFFFFEFF8h],rax
                    FF
  0000000010104D15: C9                 leave
  0000000010104D16: C3                 ret
  0000000010104D17: 90                 nop
  0000000010104D18: 90                 nop
  0000000010104D19: 90                 nop
  0000000010104D1A: 90                 nop
  0000000010104D1B: 90                 nop
  0000000010104D1C: 90                 nop
  0000000010104D1D: 90                 nop
  0000000010104D1E: 90                 nop
  0000000010104D1F: 90                 nop
  0000000010104D20: 55                 push        rbp
  0000000010104D21: 48 8B EC           mov         rbp,rsp
  0000000010104D24: 48 81 EC 30 02 00  sub         rsp,230h
                    00
  0000000010104D2B: E8 90 F3 FF FF     call        00000000101040C0
  0000000010104D30: 31 C0              xor         eax,eax
  0000000010104D32: 48 89 85 F8 FD FF  mov         qword ptr [rbp+FFFFFFFFFFFFFDF8h],rax
                    FF
  0000000010104D39: 48 81 BD F8 FD FF  cmp         qword ptr [rbp+FFFFFFFFFFFFFDF8h],0FFh
                    FF FF 00 00 00
  0000000010104D44: 7D 55              jge         0000000010104D9B
  0000000010104D46: 66 83 BB 56 ED FF  cmp         word ptr [rbx+FFFFFFFFFFFFED56h],2Ah
                    FF 2A
  0000000010104D4E: 74 4B              je          0000000010104D9B
  0000000010104D50: 0F B6 83 55 ED FF  movzx       eax,byte ptr [rbx+FFFFFFFFFFFFED55h]
                    FF
  0000000010104D57: 85 C0              test        eax,eax
  0000000010104D59: 75 40              jne         0000000010104D9B
  0000000010104D5B: 48 8D 85 00 FE FF  lea         rax,[rbp+FFFFFFFFFFFFFE00h]
                    FF
  0000000010104D62: 48 8B 8D F8 FD FF  mov         rcx,qword ptr [rbp+FFFFFFFFFFFFFDF8h]
                    FF
  0000000010104D69: 48 81 F9 00 01 00  cmp         rcx,100h
                    00
  0000000010104D70: 73 02              jae         0000000010104D74
  0000000010104D72: EB 08              jmp         0000000010104D7C
  0000000010104D74: B0 01              mov         al,1
  0000000010104D76: B9 9D 1F 00 00     mov         ecx,1F9Dh
  0000000010104D7B: CC                 int         3
  0000000010104D7C: 48 C1 E1 01        shl         rcx,1
  0000000010104D80: 48 03 C1           add         rax,rcx
  0000000010104D83: 0F B7 8B 56 ED FF  movzx       ecx,word ptr [rbx+FFFFFFFFFFFFED56h]
                    FF
  0000000010104D8A: 66 89 08           mov         word ptr [rax],cx
  0000000010104D8D: E8 2E F3 FF FF     call        00000000101040C0
  0000000010104D92: 48 FF 85 F8 FD FF  inc         qword ptr [rbp+FFFFFFFFFFFFFDF8h]
                    FF
  0000000010104D99: EB 9E              jmp         0000000010104D39
  0000000010104D9B: 48 8D 85 00 FE FF  lea         rax,[rbp+FFFFFFFFFFFFFE00h]
                    FF
  0000000010104DA2: 48 8B 8D F8 FD FF  mov         rcx,qword ptr [rbp+FFFFFFFFFFFFFDF8h]
                    FF
  0000000010104DA9: 48 81 F9 00 01 00  cmp         rcx,100h
                    00
  0000000010104DB0: 73 02              jae         0000000010104DB4
  0000000010104DB2: EB 08              jmp         0000000010104DBC
  0000000010104DB4: B0 01              mov         al,1
  0000000010104DB6: B9 C6 1F 00 00     mov         ecx,1FC6h
  0000000010104DBB: CC                 int         3
  0000000010104DBC: 48 C1 E1 01        shl         rcx,1
  0000000010104DC0: 48 03 C1           add         rax,rcx
  0000000010104DC3: 31 C9              xor         ecx,ecx
  0000000010104DC5: 66 89 08           mov         word ptr [rax],cx
  0000000010104DC8: 66 83 BB 56 ED FF  cmp         word ptr [rbx+FFFFFFFFFFFFED56h],2Ah
                    FF 2A
  0000000010104DD0: 75 17              jne         0000000010104DE9
  0000000010104DD2: 48 8B 83 20 DA EF  mov         rax,qword ptr [rbx+FFFFFFFFFFEFDA20h]
                    FF
  0000000010104DD9: 48 8D 8D 00 FE FF  lea         rcx,[rbp+FFFFFFFFFFFFFE00h]
                    FF
  0000000010104DE0: BA 00 01 00 00     mov         edx,100h
  0000000010104DE5: FF D0              call        rax
  0000000010104DE7: EB 11              jmp         0000000010104DFA
  0000000010104DE9: 48 8D 8B 70 FC FF  lea         rcx,[rbx+FFFFFFFFFFFFFC70h]
                    FF
  0000000010104DF0: BA 1D 00 00 00     mov         edx,1Dh
  0000000010104DF5: E8 26 F2 FF FF     call        0000000010104020
  0000000010104DFA: C9                 leave
  0000000010104DFB: C3                 ret
  0000000010104DFC: 90                 nop
  0000000010104DFD: 90                 nop
  0000000010104DFE: 90                 nop
  0000000010104DFF: 90                 nop
  0000000010104E00: 55                 push        rbp
  0000000010104E01: 48 8B EC           mov         rbp,rsp
  0000000010104E04: 48 83 EC 30        sub         rsp,30h
  0000000010104E08: 48 89 4D 10        mov         qword ptr [rbp+10h],rcx
  0000000010104E0C: 66 83 BB 56 ED FF  cmp         word ptr [rbx+FFFFFFFFFFFFED56h],24h
                    FF 24
  0000000010104E14: 75 0C              jne         0000000010104E22
  0000000010104E16: 48 83 7D 10 00     cmp         qword ptr [rbp+10h],0
  0000000010104E1B: 75 05              jne         0000000010104E22
  0000000010104E1D: E8 FE FE FF FF     call        0000000010104D20
  0000000010104E22: 31 C0              xor         eax,eax
  0000000010104E24: 88 45 FF           mov         byte ptr [rbp-1],al
  0000000010104E27: 0F B6 83 55 ED FF  movzx       eax,byte ptr [rbx+FFFFFFFFFFFFED55h]
                    FF
  0000000010104E2E: 85 C0              test        eax,eax
  0000000010104E30: 75 60              jne         0000000010104E92
  0000000010104E32: 0F B6 45 FF        movzx       eax,byte ptr [rbp-1]
  0000000010104E36: 85 C0              test        eax,eax
  0000000010104E38: 75 58              jne         0000000010104E92
  0000000010104E3A: 66 83 BB 56 ED FF  cmp         word ptr [rbx+FFFFFFFFFFFFED56h],28h
                    FF 28
  0000000010104E42: 75 23              jne         0000000010104E67
  0000000010104E44: E8 77 F2 FF FF     call        00000000101040C0
  0000000010104E49: 66 83 BB 56 ED FF  cmp         word ptr [rbx+FFFFFFFFFFFFED56h],2Ah
                    FF 2A
  0000000010104E51: 75 12              jne         0000000010104E65
  0000000010104E53: E8 68 F2 FF FF     call        00000000101040C0
  0000000010104E58: 48 8B 4D 10        mov         rcx,qword ptr [rbp+10h]
  0000000010104E5C: 48 83 C1 01        add         rcx,1
  0000000010104E60: E8 9B FF FF FF     call        0000000010104E00
  0000000010104E65: EB 29              jmp         0000000010104E90
  0000000010104E67: 66 83 BB 56 ED FF  cmp         word ptr [rbx+FFFFFFFFFFFFED56h],2Ah
                    FF 2A
  0000000010104E6F: 75 1A              jne         0000000010104E8B
  0000000010104E71: E8 4A F2 FF FF     call        00000000101040C0
  0000000010104E76: 66 83 BB 56 ED FF  cmp         word ptr [rbx+FFFFFFFFFFFFED56h],29h
                    FF 29
  0000000010104E7E: 75 09              jne         0000000010104E89
  0000000010104E80: E8 3B F2 FF FF     call        00000000101040C0
  0000000010104E85: C6 45 FF 01        mov         byte ptr [rbp-1],1
  0000000010104E89: EB 05              jmp         0000000010104E90
  0000000010104E8B: E8 30 F2 FF FF     call        00000000101040C0
  0000000010104E90: EB 95              jmp         0000000010104E27
  0000000010104E92: C9                 leave
  0000000010104E93: C3                 ret
  0000000010104E94: 90                 nop
  0000000010104E95: 90                 nop
  0000000010104E96: 90                 nop
  0000000010104E97: 90                 nop
  0000000010104E98: 90                 nop
  0000000010104E99: 90                 nop
  0000000010104E9A: 90                 nop
  0000000010104E9B: 90                 nop
  0000000010104E9C: 90                 nop
  0000000010104E9D: 90                 nop
  0000000010104E9E: 90                 nop
  0000000010104E9F: 90                 nop
  0000000010104EA0: 55                 push        rbp
  0000000010104EA1: 48 8B EC           mov         rbp,rsp
  0000000010104EA4: 48 83 EC 30        sub         rsp,30h
  0000000010104EA8: 48 89 5D F0        mov         qword ptr [rbp-10h],rbx
  0000000010104EAC: 48 8D 1D 4D F1 FF  lea         rbx,[0000000010104000h]
                    FF
  0000000010104EB3: 48 89 4D 10        mov         qword ptr [rbp+10h],rcx
  0000000010104EB7: 0F B6 83 55 ED FF  movzx       eax,byte ptr [rbx+FFFFFFFFFFFFED55h]
                    FF
  0000000010104EBE: 85 C0              test        eax,eax
  0000000010104EC0: 75 11              jne         0000000010104ED3
  0000000010104EC2: 66 83 BB 56 ED FF  cmp         word ptr [rbx+FFFFFFFFFFFFED56h],20h
                    FF 20
  0000000010104ECA: 77 07              ja          0000000010104ED3
  0000000010104ECC: E8 EF F1 FF FF     call        00000000101040C0
  0000000010104ED1: EB E4              jmp         0000000010104EB7
  0000000010104ED3: 48 8B 83 30 DA EF  mov         rax,qword ptr [rbx+FFFFFFFFFFEFDA30h]
                    FF
  0000000010104EDA: 48 83 E8 01        sub         rax,1
  0000000010104EDE: 48 89 83 38 DA EF  mov         qword ptr [rbx+FFFFFFFFFFEFDA38h],rax
                    FF
  0000000010104EE5: 66 83 BB 56 ED FF  cmp         word ptr [rbx+FFFFFFFFFFFFED56h],41h
                    FF 41
  0000000010104EED: 0F 83 E8 02 00 00  jae         00000000101051DB
  0000000010104EF3: 66 83 BB 56 ED FF  cmp         word ptr [rbx+FFFFFFFFFFFFED56h],30h
                    FF 30
  0000000010104EFB: 0F 83 C9 01 00 00  jae         00000000101050CA
  0000000010104F01: 66 83 BB 56 ED FF  cmp         word ptr [rbx+FFFFFFFFFFFFED56h],22h
                    FF 22
  0000000010104F09: 74 0A              je          0000000010104F15
  0000000010104F0B: 66 83 BB 56 ED FF  cmp         word ptr [rbx+FFFFFFFFFFFFED56h],27h
                    FF 27
  0000000010104F13: 75 1C              jne         0000000010104F31
  0000000010104F15: 0F B7 8B 56 ED FF  movzx       ecx,word ptr [rbx+FFFFFFFFFFFFED56h]
                    FF
  0000000010104F1C: E8 3F F4 FF FF     call        0000000010104360
  0000000010104F21: 48 8B 45 10        mov         rax,qword ptr [rbp+10h]
  0000000010104F25: 48 C7 00 1A 00 00  mov         qword ptr [rax],1Ah
                    00
  0000000010104F2C: E9 94 01 00 00     jmp         00000000101050C5
  0000000010104F31: 66 83 BB 56 ED FF  cmp         word ptr [rbx+FFFFFFFFFFFFED56h],23h
                    FF 23
  0000000010104F39: 75 15              jne         0000000010104F50
  0000000010104F3B: E8 80 F1 FF FF     call        00000000101040C0
  0000000010104F40: 48 8B 45 10        mov         rax,qword ptr [rbp+10h]
  0000000010104F44: 48 C7 00 0A 00 00  mov         qword ptr [rax],0Ah
                    00
  0000000010104F4B: E9 75 01 00 00     jmp         00000000101050C5
  0000000010104F50: 66 83 BB 56 ED FF  cmp         word ptr [rbx+FFFFFFFFFFFFED56h],24h
                    FF 24
  0000000010104F58: 75 15              jne         0000000010104F6F
  0000000010104F5A: E8 F1 F4 FF FF     call        0000000010104450
  0000000010104F5F: 48 8B 45 10        mov         rax,qword ptr [rbp+10h]
  0000000010104F63: 48 C7 00 1A 00 00  mov         qword ptr [rax],1Ah
                    00
  0000000010104F6A: E9 56 01 00 00     jmp         00000000101050C5
  0000000010104F6F: 66 83 BB 56 ED FF  cmp         word ptr [rbx+FFFFFFFFFFFFED56h],26h
                    FF 26
  0000000010104F77: 75 15              jne         0000000010104F8E
  0000000010104F79: E8 42 F1 FF FF     call        00000000101040C0
  0000000010104F7E: 48 8B 45 10        mov         rax,qword ptr [rbp+10h]
  0000000010104F82: 48 C7 00 05 00 00  mov         qword ptr [rax],5
                    00
  0000000010104F89: E9 37 01 00 00     jmp         00000000101050C5
  0000000010104F8E: 66 83 BB 56 ED FF  cmp         word ptr [rbx+FFFFFFFFFFFFED56h],28h
                    FF 28
  0000000010104F96: 75 36              jne         0000000010104FCE
  0000000010104F98: E8 23 F1 FF FF     call        00000000101040C0
  0000000010104F9D: 66 83 BB 56 ED FF  cmp         word ptr [rbx+FFFFFFFFFFFFED56h],2Ah
                    FF 2A
  0000000010104FA5: 75 17              jne         0000000010104FBE
  0000000010104FA7: 31 C0              xor         eax,eax
  0000000010104FA9: 48 8B 4D 10        mov         rcx,qword ptr [rbp+10h]
  0000000010104FAD: 48 89 01           mov         qword ptr [rcx],rax
  0000000010104FB0: E8 0B F1 FF FF     call        00000000101040C0
  0000000010104FB5: 31 C9              xor         ecx,ecx
  0000000010104FB7: E8 44 FE FF FF     call        0000000010104E00
  0000000010104FBC: EB 0B              jmp         0000000010104FC9
  0000000010104FBE: 48 8B 45 10        mov         rax,qword ptr [rbp+10h]
  0000000010104FC2: 48 C7 00 1C 00 00  mov         qword ptr [rax],1Ch
                    00
  0000000010104FC9: E9 F7 00 00 00     jmp         00000000101050C5
  0000000010104FCE: 66 83 BB 56 ED FF  cmp         word ptr [rbx+FFFFFFFFFFFFED56h],29h
                    FF 29
  0000000010104FD6: 75 15              jne         0000000010104FED
  0000000010104FD8: E8 E3 F0 FF FF     call        00000000101040C0
  0000000010104FDD: 48 8B 45 10        mov         rax,qword ptr [rbp+10h]
  0000000010104FE1: 48 C7 00 2C 00 00  mov         qword ptr [rax],2Ch
                    00
  0000000010104FE8: E9 D8 00 00 00     jmp         00000000101050C5
  0000000010104FED: 66 83 BB 56 ED FF  cmp         word ptr [rbx+FFFFFFFFFFFFED56h],2Ah
                    FF 2A
  0000000010104FF5: 75 15              jne         000000001010500C
  0000000010104FF7: E8 C4 F0 FF FF     call        00000000101040C0
  0000000010104FFC: 48 8B 45 10        mov         rax,qword ptr [rbp+10h]
  0000000010105000: 48 C7 00 01 00 00  mov         qword ptr [rax],1
                    00
  0000000010105007: E9 B9 00 00 00     jmp         00000000101050C5
  000000001010500C: 66 83 BB 56 ED FF  cmp         word ptr [rbx+FFFFFFFFFFFFED56h],2Bh
                    FF 2B
  0000000010105014: 75 15              jne         000000001010502B
  0000000010105016: E8 A5 F0 FF FF     call        00000000101040C0
  000000001010501B: 48 8B 45 10        mov         rax,qword ptr [rbp+10h]
  000000001010501F: 48 C7 00 06 00 00  mov         qword ptr [rax],6
                    00
  0000000010105026: E9 9A 00 00 00     jmp         00000000101050C5
  000000001010502B: 66 83 BB 56 ED FF  cmp         word ptr [rbx+FFFFFFFFFFFFED56h],2Ch
                    FF 2C
  0000000010105033: 75 12              jne         0000000010105047
  0000000010105035: E8 86 F0 FF FF     call        00000000101040C0
  000000001010503A: 48 8B 45 10        mov         rax,qword ptr [rbp+10h]
  000000001010503E: 48 C7 00 28 00 00  mov         qword ptr [rax],28h
                    00
  0000000010105045: EB 7E              jmp         00000000101050C5
  0000000010105047: 66 83 BB 56 ED FF  cmp         word ptr [rbx+FFFFFFFFFFFFED56h],2Dh
                    FF 2D
  000000001010504F: 75 12              jne         0000000010105063
  0000000010105051: E8 6A F0 FF FF     call        00000000101040C0
  0000000010105056: 48 8B 45 10        mov         rax,qword ptr [rbp+10h]
  000000001010505A: 48 C7 00 07 00 00  mov         qword ptr [rax],7
                    00
  0000000010105061: EB 62              jmp         00000000101050C5
  0000000010105063: 66 83 BB 56 ED FF  cmp         word ptr [rbx+FFFFFFFFFFFFED56h],2Eh
                    FF 2E
  000000001010506B: 75 2E              jne         000000001010509B
  000000001010506D: E8 4E F0 FF FF     call        00000000101040C0
  0000000010105072: 66 83 BB 56 ED FF  cmp         word ptr [rbx+FFFFFFFFFFFFED56h],2Eh
                    FF 2E
  000000001010507A: 75 12              jne         000000001010508E
  000000001010507C: E8 3F F0 FF FF     call        00000000101040C0
  0000000010105081: 48 8B 45 10        mov         rax,qword ptr [rbp+10h]
  0000000010105085: 48 C7 00 2B 00 00  mov         qword ptr [rax],2Bh
                    00
  000000001010508C: EB 0B              jmp         0000000010105099
  000000001010508E: 48 8B 45 10        mov         rax,qword ptr [rbp+10h]
  0000000010105092: 48 C7 00 12 00 00  mov         qword ptr [rax],12h
                    00
  0000000010105099: EB 2A              jmp         00000000101050C5
  000000001010509B: 66 83 BB 56 ED FF  cmp         word ptr [rbx+FFFFFFFFFFFFED56h],2Fh
                    FF 2F
  00000000101050A3: 75 12              jne         00000000101050B7
  00000000101050A5: E8 16 F0 FF FF     call        00000000101040C0
  00000000101050AA: 48 8B 45 10        mov         rax,qword ptr [rbp+10h]
  00000000101050AE: 48 C7 00 02 00 00  mov         qword ptr [rax],2
                    00
  00000000101050B5: EB 0E              jmp         00000000101050C5
  00000000101050B7: E8 04 F0 FF FF     call        00000000101040C0
  00000000101050BC: 31 C0              xor         eax,eax
  00000000101050BE: 48 8B 4D 10        mov         rcx,qword ptr [rbp+10h]
  00000000101050C2: 48 89 01           mov         qword ptr [rcx],rax
  00000000101050C5: E9 0C 01 00 00     jmp         00000000101051D6
  00000000101050CA: 66 83 BB 56 ED FF  cmp         word ptr [rbx+FFFFFFFFFFFFED56h],3Ah
                    FF 3A
  00000000101050D2: 73 0E              jae         00000000101050E2
  00000000101050D4: 48 8B 4D 10        mov         rcx,qword ptr [rbp+10h]
  00000000101050D8: E8 B3 F5 FF FF     call        0000000010104690
  00000000101050DD: E9 F4 00 00 00     jmp         00000000101051D6
  00000000101050E2: 66 83 BB 56 ED FF  cmp         word ptr [rbx+FFFFFFFFFFFFED56h],3Ah
                    FF 3A
  00000000101050EA: 75 31              jne         000000001010511D
  00000000101050EC: E8 CF EF FF FF     call        00000000101040C0
  00000000101050F1: 66 83 BB 56 ED FF  cmp         word ptr [rbx+FFFFFFFFFFFFED56h],3Dh
                    FF 3D
  00000000101050F9: 75 12              jne         000000001010510D
  00000000101050FB: E8 C0 EF FF FF     call        00000000101040C0
  0000000010105100: 48 8B 45 10        mov         rax,qword ptr [rbp+10h]
  0000000010105104: 48 C7 00 2A 00 00  mov         qword ptr [rax],2Ah
                    00
  000000001010510B: EB 0B              jmp         0000000010105118
  000000001010510D: 48 8B 45 10        mov         rax,qword ptr [rbp+10h]
  0000000010105111: 48 C7 00 29 00 00  mov         qword ptr [rax],29h
                    00
  0000000010105118: E9 B9 00 00 00     jmp         00000000101051D6
  000000001010511D: 66 83 BB 56 ED FF  cmp         word ptr [rbx+FFFFFFFFFFFFED56h],3Bh
                    FF 3B
  0000000010105125: 75 15              jne         000000001010513C
  0000000010105127: E8 94 EF FF FF     call        00000000101040C0
  000000001010512C: 48 8B 45 10        mov         rax,qword ptr [rbp+10h]
  0000000010105130: 48 C7 00 34 00 00  mov         qword ptr [rax],34h
                    00
  0000000010105137: E9 9A 00 00 00     jmp         00000000101051D6
  000000001010513C: 66 83 BB 56 ED FF  cmp         word ptr [rbx+FFFFFFFFFFFFED56h],3Ch
                    FF 3C
  0000000010105144: 75 2E              jne         0000000010105174
  0000000010105146: E8 75 EF FF FF     call        00000000101040C0
  000000001010514B: 66 83 BB 56 ED FF  cmp         word ptr [rbx+FFFFFFFFFFFFED56h],3Dh
                    FF 3D
  0000000010105153: 75 12              jne         0000000010105167
  0000000010105155: E8 66 EF FF FF     call        00000000101040C0
  000000001010515A: 48 8B 45 10        mov         rax,qword ptr [rbp+10h]
  000000001010515E: 48 C7 00 0C 00 00  mov         qword ptr [rax],0Ch
                    00
  0000000010105165: EB 0B              jmp         0000000010105172
  0000000010105167: 48 8B 45 10        mov         rax,qword ptr [rbp+10h]
  000000001010516B: 48 C7 00 0B 00 00  mov         qword ptr [rax],0Bh
                    00
  0000000010105172: EB 62              jmp         00000000101051D6
  0000000010105174: 66 83 BB 56 ED FF  cmp         word ptr [rbx+FFFFFFFFFFFFED56h],3Dh
                    FF 3D
  000000001010517C: 75 12              jne         0000000010105190
  000000001010517E: E8 3D EF FF FF     call        00000000101040C0
  0000000010105183: 48 8B 45 10        mov         rax,qword ptr [rbp+10h]
  0000000010105187: 48 C7 00 09 00 00  mov         qword ptr [rax],9
                    00
  000000001010518E: EB 46              jmp         00000000101051D6
  0000000010105190: 66 83 BB 56 ED FF  cmp         word ptr [rbx+FFFFFFFFFFFFED56h],3Eh
                    FF 3E
  0000000010105198: 75 2E              jne         00000000101051C8
  000000001010519A: E8 21 EF FF FF     call        00000000101040C0
  000000001010519F: 66 83 BB 56 ED FF  cmp         word ptr [rbx+FFFFFFFFFFFFED56h],3Dh
                    FF 3D
  00000000101051A7: 75 12              jne         00000000101051BB
  00000000101051A9: E8 12 EF FF FF     call        00000000101040C0
  00000000101051AE: 48 8B 45 10        mov         rax,qword ptr [rbp+10h]
  00000000101051B2: 48 C7 00 0E 00 00  mov         qword ptr [rax],0Eh
                    00
  00000000101051B9: EB 0B              jmp         00000000101051C6
  00000000101051BB: 48 8B 45 10        mov         rax,qword ptr [rbp+10h]
  00000000101051BF: 48 C7 00 0D 00 00  mov         qword ptr [rax],0Dh
                    00
  00000000101051C6: EB 0E              jmp         00000000101051D6
  00000000101051C8: E8 F3 EE FF FF     call        00000000101040C0
  00000000101051CD: 31 C0              xor         eax,eax
  00000000101051CF: 48 8B 4D 10        mov         rcx,qword ptr [rbp+10h]
  00000000101051D3: 48 89 01           mov         qword ptr [rcx],rax
  00000000101051D6: E9 28 01 00 00     jmp         0000000010105303
  00000000101051DB: 66 83 BB 56 ED FF  cmp         word ptr [rbx+FFFFFFFFFFFFED56h],5Bh
                    FF 5B
  00000000101051E3: 73 0E              jae         00000000101051F3
  00000000101051E5: 48 8B 4D 10        mov         rcx,qword ptr [rbp+10h]
  00000000101051E9: E8 52 EF FF FF     call        0000000010104140
  00000000101051EE: E9 10 01 00 00     jmp         0000000010105303
  00000000101051F3: 66 83 BB 56 ED FF  cmp         word ptr [rbx+FFFFFFFFFFFFED56h],61h
                    FF 61
  00000000101051FB: 73 6D              jae         000000001010526A
  00000000101051FD: 66 83 BB 56 ED FF  cmp         word ptr [rbx+FFFFFFFFFFFFED56h],5Bh
                    FF 5B
  0000000010105205: 75 0D              jne         0000000010105214
  0000000010105207: 48 8B 45 10        mov         rax,qword ptr [rbp+10h]
  000000001010520B: 48 C7 00 1D 00 00  mov         qword ptr [rax],1Dh
                    00
  0000000010105212: EB 4C              jmp         0000000010105260
  0000000010105214: 66 83 BB 56 ED FF  cmp         word ptr [rbx+FFFFFFFFFFFFED56h],5Dh
                    FF 5D
  000000001010521C: 75 0D              jne         000000001010522B
  000000001010521E: 48 8B 45 10        mov         rax,qword ptr [rbp+10h]
  0000000010105222: 48 C7 00 2D 00 00  mov         qword ptr [rax],2Dh
                    00
  0000000010105229: EB 35              jmp         0000000010105260
  000000001010522B: 66 83 BB 56 ED FF  cmp         word ptr [rbx+FFFFFFFFFFFFED56h],5Eh
                    FF 5E
  0000000010105233: 75 0D              jne         0000000010105242
  0000000010105235: 48 8B 45 10        mov         rax,qword ptr [rbp+10h]
  0000000010105239: 48 C7 00 11 00 00  mov         qword ptr [rax],11h
                    00
  0000000010105240: EB 1E              jmp         0000000010105260
  0000000010105242: 66 83 BB 56 ED FF  cmp         word ptr [rbx+FFFFFFFFFFFFED56h],5Fh
                    FF 5F
  000000001010524A: 75 0B              jne         0000000010105257
  000000001010524C: 48 8B 4D 10        mov         rcx,qword ptr [rbp+10h]
  0000000010105250: E8 EB EE FF FF     call        0000000010104140
  0000000010105255: EB 09              jmp         0000000010105260
  0000000010105257: 31 C0              xor         eax,eax
  0000000010105259: 48 8B 4D 10        mov         rcx,qword ptr [rbp+10h]
  000000001010525D: 48 89 01           mov         qword ptr [rcx],rax
  0000000010105260: E8 5B EE FF FF     call        00000000101040C0
  0000000010105265: E9 99 00 00 00     jmp         0000000010105303
  000000001010526A: 66 83 BB 56 ED FF  cmp         word ptr [rbx+FFFFFFFFFFFFED56h],7Bh
                    FF 7B
  0000000010105272: 73 0E              jae         0000000010105282
  0000000010105274: 48 8B 4D 10        mov         rcx,qword ptr [rbp+10h]
  0000000010105278: E8 C3 EE FF FF     call        0000000010104140
  000000001010527D: E9 81 00 00 00     jmp         0000000010105303
  0000000010105282: 66 83 BB 56 ED FF  cmp         word ptr [rbx+FFFFFFFFFFFFED56h],7Bh
                    FF 7B
  000000001010528A: 75 0D              jne         0000000010105299
  000000001010528C: 48 8B 45 10        mov         rax,qword ptr [rbp+10h]
  0000000010105290: 48 C7 00 1E 00 00  mov         qword ptr [rax],1Eh
                    00
  0000000010105297: EB 65              jmp         00000000101052FE
  0000000010105299: 66 83 BB 56 ED FF  cmp         word ptr [rbx+FFFFFFFFFFFFED56h],7Dh
                    FF 7D
  00000000101052A1: 75 0D              jne         00000000101052B0
  00000000101052A3: 48 8B 45 10        mov         rax,qword ptr [rbp+10h]
  00000000101052A7: 48 C7 00 2E 00 00  mov         qword ptr [rax],2Eh
                    00
  00000000101052AE: EB 4E              jmp         00000000101052FE
  00000000101052B0: 66 83 BB 56 ED FF  cmp         word ptr [rbx+FFFFFFFFFFFFED56h],7Ch
                    FF 7C
  00000000101052B8: 75 0D              jne         00000000101052C7
  00000000101052BA: 48 8B 45 10        mov         rax,qword ptr [rbp+10h]
  00000000101052BE: 48 C7 00 36 00 00  mov         qword ptr [rax],36h
                    00
  00000000101052C5: EB 37              jmp         00000000101052FE
  00000000101052C7: 66 83 BB 56 ED FF  cmp         word ptr [rbx+FFFFFFFFFFFFED56h],7Eh
                    FF 7E
  00000000101052CF: 75 0D              jne         00000000101052DE
  00000000101052D1: 48 8B 45 10        mov         rax,qword ptr [rbp+10h]
  00000000101052D5: 48 C7 00 1B 00 00  mov         qword ptr [rax],1Bh
                    00
  00000000101052DC: EB 20              jmp         00000000101052FE
  00000000101052DE: 66 83 BB 56 ED FF  cmp         word ptr [rbx+FFFFFFFFFFFFED56h],7Fh
                    FF 7F
  00000000101052E6: 75 0D              jne         00000000101052F5
  00000000101052E8: 48 8B 45 10        mov         rax,qword ptr [rbp+10h]
  00000000101052EC: 48 C7 00 2B 00 00  mov         qword ptr [rax],2Bh
                    00
  00000000101052F3: EB 09              jmp         00000000101052FE
  00000000101052F5: 31 C0              xor         eax,eax
  00000000101052F7: 48 8B 4D 10        mov         rcx,qword ptr [rbp+10h]
  00000000101052FB: 48 89 01           mov         qword ptr [rcx],rax
  00000000101052FE: E8 BD ED FF FF     call        00000000101040C0
  0000000010105303: 48 8B 45 10        mov         rax,qword ptr [rbp+10h]
  0000000010105307: 48 83 38 00        cmp         qword ptr [rax],0
  000000001010530B: 75 0F              jne         000000001010531C
  000000001010530D: 0F B6 83 55 ED FF  movzx       eax,byte ptr [rbx+FFFFFFFFFFFFED55h]
                    FF
  0000000010105314: 85 C0              test        eax,eax
  0000000010105316: 0F 84 9B FB FF FF  je          0000000010104EB7
  000000001010531C: 48 8B 5D F0        mov         rbx,qword ptr [rbp-10h]
  0000000010105320: C9                 leave
  0000000010105321: C3                 ret
  0000000010105322: 90                 nop
  0000000010105323: 90                 nop
  0000000010105324: 90                 nop
  0000000010105325: 90                 nop
  0000000010105326: 90                 nop
  0000000010105327: 90                 nop
  0000000010105328: 90                 nop
  0000000010105329: 90                 nop
  000000001010532A: 90                 nop
  000000001010532B: 90                 nop
  000000001010532C: 90                 nop
  000000001010532D: 90                 nop
  000000001010532E: 90                 nop
  000000001010532F: 90                 nop
  0000000010105330: 55                 push        rbp
  0000000010105331: 48 8B EC           mov         rbp,rsp
  0000000010105334: 48 83 EC 50        sub         rsp,50h
  0000000010105338: 48 89 5D E0        mov         qword ptr [rbp-20h],rbx
  000000001010533C: 48 89 75 E8        mov         qword ptr [rbp-18h],rsi
  0000000010105340: 48 89 7D F0        mov         qword ptr [rbp-10h],rdi
  0000000010105344: 48 8D 1D B5 EC FF  lea         rbx,[0000000010104000h]
                    FF
  000000001010534B: 48 89 4D 10        mov         qword ptr [rbp+10h],rcx
  000000001010534F: 48 89 55 18        mov         qword ptr [rbp+18h],rdx
  0000000010105353: 4C 89 45 20        mov         qword ptr [rbp+20h],r8
  0000000010105357: 48 8B 45 20        mov         rax,qword ptr [rbp+20h]
  000000001010535B: 48 89 83 48 ED FF  mov         qword ptr [rbx+FFFFFFFFFFFFED48h],rax
                    FF
  0000000010105362: 31 C0              xor         eax,eax
  0000000010105364: 48 89 83 58 ED FF  mov         qword ptr [rbx+FFFFFFFFFFFFED58h],rax
                    FF
  000000001010536B: 48 8D BB 40 ED FF  lea         rdi,[rbx+FFFFFFFFFFFFED40h]
                    FF
  0000000010105372: 48 8B 75 10        mov         rsi,qword ptr [rbp+10h]
  0000000010105376: B9 01 00 00 00     mov         ecx,1
  000000001010537B: F3 48 A5           rep movs    qword ptr [rdi],qword ptr [rsi]
  000000001010537E: 48 8B 4D 10        mov         rcx,qword ptr [rbp+10h]
  0000000010105382: 4C 8B 45 20        mov         r8,qword ptr [rbp+20h]
  0000000010105386: 48 8B 55 18        mov         rdx,qword ptr [rbp+18h]
  000000001010538A: FF 93 38 FF FF FF  call        qword ptr [rbx+FFFFFFFFFFFFFF38h]
  0000000010105390: 48 8B 45 20        mov         rax,qword ptr [rbp+20h]
  0000000010105394: 48 89 83 30 DA EF  mov         qword ptr [rbx+FFFFFFFFFFEFDA30h],rax
                    FF
  000000001010539B: 31 C0              xor         eax,eax
  000000001010539D: 48 89 83 40 DA EF  mov         qword ptr [rbx+FFFFFFFFFFEFDA40h],rax
                    FF
  00000000101053A4: 48 8B 4D 10        mov         rcx,qword ptr [rbp+10h]
  00000000101053A8: 4C 8D 83 48 DA EF  lea         r8,[rbx+FFFFFFFFFFEFDA48h]
                    FF
  00000000101053AF: 48 8D 83 28 DA EF  lea         rax,[rbx+FFFFFFFFFFEFDA28h]
                    FF
  00000000101053B6: 48 89 44 24 20     mov         qword ptr [rsp+20h],rax
  00000000101053BB: 41 B9 00 00 10 00  mov         r9d,100000h
  00000000101053C1: 48 8B 55 18        mov         rdx,qword ptr [rbp+18h]
  00000000101053C5: FF 93 30 FF FF FF  call        qword ptr [rbx+FFFFFFFFFFFFFF30h]
  00000000101053CB: E8 F0 EC FF FF     call        00000000101040C0
  00000000101053D0: 48 8B 5D E0        mov         rbx,qword ptr [rbp-20h]
  00000000101053D4: 48 8B 75 E8        mov         rsi,qword ptr [rbp-18h]
  00000000101053D8: 48 8B 7D F0        mov         rdi,qword ptr [rbp-10h]
  00000000101053DC: C9                 leave
  00000000101053DD: C3                 ret
  00000000101053DE: 90                 nop
  00000000101053DF: 90                 nop
  00000000101053E0: 55                 push        rbp
  00000000101053E1: 48 8B EC           mov         rbp,rsp
  00000000101053E4: 48 83 EC 10        sub         rsp,10h
  00000000101053E8: 48 89 5D F0        mov         qword ptr [rbp-10h],rbx
  00000000101053EC: 48 8D 1D 0D EC FF  lea         rbx,[0000000010104000h]
                    FF
  00000000101053F3: 48 89 4D 10        mov         qword ptr [rbp+10h],rcx
  00000000101053F7: 48 8B 45 10        mov         rax,qword ptr [rbp+10h]
  00000000101053FB: 48 89 83 20 DA EF  mov         qword ptr [rbx+FFFFFFFFFFEFDA20h],rax
                    FF
  0000000010105402: 48 8B 5D F0        mov         rbx,qword ptr [rbp-10h]
  0000000010105406: C9                 leave
  0000000010105407: C3                 ret
  0000000010105408: 90                 nop
  0000000010105409: 90                 nop
  000000001010540A: 90                 nop
  000000001010540B: 90                 nop
  000000001010540C: 90                 nop
  000000001010540D: 90                 nop
  000000001010540E: 90                 nop
  000000001010540F: 90                 nop
  0000000010105410: 55                 push        rbp
  0000000010105411: 48 8B EC           mov         rbp,rsp
  0000000010105414: 48 83 EC 10        sub         rsp,10h
  0000000010105418: 48 89 75 F0        mov         qword ptr [rbp-10h],rsi
  000000001010541C: 48 89 7D F8        mov         qword ptr [rbp-8],rdi
  0000000010105420: 48 89 4D 10        mov         qword ptr [rbp+10h],rcx
  0000000010105424: 48 89 55 18        mov         qword ptr [rbp+18h],rdx
  0000000010105428: 48 8D BB 48 DA FF  lea         rdi,[rbx+FFFFFFFFFFFFDA48h]
                    FF
  000000001010542F: 48 8B 83 38 ED FF  mov         rax,qword ptr [rbx+FFFFFFFFFFFFED38h]
                    FF
  0000000010105436: 48 83 F8 23        cmp         rax,23h
  000000001010543A: 73 02              jae         000000001010543E
  000000001010543C: EB 08              jmp         0000000010105446
  000000001010543E: B0 01              mov         al,1
  0000000010105440: B9 80 2A 00 00     mov         ecx,2A80h
  0000000010105445: CC                 int         3
  0000000010105446: 48 69 C0 88 00 00  imul        rax,rax,88h
                    00
  000000001010544D: 48 03 F8           add         rdi,rax
  0000000010105450: 48 8D 7F 08        lea         rdi,[rdi+8]
  0000000010105454: 48 8B 75 18        mov         rsi,qword ptr [rbp+18h]
  0000000010105458: 31 C9              xor         ecx,ecx
  000000001010545A: 31 C0              xor         eax,eax
  000000001010545C: 48 83 C1 01        add         rcx,1
  0000000010105460: BA 40 00 00 00     mov         edx,40h
  0000000010105465: 48 3B CA           cmp         rcx,rdx
  0000000010105468: 77 02              ja          000000001010546C
  000000001010546A: EB 08              jmp         0000000010105474
  000000001010546C: B0 07              mov         al,7
  000000001010546E: B9 80 2A 00 00     mov         ecx,2A80h
  0000000010105473: CC                 int         3
  0000000010105474: BA 40 00 00 00     mov         edx,40h
  0000000010105479: 48 3B CA           cmp         rcx,rdx
  000000001010547C: 77 02              ja          0000000010105480
  000000001010547E: EB 08              jmp         0000000010105488
  0000000010105480: B0 07              mov         al,7
  0000000010105482: B9 80 2A 00 00     mov         ecx,2A80h
  0000000010105487: CC                 int         3
  0000000010105488: 66 AD              lods        word ptr [rsi]
  000000001010548A: 66 AB              stos        word ptr [rdi]
  000000001010548C: 85 C0              test        eax,eax
  000000001010548E: 75 CC              jne         000000001010545C
  0000000010105490: 48 8D 83 48 DA FF  lea         rax,[rbx+FFFFFFFFFFFFDA48h]
                    FF
  0000000010105497: 48 8B 8B 38 ED FF  mov         rcx,qword ptr [rbx+FFFFFFFFFFFFED38h]
                    FF
  000000001010549E: 48 83 F9 23        cmp         rcx,23h
  00000000101054A2: 73 02              jae         00000000101054A6
  00000000101054A4: EB 08              jmp         00000000101054AE
  00000000101054A6: B0 01              mov         al,1
  00000000101054A8: B9 96 2A 00 00     mov         ecx,2A96h
  00000000101054AD: CC                 int         3
  00000000101054AE: 48 69 C9 88 00 00  imul        rcx,rcx,88h
                    00
  00000000101054B5: 48 03 C1           add         rax,rcx
  00000000101054B8: 48 8B 4D 10        mov         rcx,qword ptr [rbp+10h]
  00000000101054BC: 48 89 08           mov         qword ptr [rax],rcx
  00000000101054BF: 48 FF 83 38 ED FF  inc         qword ptr [rbx+FFFFFFFFFFFFED38h]
                    FF
  00000000101054C6: 48 8B 75 F0        mov         rsi,qword ptr [rbp-10h]
  00000000101054CA: 48 8B 7D F8        mov         rdi,qword ptr [rbp-8]
  00000000101054CE: C9                 leave
  00000000101054CF: C3                 ret
  00000000101054D0: 55                 push        rbp
  00000000101054D1: 48 8B EC           mov         rbp,rsp
  00000000101054D4: 48 83 EC 20        sub         rsp,20h
  00000000101054D8: 31 C0              xor         eax,eax
  00000000101054DA: 48 89 83 38 ED FF  mov         qword ptr [rbx+FFFFFFFFFFFFED38h],rax
                    FF
  00000000101054E1: 31 C0              xor         eax,eax
  00000000101054E3: 48 89 83 E0 EC FF  mov         qword ptr [rbx+FFFFFFFFFFFFECE0h],rax
                    FF
  00000000101054EA: 31 C0              xor         eax,eax
  00000000101054EC: 48 89 83 E8 EC FF  mov         qword ptr [rbx+FFFFFFFFFFFFECE8h],rax
                    FF
  00000000101054F3: B9 20 00 00 00     mov         ecx,20h
  00000000101054F8: 48 8D 93 60 FD FF  lea         rdx,[rbx+FFFFFFFFFFFFFD60h]
                    FF
  00000000101054FF: E8 0C FF FF FF     call        0000000010105410
  0000000010105504: B9 31 00 00 00     mov         ecx,31h
  0000000010105509: 48 8D 93 68 FD FF  lea         rdx,[rbx+FFFFFFFFFFFFFD68h]
                    FF
  0000000010105510: E8 FB FE FF FF     call        0000000010105410
  0000000010105515: B9 30 00 00 00     mov         ecx,30h
  000000001010551A: 48 8D 93 70 FD FF  lea         rdx,[rbx+FFFFFFFFFFFFFD70h]
                    FF
  0000000010105521: E8 EA FE FF FF     call        0000000010105410
  0000000010105526: B9 08 00 00 00     mov         ecx,8
  000000001010552B: 48 8D 93 78 FD FF  lea         rdx,[rbx+FFFFFFFFFFFFFD78h]
                    FF
  0000000010105532: E8 D9 FE FF FF     call        0000000010105410
  0000000010105537: B9 32 00 00 00     mov         ecx,32h
  000000001010553C: 48 8D 93 80 FD FF  lea         rdx,[rbx+FFFFFFFFFFFFFD80h]
                    FF
  0000000010105543: E8 C8 FE FF FF     call        0000000010105410
  0000000010105548: B9 0F 00 00 00     mov         ecx,0Fh
  000000001010554D: 48 8D 93 88 FD FF  lea         rdx,[rbx+FFFFFFFFFFFFFD88h]
                    FF
  0000000010105554: E8 B7 FE FF FF     call        0000000010105410
  0000000010105559: B9 10 00 00 00     mov         ecx,10h
  000000001010555E: 48 8D 93 90 FD FF  lea         rdx,[rbx+FFFFFFFFFFFFFD90h]
                    FF
  0000000010105565: E8 A6 FE FF FF     call        0000000010105410
  000000001010556A: B9 33 00 00 00     mov         ecx,33h
  000000001010556F: 48 8D 93 98 FD FF  lea         rdx,[rbx+FFFFFFFFFFFFFD98h]
                    FF
  0000000010105576: E8 95 FE FF FF     call        0000000010105410
  000000001010557B: 48 8B 83 38 ED FF  mov         rax,qword ptr [rbx+FFFFFFFFFFFFED38h]
                    FF
  0000000010105582: 48 89 83 F0 EC FF  mov         qword ptr [rbx+FFFFFFFFFFFFECF0h],rax
                    FF
  0000000010105589: B9 35 00 00 00     mov         ecx,35h
  000000001010558E: 48 8D 93 A0 FD FF  lea         rdx,[rbx+FFFFFFFFFFFFFDA0h]
                    FF
  0000000010105595: E8 76 FE FF FF     call        0000000010105410
  000000001010559A: B9 19 00 00 00     mov         ecx,19h
  000000001010559F: 48 8D 93 A8 FD FF  lea         rdx,[rbx+FFFFFFFFFFFFFDA8h]
                    FF
  00000000101055A6: E8 65 FE FF FF     call        0000000010105410
  00000000101055AB: B9 48 00 00 00     mov         ecx,48h
  00000000101055B0: 48 8D 93 B0 FD FF  lea         rdx,[rbx+FFFFFFFFFFFFFDB0h]
                    FF
  00000000101055B7: E8 54 FE FF FF     call        0000000010105410
  00000000101055BC: B9 03 00 00 00     mov         ecx,3
  00000000101055C1: 48 8D 93 B8 FD FF  lea         rdx,[rbx+FFFFFFFFFFFFFDB8h]
                    FF
  00000000101055C8: E8 43 FE FF FF     call        0000000010105410
  00000000101055CD: B9 04 00 00 00     mov         ecx,4
  00000000101055D2: 48 8D 93 C0 FD FF  lea         rdx,[rbx+FFFFFFFFFFFFFDC0h]
                    FF
  00000000101055D9: E8 32 FE FF FF     call        0000000010105410
  00000000101055DE: B9 25 00 00 00     mov         ecx,25h
  00000000101055E3: 48 8D 93 C8 FD FF  lea         rdx,[rbx+FFFFFFFFFFFFFDC8h]
                    FF
  00000000101055EA: E8 21 FE FF FF     call        0000000010105410
  00000000101055EF: 48 8B 83 38 ED FF  mov         rax,qword ptr [rbx+FFFFFFFFFFFFED38h]
                    FF
  00000000101055F6: 48 89 83 F8 EC FF  mov         qword ptr [rbx+FFFFFFFFFFFFECF8h],rax
                    FF
  00000000101055FD: B9 37 00 00 00     mov         ecx,37h
  0000000010105602: 48 8D 93 D0 FD FF  lea         rdx,[rbx+FFFFFFFFFFFFFDD0h]
                    FF
  0000000010105609: E8 02 FE FF FF     call        0000000010105410
  000000001010560E: B9 2F 00 00 00     mov         ecx,2Fh
  0000000010105613: 48 8D 93 E0 FD FF  lea         rdx,[rbx+FFFFFFFFFFFFFDE0h]
                    FF
  000000001010561A: E8 F1 FD FF FF     call        0000000010105410
  000000001010561F: B9 18 00 00 00     mov         ecx,18h
  0000000010105624: 48 8D 93 F0 FD FF  lea         rdx,[rbx+FFFFFFFFFFFFFDF0h]
                    FF
  000000001010562B: E8 E0 FD FF FF     call        0000000010105410
  0000000010105630: B9 47 00 00 00     mov         ecx,47h
  0000000010105635: 48 8D 93 00 FE FF  lea         rdx,[rbx+FFFFFFFFFFFFFE00h]
                    FF
  000000001010563C: E8 CF FD FF FF     call        0000000010105410
  0000000010105641: B9 24 00 00 00     mov         ecx,24h
  0000000010105646: 48 8D 93 10 FE FF  lea         rdx,[rbx+FFFFFFFFFFFFFE10h]
                    FF
  000000001010564D: E8 BE FD FF FF     call        0000000010105410
  0000000010105652: 48 8B 83 38 ED FF  mov         rax,qword ptr [rbx+FFFFFFFFFFFFED38h]
                    FF
  0000000010105659: 48 89 83 00 ED FF  mov         qword ptr [rbx+FFFFFFFFFFFFED00h],rax
                    FF
  0000000010105660: B9 38 00 00 00     mov         ecx,38h
  0000000010105665: 48 8D 93 20 FE FF  lea         rdx,[rbx+FFFFFFFFFFFFFE20h]
                    FF
  000000001010566C: E8 9F FD FF FF     call        0000000010105410
  0000000010105671: B9 17 00 00 00     mov         ecx,17h
  0000000010105676: 48 8D 93 30 FE FF  lea         rdx,[rbx+FFFFFFFFFFFFFE30h]
                    FF
  000000001010567D: E8 8E FD FF FF     call        0000000010105410
  0000000010105682: B9 3C 00 00 00     mov         ecx,3Ch
  0000000010105687: 48 8D 93 40 FE FF  lea         rdx,[rbx+FFFFFFFFFFFFFE40h]
                    FF
  000000001010568E: E8 7D FD FF FF     call        0000000010105410
  0000000010105693: B9 4A 00 00 00     mov         ecx,4Ah
  0000000010105698: 48 8D 93 50 FE FF  lea         rdx,[rbx+FFFFFFFFFFFFFE50h]
                    FF
  000000001010569F: E8 6C FD FF FF     call        0000000010105410
  00000000101056A4: B9 46 00 00 00     mov         ecx,46h
  00000000101056A9: 48 8D 93 60 FE FF  lea         rdx,[rbx+FFFFFFFFFFFFFE60h]
                    FF
  00000000101056B0: E8 5B FD FF FF     call        0000000010105410
  00000000101056B5: B9 39 00 00 00     mov         ecx,39h
  00000000101056BA: 48 8D 93 70 FE FF  lea         rdx,[rbx+FFFFFFFFFFFFFE70h]
                    FF
  00000000101056C1: E8 4A FD FF FF     call        0000000010105410
  00000000101056C6: B9 22 00 00 00     mov         ecx,22h
  00000000101056CB: 48 8D 93 80 FE FF  lea         rdx,[rbx+FFFFFFFFFFFFFE80h]
                    FF
  00000000101056D2: E8 39 FD FF FF     call        0000000010105410
  00000000101056D7: 48 8B 83 38 ED FF  mov         rax,qword ptr [rbx+FFFFFFFFFFFFED38h]
                    FF
  00000000101056DE: 48 89 83 08 ED FF  mov         qword ptr [rbx+FFFFFFFFFFFFED08h],rax
                    FF
  00000000101056E5: B9 3D 00 00 00     mov         ecx,3Dh
  00000000101056EA: 48 8D 93 90 FE FF  lea         rdx,[rbx+FFFFFFFFFFFFFE90h]
                    FF
  00000000101056F1: E8 1A FD FF FF     call        0000000010105410
  00000000101056F6: B9 23 00 00 00     mov         ecx,23h
  00000000101056FB: 48 8D 93 A0 FE FF  lea         rdx,[rbx+FFFFFFFFFFFFFEA0h]
                    FF
  0000000010105702: E8 09 FD FF FF     call        0000000010105410
  0000000010105707: B9 3A 00 00 00     mov         ecx,3Ah
  000000001010570C: 48 8D 93 B0 FE FF  lea         rdx,[rbx+FFFFFFFFFFFFFEB0h]
                    FF
  0000000010105713: E8 F8 FC FF FF     call        0000000010105410
  0000000010105718: B9 4C 00 00 00     mov         ecx,4Ch
  000000001010571D: 48 8D 93 C0 FE FF  lea         rdx,[rbx+FFFFFFFFFFFFFEC0h]
                    FF
  0000000010105724: E8 E7 FC FF FF     call        0000000010105410
  0000000010105729: B9 4D 00 00 00     mov         ecx,4Dh
  000000001010572E: 48 8D 93 D0 FE FF  lea         rdx,[rbx+FFFFFFFFFFFFFED0h]
                    FF
  0000000010105735: E8 D6 FC FF FF     call        0000000010105410
  000000001010573A: 48 8B 83 38 ED FF  mov         rax,qword ptr [rbx+FFFFFFFFFFFFED38h]
                    FF
  0000000010105741: 48 89 83 10 ED FF  mov         qword ptr [rbx+FFFFFFFFFFFFED10h],rax
                    FF
  0000000010105748: B9 3E 00 00 00     mov         ecx,3Eh
  000000001010574D: 48 8D 93 E0 FE FF  lea         rdx,[rbx+FFFFFFFFFFFFFEE0h]
                    FF
  0000000010105754: E8 B7 FC FF FF     call        0000000010105410
  0000000010105759: 48 8B 83 38 ED FF  mov         rax,qword ptr [rbx+FFFFFFFFFFFFED38h]
                    FF
  0000000010105760: 48 89 83 18 ED FF  mov         qword ptr [rbx+FFFFFFFFFFFFED18h],rax
                    FF
  0000000010105767: 48 8B 83 38 ED FF  mov         rax,qword ptr [rbx+FFFFFFFFFFFFED38h]
                    FF
  000000001010576E: 48 89 83 20 ED FF  mov         qword ptr [rbx+FFFFFFFFFFFFED20h],rax
                    FF
  0000000010105775: B9 49 00 00 00     mov         ecx,49h
  000000001010577A: 48 8D 93 F0 FE FF  lea         rdx,[rbx+FFFFFFFFFFFFFEF0h]
                    FF
  0000000010105781: E8 8A FC FF FF     call        0000000010105410
  0000000010105786: 48 8B 83 38 ED FF  mov         rax,qword ptr [rbx+FFFFFFFFFFFFED38h]
                    FF
  000000001010578D: 48 89 83 28 ED FF  mov         qword ptr [rbx+FFFFFFFFFFFFED28h],rax
                    FF
  0000000010105794: 31 C9              xor         ecx,ecx
  0000000010105796: 48 8D 93 10 FF FF  lea         rdx,[rbx+FFFFFFFFFFFFFF10h]
                    FF
  000000001010579D: E8 6E FC FF FF     call        0000000010105410
  00000000101057A2: 48 8B 83 38 ED FF  mov         rax,qword ptr [rbx+FFFFFFFFFFFFED38h]
                    FF
  00000000101057A9: 48 89 83 30 ED FF  mov         qword ptr [rbx+FFFFFFFFFFFFED30h],rax
                    FF
  00000000101057B0: C9                 leave
  00000000101057B1: C3                 ret
  00000000101057B2: 90                 nop
  00000000101057B3: 90                 nop
  00000000101057B4: 90                 nop
  00000000101057B5: 90                 nop
  00000000101057B6: 90                 nop
  00000000101057B7: 90                 nop
  00000000101057B8: 90                 nop
  00000000101057B9: 90                 nop
  00000000101057BA: 90                 nop
  00000000101057BB: 90                 nop
  00000000101057BC: 90                 nop
  00000000101057BD: 90                 nop
  00000000101057BE: 90                 nop
  00000000101057BF: 90                 nop
  00000000101057C0: 83 FA 01           cmp         edx,1
  00000000101057C3: 74 01              je          00000000101057C6
  00000000101057C5: C3                 ret
  00000000101057C6: 56                 push        rsi
  00000000101057C7: 57                 push        rdi
  00000000101057C8: 53                 push        rbx
  00000000101057C9: 48 83 EC 20        sub         rsp,20h
  00000000101057CD: 48 8D 1D 2C E8 FF  lea         rbx,[0000000010104000h]
                    FF
  00000000101057D4: FF 53 E0           call        qword ptr [rbx-20h]
  00000000101057D7: 48 89 43 C0        mov         qword ptr [rbx-40h],rax
  00000000101057DB: 48 8D 8B 60 FF FF  lea         rcx,[rbx+FFFFFFFFFFFFFF60h]
                    FF
  00000000101057E2: FF 53 D0           call        qword ptr [rbx-30h]
  00000000101057E5: 48 85 C0           test        rax,rax
  00000000101057E8: 74 02              je          00000000101057EC
  00000000101057EA: EB 08              jmp         00000000101057F4
  00000000101057EC: B0 05              mov         al,5
  00000000101057EE: B9 C4 2E 00 00     mov         ecx,2EC4h
  00000000101057F3: CC                 int         3
  00000000101057F4: 48 8B F0           mov         rsi,rax
  00000000101057F7: 48 B8 6B 60 F2 02  mov         rax,0B4F9D4EF02F2606Bh
                    EF D4 F9 B4
  0000000010105801: 48 3B 86 F0 03 00  cmp         rax,qword ptr [rsi+00000000000003F0h]
                    00
  0000000010105808: 75 02              jne         000000001010580C
  000000001010580A: EB 08              jmp         0000000010105814
  000000001010580C: B0 05              mov         al,5
  000000001010580E: B9 C4 2E 00 00     mov         ecx,2EC4h
  0000000010105813: CC                 int         3
  0000000010105814: 48 B8 86 5E A9 E6  mov         rax,95BD889CE6A95E86h
                    9C 88 BD 95
  000000001010581E: 48 3B 86 F8 03 00  cmp         rax,qword ptr [rsi+00000000000003F8h]
                    00
  0000000010105825: 75 02              jne         0000000010105829
  0000000010105827: EB 08              jmp         0000000010105831
  0000000010105829: B0 05              mov         al,5
  000000001010582B: B9 C4 2E 00 00     mov         ecx,2EC4h
  0000000010105830: CC                 int         3
  0000000010105831: 48 8B CE           mov         rcx,rsi
  0000000010105834: BA 0F 00 00 00     mov         edx,0Fh
  0000000010105839: FF 53 D8           call        qword ptr [rbx-28h]
  000000001010583C: 48 89 83 30 FF FF  mov         qword ptr [rbx+FFFFFFFFFFFFFF30h],rax
                    FF
  0000000010105843: 48 8B CE           mov         rcx,rsi
  0000000010105846: BA 19 00 00 00     mov         edx,19h
  000000001010584B: FF 53 D8           call        qword ptr [rbx-28h]
  000000001010584E: 48 89 83 38 FF FF  mov         qword ptr [rbx+FFFFFFFFFFFFFF38h],rax
                    FF
  0000000010105855: 48 8B CE           mov         rcx,rsi
  0000000010105858: BA 1D 00 00 00     mov         edx,1Dh
  000000001010585D: FF 53 D8           call        qword ptr [rbx-28h]
  0000000010105860: 48 89 83 40 FF FF  mov         qword ptr [rbx+FFFFFFFFFFFFFF40h],rax
                    FF
  0000000010105867: 48 8B CE           mov         rcx,rsi
  000000001010586A: BA 1E 00 00 00     mov         edx,1Eh
  000000001010586F: FF 53 D8           call        qword ptr [rbx-28h]
  0000000010105872: 48 89 83 48 FF FF  mov         qword ptr [rbx+FFFFFFFFFFFFFF48h],rax
                    FF
  0000000010105879: 48 8B CE           mov         rcx,rsi
  000000001010587C: BA 1C 00 00 00     mov         edx,1Ch
  0000000010105881: FF 53 D8           call        qword ptr [rbx-28h]
  0000000010105884: 48 89 83 50 FF FF  mov         qword ptr [rbx+FFFFFFFFFFFFFF50h],rax
                    FF
  000000001010588B: 48 8B CE           mov         rcx,rsi
  000000001010588E: BA 01 00 00 00     mov         edx,1
  0000000010105893: FF 53 D8           call        qword ptr [rbx-28h]
  0000000010105896: 48 89 83 58 FF FF  mov         qword ptr [rbx+FFFFFFFFFFFFFF58h],rax
                    FF
  000000001010589D: 48 C7 83 80 F9 FF  mov         qword ptr [rbx+FFFFFFFFFFFFF980h],88h
                    FF 88 00 00 00
  00000000101058A8: E8 23 FC FF FF     call        00000000101054D0
  00000000101058AD: B8 01 00 00 00     mov         eax,1
  00000000101058B2: 48 83 C4 20        add         rsp,20h
  00000000101058B6: 5B                 pop         rbx
  00000000101058B7: 5F                 pop         rdi
  00000000101058B8: 5E                 pop         rsi
  00000000101058B9: C3                 ret

RAW DATA #3
  0000000010104000: 55 48 8B EC 48 83 EC 10 48 89 5D F0 48 8D 1D ED  UH.?H.?.H.]?H..í
  0000000010104010: FF FF FF 48 8B 83 30 DA EF FF 48 8B 5D F0 C9 C3  ÿÿÿH..0ÚïÿH.]?É?
  0000000010104020: 55 48 8B EC 48 83 EC 30 48 89 5D F0 48 8D 1D CD  UH.?H.?0H.]?H..Í
  0000000010104030: FF FF FF 48 89 4D 10 48 89 55 18 48 8B 83 38 DA  ÿÿÿH.M.H.U.H..8Ú
  0000000010104040: EF FF 48 89 45 F8 48 8B 45 F8 48 8B 8B 48 ED FF  ïÿH.EøH.EøH..Híÿ
  0000000010104050: FF 48 3B C1 7E 53 48 83 BB 58 ED FF FF 19 7D 49  ÿH;Á~SH.»Xíÿÿ.}I
  0000000010104060: 48 8D 8B D0 F9 FF FF BA 0A 00 00 00 FF 93 50 FF  H..?ùÿÿº....ÿ.Pÿ
  0000000010104070: FF FF 48 8B 4D F8 FF 93 48 FF FF FF 48 8D 8B F0  ÿÿH.Møÿ.HÿÿÿH..?
  0000000010104080: F9 FF FF BA 03 00 00 00 FF 93 50 FF FF FF 48 8B  ùÿÿº....ÿ.PÿÿÿH.
  0000000010104090: 4D 10 48 8B 55 18 FF 93 50 FF FF FF FF 93 40 FF  M.H.U.ÿ.Pÿÿÿÿ.@ÿ
  00000000101040A0: FF FF 48 FF 83 58 ED FF FF 48 8B 45 F8 48 83 C0  ÿÿHÿ.XíÿÿH.EøH.À
  00000000101040B0: 04 48 89 83 48 ED FF FF 48 8B 5D F0 C9 C3 90 90  .H..HíÿÿH.]?É?..
  00000000101040C0: 55 48 8B EC 48 83 EC 10 48 8B 83 40 DA EF FF 48  UH.?H.?.H..@ÚïÿH
  00000000101040D0: 8B 8B 28 DA EF FF 48 3B C1 7D 48 48 8D 83 48 DA  ..(ÚïÿH;Á}HH..HÚ
  00000000101040E0: EF FF 48 8B 8B 40 DA EF FF 48 81 F9 00 00 10 00  ïÿH..@ÚïÿH.ù....
  00000000101040F0: 73 02 EB 08 B0 01 B9 54 0E 00 00 CC 48 03 C1 0F  s.ë.°.¹T...?H.Á.
  0000000010104100: B6 00 48 81 E0 FF 00 00 00 0F B7 C0 66 89 83 56  ¶.H.àÿ....·Àf..V
  0000000010104110: ED FF FF 48 FF 83 40 DA EF FF 48 FF 83 30 DA EF  íÿÿHÿ.@ÚïÿHÿ.0Úï
  0000000010104120: FF EB 10 C6 83 55 ED FF FF 01 31 C0 66 89 83 56  ÿë.Æ.Uíÿÿ.1Àf..V
  0000000010104130: ED FF FF C9 C3 90 90 90 90 90 90 90 90 90 90 90  íÿÿÉ?...........
  0000000010104140: 55 48 8B EC 48 83 EC 40 48 89 75 E0 48 89 7D E8  UH.?H.?@H.uàH.}è
  0000000010104150: 48 89 4D 10 31 C0 48 89 45 F8 48 83 7D F8 3F 7D  H.M.1ÀH.EøH.}ø?}
  0000000010104160: 30 48 8D 83 68 EF FF FF 48 8B 4D F8 48 83 F9 40  0H..hïÿÿH.MøH.ù@
  0000000010104170: 73 02 EB 08 B0 01 B9 1D 0F 00 00 CC 48 C1 E1 01  s.ë.°.¹....?HÁá.
  0000000010104180: 48 03 C1 0F B7 8B 56 ED FF FF 66 89 08 48 FF 45  H.Á.·.Víÿÿf..HÿE
  0000000010104190: F8 E8 2A FF FF FF 66 83 BB 56 ED FF FF 30 72 40  øè*ÿÿÿf.»Víÿÿ0r@
  00000000101041A0: 66 83 BB 56 ED FF FF 39 76 0A 66 83 BB 56 ED FF  f.»Víÿÿ9v.f.»Víÿ
  00000000101041B0: FF 41 72 2C 66 83 BB 56 ED FF FF 5F 74 14 66 83  ÿAr,f.»Víÿÿ_t.f.
  00000000101041C0: BB 56 ED FF FF 5A 76 0A 66 83 BB 56 ED FF FF 61  »VíÿÿZv.f.»Víÿÿa
  00000000101041D0: 72 0E 66 83 BB 56 ED FF FF 7A 0F 86 7A FF FF FF  r.f.»Víÿÿz..zÿÿÿ
  00000000101041E0: 48 8D 83 68 EF FF FF 48 8B 4D F8 48 83 F9 40 73  H..hïÿÿH.MøH.ù@s
  00000000101041F0: 02 EB 08 B0 01 B9 A5 0F 00 00 CC 48 C1 E1 01 48  .ë.°.¹¥...?HÁá.H
  0000000010104200: 03 C1 31 C9 66 89 08 48 83 7D F8 0B 0F 8D 33 01  .Á1Éf..H.}ø...3.
  0000000010104210: 00 00 48 8D 83 E0 EC FF FF 48 8B 4D F8 48 83 E9  ..H..à?ÿÿH.MøH.é
  0000000010104220: 01 48 83 F9 0B 73 02 EB 08 B0 01 B9 CD 0F 00 00  .H.ù.s.ë.°.¹Í...
  0000000010104230: CC 48 C1 E1 03 48 03 C1 48 8B 00 48 89 45 F0 48  ?HÁá.H.ÁH..H.E?H
  0000000010104240: 8D B3 68 EF FF FF 48 8D BB 48 DA FF FF 48 8B 45  .³hïÿÿH.»HÚÿÿH.E
  0000000010104250: F0 48 83 F8 23 73 02 EB 08 B0 01 B9 02 10 00 00  ?H.ø#s.ë.°.¹....
  0000000010104260: CC 48 69 C0 88 00 00 00 48 03 F8 48 8D 7F 08 31  ?HiÀ....H.øH...1
  0000000010104270: C0 48 83 C0 01 48 83 F8 40 77 02 EB 08 B0 07 B9  ÀH.À.H.ø@w.ë.°.¹
  0000000010104280: 02 10 00 00 CC 48 83 F8 40 77 02 EB 08 B0 07 B9  ....?H.ø@w.ë.°.¹
  0000000010104290: 02 10 00 00 CC 66 A7 75 07 66 83 7E FE 00 75 D1  ....?f§u.f.~?.uÑ
  00000000101042A0: 74 37 48 8B 4D F0 48 8D 93 E0 EC FF FF 4C 8B 45  t7H.M?H..à?ÿÿL.E
  00000000101042B0: F8 49 83 F8 0B 73 02 EB 08 B0 01 B9 15 10 00 00  øI.ø.s.ë.°.¹....
  00000000101042C0: CC 49 C1 E0 03 49 03 D0 48 8B 12 48 3B CA 7D 09  ?IÁà.I.?H..H;Ê}.
  00000000101042D0: 48 FF 45 F0 E9 66 FF FF FF 48 8B 45 F0 48 8D 8B  HÿE?éfÿÿÿH.E?H..
  00000000101042E0: E0 EC FF FF 48 8B 55 F8 48 83 FA 0B 73 02 EB 08  à?ÿÿH.UøH.ú.s.ë.
  00000000101042F0: B0 01 B9 38 10 00 00 CC 48 C1 E2 03 48 03 CA 48  °.¹8...?HÁâ.H.ÊH
  0000000010104300: 8B 09 48 3B C1 7D 31 48 8D 83 48 DA FF FF 48 8B  ..H;Á}1H..HÚÿÿH.
  0000000010104310: 4D F0 48 83 F9 23 73 02 EB 08 B0 01 B9 4F 10 00  M?H.ù#s.ë.°.¹O..
  0000000010104320: 00 CC 48 69 C9 88 00 00 00 48 03 C1 48 8B 00 48  .?HiÉ....H.ÁH..H
  0000000010104330: 8B 4D 10 48 89 01 EB 0B 48 8B 45 10 48 C7 00 1F  .M.H..ë.H.E.HÇ..
  0000000010104340: 00 00 00 EB 0B 48 8B 45 10 48 C7 00 1F 00 00 00  ...ë.H.E.HÇ.....
  0000000010104350: 48 8B 75 E0 48 8B 7D E8 C9 C3 90 90 90 90 90 90  H.uàH.}èÉ?......
  0000000010104360: 55 48 8B EC 48 83 EC 30 48 89 4D 10 31 C0 48 89  UH.?H.?0H.M.1ÀH.
  0000000010104370: 45 F8 E8 49 FD FF FF 0F B6 83 55 ED FF FF 85 C0  EøèI?ÿÿ.¶.Uíÿÿ.À
  0000000010104380: 75 67 0F B7 83 56 ED FF FF 0F B7 4D 10 48 3B C1  ug.·.Víÿÿ.·M.H;Á
  0000000010104390: 74 57 48 81 7D F8 FF 00 00 00 7D 35 48 8D 83 68  tWH.}øÿ...}5H..h
  00000000101043A0: ED FF FF 48 8B 4D F8 48 81 F9 00 01 00 00 73 02  íÿÿH.MøH.ù....s.
  00000000101043B0: EB 08 B0 01 B9 22 11 00 00 CC 48 C1 E1 01 48 03  ë.°.¹"...?HÁá.H.
  00000000101043C0: C1 0F B7 8B 56 ED FF FF 66 89 08 48 FF 45 F8 EB  Á.·.Víÿÿf..HÿEøë
  00000000101043D0: 11 48 8D 8B 20 FA FF FF BA 10 00 00 00 E8 3E FC  .H.. úÿÿº....è>ü
  00000000101043E0: FF FF E8 D9 FC FF FF EB 8E 48 8D 83 68 ED FF FF  ÿÿèÙüÿÿë.H..híÿÿ
  00000000101043F0: 48 8B 4D F8 48 81 F9 00 01 00 00 73 02 EB 08 B0  H.MøH.ù....s.ë.°
  0000000010104400: 01 B9 70 11 00 00 CC 48 C1 E1 01 48 03 C1 31 C9  .¹p...?HÁá.H.Á1É
  0000000010104410: 66 89 08 E8 A8 FC FF FF 48 8B 45 F8 48 83 C0 01  f..è¨üÿÿH.EøH.À.
  0000000010104420: 48 89 83 F0 EF FF FF 66 83 BB 56 ED FF FF 40 75  H..?ïÿÿf.»Víÿÿ@u
  0000000010104430: 0E E8 8A FC FF FF C6 83 67 ED FF FF 01 EB 08 31  .è.üÿÿÆ.gíÿÿ.ë.1
  0000000010104440: C0 88 83 67 ED FF FF C9 C3 90 90 90 90 90 90 90  À..gíÿÿÉ?.......
  0000000010104450: 55 48 8B EC 48 83 EC 40 31 C0 48 89 45 F8 E8 5D  UH.?H.?@1ÀH.Eøè]
  0000000010104460: FC FF FF 0F B6 83 55 ED FF FF 85 C0 0F 84 77 01  üÿÿ.¶.Uíÿÿ.À..w.
  0000000010104470: 00 00 66 83 BB 56 ED FF FF 24 0F 84 69 01 00 00  ..f.»Víÿÿ$..i...
  0000000010104480: 66 83 BB 56 ED FF FF 20 74 14 66 83 BB 56 ED FF  f.»Víÿÿ t.f.»Víÿ
  0000000010104490: FF 09 74 0A 66 83 BB 56 ED FF FF 0D 75 07 E8 1D  ÿ.t.f.»Víÿÿ.u.è.
  00000000101044A0: FC FF FF EB DB 66 B8 30 00 0F B7 8B 56 ED FF FF  üÿÿëÛf¸0..·.Víÿÿ
  00000000101044B0: 48 3B C1 77 1B 66 83 BB 56 ED FF FF 39 77 11 0F  H;Áw.f.»Víÿÿ9w..
  00000000101044C0: B7 83 56 ED FF FF 48 83 E8 30 48 89 45 F0 EB 42  ·.VíÿÿH.è0H.E?ëB
  00000000101044D0: 66 B8 41 00 0F B7 8B 56 ED FF FF 48 3B C1 77 1B  f¸A..·.VíÿÿH;Áw.
  00000000101044E0: 66 83 BB 56 ED FF FF 46 77 11 0F B7 83 56 ED FF  f.»VíÿÿFw..·.Víÿ
  00000000101044F0: FF 48 83 E8 37 48 89 45 F0 EB 17 31 C0 48 89 45  ÿH.è7H.E?ë.1ÀH.E
  0000000010104500: F0 48 8D 8B 70 FA FF FF BA 13 00 00 00 E8 0E FB  ?H..púÿÿº....è.û
  0000000010104510: FF FF E8 A9 FB FF FF 66 B8 30 00 0F B7 8B 56 ED  ÿÿè©ûÿÿf¸0..·.Ví
  0000000010104520: FF FF 48 3B C1 77 1B 66 83 BB 56 ED FF FF 39 77  ÿÿH;Áw.f.»Víÿÿ9w
  0000000010104530: 11 0F B7 83 56 ED FF FF 48 83 E8 30 48 89 45 E8  ..·.VíÿÿH.è0H.Eè
  0000000010104540: EB 42 66 B8 41 00 0F B7 8B 56 ED FF FF 48 3B C1  ëBf¸A..·.VíÿÿH;Á
  0000000010104550: 77 1B 66 83 BB 56 ED FF FF 46 77 11 0F B7 83 56  w.f.»VíÿÿFw..·.V
  0000000010104560: ED FF FF 48 83 E8 37 48 89 45 E8 EB 17 31 C0 48  íÿÿH.è7H.Eèë.1ÀH
  0000000010104570: 89 45 E8 48 8D 8B B0 FA FF FF BA 13 00 00 00 E8  .EèH..°úÿÿº....è
  0000000010104580: 9C FA FF FF 48 81 7D F8 FF 00 00 00 7D 40 48 8D  .úÿÿH.}øÿ...}@H.
  0000000010104590: 83 68 ED FF FF 48 8B 4D F8 48 81 F9 00 01 00 00  .híÿÿH.MøH.ù....
  00000000101045A0: 73 02 EB 08 B0 01 B9 F5 13 00 00 CC 48 C1 E1 01  s.ë.°.¹?...?HÁá.
  00000000101045B0: 48 03 C1 48 8B 4D F0 48 C1 E1 04 48 8B 55 E8 48  H.ÁH.M?HÁá.H.UèH
  00000000101045C0: 03 CA 0F B7 C9 66 89 08 48 FF 45 F8 EB 11 48 8D  .Ê.·Éf..HÿEøë.H.
  00000000101045D0: 8B E0 FA FF FF BA 10 00 00 00 E8 41 FA FF FF E8  .àúÿÿº....èAúÿÿè
  00000000101045E0: DC FA FF FF E9 7A FE FF FF E8 D2 FA FF FF 48 8B  Üúÿÿéz?ÿÿè?úÿÿH.
  00000000101045F0: 45 F8 48 89 83 F0 EF FF FF C9 C3 90 90 90 90 90  EøH..?ïÿÿÉ?.....
  0000000010104600: 55 48 8B EC 48 83 EC 10 48 89 4D 10 B8 00 00 80  UH.?H.?.H.M.¸...
  0000000010104610: 3F 66 4C 0F 6E F8 F2 44 0F 11 7D F8 B8 00 00 20  ?fL.nø?D..}ø¸.. 
  0000000010104620: 41 66 4C 0F 6E F8 F2 44 0F 11 7D F0 48 83 7D 10  AfL.nø?D..}?H.}.
  0000000010104630: 00 7E 42 48 8B 45 10 83 E0 01 74 16 F2 44 0F 10  .~BH.E..à.t.?D..
  0000000010104640: 7D F0 F2 0F 10 45 F8 F2 44 0F 59 F8 F2 44 0F 11  }??..Eø?D.Yø?D..
  0000000010104650: 7D F8 F2 44 0F 10 7D F0 F2 0F 10 45 F0 F2 44 0F  }ø?D..}??..E??D.
  0000000010104660: 59 F8 F2 44 0F 11 7D F0 48 8B 45 10 48 D1 F8 48  Yø?D..}?H.E.HÑøH
  0000000010104670: 89 45 10 EB B7 F2 44 0F 10 7D F8 F2 49 0F 10 C7  .E.ë·?D..}ø?I..Ç
  0000000010104680: C9 C3 90 90 90 90 90 90 90 90 90 90 90 90 90 90  É?..............
  0000000010104690: 55 48 8B EC 48 81 EC 10 01 00 00 48 89 4D 10 31  UH.?H.?....H.M.1
  00000000101046A0: C0 48 89 83 F8 EF FF FF 31 C0 48 89 45 F8 31 C0  ÀH..øïÿÿ1ÀH.Eø1À
  00000000101046B0: 48 89 45 E0 31 C0 48 89 45 F0 48 83 7D E0 15 7D  H.Eà1ÀH.E?H.}à.}
  00000000101046C0: 36 48 8D 85 20 FF FF FF 48 8B 4D E0 48 83 F9 15  6H.. ÿÿÿH.MàH.ù.
  00000000101046D0: 73 02 EB 08 B0 01 B9 3D 16 00 00 CC 48 C1 E1 03  s.ë.°.¹=...?HÁá.
  00000000101046E0: 48 03 C1 0F B7 8B 56 ED FF FF 48 83 E9 30 48 89  H.Á.·.VíÿÿH.é0H.
  00000000101046F0: 08 48 FF 45 E0 EB 17 48 8D 8B 00 FB FF FF BA 10  .HÿEàë.H...ûÿÿº.
  0000000010104700: 00 00 00 E8 18 F9 FF FF 31 C0 48 89 45 E0 E8 AD  ...è.ùÿÿ1ÀH.Eàè­
  0000000010104710: F9 FF FF 66 83 BB 56 ED FF FF 30 72 22 66 83 BB  ùÿÿf.»Víÿÿ0r"f.»
  0000000010104720: 56 ED FF FF 39 76 0A 66 83 BB 56 ED FF FF 41 72  Víÿÿ9v.f.»VíÿÿAr
  0000000010104730: 0E 66 83 BB 56 ED FF FF 46 0F 86 7B FF FF FF 66  .f.»VíÿÿF..{ÿÿÿf
  0000000010104740: 83 BB 56 ED FF FF 48 74 18 66 83 BB 56 ED FF FF  .»VíÿÿHt.f.»Víÿÿ
  0000000010104750: 52 74 0E 66 83 BB 56 ED FF FF 58 0F 85 2D 01 00  Rt.f.»VíÿÿX..-..
  0000000010104760: 00 48 8D 85 20 FF FF FF 48 8B 4D F8 48 83 F9 15  .H.. ÿÿÿH.MøH.ù.
  0000000010104770: 73 02 EB 08 B0 01 B9 21 17 00 00 CC 48 C1 E1 03  s.ë.°.¹!...?HÁá.
  0000000010104780: 48 03 C1 48 8B 00 48 89 45 D0 48 83 7D D0 0A 7C  H.ÁH..H.E?H.}?.|
  0000000010104790: 0C 48 8B 45 D0 48 83 E8 07 48 89 45 D0 48 8B 45  .H.E?H.è.H.E?H.E
  00000000101047A0: F0 48 C1 E0 04 48 8B 4D D0 48 03 C1 48 89 45 F0  ?HÁà.H.M?H.ÁH.E?
  00000000101047B0: 48 FF 45 F8 48 8B 45 F8 48 8B 4D E0 48 3B C1 75  HÿEøH.EøH.MàH;Áu
  00000000101047C0: A0 66 83 BB 56 ED FF FF 58 75 7A 48 8B 45 10 48  .f.»VíÿÿXuzH.E.H
  00000000101047D0: C7 00 1A 00 00 00 48 81 7D F0 00 00 01 00 7D 0D  Ç.....H.}?....}.
  00000000101047E0: 48 8B 45 F0 48 89 83 F8 EF FF FF EB 1A 48 8D 8B  H.E?H..øïÿÿë.H..
  00000000101047F0: 40 FB FF FF BA 0E 00 00 00 E8 22 F8 FF FF 31 C0  @ûÿÿº....è"øÿÿ1À
  0000000010104800: 48 89 83 F8 EF FF FF 48 83 7D F0 00 75 16 31 C0  H..øïÿÿH.}?.u.1À
  0000000010104810: 66 89 83 68 ED FF FF 48 C7 83 F0 EF FF FF 01 00  f..híÿÿHÇ.?ïÿÿ..
  0000000010104820: 00 00 EB 1F 0F B7 45 F0 66 89 83 68 ED FF FF 31  ..ë..·E?f..híÿÿ1
  0000000010104830: C0 66 89 83 6A ED FF FF 48 C7 83 F0 EF FF FF 02  Àf..jíÿÿHÇ.?ïÿÿ.
  0000000010104840: 00 00 00 EB 3F 66 83 BB 56 ED FF FF 52 75 1F 48  ...ë?f.»VíÿÿRu.H
  0000000010104850: 8B 45 10 48 C7 00 16 00 00 00 48 8B 45 F0 66 4C  .E.HÇ.....H.E?fL
  0000000010104860: 0F 6E F8 F2 44 0F 11 BB E8 EF FF FF EB 16 48 8B  .nø?D..»èïÿÿë.H.
  0000000010104870: 45 10 48 C7 00 15 00 00 00 48 8B 45 F0 48 89 83  E.HÇ.....H.E?H..
  0000000010104880: F8 EF FF FF E8 37 F8 FF FF E9 87 04 00 00 66 83  øïÿÿè7øÿÿé....f.
  0000000010104890: BB 56 ED FF FF 2E 0F 85 6E 03 00 00 E8 1F F8 FF  »Víÿÿ...n...è.øÿ
  00000000101048A0: FF 66 83 BB 56 ED FF FF 2E 0F 85 19 01 00 00 66  ÿf.»Víÿÿ.......f
  00000000101048B0: C7 83 56 ED FF FF 7F 00 48 8D 85 20 FF FF FF 48  Ç.Víÿÿ..H.. ÿÿÿH
  00000000101048C0: 8B 4D F8 48 83 F9 15 73 02 EB 08 B0 01 B9 57 19  .MøH.ù.s.ë.°.¹W.
  00000000101048D0: 00 00 CC 48 C1 E1 03 48 03 C1 48 83 38 0A 0F 8D  ..?HÁá.H.ÁH.8...
  00000000101048E0: A3 00 00 00 48 8B 4D F0 48 B8 FF FF FF FF FF FF  £...H.M?H¸ÿÿÿÿÿÿ
  00000000101048F0: FF 7F 48 8D 95 20 FF FF FF 4C 8B 45 F8 49 83 F8  ÿ.H.. ÿÿÿL.EøI.ø
  0000000010104900: 15 73 02 EB 08 B0 01 B9 7A 19 00 00 CC 49 C1 E0  .s.ë.°.¹z...?IÁà
  0000000010104910: 03 49 03 D0 48 8B 12 48 2B C2 41 B8 0A 00 00 00  .I.?H..H+ÂA¸....
  0000000010104920: 48 99 49 F7 F8 48 85 D2 7C 02 EB 04 48 83 E8 01  H.I÷øH.?|.ë.H.è.
  0000000010104930: 48 3B C8 7F 39 48 8B 45 F0 48 69 C0 0A 00 00 00  H;È.9H.E?HiÀ....
  0000000010104940: 48 8D 8D 20 FF FF FF 48 8B 55 F8 48 83 FA 15 73  H.. ÿÿÿH.UøH.ú.s
  0000000010104950: 02 EB 08 B0 01 B9 9C 19 00 00 CC 48 C1 E2 03 48  .ë.°.¹....?HÁâ.H
  0000000010104960: 03 CA 48 8B 09 48 03 C1 48 89 45 F0 EB 17 48 8D  .ÊH..H.ÁH.E?ë.H.
  0000000010104970: 8B 80 FB FF FF BA 0A 00 00 00 E8 A1 F6 FF FF 31  ..ûÿÿº....è¡öÿÿ1
  0000000010104980: C0 48 89 45 F0 EB 11 48 8D 8B A0 FB FF FF BA 0C  ÀH.E?ë.H...ûÿÿº.
  0000000010104990: 00 00 00 E8 88 F6 FF FF 48 FF 45 F8 48 8B 45 F8  ...è.öÿÿHÿEøH.Eø
  00000000101049A0: 48 8B 4D E0 48 3B C1 0F 85 0B FF FF FF 48 8B 45  H.MàH;Á...ÿÿÿH.E
  00000000101049B0: 10 48 C7 00 15 00 00 00 48 8B 45 F0 48 89 83 F8  .HÇ.....H.E?H..ø
  00000000101049C0: EF FF FF E9 3D 02 00 00 45 0F 57 FF F2 44 0F 11  ïÿÿé=...E.Wÿ?D..
  00000000101049D0: 7D C8 31 C0 48 89 45 E8 F2 44 0F 10 7D C8 B8 00  }È1ÀH.Eè?D..}È¸.
  00000000101049E0: 00 20 41 66 48 0F 6E C0 F2 44 0F 59 F8 48 8D 85  . AfH.nÀ?D.YøH..
  00000000101049F0: 20 FF FF FF 48 8B 4D F8 48 83 F9 15 73 02 EB 08   ÿÿÿH.MøH.ù.s.ë.
  0000000010104A00: B0 01 B9 94 1A 00 00 CC 48 C1 E1 03 48 03 C1 48  °.¹....?HÁá.H.ÁH
  0000000010104A10: 8B 00 F2 48 0F 2A C0 F2 44 0F 58 F8 F2 44 0F 11  ..?H.*À?D.Xø?D..
  0000000010104A20: 7D C8 48 FF 45 F8 48 8B 45 F8 48 8B 4D E0 48 3B  }ÈHÿEøH.EøH.MàH;
  0000000010104A30: C1 75 A5 66 83 BB 56 ED FF FF 30 72 45 66 83 BB  Áu¥f.»Víÿÿ0rEf.»
  0000000010104A40: 56 ED FF FF 39 77 3B F2 44 0F 10 7D C8 B8 00 00  Víÿÿ9w;?D..}È¸..
  0000000010104A50: 20 41 66 48 0F 6E C0 F2 44 0F 59 F8 0F B7 83 56   AfH.nÀ?D.Yø.·.V
  0000000010104A60: ED FF FF 48 83 E8 30 F2 48 0F 2A C0 F2 44 0F 58  íÿÿH.è0?H.*À?D.X
  0000000010104A70: F8 F2 44 0F 11 7D C8 48 FF 4D E8 E8 40 F6 FF FF  ø?D..}ÈHÿMèè@öÿÿ
  0000000010104A80: EB B1 66 83 BB 56 ED FF FF 45 74 0E 66 83 BB 56  ë±f.»VíÿÿEt.f.»V
  0000000010104A90: ED FF FF 44 0F 85 C2 00 00 00 E8 21 F6 FF FF 31  íÿÿD..Â...è!öÿÿ1
  0000000010104AA0: C0 48 89 45 D8 66 83 BB 56 ED FF FF 2D 75 0E C6  ÀH.EØf.»Víÿÿ-u.Æ
  0000000010104AB0: 85 1F FF FF FF 01 E8 05 F6 FF FF EB 17 31 C0 88  ..ÿÿÿ.è.öÿÿë.1À.
  0000000010104AC0: 85 1F FF FF FF 66 83 BB 56 ED FF FF 2B 75 05 E8  ..ÿÿÿf.»Víÿÿ+u.è
  0000000010104AD0: EC F5 FF FF 66 83 BB 56 ED FF FF 30 72 6D 66 83  ??ÿÿf.»Víÿÿ0rmf.
  0000000010104AE0: BB 56 ED FF FF 39 77 63 48 8B 45 D8 48 69 C0 0A  »Víÿÿ9wcH.EØHiÀ.
  0000000010104AF0: 00 00 00 0F B7 8B 56 ED FF FF 48 03 C1 48 83 E8  ....·.VíÿÿH.ÁH.è
  0000000010104B00: 30 48 89 45 D8 E8 B6 F5 FF FF 66 83 BB 56 ED FF  0H.EØè¶?ÿÿf.»Víÿ
  0000000010104B10: FF 30 72 0A 66 83 BB 56 ED FF FF 39 76 CA 0F B6  ÿ0r.f.»Víÿÿ9vÊ.¶
  0000000010104B20: 85 1F FF FF FF 85 C0 74 11 48 8B 45 E8 48 8B 4D  ..ÿÿÿ.Àt.H.EèH.M
  0000000010104B30: D8 48 2B C1 48 89 45 E8 EB 0F 48 8B 45 E8 48 8B  ØH+ÁH.Eèë.H.EèH.
  0000000010104B40: 4D D8 48 03 C1 48 89 45 E8 EB 11 48 8D 8B F0 FB  MØH.ÁH.Eèë.H..?û
  0000000010104B50: FF FF BA 07 00 00 00 E8 C4 F4 FF FF 48 83 7D E8  ÿÿº....èÄôÿÿH.}è
  0000000010104B60: 00 7D 32 48 83 7D E8 DA 7C 1F F2 44 0F 10 7D C8  .}2H.}èÚ|.?D..}È
  0000000010104B70: 48 8B 4D E8 48 F7 D9 E8 84 FA FF FF F2 44 0F 59  H.MèH÷Ùè.úÿÿ?D.Y
  0000000010104B80: F8 F2 44 0F 11 7D C8 EB 0A 45 0F 57 FF F2 44 0F  ø?D..}Èë.E.Wÿ?D.
  0000000010104B90: 11 7D C8 EB 44 48 83 7D E8 00 7E 3D 48 83 7D E8  .}ÈëDH.}è.~=H.}è
  0000000010104BA0: 26 7F 1B 48 8B 4D E8 E8 54 FA FF FF F2 44 0F 10  &..H.MèèTúÿÿ?D..
  0000000010104BB0: 7D C8 F2 41 0F 59 C7 F2 0F 11 45 C8 EB 1B 45 0F  }È?A.YÇ?..EÈë.E.
  0000000010104BC0: 57 FF F2 44 0F 11 7D C8 48 8D 8B 00 FC FF FF BA  Wÿ?D..}ÈH...üÿÿº
  0000000010104BD0: 0A 00 00 00 E8 47 F4 FF FF 48 8B 45 10 48 C7 00  ....èGôÿÿH.E.HÇ.
  0000000010104BE0: 16 00 00 00 F2 44 0F 10 7D C8 F2 44 0F 11 BB E8  ....?D..}È?D..»è
  0000000010104BF0: EF FF FF F2 44 0F 10 7D C8 66 4C 0F 7E F8 48 89  ïÿÿ?D..}ÈfL.~øH.
  0000000010104C00: 83 F8 EF FF FF E9 0B 01 00 00 48 8D 85 20 FF FF  .øïÿÿé....H.. ÿÿ
  0000000010104C10: FF 48 8B 4D F8 48 83 F9 15 73 02 EB 08 B0 01 B9  ÿH.MøH.ù.s.ë.°.¹
  0000000010104C20: EA 1D 00 00 CC 48 C1 E1 03 48 03 C1 48 83 38 0A  ê...?HÁá.H.ÁH.8.
  0000000010104C30: 0F 8D A3 00 00 00 48 8B 4D F0 48 B8 FF FF FF FF  ..£...H.M?H¸ÿÿÿÿ
  0000000010104C40: FF FF FF 7F 48 8D 95 20 FF FF FF 4C 8B 45 F8 49  ÿÿÿ.H.. ÿÿÿL.EøI
  0000000010104C50: 83 F8 15 73 02 EB 08 B0 01 B9 0C 1E 00 00 CC 49  .ø.s.ë.°.¹....?I
  0000000010104C60: C1 E0 03 49 03 D0 48 8B 12 48 2B C2 41 B8 0A 00  Áà.I.?H..H+ÂA¸..
  0000000010104C70: 00 00 48 99 49 F7 F8 48 85 D2 7C 02 EB 04 48 83  ..H.I÷øH.?|.ë.H.
  0000000010104C80: E8 01 48 3B C8 7F 39 48 8B 45 F0 48 69 C0 0A 00  è.H;È.9H.E?HiÀ..
  0000000010104C90: 00 00 48 8D 8D 20 FF FF FF 48 8B 55 F8 48 83 FA  ..H.. ÿÿÿH.UøH.ú
  0000000010104CA0: 15 73 02 EB 08 B0 01 B9 2C 1E 00 00 CC 48 C1 E2  .s.ë.°.¹,...?HÁâ
  0000000010104CB0: 03 48 03 CA 48 8B 09 48 03 C1 48 89 45 F0 EB 17  .H.ÊH..H.ÁH.E?ë.
  0000000010104CC0: 48 8D 8B 20 FC FF FF BA 0A 00 00 00 E8 4F F3 FF  H.. üÿÿº....èOóÿ
  0000000010104CD0: FF 31 C0 48 89 45 F0 EB 11 48 8D 8B 40 FC FF FF  ÿ1ÀH.E?ë.H..@üÿÿ
  0000000010104CE0: BA 0C 00 00 00 E8 36 F3 FF FF 48 FF 45 F8 48 8B  º....è6óÿÿHÿEøH.
  0000000010104CF0: 45 F8 48 8B 4D E0 48 3B C1 0F 85 0B FF FF FF 48  EøH.MàH;Á...ÿÿÿH
  0000000010104D00: 8B 45 10 48 C7 00 15 00 00 00 48 8B 45 F0 48 89  .E.HÇ.....H.E?H.
  0000000010104D10: 83 F8 EF FF FF C9 C3 90 90 90 90 90 90 90 90 90  .øïÿÿÉ?.........
  0000000010104D20: 55 48 8B EC 48 81 EC 30 02 00 00 E8 90 F3 FF FF  UH.?H.?0...è.óÿÿ
  0000000010104D30: 31 C0 48 89 85 F8 FD FF FF 48 81 BD F8 FD FF FF  1ÀH..ø?ÿÿH.½ø?ÿÿ
  0000000010104D40: FF 00 00 00 7D 55 66 83 BB 56 ED FF FF 2A 74 4B  ÿ...}Uf.»Víÿÿ*tK
  0000000010104D50: 0F B6 83 55 ED FF FF 85 C0 75 40 48 8D 85 00 FE  .¶.Uíÿÿ.Àu@H...?
  0000000010104D60: FF FF 48 8B 8D F8 FD FF FF 48 81 F9 00 01 00 00  ÿÿH..ø?ÿÿH.ù....
  0000000010104D70: 73 02 EB 08 B0 01 B9 9D 1F 00 00 CC 48 C1 E1 01  s.ë.°.¹....?HÁá.
  0000000010104D80: 48 03 C1 0F B7 8B 56 ED FF FF 66 89 08 E8 2E F3  H.Á.·.Víÿÿf..è.ó
  0000000010104D90: FF FF 48 FF 85 F8 FD FF FF EB 9E 48 8D 85 00 FE  ÿÿHÿ.ø?ÿÿë.H...?
  0000000010104DA0: FF FF 48 8B 8D F8 FD FF FF 48 81 F9 00 01 00 00  ÿÿH..ø?ÿÿH.ù....
  0000000010104DB0: 73 02 EB 08 B0 01 B9 C6 1F 00 00 CC 48 C1 E1 01  s.ë.°.¹Æ...?HÁá.
  0000000010104DC0: 48 03 C1 31 C9 66 89 08 66 83 BB 56 ED FF FF 2A  H.Á1Éf..f.»Víÿÿ*
  0000000010104DD0: 75 17 48 8B 83 20 DA EF FF 48 8D 8D 00 FE FF FF  u.H.. ÚïÿH...?ÿÿ
  0000000010104DE0: BA 00 01 00 00 FF D0 EB 11 48 8D 8B 70 FC FF FF  º....ÿ?ë.H..püÿÿ
  0000000010104DF0: BA 1D 00 00 00 E8 26 F2 FF FF C9 C3 90 90 90 90  º....è&?ÿÿÉ?....
  0000000010104E00: 55 48 8B EC 48 83 EC 30 48 89 4D 10 66 83 BB 56  UH.?H.?0H.M.f.»V
  0000000010104E10: ED FF FF 24 75 0C 48 83 7D 10 00 75 05 E8 FE FE  íÿÿ$u.H.}..u.è??
  0000000010104E20: FF FF 31 C0 88 45 FF 0F B6 83 55 ED FF FF 85 C0  ÿÿ1À.Eÿ.¶.Uíÿÿ.À
  0000000010104E30: 75 60 0F B6 45 FF 85 C0 75 58 66 83 BB 56 ED FF  u`.¶Eÿ.ÀuXf.»Víÿ
  0000000010104E40: FF 28 75 23 E8 77 F2 FF FF 66 83 BB 56 ED FF FF  ÿ(u#èw?ÿÿf.»Víÿÿ
  0000000010104E50: 2A 75 12 E8 68 F2 FF FF 48 8B 4D 10 48 83 C1 01  *u.èh?ÿÿH.M.H.Á.
  0000000010104E60: E8 9B FF FF FF EB 29 66 83 BB 56 ED FF FF 2A 75  è.ÿÿÿë)f.»Víÿÿ*u
  0000000010104E70: 1A E8 4A F2 FF FF 66 83 BB 56 ED FF FF 29 75 09  .èJ?ÿÿf.»Víÿÿ)u.
  0000000010104E80: E8 3B F2 FF FF C6 45 FF 01 EB 05 E8 30 F2 FF FF  è;?ÿÿÆEÿ.ë.è0?ÿÿ
  0000000010104E90: EB 95 C9 C3 90 90 90 90 90 90 90 90 90 90 90 90  ë.É?............
  0000000010104EA0: 55 48 8B EC 48 83 EC 30 48 89 5D F0 48 8D 1D 4D  UH.?H.?0H.]?H..M
  0000000010104EB0: F1 FF FF 48 89 4D 10 0F B6 83 55 ED FF FF 85 C0  ñÿÿH.M..¶.Uíÿÿ.À
  0000000010104EC0: 75 11 66 83 BB 56 ED FF FF 20 77 07 E8 EF F1 FF  u.f.»Víÿÿ w.èïñÿ
  0000000010104ED0: FF EB E4 48 8B 83 30 DA EF FF 48 83 E8 01 48 89  ÿëäH..0ÚïÿH.è.H.
  0000000010104EE0: 83 38 DA EF FF 66 83 BB 56 ED FF FF 41 0F 83 E8  .8Úïÿf.»VíÿÿA..è
  0000000010104EF0: 02 00 00 66 83 BB 56 ED FF FF 30 0F 83 C9 01 00  ...f.»Víÿÿ0..É..
  0000000010104F00: 00 66 83 BB 56 ED FF FF 22 74 0A 66 83 BB 56 ED  .f.»Víÿÿ"t.f.»Ví
  0000000010104F10: FF FF 27 75 1C 0F B7 8B 56 ED FF FF E8 3F F4 FF  ÿÿ'u..·.Víÿÿè?ôÿ
  0000000010104F20: FF 48 8B 45 10 48 C7 00 1A 00 00 00 E9 94 01 00  ÿH.E.HÇ.....é...
  0000000010104F30: 00 66 83 BB 56 ED FF FF 23 75 15 E8 80 F1 FF FF  .f.»Víÿÿ#u.è.ñÿÿ
  0000000010104F40: 48 8B 45 10 48 C7 00 0A 00 00 00 E9 75 01 00 00  H.E.HÇ.....éu...
  0000000010104F50: 66 83 BB 56 ED FF FF 24 75 15 E8 F1 F4 FF FF 48  f.»Víÿÿ$u.èñôÿÿH
  0000000010104F60: 8B 45 10 48 C7 00 1A 00 00 00 E9 56 01 00 00 66  .E.HÇ.....éV...f
  0000000010104F70: 83 BB 56 ED FF FF 26 75 15 E8 42 F1 FF FF 48 8B  .»Víÿÿ&u.èBñÿÿH.
  0000000010104F80: 45 10 48 C7 00 05 00 00 00 E9 37 01 00 00 66 83  E.HÇ.....é7...f.
  0000000010104F90: BB 56 ED FF FF 28 75 36 E8 23 F1 FF FF 66 83 BB  »Víÿÿ(u6è#ñÿÿf.»
  0000000010104FA0: 56 ED FF FF 2A 75 17 31 C0 48 8B 4D 10 48 89 01  Víÿÿ*u.1ÀH.M.H..
  0000000010104FB0: E8 0B F1 FF FF 31 C9 E8 44 FE FF FF EB 0B 48 8B  è.ñÿÿ1ÉèD?ÿÿë.H.
  0000000010104FC0: 45 10 48 C7 00 1C 00 00 00 E9 F7 00 00 00 66 83  E.HÇ.....é÷...f.
  0000000010104FD0: BB 56 ED FF FF 29 75 15 E8 E3 F0 FF FF 48 8B 45  »Víÿÿ)u.è??ÿÿH.E
  0000000010104FE0: 10 48 C7 00 2C 00 00 00 E9 D8 00 00 00 66 83 BB  .HÇ.,...éØ...f.»
  0000000010104FF0: 56 ED FF FF 2A 75 15 E8 C4 F0 FF FF 48 8B 45 10  Víÿÿ*u.èÄ?ÿÿH.E.
  0000000010105000: 48 C7 00 01 00 00 00 E9 B9 00 00 00 66 83 BB 56  HÇ.....é¹...f.»V
  0000000010105010: ED FF FF 2B 75 15 E8 A5 F0 FF FF 48 8B 45 10 48  íÿÿ+u.è¥?ÿÿH.E.H
  0000000010105020: C7 00 06 00 00 00 E9 9A 00 00 00 66 83 BB 56 ED  Ç.....é....f.»Ví
  0000000010105030: FF FF 2C 75 12 E8 86 F0 FF FF 48 8B 45 10 48 C7  ÿÿ,u.è.?ÿÿH.E.HÇ
  0000000010105040: 00 28 00 00 00 EB 7E 66 83 BB 56 ED FF FF 2D 75  .(...ë~f.»Víÿÿ-u
  0000000010105050: 12 E8 6A F0 FF FF 48 8B 45 10 48 C7 00 07 00 00  .èj?ÿÿH.E.HÇ....
  0000000010105060: 00 EB 62 66 83 BB 56 ED FF FF 2E 75 2E E8 4E F0  .ëbf.»Víÿÿ.u.èN?
  0000000010105070: FF FF 66 83 BB 56 ED FF FF 2E 75 12 E8 3F F0 FF  ÿÿf.»Víÿÿ.u.è??ÿ
  0000000010105080: FF 48 8B 45 10 48 C7 00 2B 00 00 00 EB 0B 48 8B  ÿH.E.HÇ.+...ë.H.
  0000000010105090: 45 10 48 C7 00 12 00 00 00 EB 2A 66 83 BB 56 ED  E.HÇ.....ë*f.»Ví
  00000000101050A0: FF FF 2F 75 12 E8 16 F0 FF FF 48 8B 45 10 48 C7  ÿÿ/u.è.?ÿÿH.E.HÇ
  00000000101050B0: 00 02 00 00 00 EB 0E E8 04 F0 FF FF 31 C0 48 8B  .....ë.è.?ÿÿ1ÀH.
  00000000101050C0: 4D 10 48 89 01 E9 0C 01 00 00 66 83 BB 56 ED FF  M.H..é....f.»Víÿ
  00000000101050D0: FF 3A 73 0E 48 8B 4D 10 E8 B3 F5 FF FF E9 F4 00  ÿ:s.H.M.è³?ÿÿéô.
  00000000101050E0: 00 00 66 83 BB 56 ED FF FF 3A 75 31 E8 CF EF FF  ..f.»Víÿÿ:u1èÏïÿ
  00000000101050F0: FF 66 83 BB 56 ED FF FF 3D 75 12 E8 C0 EF FF FF  ÿf.»Víÿÿ=u.èÀïÿÿ
  0000000010105100: 48 8B 45 10 48 C7 00 2A 00 00 00 EB 0B 48 8B 45  H.E.HÇ.*...ë.H.E
  0000000010105110: 10 48 C7 00 29 00 00 00 E9 B9 00 00 00 66 83 BB  .HÇ.)...é¹...f.»
  0000000010105120: 56 ED FF FF 3B 75 15 E8 94 EF FF FF 48 8B 45 10  Víÿÿ;u.è.ïÿÿH.E.
  0000000010105130: 48 C7 00 34 00 00 00 E9 9A 00 00 00 66 83 BB 56  HÇ.4...é....f.»V
  0000000010105140: ED FF FF 3C 75 2E E8 75 EF FF FF 66 83 BB 56 ED  íÿÿ<u.èuïÿÿf.»Ví
  0000000010105150: FF FF 3D 75 12 E8 66 EF FF FF 48 8B 45 10 48 C7  ÿÿ=u.èfïÿÿH.E.HÇ
  0000000010105160: 00 0C 00 00 00 EB 0B 48 8B 45 10 48 C7 00 0B 00  .....ë.H.E.HÇ...
  0000000010105170: 00 00 EB 62 66 83 BB 56 ED FF FF 3D 75 12 E8 3D  ..ëbf.»Víÿÿ=u.è=
  0000000010105180: EF FF FF 48 8B 45 10 48 C7 00 09 00 00 00 EB 46  ïÿÿH.E.HÇ.....ëF
  0000000010105190: 66 83 BB 56 ED FF FF 3E 75 2E E8 21 EF FF FF 66  f.»Víÿÿ>u.è!ïÿÿf
  00000000101051A0: 83 BB 56 ED FF FF 3D 75 12 E8 12 EF FF FF 48 8B  .»Víÿÿ=u.è.ïÿÿH.
  00000000101051B0: 45 10 48 C7 00 0E 00 00 00 EB 0B 48 8B 45 10 48  E.HÇ.....ë.H.E.H
  00000000101051C0: C7 00 0D 00 00 00 EB 0E E8 F3 EE FF FF 31 C0 48  Ç.....ë.èóîÿÿ1ÀH
  00000000101051D0: 8B 4D 10 48 89 01 E9 28 01 00 00 66 83 BB 56 ED  .M.H..é(...f.»Ví
  00000000101051E0: FF FF 5B 73 0E 48 8B 4D 10 E8 52 EF FF FF E9 10  ÿÿ[s.H.M.èRïÿÿé.
  00000000101051F0: 01 00 00 66 83 BB 56 ED FF FF 61 73 6D 66 83 BB  ...f.»Víÿÿasmf.»
  0000000010105200: 56 ED FF FF 5B 75 0D 48 8B 45 10 48 C7 00 1D 00  Víÿÿ[u.H.E.HÇ...
  0000000010105210: 00 00 EB 4C 66 83 BB 56 ED FF FF 5D 75 0D 48 8B  ..ëLf.»Víÿÿ]u.H.
  0000000010105220: 45 10 48 C7 00 2D 00 00 00 EB 35 66 83 BB 56 ED  E.HÇ.-...ë5f.»Ví
  0000000010105230: FF FF 5E 75 0D 48 8B 45 10 48 C7 00 11 00 00 00  ÿÿ^u.H.E.HÇ.....
  0000000010105240: EB 1E 66 83 BB 56 ED FF FF 5F 75 0B 48 8B 4D 10  ë.f.»Víÿÿ_u.H.M.
  0000000010105250: E8 EB EE FF FF EB 09 31 C0 48 8B 4D 10 48 89 01  èëîÿÿë.1ÀH.M.H..
  0000000010105260: E8 5B EE FF FF E9 99 00 00 00 66 83 BB 56 ED FF  è[îÿÿé....f.»Víÿ
  0000000010105270: FF 7B 73 0E 48 8B 4D 10 E8 C3 EE FF FF E9 81 00  ÿ{s.H.M.è?îÿÿé..
  0000000010105280: 00 00 66 83 BB 56 ED FF FF 7B 75 0D 48 8B 45 10  ..f.»Víÿÿ{u.H.E.
  0000000010105290: 48 C7 00 1E 00 00 00 EB 65 66 83 BB 56 ED FF FF  HÇ.....ëef.»Víÿÿ
  00000000101052A0: 7D 75 0D 48 8B 45 10 48 C7 00 2E 00 00 00 EB 4E  }u.H.E.HÇ.....ëN
  00000000101052B0: 66 83 BB 56 ED FF FF 7C 75 0D 48 8B 45 10 48 C7  f.»Víÿÿ|u.H.E.HÇ
  00000000101052C0: 00 36 00 00 00 EB 37 66 83 BB 56 ED FF FF 7E 75  .6...ë7f.»Víÿÿ~u
  00000000101052D0: 0D 48 8B 45 10 48 C7 00 1B 00 00 00 EB 20 66 83  .H.E.HÇ.....ë f.
  00000000101052E0: BB 56 ED FF FF 7F 75 0D 48 8B 45 10 48 C7 00 2B  »Víÿÿ.u.H.E.HÇ.+
  00000000101052F0: 00 00 00 EB 09 31 C0 48 8B 4D 10 48 89 01 E8 BD  ...ë.1ÀH.M.H..è½
  0000000010105300: ED FF FF 48 8B 45 10 48 83 38 00 75 0F 0F B6 83  íÿÿH.E.H.8.u..¶.
  0000000010105310: 55 ED FF FF 85 C0 0F 84 9B FB FF FF 48 8B 5D F0  Uíÿÿ.À...ûÿÿH.]?
  0000000010105320: C9 C3 90 90 90 90 90 90 90 90 90 90 90 90 90 90  É?..............
  0000000010105330: 55 48 8B EC 48 83 EC 50 48 89 5D E0 48 89 75 E8  UH.?H.?PH.]àH.uè
  0000000010105340: 48 89 7D F0 48 8D 1D B5 EC FF FF 48 89 4D 10 48  H.}?H..µ?ÿÿH.M.H
  0000000010105350: 89 55 18 4C 89 45 20 48 8B 45 20 48 89 83 48 ED  .U.L.E H.E H..Hí
  0000000010105360: FF FF 31 C0 48 89 83 58 ED FF FF 48 8D BB 40 ED  ÿÿ1ÀH..XíÿÿH.»@í
  0000000010105370: FF FF 48 8B 75 10 B9 01 00 00 00 F3 48 A5 48 8B  ÿÿH.u.¹....óH¥H.
  0000000010105380: 4D 10 4C 8B 45 20 48 8B 55 18 FF 93 38 FF FF FF  M.L.E H.U.ÿ.8ÿÿÿ
  0000000010105390: 48 8B 45 20 48 89 83 30 DA EF FF 31 C0 48 89 83  H.E H..0Úïÿ1ÀH..
  00000000101053A0: 40 DA EF FF 48 8B 4D 10 4C 8D 83 48 DA EF FF 48  @ÚïÿH.M.L..HÚïÿH
  00000000101053B0: 8D 83 28 DA EF FF 48 89 44 24 20 41 B9 00 00 10  ..(ÚïÿH.D$ A¹...
  00000000101053C0: 00 48 8B 55 18 FF 93 30 FF FF FF E8 F0 EC FF FF  .H.U.ÿ.0ÿÿÿè??ÿÿ
  00000000101053D0: 48 8B 5D E0 48 8B 75 E8 48 8B 7D F0 C9 C3 90 90  H.]àH.uèH.}?É?..
  00000000101053E0: 55 48 8B EC 48 83 EC 10 48 89 5D F0 48 8D 1D 0D  UH.?H.?.H.]?H...
  00000000101053F0: EC FF FF 48 89 4D 10 48 8B 45 10 48 89 83 20 DA  ?ÿÿH.M.H.E.H.. Ú
  0000000010105400: EF FF 48 8B 5D F0 C9 C3 90 90 90 90 90 90 90 90  ïÿH.]?É?........
  0000000010105410: 55 48 8B EC 48 83 EC 10 48 89 75 F0 48 89 7D F8  UH.?H.?.H.u?H.}ø
  0000000010105420: 48 89 4D 10 48 89 55 18 48 8D BB 48 DA FF FF 48  H.M.H.U.H.»HÚÿÿH
  0000000010105430: 8B 83 38 ED FF FF 48 83 F8 23 73 02 EB 08 B0 01  ..8íÿÿH.ø#s.ë.°.
  0000000010105440: B9 80 2A 00 00 CC 48 69 C0 88 00 00 00 48 03 F8  ¹.*..?HiÀ....H.ø
  0000000010105450: 48 8D 7F 08 48 8B 75 18 31 C9 31 C0 48 83 C1 01  H...H.u.1É1ÀH.Á.
  0000000010105460: BA 40 00 00 00 48 3B CA 77 02 EB 08 B0 07 B9 80  º@...H;Êw.ë.°.¹.
  0000000010105470: 2A 00 00 CC BA 40 00 00 00 48 3B CA 77 02 EB 08  *..?º@...H;Êw.ë.
  0000000010105480: B0 07 B9 80 2A 00 00 CC 66 AD 66 AB 85 C0 75 CC  °.¹.*..?f­f«.Àu?
  0000000010105490: 48 8D 83 48 DA FF FF 48 8B 8B 38 ED FF FF 48 83  H..HÚÿÿH..8íÿÿH.
  00000000101054A0: F9 23 73 02 EB 08 B0 01 B9 96 2A 00 00 CC 48 69  ù#s.ë.°.¹.*..?Hi
  00000000101054B0: C9 88 00 00 00 48 03 C1 48 8B 4D 10 48 89 08 48  É....H.ÁH.M.H..H
  00000000101054C0: FF 83 38 ED FF FF 48 8B 75 F0 48 8B 7D F8 C9 C3  ÿ.8íÿÿH.u?H.}øÉ?
  00000000101054D0: 55 48 8B EC 48 83 EC 20 31 C0 48 89 83 38 ED FF  UH.?H.? 1ÀH..8íÿ
  00000000101054E0: FF 31 C0 48 89 83 E0 EC FF FF 31 C0 48 89 83 E8  ÿ1ÀH..à?ÿÿ1ÀH..è
  00000000101054F0: EC FF FF B9 20 00 00 00 48 8D 93 60 FD FF FF E8  ?ÿÿ¹ ...H..`?ÿÿè
  0000000010105500: 0C FF FF FF B9 31 00 00 00 48 8D 93 68 FD FF FF  .ÿÿÿ¹1...H..h?ÿÿ
  0000000010105510: E8 FB FE FF FF B9 30 00 00 00 48 8D 93 70 FD FF  èû?ÿÿ¹0...H..p?ÿ
  0000000010105520: FF E8 EA FE FF FF B9 08 00 00 00 48 8D 93 78 FD  ÿèê?ÿÿ¹....H..x?
  0000000010105530: FF FF E8 D9 FE FF FF B9 32 00 00 00 48 8D 93 80  ÿÿèÙ?ÿÿ¹2...H...
  0000000010105540: FD FF FF E8 C8 FE FF FF B9 0F 00 00 00 48 8D 93  ?ÿÿèÈ?ÿÿ¹....H..
  0000000010105550: 88 FD FF FF E8 B7 FE FF FF B9 10 00 00 00 48 8D  .?ÿÿè·?ÿÿ¹....H.
  0000000010105560: 93 90 FD FF FF E8 A6 FE FF FF B9 33 00 00 00 48  ..?ÿÿè¦?ÿÿ¹3...H
  0000000010105570: 8D 93 98 FD FF FF E8 95 FE FF FF 48 8B 83 38 ED  ...?ÿÿè.?ÿÿH..8í
  0000000010105580: FF FF 48 89 83 F0 EC FF FF B9 35 00 00 00 48 8D  ÿÿH..??ÿÿ¹5...H.
  0000000010105590: 93 A0 FD FF FF E8 76 FE FF FF B9 19 00 00 00 48  ..?ÿÿèv?ÿÿ¹....H
  00000000101055A0: 8D 93 A8 FD FF FF E8 65 FE FF FF B9 48 00 00 00  ..¨?ÿÿèe?ÿÿ¹H...
  00000000101055B0: 48 8D 93 B0 FD FF FF E8 54 FE FF FF B9 03 00 00  H..°?ÿÿèT?ÿÿ¹...
  00000000101055C0: 00 48 8D 93 B8 FD FF FF E8 43 FE FF FF B9 04 00  .H..¸?ÿÿèC?ÿÿ¹..
  00000000101055D0: 00 00 48 8D 93 C0 FD FF FF E8 32 FE FF FF B9 25  ..H..À?ÿÿè2?ÿÿ¹%
  00000000101055E0: 00 00 00 48 8D 93 C8 FD FF FF E8 21 FE FF FF 48  ...H..È?ÿÿè!?ÿÿH
  00000000101055F0: 8B 83 38 ED FF FF 48 89 83 F8 EC FF FF B9 37 00  ..8íÿÿH..ø?ÿÿ¹7.
  0000000010105600: 00 00 48 8D 93 D0 FD FF FF E8 02 FE FF FF B9 2F  ..H..??ÿÿè.?ÿÿ¹/
  0000000010105610: 00 00 00 48 8D 93 E0 FD FF FF E8 F1 FD FF FF B9  ...H..à?ÿÿèñ?ÿÿ¹
  0000000010105620: 18 00 00 00 48 8D 93 F0 FD FF FF E8 E0 FD FF FF  ....H..??ÿÿèà?ÿÿ
  0000000010105630: B9 47 00 00 00 48 8D 93 00 FE FF FF E8 CF FD FF  ¹G...H...?ÿÿèÏ?ÿ
  0000000010105640: FF B9 24 00 00 00 48 8D 93 10 FE FF FF E8 BE FD  ÿ¹$...H...?ÿÿè¾?
  0000000010105650: FF FF 48 8B 83 38 ED FF FF 48 89 83 00 ED FF FF  ÿÿH..8íÿÿH...íÿÿ
  0000000010105660: B9 38 00 00 00 48 8D 93 20 FE FF FF E8 9F FD FF  ¹8...H.. ?ÿÿè.?ÿ
  0000000010105670: FF B9 17 00 00 00 48 8D 93 30 FE FF FF E8 8E FD  ÿ¹....H..0?ÿÿè.?
  0000000010105680: FF FF B9 3C 00 00 00 48 8D 93 40 FE FF FF E8 7D  ÿÿ¹<...H..@?ÿÿè}
  0000000010105690: FD FF FF B9 4A 00 00 00 48 8D 93 50 FE FF FF E8  ?ÿÿ¹J...H..P?ÿÿè
  00000000101056A0: 6C FD FF FF B9 46 00 00 00 48 8D 93 60 FE FF FF  l?ÿÿ¹F...H..`?ÿÿ
  00000000101056B0: E8 5B FD FF FF B9 39 00 00 00 48 8D 93 70 FE FF  è[?ÿÿ¹9...H..p?ÿ
  00000000101056C0: FF E8 4A FD FF FF B9 22 00 00 00 48 8D 93 80 FE  ÿèJ?ÿÿ¹"...H...?
  00000000101056D0: FF FF E8 39 FD FF FF 48 8B 83 38 ED FF FF 48 89  ÿÿè9?ÿÿH..8íÿÿH.
  00000000101056E0: 83 08 ED FF FF B9 3D 00 00 00 48 8D 93 90 FE FF  ..íÿÿ¹=...H...?ÿ
  00000000101056F0: FF E8 1A FD FF FF B9 23 00 00 00 48 8D 93 A0 FE  ÿè.?ÿÿ¹#...H...?
  0000000010105700: FF FF E8 09 FD FF FF B9 3A 00 00 00 48 8D 93 B0  ÿÿè.?ÿÿ¹:...H..°
  0000000010105710: FE FF FF E8 F8 FC FF FF B9 4C 00 00 00 48 8D 93  ?ÿÿèøüÿÿ¹L...H..
  0000000010105720: C0 FE FF FF E8 E7 FC FF FF B9 4D 00 00 00 48 8D  À?ÿÿèçüÿÿ¹M...H.
  0000000010105730: 93 D0 FE FF FF E8 D6 FC FF FF 48 8B 83 38 ED FF  .??ÿÿèÖüÿÿH..8íÿ
  0000000010105740: FF 48 89 83 10 ED FF FF B9 3E 00 00 00 48 8D 93  ÿH...íÿÿ¹>...H..
  0000000010105750: E0 FE FF FF E8 B7 FC FF FF 48 8B 83 38 ED FF FF  à?ÿÿè·üÿÿH..8íÿÿ
  0000000010105760: 48 89 83 18 ED FF FF 48 8B 83 38 ED FF FF 48 89  H...íÿÿH..8íÿÿH.
  0000000010105770: 83 20 ED FF FF B9 49 00 00 00 48 8D 93 F0 FE FF  . íÿÿ¹I...H..??ÿ
  0000000010105780: FF E8 8A FC FF FF 48 8B 83 38 ED FF FF 48 89 83  ÿè.üÿÿH..8íÿÿH..
  0000000010105790: 28 ED FF FF 31 C9 48 8D 93 10 FF FF FF E8 6E FC  (íÿÿ1ÉH...ÿÿÿènü
  00000000101057A0: FF FF 48 8B 83 38 ED FF FF 48 89 83 30 ED FF FF  ÿÿH..8íÿÿH..0íÿÿ
  00000000101057B0: C9 C3 90 90 90 90 90 90 90 90 90 90 90 90 90 90  É?..............
  00000000101057C0: 83 FA 01 74 01 C3 56 57 53 48 83 EC 20 48 8D 1D  .ú.t.?VWSH.? H..
  00000000101057D0: 2C E8 FF FF FF 53 E0 48 89 43 C0 48 8D 8B 60 FF  ,èÿÿÿSàH.CÀH..`ÿ
  00000000101057E0: FF FF FF 53 D0 48 85 C0 74 02 EB 08 B0 05 B9 C4  ÿÿÿS?H.Àt.ë.°.¹Ä
  00000000101057F0: 2E 00 00 CC 48 8B F0 48 B8 6B 60 F2 02 EF D4 F9  ...?H.?H¸k`?.ïÔù
  0000000010105800: B4 48 3B 86 F0 03 00 00 75 02 EB 08 B0 05 B9 C4  ´H;.?...u.ë.°.¹Ä
  0000000010105810: 2E 00 00 CC 48 B8 86 5E A9 E6 9C 88 BD 95 48 3B  ...?H¸.^©æ..½.H;
  0000000010105820: 86 F8 03 00 00 75 02 EB 08 B0 05 B9 C4 2E 00 00  .ø...u.ë.°.¹Ä...
  0000000010105830: CC 48 8B CE BA 0F 00 00 00 FF 53 D8 48 89 83 30  ?H.Îº....ÿSØH..0
  0000000010105840: FF FF FF 48 8B CE BA 19 00 00 00 FF 53 D8 48 89  ÿÿÿH.Îº....ÿSØH.
  0000000010105850: 83 38 FF FF FF 48 8B CE BA 1D 00 00 00 FF 53 D8  .8ÿÿÿH.Îº....ÿSØ
  0000000010105860: 48 89 83 40 FF FF FF 48 8B CE BA 1E 00 00 00 FF  H..@ÿÿÿH.Îº....ÿ
  0000000010105870: 53 D8 48 89 83 48 FF FF FF 48 8B CE BA 1C 00 00  SØH..HÿÿÿH.Îº...
  0000000010105880: 00 FF 53 D8 48 89 83 50 FF FF FF 48 8B CE BA 01  .ÿSØH..PÿÿÿH.Îº.
  0000000010105890: 00 00 00 FF 53 D8 48 89 83 58 FF FF FF 48 C7 83  ...ÿSØH..XÿÿÿHÇ.
  00000000101058A0: 80 F9 FF FF 88 00 00 00 E8 23 FC FF FF B8 01 00  .ùÿÿ....è#üÿÿ¸..
  00000000101058B0: 00 00 48 83 C4 20 5B 5F 5E C3                    ..H.Ä [_^?

SECTION HEADER #4
  .idata name
     130 virtual size
  106000 virtual address (0000000010106000 to 000000001010612F)
     200 size of raw data
    1E00 file pointer to raw data (00001E00 to 00001FFF)
       0 file pointer to relocation table
       0 file pointer to line numbers
       0 number of relocations
       0 number of line numbers
C0000040 flags
         Initialized Data
         Read Write

RAW DATA #4
  0000000010106000: 28 60 10 00 00 00 00 00 00 00 00 00 60 60 10 00  (`..........``..
  0000000010106010: C8 3F 10 00 00 00 00 00 00 00 00 00 00 00 00 00  È?..............
  0000000010106020: 00 00 00 00 00 00 00 00 70 60 10 00 00 00 00 00  ........p`......
  0000000010106030: 90 60 10 00 00 00 00 00 B0 60 10 00 00 00 00 00  .`......°`......
  0000000010106040: D0 60 10 00 00 00 00 00 F0 60 10 00 00 00 00 00  ?`......?`......
  0000000010106050: 10 61 10 00 00 00 00 00 00 00 00 00 00 00 00 00  .a..............
  0000000010106060: 4B 45 52 4E 45 4C 33 32 2E 44 4C 4C 00 00 00 00  KERNEL32.DLL....
  0000000010106070: 00 00 45 78 69 74 50 72 6F 63 65 73 73 00 00 00  ..ExitProcess...
  0000000010106080: 00 00 00 00 00 00 00 00 00 00 00 00 00 00 00 00  ................
  0000000010106090: 00 00 4C 6F 61 64 4C 69 62 72 61 72 79 57 00 00  ..LoadLibraryW..
  00000000101060A0: 00 00 00 00 00 00 00 00 00 00 00 00 00 00 00 00  ................
  00000000101060B0: 00 00 47 65 74 50 72 6F 63 41 64 64 72 65 73 73  ..GetProcAddress
  00000000101060C0: 00 00 00 00 00 00 00 00 00 00 00 00 00 00 00 00  ................
  00000000101060D0: 00 00 47 65 74 50 72 6F 63 65 73 73 48 65 61 70  ..GetProcessHeap
  00000000101060E0: 00 00 00 00 00 00 00 00 00 00 00 00 00 00 00 00  ................
  00000000101060F0: 00 00 48 65 61 70 41 6C 6C 6F 63 00 00 00 00 00  ..HeapAlloc.....
  0000000010106100: 00 00 00 00 00 00 00 00 00 00 00 00 00 00 00 00  ................
  0000000010106110: 00 00 48 65 61 70 46 72 65 65 00 00 00 00 00 00  ..HeapFree......
  0000000010106120: 00 00 00 00 00 00 00 00 00 00 00 00 00 00 00 00  ................

  Section contains the following imports:

    KERNEL32.DLL
              10103FC8 Import Address Table
              10106028 Import Name Table
                     0 time date stamp
                     0 Index of first forwarder reference

                           0 ExitProcess
                           0 LoadLibraryW
                           0 GetProcAddress
                           0 GetProcessHeap
                           0 HeapAlloc
                           0 HeapFree

SECTION HEADER #5
  .reloc name
       C virtual size
  107000 virtual address (0000000010107000 to 000000001010700B)
     200 size of raw data
    3000 file pointer to raw data (00003000 to 000031FF)
       0 file pointer to relocation table
       0 file pointer to line numbers
       0 number of relocations
       0 number of line numbers
42000040 flags
         Initialized Data
         Discardable
         Read Only

RAW DATA #5
  0000000010107000: 04 00 00 00 0C 00 00 00 00 00 00 00              ............

BASE RELOCATIONS #5
       4 RVA,        C SizeOfBlock
       0  ABS                        
       0  ABS                        

SECTION HEADER #6
  .edata name
      65 virtual size
  108000 virtual address (0000000010108000 to 0000000010108064)
     200 size of raw data
    3200 file pointer to raw data (00003200 to 000033FF)
       0 file pointer to relocation table
       0 file pointer to line numbers
       0 number of relocations
       0 number of line numbers
40000040 flags
         Initialized Data
         Read Only

RAW DATA #6
  0000000010108000: 00 00 00 00 00 00 00 00 00 00 00 00 58 80 10 00  ............X...
  0000000010108010: 01 00 00 00 0C 00 00 00 00 00 00 00 28 80 10 00  ............(...
  0000000010108020: 00 00 00 00 00 00 00 00 F8 2F 10 00 F0 2F 10 00  ........ø/..?/..
  0000000010108030: E8 2F 10 00 68 2F 10 00 68 2D 10 00 67 2D 10 00  è/..h/..h-..g-..
  0000000010108040: 58 2D 10 00 00 40 10 00 20 40 10 00 A0 4E 10 00  X-...@.. @...N..
  0000000010108050: 30 53 10 00 E0 53 10 00 53 63 61 6E 6E 65 72 31  0S..àS..Scanner1
  0000000010108060: 2E 64 6C 6C 00                                   .dll.

  Section contains the following exports for Scanner1.dll

    00000000 characteristics
           0 time date stamp
        0.00 version
           1 ordinal base
          12 number of functions
           0 number of names

    ordinal hint RVA      name

          1      00102FF8 [NONAME]
          2      00102FF0 [NONAME]
          3      00102FE8 [NONAME]
          4      00102F68 [NONAME]
          5      00102D68 [NONAME]
          6      00102D67 [NONAME]
          7      00102D58 [NONAME]
          8      00104000 [NONAME]
          9      00104020 [NONAME]
         10      00104EA0 [NONAME]
         11      00105330 [NONAME]
         12      001053E0 [NONAME]

  Summary

      102000 .bss
        1000 .data
        1000 .edata
        1000 .idata
        1000 .reloc
        2000 .text
