Microsoft (R) COFF/PE Dumper Version 14.00.24215.1
Copyright (C) Microsoft Corporation.  All rights reserved.


Dump of file Base1.dll

PE signature found

File Type: DLL

FILE HEADER VALUES
            8664 machine (x64)
               5 number of sections
               0 time date stamp
               0 file pointer to symbol table
               0 number of symbols
              F0 size of optional header
            2022 characteristics
                   Executable
                   Application can handle large (>2GB) addresses
                   DLL

OPTIONAL HEADER VALUES
             20B magic # (PE32+)
            0.00 linker version
            6000 size of code
            1C00 size of initialized data
               0 size of uninitialized data
          20AA44 entry point (000000001020AA44)
          205000 base of code
        10000000 image base (0000000010000000 to 000000001020DFFF)
            1000 section alignment
             200 file alignment
            5.00 operating system version
            0.00 image version
            5.00 subsystem version
               0 Win32 version
          20E000 size of image
             400 size of headers
               0 checksum
               2 subsystem (Windows GUI)
             140 DLL characteristics
                   Dynamic base
                   NX compatible
            1000 size of stack reserve
            1000 size of stack commit
           10000 size of heap reserve
               0 size of heap commit
               0 loader flags
              10 number of directories
          20D000 [     14E] RVA [size] of Export Directory
          20B000 [     130] RVA [size] of Import Directory
               0 [       0] RVA [size] of Resource Directory
               0 [       0] RVA [size] of Exception Directory
               0 [       0] RVA [size] of Certificates Directory
          20C000 [       C] RVA [size] of Base Relocation Directory
               0 [       0] RVA [size] of Debug Directory
               0 [       0] RVA [size] of Architecture Directory
               0 [       0] RVA [size] of Global Pointer Directory
               0 [       0] RVA [size] of Thread Storage Directory
               0 [       0] RVA [size] of Load Configuration Directory
               0 [       0] RVA [size] of Bound Import Directory
               0 [       0] RVA [size] of Import Address Table Directory
               0 [       0] RVA [size] of Delay Import Directory
               0 [       0] RVA [size] of COM Descriptor Directory
               0 [       0] RVA [size] of Reserved Directory


SECTION HEADER #1
   .data name
  204000 virtual size
    1000 virtual address (0000000010001000 to 0000000010204FFF)
    1600 size of raw data
    6600 file pointer to raw data (00006600 to 00007BFF)
       0 file pointer to relocation table
       0 file pointer to line numbers
       0 number of relocations
       0 number of line numbers
C0000040 flags
         Initialized Data
         Read Write

RAW DATA #1
  0000000010001000: 00 00 00 00 00 00 00 00 00 00 00 00 00 00 00 00  ................
  0000000010001010: 00 00 00 00 00 00 00 00 00 00 00 00 00 00 00 00  ................
  0000000010001020: 00 00 00 00 00 00 00 00 00 00 00 00 00 00 00 00  ................
  0000000010001030: 00 00 00 00 00 00 00 00 00 00 00 00 00 00 00 00  ................
  0000000010001040: 00 00 00 00 00 00 00 00 00 00 00 00 00 00 00 00  ................
  0000000010001050: 00 00 00 00 00 00 00 00 00 00 00 00 00 00 00 00  ................
  0000000010001060: 00 00 00 00 00 00 00 00 00 00 00 00 00 00 00 00  ................
  0000000010001070: 00 00 00 00 00 00 00 00 00 00 00 00 00 00 00 00  ................
  0000000010001080: 00 00 00 00 00 00 00 00 00 00 00 00 00 00 00 00  ................
  0000000010001090: 00 00 00 00 00 00 00 00 00 00 00 00 00 00 00 00  ................
  00000000100010A0: 00 00 00 00 00 00 00 00 00 00 00 00 00 00 00 00  ................
  00000000100010B0: 00 00 00 00 00 00 00 00 00 00 00 00 00 00 00 00  ................
  00000000100010C0: 00 00 00 00 00 00 00 00 00 00 00 00 00 00 00 00  ................
  00000000100010D0: 00 00 00 00 00 00 00 00 00 00 00 00 00 00 00 00  ................
  00000000100010E0: 00 00 00 00 00 00 00 00 00 00 00 00 00 00 00 00  ................
  00000000100010F0: 00 00 00 00 00 00 00 00 00 00 00 00 00 00 00 00  ................
  0000000010001100: 00 00 00 00 00 00 00 00 00 00 00 00 00 00 00 00  ................
  0000000010001110: 00 00 00 00 00 00 00 00 00 00 00 00 00 00 00 00  ................
  0000000010001120: 00 00 00 00 00 00 00 00 00 00 00 00 00 00 00 00  ................
  0000000010001130: 00 00 00 00 00 00 00 00 00 00 00 00 00 00 00 00  ................
  0000000010001140: 00 00 00 00 00 00 00 00 00 00 00 00 00 00 00 00  ................
  0000000010001150: 00 00 00 00 00 00 00 00 00 00 00 00 00 00 00 00  ................
  0000000010001160: 00 00 00 00 00 00 00 00 00 00 00 00 00 00 00 00  ................
  0000000010001170: 00 00 00 00 00 00 00 00 00 00 00 00 00 00 00 00  ................
  0000000010001180: 00 00 00 00 00 00 00 00 00 00 00 00 00 00 00 00  ................
  0000000010001190: 00 00 00 00 00 00 00 00 00 00 00 00 00 00 00 00  ................
  00000000100011A0: 00 00 00 00 00 00 00 00 00 00 00 00 00 00 00 00  ................
  00000000100011B0: 00 00 00 00 00 00 00 00 00 00 00 00 00 00 00 00  ................
  00000000100011C0: 00 00 00 00 00 00 00 00 00 00 00 00 00 00 00 00  ................
  00000000100011D0: 00 00 00 00 00 00 00 00 00 00 00 00 00 00 00 00  ................
  00000000100011E0: 00 00 00 00 00 00 00 00 00 00 00 00 00 00 00 00  ................
  00000000100011F0: 00 00 00 00 00 00 00 00 00 00 00 00 00 00 00 00  ................
  0000000010001200: 00 00 00 00 00 00 00 00 00 00 00 00 00 00 00 00  ................
  0000000010001210: 00 00 00 00 00 00 00 00 00 00 00 00 00 00 00 00  ................
  0000000010001220: 00 00 00 00 00 00 00 00 00 00 00 00 00 00 00 00  ................
  0000000010001230: 00 00 00 00 00 00 00 00 00 00 00 00 00 00 00 00  ................
  0000000010001240: 00 00 00 00 00 00 00 00 00 00 00 00 00 00 00 00  ................
  0000000010001250: 00 00 00 00 00 00 00 00 00 00 00 00 00 00 00 00  ................
  0000000010001260: 00 00 00 00 00 00 00 00 00 00 00 00 00 00 00 00  ................
  0000000010001270: 00 00 00 00 00 00 00 00 00 00 00 00 00 00 00 00  ................
  0000000010001280: 00 00 00 00 00 00 00 00 00 00 00 00 00 00 00 00  ................
  0000000010001290: 00 00 00 00 00 00 00 00 00 00 00 00 00 00 00 00  ................
  00000000100012A0: 00 00 00 00 00 00 00 00 00 00 00 00 00 00 00 00  ................
  00000000100012B0: 00 00 00 00 00 00 00 00 00 00 00 00 00 00 00 00  ................
  00000000100012C0: 00 00 00 00 00 00 00 00 00 00 00 00 00 00 00 00  ................
  00000000100012D0: 00 00 00 00 00 00 00 00 00 00 00 00 00 00 00 00  ................
  00000000100012E0: 00 00 00 00 00 00 00 00 00 00 00 00 00 00 00 00  ................
  00000000100012F0: 00 00 00 00 00 00 00 00 00 00 00 00 00 00 00 00  ................
  0000000010001300: 00 00 00 00 00 00 00 00 00 00 00 00 00 00 00 00  ................
  0000000010001310: 00 00 00 00 00 00 00 00 00 00 00 00 00 00 00 00  ................
  0000000010001320: 00 00 00 00 00 00 00 00 00 00 00 00 00 00 00 00  ................
  0000000010001330: 00 00 00 00 00 00 00 00 00 00 00 00 00 00 00 00  ................
  0000000010001340: 00 00 00 00 00 00 00 00 00 00 00 00 00 00 00 00  ................
  0000000010001350: 00 00 00 00 00 00 00 00 00 00 00 00 00 00 00 00  ................
  0000000010001360: 00 00 00 00 00 00 00 00 00 00 00 00 00 00 00 00  ................
  0000000010001370: 00 00 00 00 00 00 00 00 00 00 00 00 00 00 00 00  ................
  0000000010001380: 00 00 00 00 00 00 00 00 00 00 00 00 00 00 00 00  ................
  0000000010001390: 00 00 00 00 00 00 00 00 00 00 00 00 00 00 00 00  ................
  00000000100013A0: 00 00 00 00 00 00 00 00 00 00 00 00 00 00 00 00  ................
  00000000100013B0: 00 00 00 00 00 00 00 00 00 00 00 00 00 00 00 00  ................
  00000000100013C0: 00 00 00 00 00 00 00 00 00 00 00 00 00 00 00 00  ................
  00000000100013D0: 00 00 00 00 00 00 00 00 00 00 00 00 00 00 00 00  ................
  00000000100013E0: 00 00 00 00 00 00 00 00 00 00 00 00 00 00 00 00  ................
  00000000100013F0: 00 00 00 00 00 00 00 00 00 00 00 00 00 00 00 00  ................
  0000000010001400: 00 00 00 00 00 00 00 00 00 00 00 00 00 00 00 00  ................
  0000000010001410: 00 00 00 00 00 00 00 00 00 00 00 00 00 00 00 00  ................
  0000000010001420: 00 00 00 00 00 00 00 00 00 00 00 00 00 00 00 00  ................
  0000000010001430: 00 00 00 00 00 00 00 00 00 00 00 00 00 00 00 00  ................
  0000000010001440: 00 00 00 00 00 00 00 00 00 00 00 00 00 00 00 00  ................
  0000000010001450: 00 00 00 00 00 00 00 00 00 00 00 00 00 00 00 00  ................
  0000000010001460: 00 00 00 00 00 00 00 00 00 00 00 00 00 00 00 00  ................
  0000000010001470: 00 00 00 00 00 00 00 00 00 00 00 00 00 00 00 00  ................
  0000000010001480: 00 00 00 00 00 00 00 00 00 00 00 00 00 00 00 00  ................
  0000000010001490: 00 00 00 00 00 00 00 00 00 00 00 00 00 00 00 00  ................
  00000000100014A0: 00 00 00 00 00 00 00 00 00 00 00 00 00 00 00 00  ................
  00000000100014B0: 00 00 00 00 00 00 00 00 00 00 00 00 00 00 00 00  ................
  00000000100014C0: 00 00 00 00 00 00 00 00 00 00 00 00 00 00 00 00  ................
  00000000100014D0: 00 00 00 00 00 00 00 00 00 00 00 00 00 00 00 00  ................
  00000000100014E0: 00 00 00 00 00 00 00 00 00 00 00 00 00 00 00 00  ................
  00000000100014F0: 00 00 00 00 00 00 00 00 00 00 00 00 00 00 00 00  ................
  0000000010001500: 00 00 00 00 00 00 00 00 00 00 00 00 00 00 00 00  ................
  0000000010001510: 00 00 00 00 00 00 00 00 00 00 00 00 00 00 00 00  ................
  0000000010001520: 00 00 00 00 00 00 00 00 00 00 00 00 00 00 00 00  ................
  0000000010001530: 00 00 00 00 00 00 00 00 00 00 00 00 00 00 00 00  ................
  0000000010001540: 00 00 00 00 00 00 00 00 00 00 00 00 00 00 00 00  ................
  0000000010001550: 00 00 00 00 00 00 00 00 00 00 00 00 00 00 00 00  ................
  0000000010001560: 00 00 00 00 00 00 00 00 00 00 00 00 00 00 00 00  ................
  0000000010001570: 00 00 00 00 00 00 00 00 00 00 00 00 00 00 00 00  ................
  0000000010001580: 00 00 00 00 00 00 00 00 00 00 00 00 00 00 00 00  ................
  0000000010001590: 00 00 00 00 00 00 00 00 00 00 00 00 00 00 00 00  ................
  00000000100015A0: 00 00 00 00 00 00 00 00 00 00 00 00 00 00 00 00  ................
  00000000100015B0: 00 00 00 00 00 00 00 00 00 00 00 00 00 00 00 00  ................
  00000000100015C0: 00 00 00 00 00 00 00 00 00 00 00 00 00 00 00 00  ................
  00000000100015D0: 00 00 00 00 00 00 00 00 00 00 00 00 00 00 00 00  ................
  00000000100015E0: 00 00 00 00 00 00 00 00 00 00 00 00 00 00 00 00  ................
  00000000100015F0: 00 00 00 00 00 00 00 00 00 00 00 00 00 00 00 00  ................
  0000000010001600: 00 00 00 00 00 00 00 00 00 00 00 00 00 00 00 00  ................
  0000000010001610: 00 00 00 00 00 00 00 00 00 00 00 00 00 00 00 00  ................
  0000000010001620: 00 00 00 00 00 00 00 00 00 00 00 00 00 00 00 00  ................
  0000000010001630: 00 00 00 00 00 00 00 00 00 00 00 00 00 00 00 00  ................
  0000000010001640: 00 00 00 00 00 00 00 00 00 00 00 00 00 00 00 00  ................
  0000000010001650: 00 00 00 00 00 00 00 00 00 00 00 00 00 00 00 00  ................
  0000000010001660: 00 00 00 00 00 00 00 00 00 00 00 00 00 00 00 00  ................
  0000000010001670: 00 00 00 00 00 00 00 00 00 00 00 00 00 00 00 00  ................
  0000000010001680: 00 00 00 00 00 00 00 00 00 00 00 00 00 00 00 00  ................
  0000000010001690: 00 00 00 00 00 00 00 00 00 00 00 00 00 00 00 00  ................
  00000000100016A0: 00 00 00 00 00 00 00 00 00 00 00 00 00 00 00 00  ................
  00000000100016B0: 00 00 00 00 00 00 00 00 00 00 00 00 00 00 00 00  ................
  00000000100016C0: 00 00 00 00 00 00 00 00 00 00 00 00 00 00 00 00  ................
  00000000100016D0: 00 00 00 00 00 00 00 00 00 00 00 00 00 00 00 00  ................
  00000000100016E0: 00 00 00 00 00 00 00 00 00 00 00 00 00 00 00 00  ................
  00000000100016F0: 00 00 00 00 00 00 00 00 00 00 00 00 00 00 00 00  ................
  0000000010001700: 00 00 00 00 00 00 00 00 00 00 00 00 00 00 00 00  ................
  0000000010001710: 00 00 00 00 00 00 00 00 00 00 00 00 00 00 00 00  ................
  0000000010001720: 00 00 00 00 00 00 00 00 00 00 00 00 00 00 00 00  ................
  0000000010001730: 00 00 00 00 00 00 00 00 00 00 00 00 00 00 00 00  ................
  0000000010001740: 00 00 00 00 00 00 00 00 00 00 00 00 00 00 00 00  ................
  0000000010001750: 00 00 00 00 00 00 00 00 00 00 00 00 00 00 00 00  ................
  0000000010001760: 00 00 00 00 00 00 00 00 00 00 00 00 00 00 00 00  ................
  0000000010001770: 00 00 00 00 00 00 00 00 00 00 00 00 00 00 00 00  ................
  0000000010001780: 00 00 00 00 00 00 00 00 00 00 00 00 00 00 00 00  ................
  0000000010001790: 00 00 00 00 00 00 00 00 00 00 00 00 00 00 00 00  ................
  00000000100017A0: 00 00 00 00 00 00 00 00 00 00 00 00 00 00 00 00  ................
  00000000100017B0: 00 00 00 00 00 00 00 00 00 00 00 00 00 00 00 00  ................
  00000000100017C0: 00 00 00 00 00 00 00 00 00 00 00 00 00 00 00 00  ................
  00000000100017D0: 00 00 00 00 00 00 00 00 00 00 00 00 00 00 00 00  ................
  00000000100017E0: 00 00 00 00 00 00 00 00 00 00 00 00 00 00 00 00  ................
  00000000100017F0: 00 00 00 00 00 00 00 00 00 00 00 00 00 00 00 00  ................
  0000000010001800: 00 00 00 00 00 00 00 00 00 00 00 00 00 00 00 00  ................
  0000000010001810: 00 00 00 00 00 00 00 00 00 00 00 00 00 00 00 00  ................
  0000000010001820: 00 00 00 00 00 00 00 00 00 00 00 00 00 00 00 00  ................
  0000000010001830: 00 00 00 00 00 00 00 00 00 00 00 00 00 00 00 00  ................
  0000000010001840: 00 00 00 00 00 00 00 00 00 00 00 00 00 00 00 00  ................
  0000000010001850: 00 00 00 00 00 00 00 00 00 00 00 00 00 00 00 00  ................
  0000000010001860: 00 00 00 00 00 00 00 00 00 00 00 00 00 00 00 00  ................
  0000000010001870: 00 00 00 00 00 00 00 00 00 00 00 00 00 00 00 00  ................
  0000000010001880: 00 00 00 00 00 00 00 00 00 00 00 00 00 00 00 00  ................
  0000000010001890: 00 00 00 00 00 00 00 00 00 00 00 00 00 00 00 00  ................
  00000000100018A0: 00 00 00 00 00 00 00 00 00 00 00 00 00 00 00 00  ................
  00000000100018B0: 00 00 00 00 00 00 00 00 00 00 00 00 00 00 00 00  ................
  00000000100018C0: 00 00 00 00 00 00 00 00 00 00 00 00 00 00 00 00  ................
  00000000100018D0: 00 00 00 00 00 00 00 00 00 00 00 00 00 00 00 00  ................
  00000000100018E0: 00 00 00 00 00 00 00 00 00 00 00 00 00 00 00 00  ................
  00000000100018F0: 00 00 00 00 00 00 00 00 00 00 00 00 00 00 00 00  ................
  0000000010001900: 00 00 00 00 00 00 00 00 00 00 00 00 00 00 00 00  ................
  0000000010001910: 00 00 00 00 00 00 00 00 00 00 00 00 00 00 00 00  ................
  0000000010001920: 00 00 00 00 00 00 00 00 00 00 00 00 00 00 00 00  ................
  0000000010001930: 00 00 00 00 00 00 00 00 00 00 00 00 00 00 00 00  ................
  0000000010001940: 00 00 00 00 00 00 00 00 00 00 00 00 00 00 00 00  ................
  0000000010001950: 00 00 00 00 00 00 00 00 00 00 00 00 00 00 00 00  ................
  0000000010001960: 00 00 00 00 00 00 00 00 00 00 00 00 00 00 00 00  ................
  0000000010001970: 00 00 00 00 00 00 00 00 00 00 00 00 00 00 00 00  ................
  0000000010001980: 00 00 00 00 00 00 00 00 00 00 00 00 00 00 00 00  ................
  0000000010001990: 00 00 00 00 00 00 00 00 00 00 00 00 00 00 00 00  ................
  00000000100019A0: 00 00 00 00 00 00 00 00 00 00 00 00 00 00 00 00  ................
  00000000100019B0: 00 00 00 00 00 00 00 00 00 00 00 00 00 00 00 00  ................
  00000000100019C0: 00 00 00 00 00 00 00 00 00 00 00 00 00 00 00 00  ................
  00000000100019D0: 00 00 00 00 00 00 00 00 00 00 00 00 00 00 00 00  ................
  00000000100019E0: 00 00 00 00 00 00 00 00 00 00 00 00 00 00 00 00  ................
  00000000100019F0: 00 00 00 00 00 00 00 00 00 00 00 00 00 00 00 00  ................
  0000000010001A00: 00 00 00 00 00 00 00 00 00 00 00 00 00 00 00 00  ................
  0000000010001A10: 00 00 00 00 00 00 00 00 00 00 00 00 00 00 00 00  ................
  0000000010001A20: 00 00 00 00 00 00 00 00 00 00 00 00 00 00 00 00  ................
  0000000010001A30: 00 00 00 00 00 00 00 00 00 00 00 00 00 00 00 00  ................
  0000000010001A40: 00 00 00 00 00 00 00 00 00 00 00 00 00 00 00 00  ................
  0000000010001A50: 00 00 00 00 00 00 00 00 00 00 00 00 00 00 00 00  ................
  0000000010001A60: 00 00 00 00 00 00 00 00 00 00 00 00 00 00 00 00  ................
  0000000010001A70: 00 00 00 00 00 00 00 00 00 00 00 00 00 00 00 00  ................
  0000000010001A80: 00 00 00 00 00 00 00 00 00 00 00 00 00 00 00 00  ................
  0000000010001A90: 00 00 00 00 00 00 00 00 00 00 00 00 00 00 00 00  ................
  0000000010001AA0: 00 00 00 00 00 00 00 00 00 00 00 00 00 00 00 00  ................
  0000000010001AB0: 00 00 00 00 00 00 00 00 00 00 00 00 00 00 00 00  ................
  0000000010001AC0: 00 00 00 00 00 00 00 00 00 00 00 00 00 00 00 00  ................
  0000000010001AD0: 00 00 00 00 00 00 00 00 00 00 00 00 00 00 00 00  ................
  0000000010001AE0: 00 00 00 00 00 00 00 00 00 00 00 00 00 00 00 00  ................
  0000000010001AF0: 00 00 00 00 00 00 00 00 00 00 00 00 00 00 00 00  ................
  0000000010001B00: 00 00 00 00 00 00 00 00 00 00 00 00 00 00 00 00  ................
  0000000010001B10: 00 00 00 00 00 00 00 00 00 00 00 00 00 00 00 00  ................
  0000000010001B20: 00 00 00 00 00 00 00 00 00 00 00 00 00 00 00 00  ................
  0000000010001B30: 00 00 00 00 00 00 00 00 00 00 00 00 00 00 00 00  ................
  0000000010001B40: 00 00 00 00 00 00 00 00 00 00 00 00 00 00 00 00  ................
  0000000010001B50: 00 00 00 00 00 00 00 00 00 00 00 00 00 00 00 00  ................
  0000000010001B60: 00 00 00 00 00 00 00 00 00 00 00 00 00 00 00 00  ................
  0000000010001B70: 00 00 00 00 00 00 00 00 00 00 00 00 00 00 00 00  ................
  0000000010001B80: 00 00 00 00 00 00 00 00 00 00 00 00 00 00 00 00  ................
  0000000010001B90: 00 00 00 00 00 00 00 00 00 00 00 00 00 00 00 00  ................
  0000000010001BA0: 00 00 00 00 00 00 00 00 00 00 00 00 00 00 00 00  ................
  0000000010001BB0: 00 00 00 00 00 00 00 00 00 00 00 00 00 00 00 00  ................
  0000000010001BC0: 00 00 42 00 61 00 73 00 65 00 53 00 79 00 73 00  ..B.a.s.e.S.y.s.
  0000000010001BD0: 2E 00 64 00 6C 00 6C 00 00 00 43 00 72 00 79 00  ..d.l.l...C.r.y.
  0000000010001BE0: 70 00 74 00 2E 00 64 00 6C 00 6C 00 00 00 53 00  p.t...d.l.l...S.
  0000000010001BF0: 63 00 61 00 6E 00 6E 00 65 00 72 00 31 00 2E 00  c.a.n.n.e.r.1...
  0000000010001C00: 64 00 6C 00 6C 00 00 00 00 00 00 00 00 00 00 00  d.l.l...........
  0000000010001C10: 31 00 00 00 32 00 00 00 31 00 00 00 42 00 59 00  1...2...1...B.Y.
  0000000010001C20: 54 00 45 00 00 00 56 00 41 00 4C 00 00 00 42 00  T.E...V.A.L...B.
  0000000010001C30: 49 00 54 00 00 00 53 00 49 00 5A 00 45 00 00 00  I.T...S.I.Z.E...
  0000000010001C40: 41 00 44 00 52 00 00 00 49 00 4E 00 54 00 33 00  A.D.R...I.N.T.3.
  0000000010001C50: 00 00 47 00 65 00 74 00 50 00 72 00 6F 00 63 00  ..G.e.t.P.r.o.c.
  0000000010001C60: 41 00 64 00 64 00 72 00 65 00 73 00 73 00 00 00  A.d.d.r.e.s.s...
  0000000010001C70: 4C 00 6F 00 61 00 64 00 4C 00 69 00 62 00 72 00  L.o.a.d.L.i.b.r.
  0000000010001C80: 61 00 72 00 79 00 57 00 00 00 43 00 4F 00 50 00  a.r.y.W...C.O.P.
  0000000010001C90: 59 00 00 00 50 00 55 00 54 00 00 00 47 00 45 00  Y...P.U.T...G.E.
  0000000010001CA0: 54 00 00 00 43 00 48 00 52 00 00 00 4F 00 52 00  T...C.H.R...O.R.
  0000000010001CB0: 44 00 00 00 46 00 4C 00 54 00 00 00 46 00 4C 00  D...F.L.T...F.L.
  0000000010001CC0: 4F 00 4F 00 52 00 00 00 52 00 4F 00 52 00 00 00  O.O.R...R.O.R...
  0000000010001CD0: 41 00 53 00 52 00 00 00 4C 00 53 00 4C 00 00 00  A.S.R...L.S.L...
  0000000010001CE0: 4C 00 45 00 4E 00 00 00 4F 00 44 00 44 00 00 00  L.E.N...O.D.D...
  0000000010001CF0: 41 00 42 00 53 00 00 00 55 00 4E 00 50 00 4B 00  A.B.S...U.N.P.K.
  0000000010001D00: 00 00 50 00 41 00 43 00 4B 00 00 00 41 00 53 00  ..P.A.C.K...A.S.
  0000000010001D10: 53 00 45 00 52 00 54 00 00 00 4E 00 45 00 57 00  S.E.R.T...N.E.W.
  0000000010001D20: 00 00 45 00 58 00 43 00 4C 00 00 00 49 00 4E 00  ..E.X.C.L...I.N.
  0000000010001D30: 43 00 4C 00 00 00 44 00 45 00 43 00 00 00 49 00  C.L...D.E.C...I.
  0000000010001D40: 4E 00 43 00 00 00 43 00 48 00 41 00 52 00 00 00  N.C...C.H.A.R...
  0000000010001D50: 42 00 4F 00 4F 00 4C 00 45 00 41 00 4E 00 00 00  B.O.O.L.E.A.N...
  0000000010001D60: 53 00 45 00 54 00 00 00 52 00 45 00 41 00 4C 00  S.E.T...R.E.A.L.
  0000000010001D70: 00 00 42 00 59 00 54 00 45 00 00 00 49 00 4E 00  ..B.Y.T.E...I.N.
  0000000010001D80: 54 00 45 00 47 00 45 00 52 00 00 00 53 00 79 00  T.E.G.E.R...S.y.
  0000000010001D90: 6D 00 62 00 6F 00 6C 00 20 00 66 00 69 00 6C 00  m.b.o.l. .f.i.l.
  0000000010001DA0: 65 00 20 00 6E 00 6F 00 74 00 20 00 65 00 78 00  e. .n.o.t. .e.x.
  0000000010001DB0: 69 00 73 00 74 00 65 00 64 00 00 00 4D 00 6F 00  i.s.t.e.d...M.o.
  0000000010001DC0: 64 00 75 00 6C 00 65 00 20 00 6C 00 65 00 76 00  d.u.l.e. .l.e.v.
  0000000010001DD0: 65 00 6C 00 20 00 74 00 6F 00 6F 00 20 00 64 00  e.l. .t.o.o. .d.
  0000000010001DE0: 65 00 65 00 70 00 00 00 00 00 00 00 00 00 00 00  e.e.p...........
  0000000010001DF0: 00 00 00 00 00 00 53 00 59 00 53 00 54 00 45 00  ......S.Y.S.T.E.
  0000000010001E00: 4D 00 00 00 2E 00 73 00 79 00 6D 00 00 00 20 00  M.....s.y.m... .
  0000000010001E10: 77 00 69 00 74 00 68 00 20 00 61 00 20 00 64 00  w.i.t.h. .a. .d.
  0000000010001E20: 69 00 66 00 66 00 65 00 72 00 65 00 6E 00 74 00  i.f.f.e.r.e.n.t.
  0000000010001E30: 20 00 6B 00 65 00 79 00 00 00 20 00 77 00 61 00   .k.e.y... .w.a.
  0000000010001E40: 73 00 20 00 69 00 6D 00 70 00 6F 00 72 00 74 00  s. .i.m.p.o.r.t.
  0000000010001E50: 65 00 64 00 20 00 62 00 79 00 20 00 00 00 4D 00  e.d. .b.y. ...M.
  0000000010001E60: 6F 00 64 00 75 00 6C 00 65 00 20 00 00 00 43 00  o.d.u.l.e. ...C.
  0000000010001E70: 69 00 72 00 63 00 75 00 6C 00 61 00 72 00 20 00  i.r.c.u.l.a.r. .
  0000000010001E80: 64 00 65 00 70 00 65 00 6E 00 64 00 65 00 6E 00  d.e.p.e.n.d.e.n.
  0000000010001E90: 63 00 79 00 00 00 00 00 00 00 00 00 00 00 00 00  c.y.............
  0000000010001EA0: 00 00 00 00 00 00 00 00 00 00 00 00 00 00 20 00  .............. .
  0000000010001EB0: 69 00 6E 00 20 00 6F 00 72 00 64 00 65 00 72 00  i.n. .o.r.d.e.r.
  0000000010001EC0: 20 00 74 00 6F 00 20 00 69 00 6D 00 70 00 6F 00   .t.o. .i.m.p.o.
  0000000010001ED0: 72 00 74 00 20 00 00 00 4E 00 65 00 65 00 64 00  r.t. ...N.e.e.d.
  0000000010001EE0: 20 00 74 00 6F 00 20 00 69 00 6D 00 70 00 6F 00   .t.o. .i.m.p.o.
  0000000010001EF0: 72 00 74 00 20 00 00 00 00 00 00 00 00 00 00 00  r.t. ...........
  0000000010001F00: 73 00 79 00 6D 00 2E 00 74 00 65 00 6D 00 70 00  s.y.m...t.e.m.p.
  0000000010001F10: 5F 00 00 00 73 00 79 00 6D 00 2E 00 74 00 65 00  _...s.y.m...t.e.
  0000000010001F20: 6D 00 70 00 5F 00 00 00 00 00 00 00 00 00 00 00  m.p._...........
  0000000010001F30: 00 00 00 00 00 00 00 00 00 00 00 00 00 00 2E 00  ................
  0000000010001F40: 73 00 79 00 6D 00 00 00 00 00 00 00 00 00 00 00  s.y.m...........
  0000000010001F50: 00 00 00 00 00 00 00 00 00 00 00 00 00 00 00 00  ................
  0000000010001F60: 00 00 00 00 00 00 00 00 00 00 00 00 00 00 00 00  ................
  0000000010001F70: 00 00 00 00 00 00 00 00 00 00 00 00 00 00 00 00  ................
  0000000010001F80: 00 00 00 00 00 00 00 00 00 00 00 00 73 00 79 00  ............s.y.
  0000000010001F90: 6D 00 2E 00 74 00 65 00 6D 00 70 00 5F 00 00 00  m...t.e.m.p._...
  0000000010001FA0: 00 00 00 00 00 00 00 00 00 00 00 00 00 00 00 00  ................
  0000000010001FB0: 54 00 6F 00 6F 00 20 00 6D 00 61 00 6E 00 79 00  T.o.o. .m.a.n.y.
  0000000010001FC0: 20 00 65 00 78 00 70 00 6F 00 72 00 74 00 65 00   .e.x.p.o.r.t.e.
  0000000010001FD0: 64 00 20 00 74 00 79 00 70 00 65 00 73 00 00 00  d. .t.y.p.e.s...
  0000000010001FE0: 00 00 00 00 00 00 00 00 00 00 00 00 00 00 74 00  ..............t.
  0000000010001FF0: 6F 00 6F 00 20 00 6D 00 61 00 6E 00 79 00 20 00  o.o. .m.a.n.y. .
  0000000010002000: 73 00 74 00 72 00 69 00 6E 00 67 00 73 00 00 00  s.t.r.i.n.g.s...
  0000000010002010: 00 00 00 00 00 00 00 00 00 00 44 00 45 00 42 00  ..........D.E.B.
  0000000010002020: 55 00 47 00 00 00 43 00 4F 00 4E 00 53 00 4F 00  U.G...C.O.N.S.O.
  0000000010002030: 4C 00 45 00 00 00 4D 00 41 00 49 00 4E 00 00 00  L.E...M.A.I.N...
  0000000010002040: 00 00 00 00 00 00 00 00 00 00 00 00 00 00 00 00  ................
  0000000010002050: 00 00 00 00 00 00 00 00 00 00 00 00 00 00 00 00  ................
  0000000010002060: 00 00 00 00 00 00 00 00 00 00 00 00 00 00 00 00  ................
  0000000010002070: 00 00 00 00 00 00 00 00 00 00 00 00 00 00 00 00  ................
  0000000010002080: 00 00 00 00 00 00 00 00 00 00 00 00 00 00 00 00  ................
  0000000010002090: 00 00 00 00 10 00 00 00 00 00 00 00 00 00 00 00  ................
  00000000100020A0: 00 00 00 00 00 00 00 00 00 00 00 00 00 00 00 00  ................
  00000000100020B0: 00 00 00 00 00 00 00 00 00 00 00 00 00 00 00 00  ................
  00000000100020C0: 00 00 00 00 00 00 00 00 00 00 00 00 00 00 00 00  ................
  00000000100020D0: 00 00 00 00 00 00 00 00 00 00 00 00 00 00 00 00  ................
  00000000100020E0: 08 00 00 00 10 00 00 00 00 00 00 00 00 00 00 00  ................
  00000000100020F0: 00 00 00 00 00 00 00 00 00 00 00 00 00 00 00 00  ................
  0000000010002100: 00 00 00 00 00 00 00 00 00 00 00 00 00 00 00 00  ................
  0000000010002110: 00 00 00 00 00 00 00 00 00 00 00 00 00 00 00 00  ................
  0000000010002120: 00 00 00 00 00 00 00 00 00 00 00 00 00 00 00 00  ................
  0000000010002130: 08 00 00 00 10 00 00 00 00 00 00 00 00 00 00 00  ................
  0000000010002140: 00 00 00 00 00 00 00 00 00 00 00 00 00 00 00 00  ................
  0000000010002150: 00 00 00 00 00 00 00 00 00 00 00 00 00 00 00 00  ................
  0000000010002160: 00 00 00 00 00 00 00 00 00 00 00 00 00 00 00 00  ................
  0000000010002170: 00 00 00 00 00 00 00 00 00 00 00 00 00 00 00 00  ................
  0000000010002180: 08 00 00 00 10 00 00 00 00 00 00 00 00 00 00 00  ................
  0000000010002190: 00 00 00 00 00 00 00 00 00 00 00 00 00 00 00 00  ................
  00000000100021A0: 00 00 00 00 00 00 00 00 00 00 00 00 00 00 00 00  ................
  00000000100021B0: 00 00 00 00 00 00 00 00 00 00 00 00 00 00 00 00  ................
  00000000100021C0: 00 00 00 00 00 00 00 00 00 00 00 00 00 00 00 00  ................
  00000000100021D0: 08 00 00 00 10 00 00 00 00 00 00 00 00 00 00 00  ................
  00000000100021E0: 00 00 00 00 00 00 00 00 00 00 00 00 00 00 00 00  ................
  00000000100021F0: 00 00 00 00 00 00 00 00 00 00 00 00 00 00 00 00  ................
  0000000010002200: 00 00 00 00 00 00 00 00 00 00 00 00 00 00 00 00  ................
  0000000010002210: 00 00 00 00 00 00 00 00 00 00 00 00 00 00 00 00  ................
  0000000010002220: 08 00 00 00 10 00 00 00 48 00 00 00 50 00 00 00  ........H...P...
  0000000010002230: 58 00 00 00 00 00 00 00 00 00 00 00 00 00 00 00  X...............
  0000000010002240: 00 00 00 00 00 00 00 00 00 00 00 00 00 00 00 00  ................
  0000000010002250: 00 00 00 00 00 00 00 00 00 00 00 00 00 00 00 00  ................
  0000000010002260: 00 00 00 00 00 00 00 00 00 00 00 00 00 00 00 00  ................
  0000000010002270: 00 00 00 00 00 00 00 00 08 00 00 00 10 00 00 00  ................
  0000000010002280: 00 00 00 00 00 00 00 00 00 00 00 00 00 00 00 00  ................
  0000000010002290: 00 00 00 00 00 00 00 00 00 00 00 00 00 00 00 00  ................
  00000000100022A0: 00 00 00 00 00 00 00 00 00 00 00 00 00 00 00 00  ................
  00000000100022B0: 00 00 00 00 00 00 00 00 00 00 00 00 00 00 00 00  ................
  00000000100022C0: 00 00 00 00 00 00 00 00 08 00 00 00 10 00 00 00  ................
  00000000100022D0: C8 02 00 00 D0 02 00 00 D8 02 00 00 00 00 00 00  È...?...Ø.......
  00000000100022E0: 00 00 00 00 00 00 00 00 00 00 00 00 00 00 00 00  ................
  00000000100022F0: 00 00 00 00 00 00 00 00 00 00 00 00 00 00 00 00  ................
  0000000010002300: 00 00 00 00 00 00 00 00 00 00 00 00 00 00 00 00  ................
  0000000010002310: 00 00 00 00 00 00 00 00 00 00 00 00 00 00 00 00  ................
  0000000010002320: 08 00 00 00 10 00 00 00 00 00 00 00 00 00 00 00  ................
  0000000010002330: 00 00 00 00 00 00 00 00 00 00 00 00 00 00 00 00  ................
  0000000010002340: 00 00 00 00 00 00 00 00 00 00 00 00 00 00 00 00  ................
  0000000010002350: 00 00 00 00 00 00 00 00 00 00 00 00 00 00 00 00  ................
  0000000010002360: 00 00 00 00 00 00 00 00 00 00 00 00 00 00 00 00  ................
  0000000010002370: 00 00 00 00 08 00 00 00 00 00 00 00 00 00 00 00  ................
  0000000010002380: 00 00 00 00 00 00 00 00 00 00 00 00 00 00 00 00  ................
  0000000010002390: 00 00 00 00 00 00 00 00 00 00 00 00 00 00 00 00  ................
  00000000100023A0: 00 00 00 00 00 00 00 00 00 00 00 00 00 00 00 00  ................
  00000000100023B0: 00 00 00 00 00 00 00 00 00 00 00 00 00 00 00 00  ................
  00000000100023C0: 00 00 00 00 00 00 00 00 00 00 00 00 00 00 00 00  ................
  00000000100023D0: 00 00 00 00 00 00 00 00 00 00 00 00 00 00 00 00  ................
  00000000100023E0: 00 00 00 00 00 00 00 00 00 00 00 00 00 00 00 00  ................
  00000000100023F0: 00 00 00 00 00 00 00 00 00 00 00 00 00 00 00 00  ................
  0000000010002400: 00 00 00 00 00 00 00 00 40 00 00 00 48 00 00 00  ........@...H...
  0000000010002410: 60 00 00 00 00 00 00 00 00 00 00 00 00 00 00 00  `...............
  0000000010002420: 00 00 00 00 00 00 00 00 00 00 00 00 00 00 00 00  ................
  0000000010002430: 00 00 00 00 00 00 00 00 00 00 00 00 00 00 00 00  ................
  0000000010002440: 00 00 00 00 00 00 00 00 00 00 00 00 00 00 00 00  ................
  0000000010002450: 00 00 00 00 00 00 00 00 08 00 00 00 10 00 00 00  ................
  0000000010002460: 30 00 00 00 38 00 00 00 00 00 00 00 00 00 00 00  0...8...........
  0000000010002470: 00 00 00 00 00 00 00 00 00 00 00 00 00 00 00 00  ................
  0000000010002480: 00 00 00 00 00 00 00 00 00 00 00 00 00 00 00 00  ................
  0000000010002490: 00 00 00 00 00 00 00 00 00 00 00 00 00 00 00 00  ................
  00000000100024A0: 00 00 00 00 00 00 00 00 00 00 00 00 00 00 00 00  ................
  00000000100024B0: 88 00 00 00 90 00 00 00 00 00 00 00 00 00 00 00  ................
  00000000100024C0: 00 00 00 00 00 00 00 00 00 00 00 00 00 00 00 00  ................
  00000000100024D0: 00 00 00 00 00 00 00 00 00 00 00 00 00 00 00 00  ................
  00000000100024E0: 00 00 00 00 00 00 00 00 00 00 00 00 00 00 00 00  ................
  00000000100024F0: 00 00 00 00 00 00 00 00 00 00 00 00 00 00 00 00  ................
  0000000010002500: 08 00 00 00 10 00 00 00 00 00 00 00 00 00 00 00  ................
  0000000010002510: 00 00 00 00 00 00 00 00 00 00 00 00 00 00 00 00  ................
  0000000010002520: 00 00 00 00 00 00 00 00 00 00 00 00 00 00 00 00  ................
  0000000010002530: 00 00 00 00 00 00 00 00 00 00 00 00 00 00 00 00  ................
  0000000010002540: 00 00 00 00 00 00 00 00 00 00 00 00 00 00 00 00  ................
  0000000010002550: 00 00 00 00 00 00 00 00 70 B0 20 00 00 00 00 00  ........p° .....
  0000000010002560: 90 B0 20 00 00 00 00 00 B0 B0 20 00 00 00 00 00  .° .....°° .....
  0000000010002570: D0 B0 20 00 00 00 00 00 F0 B0 20 00 00 00 00 00  ?° .....?° .....
  0000000010002580: 10 B1 20 00 00 00 00 00 00 00 00 00 00 00 00 00  .± .............
  0000000010002590: 00 00 00 00 00 00 00 00 00 00 00 00 00 00 00 00  ................
  00000000100025A0: 00 00 00 00 00 00 00 00 00 00 00 00 00 00 00 00  ................
  00000000100025B0: 00 00 00 00 00 00 00 00 00 00 00 00 00 00 00 00  ................
  00000000100025C0: 00 00 00 00 00 00 00 00 00 00 00 00 00 00 00 00  ................
  00000000100025D0: 00 00 00 00 00 00 00 00 00 00 00 00 00 00 00 00  ................
  00000000100025E0: 00 00 00 00 00 00 00 00 00 00 00 00 00 00 00 00  ................
  00000000100025F0: 00 00 00 00 00 00 00 00 00 00 00 00 00 00 00 00  ................

SECTION HEADER #2
   .text name
    5E0F virtual size
  205000 virtual address (0000000010205000 to 000000001020AE0E)
    6000 size of raw data
     400 file pointer to raw data (00000400 to 000063FF)
       0 file pointer to relocation table
       0 file pointer to line numbers
       0 number of relocations
       0 number of line numbers
60000020 flags
         Code
         Execute Read

  0000000010205000: 55                 push        rbp
  0000000010205001: 48 8B EC           mov         rbp,rsp
  0000000010205004: 48 83 EC 10        sub         rsp,10h
  0000000010205008: 48 89 4D 10        mov         qword ptr [rbp+10h],rcx
  000000001020500C: 48 89 55 18        mov         qword ptr [rbp+18h],rdx
  0000000010205010: 48 8B 45 18        mov         rax,qword ptr [rbp+18h]
  0000000010205014: 48 83 E0 7F        and         rax,7Fh
  0000000010205018: 48 89 45 F0        mov         qword ptr [rbp-10h],rax
  000000001020501C: 48 8B 45 18        mov         rax,qword ptr [rbp+18h]
  0000000010205020: 48 83 F8 C0        cmp         rax,0FFFFFFFFFFFFFFC0h
  0000000010205024: 0F 8C 18 00 00 00  jl          0000000010205042
  000000001020502A: 48 8B 45 18        mov         rax,qword ptr [rbp+18h]
  000000001020502E: 48 83 F8 40        cmp         rax,40h
  0000000010205032: 0F 8D 0A 00 00 00  jge         0000000010205042
  0000000010205038: B8 01 00 00 00     mov         eax,1
  000000001020503D: E9 02 00 00 00     jmp         0000000010205044
  0000000010205042: 31 C0              xor         eax,eax
  0000000010205044: 88 45 FF           mov         byte ptr [rbp-1],al
  0000000010205047: 0F B6 45 FF        movzx       eax,byte ptr [rbp-1]
  000000001020504B: 85 C0              test        eax,eax
  000000001020504D: 0F 84 14 00 00 00  je          0000000010205067
  0000000010205053: 48 8B 45 F0        mov         rax,qword ptr [rbp-10h]
  0000000010205057: 48 81 C0 80 00 00  add         rax,80h
                    00
  000000001020505E: 48 89 45 F0        mov         qword ptr [rbp-10h],rax
  0000000010205062: E9 0C 00 00 00     jmp         0000000010205073
  0000000010205067: 48 8B 45 18        mov         rax,qword ptr [rbp+18h]
  000000001020506B: 48 C1 F8 07        sar         rax,7
  000000001020506F: 48 89 45 18        mov         qword ptr [rbp+18h],rax
  0000000010205073: 48 83 EC 20        sub         rsp,20h
  0000000010205077: 48 8B 4D 10        mov         rcx,qword ptr [rbp+10h]
  000000001020507B: 48 8B 55 F0        mov         rdx,qword ptr [rbp-10h]
  000000001020507F: FF 15 C3 CF DF FF  call        qword ptr [0000000010002048h]
  0000000010205085: 48 83 C4 20        add         rsp,20h
  0000000010205089: 0F B6 45 FF        movzx       eax,byte ptr [rbp-1]
  000000001020508D: 85 C0              test        eax,eax
  000000001020508F: 0F 84 7B FF FF FF  je          0000000010205010
  0000000010205095: C9                 leave
  0000000010205096: C3                 ret
  0000000010205097: 55                 push        rbp
  0000000010205098: 48 8B EC           mov         rbp,rsp
  000000001020509B: 48 83 EC 20        sub         rsp,20h
  000000001020509F: 48 89 4D 10        mov         qword ptr [rbp+10h],rcx
  00000000102050A3: 48 89 55 18        mov         qword ptr [rbp+18h],rdx
  00000000102050A7: 31 C0              xor         eax,eax
  00000000102050A9: 48 8B 4D 18        mov         rcx,qword ptr [rbp+18h]
  00000000102050AD: 48 89 01           mov         qword ptr [rcx],rax
  00000000102050B0: B8 01 00 00 00     mov         eax,1
  00000000102050B5: 48 89 45 F0        mov         qword ptr [rbp-10h],rax
  00000000102050B9: B8 01 00 00 00     mov         eax,1
  00000000102050BE: 48 89 45 E0        mov         qword ptr [rbp-20h],rax
  00000000102050C2: 48 83 EC 20        sub         rsp,20h
  00000000102050C6: 48 8B 4D 10        mov         rcx,qword ptr [rbp+10h]
  00000000102050CA: 48 8D 55 E8        lea         rdx,[rbp-18h]
  00000000102050CE: FF 15 6C CF DF FF  call        qword ptr [0000000010002040h]
  00000000102050D4: 48 83 C4 20        add         rsp,20h
  00000000102050D8: 48 8B 45 F0        mov         rax,qword ptr [rbp-10h]
  00000000102050DC: 48 83 F8 0A        cmp         rax,0Ah
  00000000102050E0: 0F 8D C1 00 00 00  jge         00000000102051A7
  00000000102050E6: 48 8B 45 E8        mov         rax,qword ptr [rbp-18h]
  00000000102050EA: 48 81 F8 80 00 00  cmp         rax,80h
                    00
  00000000102050F1: 0F 9D C0           setge       al
  00000000102050F4: 0F B6 C0           movzx       eax,al
  00000000102050F7: 88 45 FF           mov         byte ptr [rbp-1],al
  00000000102050FA: 48 8B 45 E8        mov         rax,qword ptr [rbp-18h]
  00000000102050FE: 48 83 E0 7F        and         rax,7Fh
  0000000010205102: 48 89 45 E8        mov         qword ptr [rbp-18h],rax
  0000000010205106: 48 8B 45 18        mov         rax,qword ptr [rbp+18h]
  000000001020510A: 48 8B 00           mov         rax,qword ptr [rax]
  000000001020510D: 48 8B 4D E8        mov         rcx,qword ptr [rbp-18h]
  0000000010205111: 48 8B 55 E0        mov         rdx,qword ptr [rbp-20h]
  0000000010205115: 48 0F AF CA        imul        rcx,rdx
  0000000010205119: 48 03 C1           add         rax,rcx
  000000001020511C: 48 8B 4D 18        mov         rcx,qword ptr [rbp+18h]
  0000000010205120: 48 89 01           mov         qword ptr [rcx],rax
  0000000010205123: 48 8B 45 F0        mov         rax,qword ptr [rbp-10h]
  0000000010205127: 48 83 F8 09        cmp         rax,9
  000000001020512B: 0F 84 0C 00 00 00  je          000000001020513D
  0000000010205131: 48 8B 45 E0        mov         rax,qword ptr [rbp-20h]
  0000000010205135: 48 C1 E0 07        shl         rax,7
  0000000010205139: 48 89 45 E0        mov         qword ptr [rbp-20h],rax
  000000001020513D: 48 83 45 F0 01     add         qword ptr [rbp-10h],1
  0000000010205142: 0F B6 45 FF        movzx       eax,byte ptr [rbp-1]
  0000000010205146: 85 C0              test        eax,eax
  0000000010205148: 0F 84 54 00 00 00  je          00000000102051A2
  000000001020514E: 48 8B 45 E8        mov         rax,qword ptr [rbp-18h]
  0000000010205152: 48 83 F8 40        cmp         rax,40h
  0000000010205156: 0F 8C 46 00 00 00  jl          00000000102051A2
  000000001020515C: 48 8B 45 F0        mov         rax,qword ptr [rbp-10h]
  0000000010205160: 48 83 F8 09        cmp         rax,9
  0000000010205164: 0F 84 1D 00 00 00  je          0000000010205187
  000000001020516A: 48 8B 45 18        mov         rax,qword ptr [rbp+18h]
  000000001020516E: 48 8B 00           mov         rax,qword ptr [rax]
  0000000010205171: 48 8B 4D E0        mov         rcx,qword ptr [rbp-20h]
  0000000010205175: 48 F7 D9           neg         rcx
  0000000010205178: 48 03 C1           add         rax,rcx
  000000001020517B: 48 8B 4D 18        mov         rcx,qword ptr [rbp+18h]
  000000001020517F: 48 89 01           mov         qword ptr [rcx],rax
  0000000010205182: E9 1B 00 00 00     jmp         00000000102051A2
  0000000010205187: 48 8B 45 18        mov         rax,qword ptr [rbp+18h]
  000000001020518B: 48 8B 00           mov         rax,qword ptr [rax]
  000000001020518E: 48 B9 00 00 00 00  mov         rcx,8000000000000000h
                    00 00 00 80
  0000000010205198: 48 03 C1           add         rax,rcx
  000000001020519B: 48 8B 4D 18        mov         rcx,qword ptr [rbp+18h]
  000000001020519F: 48 89 01           mov         qword ptr [rcx],rax
  00000000102051A2: E9 4C 00 00 00     jmp         00000000102051F3
  00000000102051A7: 48 8B 45 F0        mov         rax,qword ptr [rbp-10h]
  00000000102051AB: 48 83 F8 0A        cmp         rax,0Ah
  00000000102051AF: 0F 85 36 00 00 00  jne         00000000102051EB
  00000000102051B5: B8 01 00 00 00     mov         eax,1
  00000000102051BA: 88 45 FF           mov         byte ptr [rbp-1],al
  00000000102051BD: 48 8B 45 E8        mov         rax,qword ptr [rbp-18h]
  00000000102051C1: 48 83 F8 7F        cmp         rax,7Fh
  00000000102051C5: 0F 85 1B 00 00 00  jne         00000000102051E6
  00000000102051CB: 48 8B 45 18        mov         rax,qword ptr [rbp+18h]
  00000000102051CF: 48 8B 00           mov         rax,qword ptr [rax]
  00000000102051D2: 48 B9 00 00 00 00  mov         rcx,8000000000000000h
                    00 00 00 80
  00000000102051DC: 48 03 C1           add         rax,rcx
  00000000102051DF: 48 8B 4D 18        mov         rcx,qword ptr [rbp+18h]
  00000000102051E3: 48 89 01           mov         qword ptr [rcx],rax
  00000000102051E6: E9 08 00 00 00     jmp         00000000102051F3
  00000000102051EB: B0 03              mov         al,3
  00000000102051ED: B9 C6 12 00 00     mov         ecx,12C6h
  00000000102051F2: CC                 int         3
  00000000102051F3: 0F B6 45 FF        movzx       eax,byte ptr [rbp-1]
  00000000102051F7: 85 C0              test        eax,eax
  00000000102051F9: 0F 84 C3 FE FF FF  je          00000000102050C2
  00000000102051FF: C9                 leave
  0000000010205200: C3                 ret
  0000000010205201: 55                 push        rbp
  0000000010205202: 48 8B EC           mov         rbp,rsp
  0000000010205205: 48 83 EC 10        sub         rsp,10h
  0000000010205209: 48 89 4D 10        mov         qword ptr [rbp+10h],rcx
  000000001020520D: 48 89 55 18        mov         qword ptr [rbp+18h],rdx
  0000000010205211: 4C 89 45 20        mov         qword ptr [rbp+20h],r8
  0000000010205215: 4C 89 4D 28        mov         qword ptr [rbp+28h],r9
  0000000010205219: 31 C0              xor         eax,eax
  000000001020521B: 48 89 45 F8        mov         qword ptr [rbp-8],rax
  000000001020521F: 48 8B 45 F8        mov         rax,qword ptr [rbp-8]
  0000000010205223: 48 3B 45 28        cmp         rax,qword ptr [rbp+28h]
  0000000010205227: 0F 83 05 00 00 00  jae         0000000010205232
  000000001020522D: E9 08 00 00 00     jmp         000000001020523A
  0000000010205232: B0 01              mov         al,1
  0000000010205234: B9 60 13 00 00     mov         ecx,1360h
  0000000010205239: CC                 int         3
  000000001020523A: 48 C1 E0 01        shl         rax,1
  000000001020523E: 48 8B 4D 20        mov         rcx,qword ptr [rbp+20h]
  0000000010205242: 48 03 C1           add         rax,rcx
  0000000010205245: 0F B7 00           movzx       eax,word ptr [rax]
  0000000010205248: 66 85 C0           test        ax,ax
  000000001020524B: 0F 84 0A 00 00 00  je          000000001020525B
  0000000010205251: 48 83 45 F8 01     add         qword ptr [rbp-8],1
  0000000010205256: E9 C4 FF FF FF     jmp         000000001020521F
  000000001020525B: 31 C0              xor         eax,eax
  000000001020525D: 48 89 45 F0        mov         qword ptr [rbp-10h],rax
  0000000010205261: 48 8B 45 F0        mov         rax,qword ptr [rbp-10h]
  0000000010205265: 48 3B 45 18        cmp         rax,qword ptr [rbp+18h]
  0000000010205269: 0F 83 05 00 00 00  jae         0000000010205274
  000000001020526F: E9 08 00 00 00     jmp         000000001020527C
  0000000010205274: B0 01              mov         al,1
  0000000010205276: B9 8B 13 00 00     mov         ecx,138Bh
  000000001020527B: CC                 int         3
  000000001020527C: 48 C1 E0 01        shl         rax,1
  0000000010205280: 48 8B 4D 10        mov         rcx,qword ptr [rbp+10h]
  0000000010205284: 48 03 C1           add         rax,rcx
  0000000010205287: 0F B7 00           movzx       eax,word ptr [rax]
  000000001020528A: 66 85 C0           test        ax,ax
  000000001020528D: 0F 84 63 00 00 00  je          00000000102052F6
  0000000010205293: 48 8B 45 F8        mov         rax,qword ptr [rbp-8]
  0000000010205297: 48 8B 4D F0        mov         rcx,qword ptr [rbp-10h]
  000000001020529B: 48 03 C1           add         rax,rcx
  000000001020529E: 48 3B 45 28        cmp         rax,qword ptr [rbp+28h]
  00000000102052A2: 0F 83 05 00 00 00  jae         00000000102052AD
  00000000102052A8: E9 08 00 00 00     jmp         00000000102052B5
  00000000102052AD: B0 01              mov         al,1
  00000000102052AF: B9 9C 13 00 00     mov         ecx,139Ch
  00000000102052B4: CC                 int         3
  00000000102052B5: 48 C1 E0 01        shl         rax,1
  00000000102052B9: 48 8B 4D 20        mov         rcx,qword ptr [rbp+20h]
  00000000102052BD: 48 03 C1           add         rax,rcx
  00000000102052C0: 48 8B 4D F0        mov         rcx,qword ptr [rbp-10h]
  00000000102052C4: 48 3B 4D 18        cmp         rcx,qword ptr [rbp+18h]
  00000000102052C8: 0F 83 05 00 00 00  jae         00000000102052D3
  00000000102052CE: E9 08 00 00 00     jmp         00000000102052DB
  00000000102052D3: B0 01              mov         al,1
  00000000102052D5: B9 A6 13 00 00     mov         ecx,13A6h
  00000000102052DA: CC                 int         3
  00000000102052DB: 48 C1 E1 01        shl         rcx,1
  00000000102052DF: 48 8B 55 10        mov         rdx,qword ptr [rbp+10h]
  00000000102052E3: 48 03 CA           add         rcx,rdx
  00000000102052E6: 0F B7 09           movzx       ecx,word ptr [rcx]
  00000000102052E9: 66 89 08           mov         word ptr [rax],cx
  00000000102052EC: 48 83 45 F0 01     add         qword ptr [rbp-10h],1
  00000000102052F1: E9 6B FF FF FF     jmp         0000000010205261
  00000000102052F6: 48 8B 45 F8        mov         rax,qword ptr [rbp-8]
  00000000102052FA: 48 8B 4D F0        mov         rcx,qword ptr [rbp-10h]
  00000000102052FE: 48 03 C1           add         rax,rcx
  0000000010205301: 48 3B 45 28        cmp         rax,qword ptr [rbp+28h]
  0000000010205305: 0F 83 05 00 00 00  jae         0000000010205310
  000000001020530B: E9 08 00 00 00     jmp         0000000010205318
  0000000010205310: B0 01              mov         al,1
  0000000010205312: B9 BE 13 00 00     mov         ecx,13BEh
  0000000010205317: CC                 int         3
  0000000010205318: 48 C1 E0 01        shl         rax,1
  000000001020531C: 48 8B 4D 20        mov         rcx,qword ptr [rbp+20h]
  0000000010205320: 48 03 C1           add         rax,rcx
  0000000010205323: 31 C9              xor         ecx,ecx
  0000000010205325: 66 89 08           mov         word ptr [rax],cx
  0000000010205328: C9                 leave
  0000000010205329: C3                 ret
  000000001020532A: 55                 push        rbp
  000000001020532B: 48 8B EC           mov         rbp,rsp
  000000001020532E: 56                 push        rsi
  000000001020532F: 57                 push        rdi
  0000000010205330: 48 89 4D 10        mov         qword ptr [rbp+10h],rcx
  0000000010205334: 48 89 55 18        mov         qword ptr [rbp+18h],rdx
  0000000010205338: 48 8B 7D 10        mov         rdi,qword ptr [rbp+10h]
  000000001020533C: 48 8D 35 F3 CC DF  lea         rsi,[0000000010002036h]
                    FF
  0000000010205343: 33 C0              xor         eax,eax
  0000000010205345: 48 83 F8 05        cmp         rax,5
  0000000010205349: 0F 84 3A 00 00 00  je          0000000010205389
  000000001020534F: 66 83 3E 00        cmp         word ptr [rsi],0
  0000000010205353: 0F 84 30 00 00 00  je          0000000010205389
  0000000010205359: 48 3B 45 18        cmp         rax,qword ptr [rbp+18h]
  000000001020535D: 0F 84 4A 00 00 00  je          00000000102053AD
  0000000010205363: 66 8B 0F           mov         cx,word ptr [rdi]
  0000000010205366: 66 85 C9           test        cx,cx
  0000000010205369: 0F 84 3E 00 00 00  je          00000000102053AD
  000000001020536F: 66 3B 0E           cmp         cx,word ptr [rsi]
  0000000010205372: 0F 85 35 00 00 00  jne         00000000102053AD
  0000000010205378: 48 83 C7 02        add         rdi,2
  000000001020537C: 48 83 C6 02        add         rsi,2
  0000000010205380: 48 83 C0 01        add         rax,1
  0000000010205384: E9 BC FF FF FF     jmp         0000000010205345
  0000000010205389: 48 3B 45 18        cmp         rax,qword ptr [rbp+18h]
  000000001020538D: 0F 84 0A 00 00 00  je          000000001020539D
  0000000010205393: 66 83 3F 00        cmp         word ptr [rdi],0
  0000000010205397: 0F 85 10 00 00 00  jne         00000000102053AD
  000000001020539D: B8 01 00 00 00     mov         eax,1
  00000000102053A2: 88 05 FD D1 DF FF  mov         byte ptr [00000000100025A5h],al
  00000000102053A8: E9 F0 00 00 00     jmp         000000001020549D
  00000000102053AD: 48 8B 7D 10        mov         rdi,qword ptr [rbp+10h]
  00000000102053B1: 48 8D 35 6E CC DF  lea         rsi,[0000000010002026h]
                    FF
  00000000102053B8: 33 C0              xor         eax,eax
  00000000102053BA: 48 83 F8 08        cmp         rax,8
  00000000102053BE: 0F 84 3A 00 00 00  je          00000000102053FE
  00000000102053C4: 66 83 3E 00        cmp         word ptr [rsi],0
  00000000102053C8: 0F 84 30 00 00 00  je          00000000102053FE
  00000000102053CE: 48 3B 45 18        cmp         rax,qword ptr [rbp+18h]
  00000000102053D2: 0F 84 55 00 00 00  je          000000001020542D
  00000000102053D8: 66 8B 0F           mov         cx,word ptr [rdi]
  00000000102053DB: 66 85 C9           test        cx,cx
  00000000102053DE: 0F 84 49 00 00 00  je          000000001020542D
  00000000102053E4: 66 3B 0E           cmp         cx,word ptr [rsi]
  00000000102053E7: 0F 85 40 00 00 00  jne         000000001020542D
  00000000102053ED: 48 83 C7 02        add         rdi,2
  00000000102053F1: 48 83 C6 02        add         rsi,2
  00000000102053F5: 48 83 C0 01        add         rax,1
  00000000102053F9: E9 BC FF FF FF     jmp         00000000102053BA
  00000000102053FE: 48 3B 45 18        cmp         rax,qword ptr [rbp+18h]
  0000000010205402: 0F 84 0A 00 00 00  je          0000000010205412
  0000000010205408: 66 83 3F 00        cmp         word ptr [rdi],0
  000000001020540C: 0F 85 1B 00 00 00  jne         000000001020542D
  0000000010205412: B8 01 00 00 00     mov         eax,1
  0000000010205417: 88 05 88 D1 DF FF  mov         byte ptr [00000000100025A5h],al
  000000001020541D: B8 01 00 00 00     mov         eax,1
  0000000010205422: 88 05 7E D1 DF FF  mov         byte ptr [00000000100025A6h],al
  0000000010205428: E9 70 00 00 00     jmp         000000001020549D
  000000001020542D: 48 8B 7D 10        mov         rdi,qword ptr [rbp+10h]
  0000000010205431: 48 8D 35 E2 CB DF  lea         rsi,[000000001000201Ah]
                    FF
  0000000010205438: 33 C0              xor         eax,eax
  000000001020543A: 48 83 F8 06        cmp         rax,6
  000000001020543E: 0F 84 3A 00 00 00  je          000000001020547E
  0000000010205444: 66 83 3E 00        cmp         word ptr [rsi],0
  0000000010205448: 0F 84 30 00 00 00  je          000000001020547E
  000000001020544E: 48 3B 45 18        cmp         rax,qword ptr [rbp+18h]
  0000000010205452: 0F 84 45 00 00 00  je          000000001020549D
  0000000010205458: 66 8B 0F           mov         cx,word ptr [rdi]
  000000001020545B: 66 85 C9           test        cx,cx
  000000001020545E: 0F 84 39 00 00 00  je          000000001020549D
  0000000010205464: 66 3B 0E           cmp         cx,word ptr [rsi]
  0000000010205467: 0F 85 30 00 00 00  jne         000000001020549D
  000000001020546D: 48 83 C7 02        add         rdi,2
  0000000010205471: 48 83 C6 02        add         rsi,2
  0000000010205475: 48 83 C0 01        add         rax,1
  0000000010205479: E9 BC FF FF FF     jmp         000000001020543A
  000000001020547E: 48 3B 45 18        cmp         rax,qword ptr [rbp+18h]
  0000000010205482: 0F 84 0A 00 00 00  je          0000000010205492
  0000000010205488: 66 83 3F 00        cmp         word ptr [rdi],0
  000000001020548C: 0F 85 0B 00 00 00  jne         000000001020549D
  0000000010205492: B8 01 00 00 00     mov         eax,1
  0000000010205497: 88 05 0A D1 DF FF  mov         byte ptr [00000000100025A7h],al
  000000001020549D: 5F                 pop         rdi
  000000001020549E: 5E                 pop         rsi
  000000001020549F: C9                 leave
  00000000102054A0: C3                 ret
  00000000102054A1: 55                 push        rbp
  00000000102054A2: 48 8B EC           mov         rbp,rsp
  00000000102054A5: 48 89 4D 10        mov         qword ptr [rbp+10h],rcx
  00000000102054A9: 48 8B 45 10        mov         rax,qword ptr [rbp+10h]
  00000000102054AD: 48 85 C0           test        rax,rax
  00000000102054B0: 0F 84 05 00 00 00  je          00000000102054BB
  00000000102054B6: E9 08 00 00 00     jmp         00000000102054C3
  00000000102054BB: B0 04              mov         al,4
  00000000102054BD: B9 C3 15 00 00     mov         ecx,15C3h
  00000000102054C2: CC                 int         3
  00000000102054C3: 48 8B 00           mov         rax,qword ptr [rax]
  00000000102054C6: 48 83 F8 07        cmp         rax,7
  00000000102054CA: 0F 85 31 00 00 00  jne         0000000010205501
  00000000102054D0: 48 8B 45 10        mov         rax,qword ptr [rbp+10h]
  00000000102054D4: 48 85 C0           test        rax,rax
  00000000102054D7: 0F 84 05 00 00 00  je          00000000102054E2
  00000000102054DD: E9 08 00 00 00     jmp         00000000102054EA
  00000000102054E2: B0 04              mov         al,4
  00000000102054E4: B9 D8 15 00 00     mov         ecx,15D8h
  00000000102054E9: CC                 int         3
  00000000102054EA: 48 8B 40 20        mov         rax,qword ptr [rax+20h]
  00000000102054EE: 48 85 C0           test        rax,rax
  00000000102054F1: 0F 8D 0A 00 00 00  jge         0000000010205501
  00000000102054F7: B8 01 00 00 00     mov         eax,1
  00000000102054FC: E9 02 00 00 00     jmp         0000000010205503
  0000000010205501: 31 C0              xor         eax,eax
  0000000010205503: C9                 leave
  0000000010205504: C3                 ret
  0000000010205505: 55                 push        rbp
  0000000010205506: 48 8B EC           mov         rbp,rsp
  0000000010205509: 48 89 4D 10        mov         qword ptr [rbp+10h],rcx
  000000001020550D: 48 8B 45 10        mov         rax,qword ptr [rbp+10h]
  0000000010205511: 48 85 C0           test        rax,rax
  0000000010205514: 0F 84 05 00 00 00  je          000000001020551F
  000000001020551A: E9 08 00 00 00     jmp         0000000010205527
  000000001020551F: B0 04              mov         al,4
  0000000010205521: B9 30 16 00 00     mov         ecx,1630h
  0000000010205526: CC                 int         3
  0000000010205527: 48 8B 00           mov         rax,qword ptr [rax]
  000000001020552A: 48 83 F8 07        cmp         rax,7
  000000001020552E: 0F 85 31 00 00 00  jne         0000000010205565
  0000000010205534: 48 8B 45 10        mov         rax,qword ptr [rbp+10h]
  0000000010205538: 48 85 C0           test        rax,rax
  000000001020553B: 0F 84 05 00 00 00  je          0000000010205546
  0000000010205541: E9 08 00 00 00     jmp         000000001020554E
  0000000010205546: B0 04              mov         al,4
  0000000010205548: B9 45 16 00 00     mov         ecx,1645h
  000000001020554D: CC                 int         3
  000000001020554E: 48 8B 40 20        mov         rax,qword ptr [rax+20h]
  0000000010205552: 48 85 C0           test        rax,rax
  0000000010205555: 0F 8C 0A 00 00 00  jl          0000000010205565
  000000001020555B: B8 01 00 00 00     mov         eax,1
  0000000010205560: E9 02 00 00 00     jmp         0000000010205567
  0000000010205565: 31 C0              xor         eax,eax
  0000000010205567: C9                 leave
  0000000010205568: C3                 ret
  0000000010205569: 55                 push        rbp
  000000001020556A: 48 8B EC           mov         rbp,rsp
  000000001020556D: 48 89 4D 10        mov         qword ptr [rbp+10h],rcx
  0000000010205571: 48 8B 45 10        mov         rax,qword ptr [rbp+10h]
  0000000010205575: 48 8B 0D 44 FA FF  mov         rcx,qword ptr [0000000010204FC0h]
                    FF
  000000001020557C: 48 3B C1           cmp         rax,rcx
  000000001020557F: 0F 84 68 00 00 00  je          00000000102055ED
  0000000010205585: 48 8B 45 10        mov         rax,qword ptr [rbp+10h]
  0000000010205589: 48 85 C0           test        rax,rax
  000000001020558C: 0F 84 05 00 00 00  je          0000000010205597
  0000000010205592: E9 08 00 00 00     jmp         000000001020559F
  0000000010205597: B0 04              mov         al,4
  0000000010205599: B9 A7 16 00 00     mov         ecx,16A7h
  000000001020559E: CC                 int         3
  000000001020559F: 48 8B 00           mov         rax,qword ptr [rax]
  00000000102055A2: 48 83 F8 07        cmp         rax,7
  00000000102055A6: 0F 85 4B 00 00 00  jne         00000000102055F7
  00000000102055AC: 48 8B 45 10        mov         rax,qword ptr [rbp+10h]
  00000000102055B0: 48 85 C0           test        rax,rax
  00000000102055B3: 0F 84 05 00 00 00  je          00000000102055BE
  00000000102055B9: E9 08 00 00 00     jmp         00000000102055C6
  00000000102055BE: B0 04              mov         al,4
  00000000102055C0: B9 BB 16 00 00     mov         ecx,16BBh
  00000000102055C5: CC                 int         3
  00000000102055C6: 48 8B 40 40        mov         rax,qword ptr [rax+40h]
  00000000102055CA: 48 85 C0           test        rax,rax
  00000000102055CD: 0F 84 05 00 00 00  je          00000000102055D8
  00000000102055D3: E9 08 00 00 00     jmp         00000000102055E0
  00000000102055D8: B0 04              mov         al,4
  00000000102055DA: B9 C0 16 00 00     mov         ecx,16C0h
  00000000102055DF: CC                 int         3
  00000000102055E0: 48 8B 00           mov         rax,qword ptr [rax]
  00000000102055E3: 48 83 F8 03        cmp         rax,3
  00000000102055E7: 0F 85 0A 00 00 00  jne         00000000102055F7
  00000000102055ED: B8 01 00 00 00     mov         eax,1
  00000000102055F2: E9 02 00 00 00     jmp         00000000102055F9
  00000000102055F7: 31 C0              xor         eax,eax
  00000000102055F9: C9                 leave
  00000000102055FA: C3                 ret
  00000000102055FB: 55                 push        rbp
  00000000102055FC: 48 8B EC           mov         rbp,rsp
  00000000102055FF: 48 83 EC 10        sub         rsp,10h
  0000000010205603: 48 89 4D 10        mov         qword ptr [rbp+10h],rcx
  0000000010205607: 48 C7 45 F8 00 00  mov         qword ptr [rbp-8],0
                    00 00
  000000001020560F: 48 83 EC 20        sub         rsp,20h
  0000000010205613: 48 8B 0D 36 CF DF  mov         rcx,qword ptr [0000000010002550h]
                    FF
  000000001020561A: BA 08 00 00 00     mov         edx,8
  000000001020561F: 41 B8 58 00 00 00  mov         r8d,58h
  0000000010205625: FF 15 4D CF DF FF  call        qword ptr [0000000010002578h]
  000000001020562B: 48 83 C4 20        add         rsp,20h
  000000001020562F: 48 83 C0 10        add         rax,10h
  0000000010205633: 48 8D 0D 06 CB DF  lea         rcx,[0000000010002140h]
                    FF
  000000001020563A: 48 89 48 F8        mov         qword ptr [rax-8],rcx
  000000001020563E: 48 89 45 F8        mov         qword ptr [rbp-8],rax
  0000000010205642: 48 8B 45 F8        mov         rax,qword ptr [rbp-8]
  0000000010205646: 48 85 C0           test        rax,rax
  0000000010205649: 0F 84 05 00 00 00  je          0000000010205654
  000000001020564F: E9 08 00 00 00     jmp         000000001020565C
  0000000010205654: B0 04              mov         al,4
  0000000010205656: B9 C6 17 00 00     mov         ecx,17C6h
  000000001020565B: CC                 int         3
  000000001020565C: B9 03 00 00 00     mov         ecx,3
  0000000010205661: 48 89 08           mov         qword ptr [rax],rcx
  0000000010205664: 48 8B 45 F8        mov         rax,qword ptr [rbp-8]
  0000000010205668: 48 85 C0           test        rax,rax
  000000001020566B: 0F 84 05 00 00 00  je          0000000010205676
  0000000010205671: E9 08 00 00 00     jmp         000000001020567E
  0000000010205676: B0 04              mov         al,4
  0000000010205678: B9 D7 17 00 00     mov         ecx,17D7h
  000000001020567D: CC                 int         3
  000000001020567E: 31 C9              xor         ecx,ecx
  0000000010205680: 88 48 40           mov         byte ptr [rax+40h],cl
  0000000010205683: 48 8B 45 F8        mov         rax,qword ptr [rbp-8]
  0000000010205687: 48 85 C0           test        rax,rax
  000000001020568A: 0F 84 05 00 00 00  je          0000000010205695
  0000000010205690: E9 08 00 00 00     jmp         000000001020569D
  0000000010205695: B0 04              mov         al,4
  0000000010205697: B9 EB 17 00 00     mov         ecx,17EBh
  000000001020569C: CC                 int         3
  000000001020569D: 48 8B 4D 10        mov         rcx,qword ptr [rbp+10h]
  00000000102056A1: 48 89 48 08        mov         qword ptr [rax+8],rcx
  00000000102056A5: 48 8B 45 F8        mov         rax,qword ptr [rbp-8]
  00000000102056A9: 48 85 C0           test        rax,rax
  00000000102056AC: 0F 84 05 00 00 00  je          00000000102056B7
  00000000102056B2: E9 08 00 00 00     jmp         00000000102056BF
  00000000102056B7: B0 04              mov         al,4
  00000000102056B9: B9 F9 17 00 00     mov         ecx,17F9h
  00000000102056BE: CC                 int         3
  00000000102056BF: 48 8B 0D C2 F7 FF  mov         rcx,qword ptr [0000000010204E88h]
                    FF
  00000000102056C6: 48 89 48 38        mov         qword ptr [rax+38h],rcx
  00000000102056CA: 48 8B 45 F8        mov         rax,qword ptr [rbp-8]
  00000000102056CE: C9                 leave
  00000000102056CF: C3                 ret
  00000000102056D0: 55                 push        rbp
  00000000102056D1: 48 8B EC           mov         rbp,rsp
  00000000102056D4: 48 83 EC 10        sub         rsp,10h
  00000000102056D8: 48 89 4D 10        mov         qword ptr [rbp+10h],rcx
  00000000102056DC: 48 89 55 18        mov         qword ptr [rbp+18h],rdx
  00000000102056E0: 48 C7 45 F8 00 00  mov         qword ptr [rbp-8],0
                    00 00
  00000000102056E8: 48 83 EC 20        sub         rsp,20h
  00000000102056EC: 48 8B 0D 5D CE DF  mov         rcx,qword ptr [0000000010002550h]
                    FF
  00000000102056F3: BA 08 00 00 00     mov         edx,8
  00000000102056F8: 41 B8 40 00 00 00  mov         r8d,40h
  00000000102056FE: FF 15 74 CE DF FF  call        qword ptr [0000000010002578h]
  0000000010205704: 48 83 C4 20        add         rsp,20h
  0000000010205708: 48 83 C0 10        add         rax,10h
  000000001020570C: 48 8D 0D 8D C9 DF  lea         rcx,[00000000100020A0h]
                    FF
  0000000010205713: 48 89 48 F8        mov         qword ptr [rax-8],rcx
  0000000010205717: 48 89 45 F8        mov         qword ptr [rbp-8],rax
  000000001020571B: 48 8B 45 F8        mov         rax,qword ptr [rbp-8]
  000000001020571F: 48 85 C0           test        rax,rax
  0000000010205722: 0F 84 05 00 00 00  je          000000001020572D
  0000000010205728: E9 08 00 00 00     jmp         0000000010205735
  000000001020572D: B0 04              mov         al,4
  000000001020572F: B9 7A 18 00 00     mov         ecx,187Ah
  0000000010205734: CC                 int         3
  0000000010205735: B9 04 00 00 00     mov         ecx,4
  000000001020573A: 48 89 08           mov         qword ptr [rax],rcx
  000000001020573D: 48 8B 45 F8        mov         rax,qword ptr [rbp-8]
  0000000010205741: 48 85 C0           test        rax,rax
  0000000010205744: 0F 84 05 00 00 00  je          000000001020574F
  000000001020574A: E9 08 00 00 00     jmp         0000000010205757
  000000001020574F: B0 04              mov         al,4
  0000000010205751: B9 8F 18 00 00     mov         ecx,188Fh
  0000000010205756: CC                 int         3
  0000000010205757: 48 8B 4D 10        mov         rcx,qword ptr [rbp+10h]
  000000001020575B: 48 89 48 08        mov         qword ptr [rax+8],rcx
  000000001020575F: 48 8B 45 F8        mov         rax,qword ptr [rbp-8]
  0000000010205763: 48 85 C0           test        rax,rax
  0000000010205766: 0F 84 05 00 00 00  je          0000000010205771
  000000001020576C: E9 08 00 00 00     jmp         0000000010205779
  0000000010205771: B0 04              mov         al,4
  0000000010205773: B9 9D 18 00 00     mov         ecx,189Dh
  0000000010205778: CC                 int         3
  0000000010205779: 48 8B 4D 18        mov         rcx,qword ptr [rbp+18h]
  000000001020577D: 48 89 48 28        mov         qword ptr [rax+28h],rcx
  0000000010205781: 48 8B 45 F8        mov         rax,qword ptr [rbp-8]
  0000000010205785: C9                 leave
  0000000010205786: C3                 ret
  0000000010205787: 55                 push        rbp
  0000000010205788: 48 8B EC           mov         rbp,rsp
  000000001020578B: 48 83 EC 10        sub         rsp,10h
  000000001020578F: 48 89 4D 10        mov         qword ptr [rbp+10h],rcx
  0000000010205793: 48 89 55 18        mov         qword ptr [rbp+18h],rdx
  0000000010205797: 4C 89 45 20        mov         qword ptr [rbp+20h],r8
  000000001020579B: 48 C7 45 F8 00 00  mov         qword ptr [rbp-8],0
                    00 00
  00000000102057A3: 48 83 EC 20        sub         rsp,20h
  00000000102057A7: 48 8B 0D A2 CD DF  mov         rcx,qword ptr [0000000010002550h]
                    FF
  00000000102057AE: BA 08 00 00 00     mov         edx,8
  00000000102057B3: 41 B8 58 00 00 00  mov         r8d,58h
  00000000102057B9: FF 15 B9 CD DF FF  call        qword ptr [0000000010002578h]
  00000000102057BF: 48 83 C4 20        add         rsp,20h
  00000000102057C3: 48 83 C0 10        add         rax,10h
  00000000102057C7: 48 8D 0D C2 C9 DF  lea         rcx,[0000000010002190h]
                    FF
  00000000102057CE: 48 89 48 F8        mov         qword ptr [rax-8],rcx
  00000000102057D2: 48 89 45 F8        mov         qword ptr [rbp-8],rax
  00000000102057D6: 48 8B 45 F8        mov         rax,qword ptr [rbp-8]
  00000000102057DA: 48 85 C0           test        rax,rax
  00000000102057DD: 0F 84 05 00 00 00  je          00000000102057E8
  00000000102057E3: E9 08 00 00 00     jmp         00000000102057F0
  00000000102057E8: B0 04              mov         al,4
  00000000102057EA: B9 20 19 00 00     mov         ecx,1920h
  00000000102057EF: CC                 int         3
  00000000102057F0: B9 03 00 00 00     mov         ecx,3
  00000000102057F5: 48 89 08           mov         qword ptr [rax],rcx
  00000000102057F8: 48 8B 45 F8        mov         rax,qword ptr [rbp-8]
  00000000102057FC: 48 85 C0           test        rax,rax
  00000000102057FF: 0F 84 05 00 00 00  je          000000001020580A
  0000000010205805: E9 08 00 00 00     jmp         0000000010205812
  000000001020580A: B0 04              mov         al,4
  000000001020580C: B9 33 19 00 00     mov         ecx,1933h
  0000000010205811: CC                 int         3
  0000000010205812: 48 8B 4D 18        mov         rcx,qword ptr [rbp+18h]
  0000000010205816: 48 89 48 08        mov         qword ptr [rax+8],rcx
  000000001020581A: 48 8B 45 F8        mov         rax,qword ptr [rbp-8]
  000000001020581E: 48 85 C0           test        rax,rax
  0000000010205821: 0F 84 05 00 00 00  je          000000001020582C
  0000000010205827: E9 08 00 00 00     jmp         0000000010205834
  000000001020582C: B0 04              mov         al,4
  000000001020582E: B9 41 19 00 00     mov         ecx,1941h
  0000000010205833: CC                 int         3
  0000000010205834: 48 8B 0D 4D F6 FF  mov         rcx,qword ptr [0000000010204E88h]
                    FF
  000000001020583B: 48 89 48 38        mov         qword ptr [rax+38h],rcx
  000000001020583F: 48 8B 45 F8        mov         rax,qword ptr [rbp-8]
  0000000010205843: 48 85 C0           test        rax,rax
  0000000010205846: 0F 84 05 00 00 00  je          0000000010205851
  000000001020584C: E9 08 00 00 00     jmp         0000000010205859
  0000000010205851: B0 04              mov         al,4
  0000000010205853: B9 54 19 00 00     mov         ecx,1954h
  0000000010205858: CC                 int         3
  0000000010205859: 0F B6 4D 20        movzx       ecx,byte ptr [rbp+20h]
  000000001020585D: 88 48 41           mov         byte ptr [rax+41h],cl
  0000000010205860: 48 8B 45 10        mov         rax,qword ptr [rbp+10h]
  0000000010205864: 48 85 C0           test        rax,rax
  0000000010205867: 0F 84 05 00 00 00  je          0000000010205872
  000000001020586D: E9 08 00 00 00     jmp         000000001020587A
  0000000010205872: B0 04              mov         al,4
  0000000010205874: B9 6F 19 00 00     mov         ecx,196Fh
  0000000010205879: CC                 int         3
  000000001020587A: 48 83 40 58 01     add         qword ptr [rax+58h],1
  000000001020587F: 48 8B 45 F8        mov         rax,qword ptr [rbp-8]
  0000000010205883: 48 85 C0           test        rax,rax
  0000000010205886: 0F 84 05 00 00 00  je          0000000010205891
  000000001020588C: E9 08 00 00 00     jmp         0000000010205899
  0000000010205891: B0 04              mov         al,4
  0000000010205893: B9 7B 19 00 00     mov         ecx,197Bh
  0000000010205898: CC                 int         3
  0000000010205899: 0F B6 4D 20        movzx       ecx,byte ptr [rbp+20h]
  000000001020589D: 85 C9              test        ecx,ecx
  000000001020589F: 0F 85 36 00 00 00  jne         00000000102058DB
  00000000102058A5: 48 8B 4D 18        mov         rcx,qword ptr [rbp+18h]
  00000000102058A9: 48 85 C9           test        rcx,rcx
  00000000102058AC: 0F 84 05 00 00 00  je          00000000102058B7
  00000000102058B2: E9 08 00 00 00     jmp         00000000102058BF
  00000000102058B7: B0 04              mov         al,4
  00000000102058B9: B9 92 19 00 00     mov         ecx,1992h
  00000000102058BE: CC                 int         3
  00000000102058BF: 48 8B 09           mov         rcx,qword ptr [rcx]
  00000000102058C2: BA 80 01 00 00     mov         edx,180h
  00000000102058C7: 48 0F A3 CA        bt          rdx,rcx
  00000000102058CB: 0F 83 0A 00 00 00  jae         00000000102058DB
  00000000102058D1: B9 01 00 00 00     mov         ecx,1
  00000000102058D6: E9 02 00 00 00     jmp         00000000102058DD
  00000000102058DB: 31 C9              xor         ecx,ecx
  00000000102058DD: 88 48 40           mov         byte ptr [rax+40h],cl
  00000000102058E0: 48 8B 45 F8        mov         rax,qword ptr [rbp-8]
  00000000102058E4: C9                 leave
  00000000102058E5: C3                 ret
  00000000102058E6: 55                 push        rbp
  00000000102058E7: 48 8B EC           mov         rbp,rsp
  00000000102058EA: 48 83 EC 10        sub         rsp,10h
  00000000102058EE: 48 89 4D 10        mov         qword ptr [rbp+10h],rcx
  00000000102058F2: 48 89 55 18        mov         qword ptr [rbp+18h],rdx
  00000000102058F6: 48 C7 45 F8 00 00  mov         qword ptr [rbp-8],0
                    00 00
  00000000102058FE: 48 83 EC 20        sub         rsp,20h
  0000000010205902: 48 8B 0D 47 CC DF  mov         rcx,qword ptr [0000000010002550h]
                    FF
  0000000010205909: BA 08 00 00 00     mov         edx,8
  000000001020590E: 41 B8 40 00 00 00  mov         r8d,40h
  0000000010205914: FF 15 5E CC DF FF  call        qword ptr [0000000010002578h]
  000000001020591A: 48 83 C4 20        add         rsp,20h
  000000001020591E: 48 83 C0 10        add         rax,10h
  0000000010205922: 48 8D 0D C7 C7 DF  lea         rcx,[00000000100020F0h]
                    FF
  0000000010205929: 48 89 48 F8        mov         qword ptr [rax-8],rcx
  000000001020592D: 48 89 45 F8        mov         qword ptr [rbp-8],rax
  0000000010205931: 48 8B 45 F8        mov         rax,qword ptr [rbp-8]
  0000000010205935: 48 85 C0           test        rax,rax
  0000000010205938: 0F 84 05 00 00 00  je          0000000010205943
  000000001020593E: E9 08 00 00 00     jmp         000000001020594B
  0000000010205943: B0 04              mov         al,4
  0000000010205945: B9 1A 1A 00 00     mov         ecx,1A1Ah
  000000001020594A: CC                 int         3
  000000001020594B: B9 06 00 00 00     mov         ecx,6
  0000000010205950: 48 89 08           mov         qword ptr [rax],rcx
  0000000010205953: 48 8B 45 F8        mov         rax,qword ptr [rbp-8]
  0000000010205957: 48 85 C0           test        rax,rax
  000000001020595A: 0F 84 05 00 00 00  je          0000000010205965
  0000000010205960: E9 08 00 00 00     jmp         000000001020596D
  0000000010205965: B0 04              mov         al,4
  0000000010205967: B9 31 1A 00 00     mov         ecx,1A31h
  000000001020596C: CC                 int         3
  000000001020596D: 48 8B 4D 18        mov         rcx,qword ptr [rbp+18h]
  0000000010205971: 48 89 48 08        mov         qword ptr [rax+8],rcx
  0000000010205975: 48 8B 45 10        mov         rax,qword ptr [rbp+10h]
  0000000010205979: 48 85 C0           test        rax,rax
  000000001020597C: 0F 84 05 00 00 00  je          0000000010205987
  0000000010205982: E9 08 00 00 00     jmp         000000001020598F
  0000000010205987: B0 04              mov         al,4
  0000000010205989: B9 41 1A 00 00     mov         ecx,1A41h
  000000001020598E: CC                 int         3
  000000001020598F: 48 8B 4D 10        mov         rcx,qword ptr [rbp+10h]
  0000000010205993: 48 85 C9           test        rcx,rcx
  0000000010205996: 0F 84 05 00 00 00  je          00000000102059A1
  000000001020599C: E9 08 00 00 00     jmp         00000000102059A9
  00000000102059A1: B0 04              mov         al,4
  00000000102059A3: B9 4D 1A 00 00     mov         ecx,1A4Dh
  00000000102059A8: CC                 int         3
  00000000102059A9: 48 8B 49 18        mov         rcx,qword ptr [rcx+18h]
  00000000102059AD: 48 8B 55 18        mov         rdx,qword ptr [rbp+18h]
  00000000102059B1: 48 85 D2           test        rdx,rdx
  00000000102059B4: 0F 84 05 00 00 00  je          00000000102059BF
  00000000102059BA: E9 08 00 00 00     jmp         00000000102059C7
  00000000102059BF: B0 04              mov         al,4
  00000000102059C1: B9 57 1A 00 00     mov         ecx,1A57h
  00000000102059C6: CC                 int         3
  00000000102059C7: 48 8B 52 18        mov         rdx,qword ptr [rdx+18h]
  00000000102059CB: 48 03 CA           add         rcx,rdx
  00000000102059CE: 48 89 48 18        mov         qword ptr [rax+18h],rcx
  00000000102059D2: 48 8B 45 F8        mov         rax,qword ptr [rbp-8]
  00000000102059D6: C9                 leave
  00000000102059D7: C3                 ret
  00000000102059D8: 55                 push        rbp
  00000000102059D9: 48 8B EC           mov         rbp,rsp
  00000000102059DC: 48 83 EC 20        sub         rsp,20h
  00000000102059E0: 48 89 4D 10        mov         qword ptr [rbp+10h],rcx
  00000000102059E4: 48 89 55 18        mov         qword ptr [rbp+18h],rdx
  00000000102059E8: 48 C7 45 F8 00 00  mov         qword ptr [rbp-8],0
                    00 00
  00000000102059F0: 48 C7 45 E8 00 00  mov         qword ptr [rbp-18h],0
                    00 00
  00000000102059F8: 48 83 EC 20        sub         rsp,20h
  00000000102059FC: 48 8B 0D 4D CB DF  mov         rcx,qword ptr [0000000010002550h]
                    FF
  0000000010205A03: BA 08 00 00 00     mov         edx,8
  0000000010205A08: 41 B8 68 00 00 00  mov         r8d,68h
  0000000010205A0E: FF 15 64 CB DF FF  call        qword ptr [0000000010002578h]
  0000000010205A14: 48 83 C4 20        add         rsp,20h
  0000000010205A18: 48 83 C0 10        add         rax,10h
  0000000010205A1C: 48 8D 0D 15 C8 DF  lea         rcx,[0000000010002238h]
                    FF
  0000000010205A23: 48 89 48 F8        mov         qword ptr [rax-8],rcx
  0000000010205A27: 48 89 45 F8        mov         qword ptr [rbp-8],rax
  0000000010205A2B: 48 8B 45 F8        mov         rax,qword ptr [rbp-8]
  0000000010205A2F: 48 85 C0           test        rax,rax
  0000000010205A32: 0F 84 05 00 00 00  je          0000000010205A3D
  0000000010205A38: E9 08 00 00 00     jmp         0000000010205A45
  0000000010205A3D: B0 04              mov         al,4
  0000000010205A3F: B9 E7 1A 00 00     mov         ecx,1AE7h
  0000000010205A44: CC                 int         3
  0000000010205A45: B9 03 00 00 00     mov         ecx,3
  0000000010205A4A: 48 89 08           mov         qword ptr [rax],rcx
  0000000010205A4D: 48 8B 45 F8        mov         rax,qword ptr [rbp-8]
  0000000010205A51: 48 85 C0           test        rax,rax
  0000000010205A54: 0F 84 05 00 00 00  je          0000000010205A5F
  0000000010205A5A: E9 08 00 00 00     jmp         0000000010205A67
  0000000010205A5F: B0 04              mov         al,4
  0000000010205A61: B9 F8 1A 00 00     mov         ecx,1AF8h
  0000000010205A66: CC                 int         3
  0000000010205A67: B9 01 00 00 00     mov         ecx,1
  0000000010205A6C: 88 48 40           mov         byte ptr [rax+40h],cl
  0000000010205A6F: 48 8B 45 F8        mov         rax,qword ptr [rbp-8]
  0000000010205A73: 48 85 C0           test        rax,rax
  0000000010205A76: 0F 84 05 00 00 00  je          0000000010205A81
  0000000010205A7C: E9 08 00 00 00     jmp         0000000010205A89
  0000000010205A81: B0 04              mov         al,4
  0000000010205A83: B9 0B 1B 00 00     mov         ecx,1B0Bh
  0000000010205A88: CC                 int         3
  0000000010205A89: 48 8B 0D 30 F5 FF  mov         rcx,qword ptr [0000000010204FC0h]
                    FF
  0000000010205A90: 48 89 48 08        mov         qword ptr [rax+8],rcx
  0000000010205A94: 48 8B 45 F8        mov         rax,qword ptr [rbp-8]
  0000000010205A98: 48 85 C0           test        rax,rax
  0000000010205A9B: 0F 84 05 00 00 00  je          0000000010205AA6
  0000000010205AA1: E9 08 00 00 00     jmp         0000000010205AAE
  0000000010205AA6: B0 04              mov         al,4
  0000000010205AA8: B9 1E 1B 00 00     mov         ecx,1B1Eh
  0000000010205AAD: CC                 int         3
  0000000010205AAE: 48 8B 0D D3 F3 FF  mov         rcx,qword ptr [0000000010204E88h]
                    FF
  0000000010205AB5: 48 89 48 38        mov         qword ptr [rax+38h],rcx
  0000000010205AB9: 48 8B 45 F8        mov         rax,qword ptr [rbp-8]
  0000000010205ABD: 48 85 C0           test        rax,rax
  0000000010205AC0: 0F 84 05 00 00 00  je          0000000010205ACB
  0000000010205AC6: E9 08 00 00 00     jmp         0000000010205AD3
  0000000010205ACB: B0 04              mov         al,4
  0000000010205ACD: B9 2F 1B 00 00     mov         ecx,1B2Fh
  0000000010205AD2: CC                 int         3
  0000000010205AD3: 48 8B 4D 18        mov         rcx,qword ptr [rbp+18h]
  0000000010205AD7: 48 89 48 50        mov         qword ptr [rax+50h],rcx
  0000000010205ADB: 48 8B 45 F8        mov         rax,qword ptr [rbp-8]
  0000000010205ADF: 48 85 C0           test        rax,rax
  0000000010205AE2: 0F 84 05 00 00 00  je          0000000010205AED
  0000000010205AE8: E9 08 00 00 00     jmp         0000000010205AF5
  0000000010205AED: B0 04              mov         al,4
  0000000010205AEF: B9 43 1B 00 00     mov         ecx,1B43h
  0000000010205AF4: CC                 int         3
  0000000010205AF5: 48 8B 40 38        mov         rax,qword ptr [rax+38h]
  0000000010205AF9: 48 83 F8 FF        cmp         rax,0FFFFFFFFFFFFFFFFh
  0000000010205AFD: 0F 8C D2 01 00 00  jl          0000000010205CD5
  0000000010205B03: 48 8B 05 9E CA DF  mov         rax,qword ptr [00000000100025A8h]
                    FF
  0000000010205B0A: 48 8B 4D 18        mov         rcx,qword ptr [rbp+18h]
  0000000010205B0E: 48 03 C1           add         rax,rcx
  0000000010205B11: 48 81 F8 00 00 10  cmp         rax,100000h
                    00
  0000000010205B18: 0F 8C 47 00 00 00  jl          0000000010205B65
  0000000010205B1E: 48 83 EC 20        sub         rsp,20h
  0000000010205B22: 48 8D 0D C5 C4 DF  lea         rcx,[0000000010001FEEh]
                    FF
  0000000010205B29: BA 11 00 00 00     mov         edx,11h
  0000000010205B2E: FF 15 DC C4 DF FF  call        qword ptr [0000000010002010h]
  0000000010205B34: 48 83 C4 20        add         rsp,20h
  0000000010205B38: 48 8B 45 F8        mov         rax,qword ptr [rbp-8]
  0000000010205B3C: 48 85 C0           test        rax,rax
  0000000010205B3F: 0F 84 05 00 00 00  je          0000000010205B4A
  0000000010205B45: E9 08 00 00 00     jmp         0000000010205B52
  0000000010205B4A: B0 04              mov         al,4
  0000000010205B4C: B9 BC 1B 00 00     mov         ecx,1BBCh
  0000000010205B51: CC                 int         3
  0000000010205B52: 48 B9 FF FF FF FF  mov         rcx,0FFFFFFFFFFFFFFFFh
                    FF FF FF FF
  0000000010205B5C: 48 89 48 48        mov         qword ptr [rax+48h],rcx
  0000000010205B60: E9 6B 01 00 00     jmp         0000000010205CD0
  0000000010205B65: 48 8B 45 F8        mov         rax,qword ptr [rbp-8]
  0000000010205B69: 48 85 C0           test        rax,rax
  0000000010205B6C: 0F 84 05 00 00 00  je          0000000010205B77
  0000000010205B72: E9 08 00 00 00     jmp         0000000010205B7F
  0000000010205B77: B0 04              mov         al,4
  0000000010205B79: B9 D3 1B 00 00     mov         ecx,1BD3h
  0000000010205B7E: CC                 int         3
  0000000010205B7F: 48 8B 0D 22 CA DF  mov         rcx,qword ptr [00000000100025A8h]
                    FF
  0000000010205B86: 48 89 48 48        mov         qword ptr [rax+48h],rcx
  0000000010205B8A: 48 8B 05 17 CA DF  mov         rax,qword ptr [00000000100025A8h]
                    FF
  0000000010205B91: 48 8B 4D 18        mov         rcx,qword ptr [rbp+18h]
  0000000010205B95: 48 03 C1           add         rax,rcx
  0000000010205B98: 48 89 05 09 CA DF  mov         qword ptr [00000000100025A8h],rax
                    FF
  0000000010205B9F: 31 C0              xor         eax,eax
  0000000010205BA1: 48 89 45 F0        mov         qword ptr [rbp-10h],rax
  0000000010205BA5: 48 8B 45 18        mov         rax,qword ptr [rbp+18h]
  0000000010205BA9: 48 83 E8 01        sub         rax,1
  0000000010205BAD: 48 89 45 E0        mov         qword ptr [rbp-20h],rax
  0000000010205BB1: 48 8B 45 F0        mov         rax,qword ptr [rbp-10h]
  0000000010205BB5: 48 3B 45 E0        cmp         rax,qword ptr [rbp-20h]
  0000000010205BB9: 0F 8F 86 00 00 00  jg          0000000010205C45
  0000000010205BBF: 48 8B 45 F8        mov         rax,qword ptr [rbp-8]
  0000000010205BC3: 48 85 C0           test        rax,rax
  0000000010205BC6: 0F 84 05 00 00 00  je          0000000010205BD1
  0000000010205BCC: E9 08 00 00 00     jmp         0000000010205BD9
  0000000010205BD1: B0 04              mov         al,4
  0000000010205BD3: B9 2F 1C 00 00     mov         ecx,1C2Fh
  0000000010205BD8: CC                 int         3
  0000000010205BD9: 48 8B 40 48        mov         rax,qword ptr [rax+48h]
  0000000010205BDD: 48 8B 4D F0        mov         rcx,qword ptr [rbp-10h]
  0000000010205BE1: 48 03 C1           add         rax,rcx
  0000000010205BE4: 48 81 F8 00 00 10  cmp         rax,100000h
                    00
  0000000010205BEB: 0F 83 05 00 00 00  jae         0000000010205BF6
  0000000010205BF1: E9 08 00 00 00     jmp         0000000010205BFE
  0000000010205BF6: B0 01              mov         al,1
  0000000010205BF8: B9 38 1C 00 00     mov         ecx,1C38h
  0000000010205BFD: CC                 int         3
  0000000010205BFE: 48 C1 E0 01        shl         rax,1
  0000000010205C02: 48 8D 0D A7 C9 DF  lea         rcx,[00000000100025B0h]
                    FF
  0000000010205C09: 48 03 C1           add         rax,rcx
  0000000010205C0C: 48 8B 4D F0        mov         rcx,qword ptr [rbp-10h]
  0000000010205C10: 48 81 F9 00 01 00  cmp         rcx,100h
                    00
  0000000010205C17: 0F 83 05 00 00 00  jae         0000000010205C22
  0000000010205C1D: E9 08 00 00 00     jmp         0000000010205C2A
  0000000010205C22: B0 01              mov         al,1
  0000000010205C24: B9 42 1C 00 00     mov         ecx,1C42h
  0000000010205C29: CC                 int         3
  0000000010205C2A: 48 C1 E1 01        shl         rcx,1
  0000000010205C2E: 48 8B 55 10        mov         rdx,qword ptr [rbp+10h]
  0000000010205C32: 48 03 CA           add         rcx,rdx
  0000000010205C35: 0F B7 09           movzx       ecx,word ptr [rcx]
  0000000010205C38: 66 89 08           mov         word ptr [rax],cx
  0000000010205C3B: 48 83 45 F0 01     add         qword ptr [rbp-10h],1
  0000000010205C40: E9 6C FF FF FF     jmp         0000000010205BB1
  0000000010205C45: 48 83 EC 20        sub         rsp,20h
  0000000010205C49: 48 8B 0D 00 C9 DF  mov         rcx,qword ptr [0000000010002550h]
                    FF
  0000000010205C50: BA 08 00 00 00     mov         edx,8
  0000000010205C55: 41 B8 A8 00 00 00  mov         r8d,0A8h
  0000000010205C5B: FF 15 17 C9 DF FF  call        qword ptr [0000000010002578h]
  0000000010205C61: 48 83 C4 20        add         rsp,20h
  0000000010205C65: 48 83 C0 10        add         rax,10h
  0000000010205C69: 48 8D 0D 00 C8 DF  lea         rcx,[0000000010002470h]
                    FF
  0000000010205C70: 48 89 48 F8        mov         qword ptr [rax-8],rcx
  0000000010205C74: 48 89 45 E8        mov         qword ptr [rbp-18h],rax
  0000000010205C78: 48 8B 45 E8        mov         rax,qword ptr [rbp-18h]
  0000000010205C7C: 48 85 C0           test        rax,rax
  0000000010205C7F: 0F 84 05 00 00 00  je          0000000010205C8A
  0000000010205C85: E9 08 00 00 00     jmp         0000000010205C92
  0000000010205C8A: B0 04              mov         al,4
  0000000010205C8C: B9 56 1C 00 00     mov         ecx,1C56h
  0000000010205C91: CC                 int         3
  0000000010205C92: 48 8B 4D F8        mov         rcx,qword ptr [rbp-8]
  0000000010205C96: 48 89 88 88 00 00  mov         qword ptr [rax+0000000000000088h],rcx
                    00
  0000000010205C9D: 48 8B 45 E8        mov         rax,qword ptr [rbp-18h]
  0000000010205CA1: 48 85 C0           test        rax,rax
  0000000010205CA4: 0F 84 05 00 00 00  je          0000000010205CAF
  0000000010205CAA: E9 08 00 00 00     jmp         0000000010205CB7
  0000000010205CAF: B0 04              mov         al,4
  0000000010205CB1: B9 62 1C 00 00     mov         ecx,1C62h
  0000000010205CB6: CC                 int         3
  0000000010205CB7: 48 8B 0D 22 F1 FF  mov         rcx,qword ptr [0000000010204DE0h]
                    FF
  0000000010205CBE: 48 89 88 90 00 00  mov         qword ptr [rax+0000000000000090h],rcx
                    00
  0000000010205CC5: 48 8B 45 E8        mov         rax,qword ptr [rbp-18h]
  0000000010205CC9: 48 89 05 10 F1 FF  mov         qword ptr [0000000010204DE0h],rax
                    FF
  0000000010205CD0: E9 28 00 00 00     jmp         0000000010205CFD
  0000000010205CD5: 48 8B 45 F8        mov         rax,qword ptr [rbp-8]
  0000000010205CD9: 48 85 C0           test        rax,rax
  0000000010205CDC: 0F 84 05 00 00 00  je          0000000010205CE7
  0000000010205CE2: E9 08 00 00 00     jmp         0000000010205CEF
  0000000010205CE7: B0 04              mov         al,4
  0000000010205CE9: B9 90 1C 00 00     mov         ecx,1C90h
  0000000010205CEE: CC                 int         3
  0000000010205CEF: 48 B9 FF FF FF FF  mov         rcx,0FFFFFFFFFFFFFFFFh
                    FF FF FF FF
  0000000010205CF9: 48 89 48 48        mov         qword ptr [rax+48h],rcx
  0000000010205CFD: 48 8B 45 F8        mov         rax,qword ptr [rbp-8]
  0000000010205D01: C9                 leave
  0000000010205D02: C3                 ret
  0000000010205D03: 55                 push        rbp
  0000000010205D04: 48 8B EC           mov         rbp,rsp
  0000000010205D07: 48 83 EC 10        sub         rsp,10h
  0000000010205D0B: 48 C7 45 F8 00 00  mov         qword ptr [rbp-8],0
                    00 00
  0000000010205D13: 48 83 EC 20        sub         rsp,20h
  0000000010205D17: 48 8B 0D 32 C8 DF  mov         rcx,qword ptr [0000000010002550h]
                    FF
  0000000010205D1E: BA 08 00 00 00     mov         edx,8
  0000000010205D23: 41 B8 70 00 00 00  mov         r8d,70h
  0000000010205D29: FF 15 49 C8 DF FF  call        qword ptr [0000000010002578h]
  0000000010205D2F: 48 83 C4 20        add         rsp,20h
  0000000010205D33: 48 83 C0 10        add         rax,10h
  0000000010205D37: 48 8D 0D A2 C4 DF  lea         rcx,[00000000100021E0h]
                    FF
  0000000010205D3E: 48 89 48 F8        mov         qword ptr [rax-8],rcx
  0000000010205D42: 48 89 45 F8        mov         qword ptr [rbp-8],rax
  0000000010205D46: 48 8B 45 F8        mov         rax,qword ptr [rbp-8]
  0000000010205D4A: 48 85 C0           test        rax,rax
  0000000010205D4D: 0F 84 05 00 00 00  je          0000000010205D58
  0000000010205D53: E9 08 00 00 00     jmp         0000000010205D60
  0000000010205D58: B0 04              mov         al,4
  0000000010205D5A: B9 FD 1C 00 00     mov         ecx,1CFDh
  0000000010205D5F: CC                 int         3
  0000000010205D60: B9 05 00 00 00     mov         ecx,5
  0000000010205D65: 48 89 08           mov         qword ptr [rax],rcx
  0000000010205D68: 48 8B 45 F8        mov         rax,qword ptr [rbp-8]
  0000000010205D6C: 48 85 C0           test        rax,rax
  0000000010205D6F: 0F 84 05 00 00 00  je          0000000010205D7A
  0000000010205D75: E9 08 00 00 00     jmp         0000000010205D82
  0000000010205D7A: B0 04              mov         al,4
  0000000010205D7C: B9 0F 1D 00 00     mov         ecx,1D0Fh
  0000000010205D81: CC                 int         3
  0000000010205D82: 48 8B 0D FF F0 FF  mov         rcx,qword ptr [0000000010204E88h]
                    FF
  0000000010205D89: 48 89 48 38        mov         qword ptr [rax+38h],rcx
  0000000010205D8D: 48 8B 45 F8        mov         rax,qword ptr [rbp-8]
  0000000010205D91: C9                 leave
  0000000010205D92: C3                 ret
  0000000010205D93: 55                 push        rbp
  0000000010205D94: 48 8B EC           mov         rbp,rsp
  0000000010205D97: 48 83 EC 10        sub         rsp,10h
  0000000010205D9B: 48 89 4D 10        mov         qword ptr [rbp+10h],rcx
  0000000010205D9F: 48 C7 45 F8 00 00  mov         qword ptr [rbp-8],0
                    00 00
  0000000010205DA7: 48 83 EC 20        sub         rsp,20h
  0000000010205DAB: 48 8B 0D 9E C7 DF  mov         rcx,qword ptr [0000000010002550h]
                    FF
  0000000010205DB2: BA 08 00 00 00     mov         edx,8
  0000000010205DB7: 41 B8 38 00 00 00  mov         r8d,38h
  0000000010205DBD: FF 15 B5 C7 DF FF  call        qword ptr [0000000010002578h]
  0000000010205DC3: 48 83 C4 20        add         rsp,20h
  0000000010205DC7: 48 83 C0 10        add         rax,10h
  0000000010205DCB: 48 8D 0D EE C6 DF  lea         rcx,[00000000100024C0h]
                    FF
  0000000010205DD2: 48 89 48 F8        mov         qword ptr [rax-8],rcx
  0000000010205DD6: 48 89 45 F8        mov         qword ptr [rbp-8],rax
  0000000010205DDA: 48 8B 45 F8        mov         rax,qword ptr [rbp-8]
  0000000010205DDE: 48 85 C0           test        rax,rax
  0000000010205DE1: 0F 84 05 00 00 00  je          0000000010205DEC
  0000000010205DE7: E9 08 00 00 00     jmp         0000000010205DF4
  0000000010205DEC: B0 04              mov         al,4
  0000000010205DEE: B9 87 1D 00 00     mov         ecx,1D87h
  0000000010205DF3: CC                 int         3
  0000000010205DF4: B9 01 00 00 00     mov         ecx,1
  0000000010205DF9: 48 89 08           mov         qword ptr [rax],rcx
  0000000010205DFC: 48 8B 45 F8        mov         rax,qword ptr [rbp-8]
  0000000010205E00: 48 85 C0           test        rax,rax
  0000000010205E03: 0F 84 05 00 00 00  je          0000000010205E0E
  0000000010205E09: E9 08 00 00 00     jmp         0000000010205E16
  0000000010205E0E: B0 04              mov         al,4
  0000000010205E10: B9 9B 1D 00 00     mov         ecx,1D9Bh
  0000000010205E15: CC                 int         3
  0000000010205E16: 48 8B 4D 10        mov         rcx,qword ptr [rbp+10h]
  0000000010205E1A: 48 89 48 08        mov         qword ptr [rax+8],rcx
  0000000010205E1E: 48 8B 45 10        mov         rax,qword ptr [rbp+10h]
  0000000010205E22: 48 85 C0           test        rax,rax
  0000000010205E25: 0F 84 05 00 00 00  je          0000000010205E30
  0000000010205E2B: E9 08 00 00 00     jmp         0000000010205E38
  0000000010205E30: B0 04              mov         al,4
  0000000010205E32: B9 AD 1D 00 00     mov         ecx,1DADh
  0000000010205E37: CC                 int         3
  0000000010205E38: 48 8B 40 60        mov         rax,qword ptr [rax+60h]
  0000000010205E3C: 48 85 C0           test        rax,rax
  0000000010205E3F: 0F 85 22 00 00 00  jne         0000000010205E67
  0000000010205E45: 48 8B 45 10        mov         rax,qword ptr [rbp+10h]
  0000000010205E49: 48 85 C0           test        rax,rax
  0000000010205E4C: 0F 84 05 00 00 00  je          0000000010205E57
  0000000010205E52: E9 08 00 00 00     jmp         0000000010205E5F
  0000000010205E57: B0 04              mov         al,4
  0000000010205E59: B9 BF 1D 00 00     mov         ecx,1DBFh
  0000000010205E5E: CC                 int         3
  0000000010205E5F: 48 8B 4D F8        mov         rcx,qword ptr [rbp-8]
  0000000010205E63: 48 89 48 60        mov         qword ptr [rax+60h],rcx
  0000000010205E67: 48 8B 45 F8        mov         rax,qword ptr [rbp-8]
  0000000010205E6B: C9                 leave
  0000000010205E6C: C3                 ret
  0000000010205E6D: 55                 push        rbp
  0000000010205E6E: 48 8B EC           mov         rbp,rsp
  0000000010205E71: 48 83 EC 10        sub         rsp,10h
  0000000010205E75: 48 89 4D 10        mov         qword ptr [rbp+10h],rcx
  0000000010205E79: 48 89 55 18        mov         qword ptr [rbp+18h],rdx
  0000000010205E7D: 48 C7 45 F8 00 00  mov         qword ptr [rbp-8],0
                    00 00
  0000000010205E85: 48 83 EC 20        sub         rsp,20h
  0000000010205E89: 48 8B 0D C0 C6 DF  mov         rcx,qword ptr [0000000010002550h]
                    FF
  0000000010205E90: BA 08 00 00 00     mov         edx,8
  0000000010205E95: 41 B8 40 00 00 00  mov         r8d,40h
  0000000010205E9B: FF 15 D7 C6 DF FF  call        qword ptr [0000000010002578h]
  0000000010205EA1: 48 83 C4 20        add         rsp,20h
  0000000010205EA5: 48 83 C0 10        add         rax,10h
  0000000010205EA9: 48 8D 0D 30 C4 DF  lea         rcx,[00000000100022E0h]
                    FF
  0000000010205EB0: 48 89 48 F8        mov         qword ptr [rax-8],rcx
  0000000010205EB4: 48 89 45 F8        mov         qword ptr [rbp-8],rax
  0000000010205EB8: 48 8B 45 F8        mov         rax,qword ptr [rbp-8]
  0000000010205EBC: 48 85 C0           test        rax,rax
  0000000010205EBF: 0F 84 05 00 00 00  je          0000000010205ECA
  0000000010205EC5: E9 08 00 00 00     jmp         0000000010205ED2
  0000000010205ECA: B0 04              mov         al,4
  0000000010205ECC: B9 3D 1E 00 00     mov         ecx,1E3Dh
  0000000010205ED1: CC                 int         3
  0000000010205ED2: 48 8B 4D 18        mov         rcx,qword ptr [rbp+18h]
  0000000010205ED6: 48 89 08           mov         qword ptr [rax],rcx
  0000000010205ED9: 48 8B 45 F8        mov         rax,qword ptr [rbp-8]
  0000000010205EDD: 48 85 C0           test        rax,rax
  0000000010205EE0: 0F 84 05 00 00 00  je          0000000010205EEB
  0000000010205EE6: E9 08 00 00 00     jmp         0000000010205EF3
  0000000010205EEB: B0 04              mov         al,4
  0000000010205EED: B9 4F 1E 00 00     mov         ecx,1E4Fh
  0000000010205EF2: CC                 int         3
  0000000010205EF3: 48 8B 4D 10        mov         rcx,qword ptr [rbp+10h]
  0000000010205EF7: 48 89 48 28        mov         qword ptr [rax+28h],rcx
  0000000010205EFB: 48 8B 45 F8        mov         rax,qword ptr [rbp-8]
  0000000010205EFF: 48 85 C0           test        rax,rax
  0000000010205F02: 0F 84 05 00 00 00  je          0000000010205F0D
  0000000010205F08: E9 08 00 00 00     jmp         0000000010205F15
  0000000010205F0D: B0 04              mov         al,4
  0000000010205F0F: B9 5B 1E 00 00     mov         ecx,1E5Bh
  0000000010205F14: CC                 int         3
  0000000010205F15: 48 8B 0D 9C F0 FF  mov         rcx,qword ptr [0000000010204FB8h]
                    FF
  0000000010205F1C: 48 89 48 08        mov         qword ptr [rax+8],rcx
  0000000010205F20: 48 8B 45 F8        mov         rax,qword ptr [rbp-8]
  0000000010205F24: C9                 leave
  0000000010205F25: C3                 ret
  0000000010205F26: 55                 push        rbp
  0000000010205F27: 48 8B EC           mov         rbp,rsp
  0000000010205F2A: 48 89 4D 10        mov         qword ptr [rbp+10h],rcx
  0000000010205F2E: 48 89 55 18        mov         qword ptr [rbp+18h],rdx
  0000000010205F32: 48 83 EC 20        sub         rsp,20h
  0000000010205F36: 48 8B 0D 13 C6 DF  mov         rcx,qword ptr [0000000010002550h]
                    FF
  0000000010205F3D: BA 08 00 00 00     mov         edx,8
  0000000010205F42: 41 B8 80 00 00 00  mov         r8d,80h
  0000000010205F48: FF 15 2A C6 DF FF  call        qword ptr [0000000010002578h]
  0000000010205F4E: 48 83 C4 20        add         rsp,20h
  0000000010205F52: 48 83 C0 10        add         rax,10h
  0000000010205F56: 48 8D 0D 6B C4 DF  lea         rcx,[00000000100023C8h]
                    FF
  0000000010205F5D: 48 89 48 F8        mov         qword ptr [rax-8],rcx
  0000000010205F61: 48 8B 4D 10        mov         rcx,qword ptr [rbp+10h]
  0000000010205F65: 48 89 01           mov         qword ptr [rcx],rax
  0000000010205F68: 48 8B 45 10        mov         rax,qword ptr [rbp+10h]
  0000000010205F6C: 48 8B 00           mov         rax,qword ptr [rax]
  0000000010205F6F: 48 85 C0           test        rax,rax
  0000000010205F72: 0F 84 05 00 00 00  je          0000000010205F7D
  0000000010205F78: E9 08 00 00 00     jmp         0000000010205F85
  0000000010205F7D: B0 04              mov         al,4
  0000000010205F7F: B9 77 1F 00 00     mov         ecx,1F77h
  0000000010205F84: CC                 int         3
  0000000010205F85: 48 8B 4D 18        mov         rcx,qword ptr [rbp+18h]
  0000000010205F89: 48 89 08           mov         qword ptr [rax],rcx
  0000000010205F8C: 48 8B 45 10        mov         rax,qword ptr [rbp+10h]
  0000000010205F90: 48 8B 00           mov         rax,qword ptr [rax]
  0000000010205F93: 48 85 C0           test        rax,rax
  0000000010205F96: 0F 84 05 00 00 00  je          0000000010205FA1
  0000000010205F9C: E9 08 00 00 00     jmp         0000000010205FA9
  0000000010205FA1: B0 04              mov         al,4
  0000000010205FA3: B9 89 1F 00 00     mov         ecx,1F89h
  0000000010205FA8: CC                 int         3
  0000000010205FA9: 31 C9              xor         ecx,ecx
  0000000010205FAB: 48 89 48 18        mov         qword ptr [rax+18h],rcx
  0000000010205FAF: 48 8B 45 10        mov         rax,qword ptr [rbp+10h]
  0000000010205FB3: 48 8B 00           mov         rax,qword ptr [rax]
  0000000010205FB6: 48 85 C0           test        rax,rax
  0000000010205FB9: 0F 84 05 00 00 00  je          0000000010205FC4
  0000000010205FBF: E9 08 00 00 00     jmp         0000000010205FCC
  0000000010205FC4: B0 04              mov         al,4
  0000000010205FC6: B9 9A 1F 00 00     mov         ecx,1F9Ah
  0000000010205FCB: CC                 int         3
  0000000010205FCC: 31 C9              xor         ecx,ecx
  0000000010205FCE: 48 89 48 08        mov         qword ptr [rax+8],rcx
  0000000010205FD2: 48 8B 45 10        mov         rax,qword ptr [rbp+10h]
  0000000010205FD6: 48 8B 00           mov         rax,qword ptr [rax]
  0000000010205FD9: 48 85 C0           test        rax,rax
  0000000010205FDC: 0F 84 05 00 00 00  je          0000000010205FE7
  0000000010205FE2: E9 08 00 00 00     jmp         0000000010205FEF
  0000000010205FE7: B0 04              mov         al,4
  0000000010205FE9: B9 A9 1F 00 00     mov         ecx,1FA9h
  0000000010205FEE: CC                 int         3
  0000000010205FEF: 31 C9              xor         ecx,ecx
  0000000010205FF1: 48 89 48 10        mov         qword ptr [rax+10h],rcx
  0000000010205FF5: 48 8B 45 10        mov         rax,qword ptr [rbp+10h]
  0000000010205FF9: 48 8B 00           mov         rax,qword ptr [rax]
  0000000010205FFC: 48 85 C0           test        rax,rax
  0000000010205FFF: 0F 84 05 00 00 00  je          000000001020600A
  0000000010206005: E9 08 00 00 00     jmp         0000000010206012
  000000001020600A: B0 04              mov         al,4
  000000001020600C: B9 BB 1F 00 00     mov         ecx,1FBBh
  0000000010206011: CC                 int         3
  0000000010206012: 48 8B 0D 6F EE FF  mov         rcx,qword ptr [0000000010204E88h]
                    FF
  0000000010206019: 48 89 48 30        mov         qword ptr [rax+30h],rcx
  000000001020601D: 48 8B 45 10        mov         rax,qword ptr [rbp+10h]
  0000000010206021: 48 8B 00           mov         rax,qword ptr [rax]
  0000000010206024: 48 85 C0           test        rax,rax
  0000000010206027: 0F 84 05 00 00 00  je          0000000010206032
  000000001020602D: E9 08 00 00 00     jmp         000000001020603A
  0000000010206032: B0 04              mov         al,4
  0000000010206034: B9 CE 1F 00 00     mov         ecx,1FCEh
  0000000010206039: CC                 int         3
  000000001020603A: 48 B9 FF FF FF FF  mov         rcx,0FFFFFFFFFFFFFFFFh
                    FF FF FF FF
  0000000010206044: 48 89 48 68        mov         qword ptr [rax+68h],rcx
  0000000010206048: C9                 leave
  0000000010206049: C3                 ret
  000000001020604A: 55                 push        rbp
  000000001020604B: 48 8B EC           mov         rbp,rsp
  000000001020604E: 48 83 EC 10        sub         rsp,10h
  0000000010206052: 48 89 4D 10        mov         qword ptr [rbp+10h],rcx
  0000000010206056: 48 C7 45 F8 00 00  mov         qword ptr [rbp-8],0
                    00 00
  000000001020605E: 48 83 EC 20        sub         rsp,20h
  0000000010206062: 48 8D 4D F8        lea         rcx,[rbp-8]
  0000000010206066: BA 07 00 00 00     mov         edx,7
  000000001020606B: E8 B6 FE FF FF     call        0000000010205F26
  0000000010206070: 48 83 C4 20        add         rsp,20h
  0000000010206074: 48 8B 45 F8        mov         rax,qword ptr [rbp-8]
  0000000010206078: 48 85 C0           test        rax,rax
  000000001020607B: 0F 84 05 00 00 00  je          0000000010206086
  0000000010206081: E9 08 00 00 00     jmp         000000001020608E
  0000000010206086: B0 04              mov         al,4
  0000000010206088: B9 43 20 00 00     mov         ecx,2043h
  000000001020608D: CC                 int         3
  000000001020608E: 48 8B 4D 10        mov         rcx,qword ptr [rbp+10h]
  0000000010206092: 48 89 48 20        mov         qword ptr [rax+20h],rcx
  0000000010206096: 48 8B 45 F8        mov         rax,qword ptr [rbp-8]
  000000001020609A: C9                 leave
  000000001020609B: C3                 ret
  000000001020609C: 55                 push        rbp
  000000001020609D: 48 8B EC           mov         rbp,rsp
  00000000102060A0: 48 89 4D 10        mov         qword ptr [rbp+10h],rcx
  00000000102060A4: 48 8B 45 10        mov         rax,qword ptr [rbp+10h]
  00000000102060A8: 48 85 C0           test        rax,rax
  00000000102060AB: 0F 84 05 00 00 00  je          00000000102060B6
  00000000102060B1: E9 08 00 00 00     jmp         00000000102060BE
  00000000102060B6: B0 04              mov         al,4
  00000000102060B8: B9 A0 20 00 00     mov         ecx,20A0h
  00000000102060BD: CC                 int         3
  00000000102060BE: 48 8B 40 40        mov         rax,qword ptr [rax+40h]
  00000000102060C2: 48 85 C0           test        rax,rax
  00000000102060C5: 0F 84 05 00 00 00  je          00000000102060D0
  00000000102060CB: E9 08 00 00 00     jmp         00000000102060D8
  00000000102060D0: B0 04              mov         al,4
  00000000102060D2: B9 A5 20 00 00     mov         ecx,20A5h
  00000000102060D7: CC                 int         3
  00000000102060D8: 48 8B 00           mov         rax,qword ptr [rax]
  00000000102060DB: 48 83 F8 07        cmp         rax,7
  00000000102060DF: 0F 85 11 00 00 00  jne         00000000102060F6
  00000000102060E5: 48 83 EC 20        sub         rsp,20h
  00000000102060E9: 48 8B 4D 10        mov         rcx,qword ptr [rbp+10h]
  00000000102060ED: E8 AA FF FF FF     call        000000001020609C
  00000000102060F2: 48 83 C4 20        add         rsp,20h
  00000000102060F6: 48 8B 45 10        mov         rax,qword ptr [rbp+10h]
  00000000102060FA: 48 85 C0           test        rax,rax
  00000000102060FD: 0F 84 05 00 00 00  je          0000000010206108
  0000000010206103: E9 08 00 00 00     jmp         0000000010206110
  0000000010206108: B0 04              mov         al,4
  000000001020610A: B9 D4 20 00 00     mov         ecx,20D4h
  000000001020610F: CC                 int         3
  0000000010206110: 48 8B 4D 10        mov         rcx,qword ptr [rbp+10h]
  0000000010206114: 48 85 C9           test        rcx,rcx
  0000000010206117: 0F 84 05 00 00 00  je          0000000010206122
  000000001020611D: E9 08 00 00 00     jmp         000000001020612A
  0000000010206122: B0 04              mov         al,4
  0000000010206124: B9 DF 20 00 00     mov         ecx,20DFh
  0000000010206129: CC                 int         3
  000000001020612A: 48 8B 49 20        mov         rcx,qword ptr [rcx+20h]
  000000001020612E: 48 8B 55 10        mov         rdx,qword ptr [rbp+10h]
  0000000010206132: 48 85 D2           test        rdx,rdx
  0000000010206135: 0F 84 05 00 00 00  je          0000000010206140
  000000001020613B: E9 08 00 00 00     jmp         0000000010206148
  0000000010206140: B0 04              mov         al,4
  0000000010206142: B9 E8 20 00 00     mov         ecx,20E8h
  0000000010206147: CC                 int         3
  0000000010206148: 48 8B 52 40        mov         rdx,qword ptr [rdx+40h]
  000000001020614C: 48 85 D2           test        rdx,rdx
  000000001020614F: 0F 84 05 00 00 00  je          000000001020615A
  0000000010206155: E9 08 00 00 00     jmp         0000000010206162
  000000001020615A: B0 04              mov         al,4
  000000001020615C: B9 ED 20 00 00     mov         ecx,20EDh
  0000000010206161: CC                 int         3
  0000000010206162: 48 8B 52 18        mov         rdx,qword ptr [rdx+18h]
  0000000010206166: 48 0F AF CA        imul        rcx,rdx
  000000001020616A: 48 89 48 18        mov         qword ptr [rax+18h],rcx
  000000001020616E: C9                 leave
  000000001020616F: C3                 ret
  0000000010206170: 55                 push        rbp
  0000000010206171: 48 8B EC           mov         rbp,rsp
  0000000010206174: 48 83 EC 10        sub         rsp,10h
  0000000010206178: 48 C7 45 F8 00 00  mov         qword ptr [rbp-8],0
                    00 00
  0000000010206180: 48 C7 45 F0 00 00  mov         qword ptr [rbp-10h],0
                    00 00
  0000000010206188: 48 83 EC 20        sub         rsp,20h
  000000001020618C: 48 8D 4D F8        lea         rcx,[rbp-8]
  0000000010206190: BA 08 00 00 00     mov         edx,8
  0000000010206195: E8 8C FD FF FF     call        0000000010205F26
  000000001020619A: 48 83 C4 20        add         rsp,20h
  000000001020619E: 48 8B 45 F8        mov         rax,qword ptr [rbp-8]
  00000000102061A2: 48 85 C0           test        rax,rax
  00000000102061A5: 0F 84 05 00 00 00  je          00000000102061B0
  00000000102061AB: E9 08 00 00 00     jmp         00000000102061B8
  00000000102061B0: B0 04              mov         al,4
  00000000102061B2: B9 63 21 00 00     mov         ecx,2163h
  00000000102061B7: CC                 int         3
  00000000102061B8: 31 C9              xor         ecx,ecx
  00000000102061BA: 48 89 48 20        mov         qword ptr [rax+20h],rcx
  00000000102061BE: 48 8B 05 C3 EC FF  mov         rax,qword ptr [0000000010204E88h]
                    FF
  00000000102061C5: 48 85 C0           test        rax,rax
  00000000102061C8: 0F 8C 89 00 00 00  jl          0000000010206257
  00000000102061CE: 48 83 EC 20        sub         rsp,20h
  00000000102061D2: 48 8B 0D 77 C3 DF  mov         rcx,qword ptr [0000000010002550h]
                    FF
  00000000102061D9: BA 08 00 00 00     mov         edx,8
  00000000102061DE: 41 B8 28 00 00 00  mov         r8d,28h
  00000000102061E4: FF 15 8E C3 DF FF  call        qword ptr [0000000010002578h]
  00000000102061EA: 48 83 C4 20        add         rsp,20h
  00000000102061EE: 48 83 C0 10        add         rax,10h
  00000000102061F2: 48 8D 0D 57 BE DF  lea         rcx,[0000000010002050h]
                    FF
  00000000102061F9: 48 89 48 F8        mov         qword ptr [rax-8],rcx
  00000000102061FD: 48 89 45 F0        mov         qword ptr [rbp-10h],rax
  0000000010206201: 48 8B 45 F0        mov         rax,qword ptr [rbp-10h]
  0000000010206205: 48 85 C0           test        rax,rax
  0000000010206208: 0F 84 05 00 00 00  je          0000000010206213
  000000001020620E: E9 08 00 00 00     jmp         000000001020621B
  0000000010206213: B0 04              mov         al,4
  0000000010206215: B9 90 21 00 00     mov         ecx,2190h
  000000001020621A: CC                 int         3
  000000001020621B: 48 8B 4D F8        mov         rcx,qword ptr [rbp-8]
  000000001020621F: 48 89 08           mov         qword ptr [rax],rcx
  0000000010206222: 48 8B 45 F0        mov         rax,qword ptr [rbp-10h]
  0000000010206226: 48 85 C0           test        rax,rax
  0000000010206229: 0F 84 05 00 00 00  je          0000000010206234
  000000001020622F: E9 08 00 00 00     jmp         000000001020623C
  0000000010206234: B0 04              mov         al,4
  0000000010206236: B9 9E 21 00 00     mov         ecx,219Eh
  000000001020623B: CC                 int         3
  000000001020623C: 48 8B 0D 95 EB FF  mov         rcx,qword ptr [0000000010204DD8h]
                    FF
  0000000010206243: 48 89 48 10        mov         qword ptr [rax+10h],rcx
  0000000010206247: 48 8B 45 F0        mov         rax,qword ptr [rbp-10h]
  000000001020624B: 48 89 05 86 EB FF  mov         qword ptr [0000000010204DD8h],rax
                    FF
  0000000010206252: E9 19 00 00 00     jmp         0000000010206270
  0000000010206257: 48 8B 05 2A EC FF  mov         rax,qword ptr [0000000010204E88h]
                    FF
  000000001020625E: 48 83 F8 FF        cmp         rax,0FFFFFFFFFFFFFFFFh
  0000000010206262: 0F 85 08 00 00 00  jne         0000000010206270
  0000000010206268: B0 03              mov         al,3
  000000001020626A: B9 E2 21 00 00     mov         ecx,21E2h
  000000001020626F: CC                 int         3
  0000000010206270: 48 8B 45 F8        mov         rax,qword ptr [rbp-8]
  0000000010206274: C9                 leave
  0000000010206275: C3                 ret
  0000000010206276: 55                 push        rbp
  0000000010206277: 48 8B EC           mov         rbp,rsp
  000000001020627A: 48 89 4D 10        mov         qword ptr [rbp+10h],rcx
  000000001020627E: 48 8B 45 10        mov         rax,qword ptr [rbp+10h]
  0000000010206282: 48 85 C0           test        rax,rax
  0000000010206285: 0F 84 05 00 00 00  je          0000000010206290
  000000001020628B: E9 08 00 00 00     jmp         0000000010206298
  0000000010206290: B0 04              mov         al,4
  0000000010206292: B9 45 22 00 00     mov         ecx,2245h
  0000000010206297: CC                 int         3
  0000000010206298: 48 8B 40 40        mov         rax,qword ptr [rax+40h]
  000000001020629C: 48 85 C0           test        rax,rax
  000000001020629F: 0F 84 B0 00 00 00  je          0000000010206355
  00000000102062A5: 48 8B 45 10        mov         rax,qword ptr [rbp+10h]
  00000000102062A9: 48 85 C0           test        rax,rax
  00000000102062AC: 0F 84 05 00 00 00  je          00000000102062B7
  00000000102062B2: E9 08 00 00 00     jmp         00000000102062BF
  00000000102062B7: B0 04              mov         al,4
  00000000102062B9: B9 60 22 00 00     mov         ecx,2260h
  00000000102062BE: CC                 int         3
  00000000102062BF: 48 8B 4D 10        mov         rcx,qword ptr [rbp+10h]
  00000000102062C3: 48 85 C9           test        rcx,rcx
  00000000102062C6: 0F 84 05 00 00 00  je          00000000102062D1
  00000000102062CC: E9 08 00 00 00     jmp         00000000102062D9
  00000000102062D1: B0 04              mov         al,4
  00000000102062D3: B9 6F 22 00 00     mov         ecx,226Fh
  00000000102062D8: CC                 int         3
  00000000102062D9: 48 8B 49 40        mov         rcx,qword ptr [rcx+40h]
  00000000102062DD: 48 85 C9           test        rcx,rcx
  00000000102062E0: 0F 84 05 00 00 00  je          00000000102062EB
  00000000102062E6: E9 08 00 00 00     jmp         00000000102062F3
  00000000102062EB: B0 04              mov         al,4
  00000000102062ED: B9 74 22 00 00     mov         ecx,2274h
  00000000102062F2: CC                 int         3
  00000000102062F3: 48 8B 49 20        mov         rcx,qword ptr [rcx+20h]
  00000000102062F7: 48 83 C1 01        add         rcx,1
  00000000102062FB: 48 89 48 20        mov         qword ptr [rax+20h],rcx
  00000000102062FF: 48 8B 45 10        mov         rax,qword ptr [rbp+10h]
  0000000010206303: 48 85 C0           test        rax,rax
  0000000010206306: 0F 84 05 00 00 00  je          0000000010206311
  000000001020630C: E9 08 00 00 00     jmp         0000000010206319
  0000000010206311: B0 04              mov         al,4
  0000000010206313: B9 88 22 00 00     mov         ecx,2288h
  0000000010206318: CC                 int         3
  0000000010206319: 48 8B 4D 10        mov         rcx,qword ptr [rbp+10h]
  000000001020631D: 48 85 C9           test        rcx,rcx
  0000000010206320: 0F 84 05 00 00 00  je          000000001020632B
  0000000010206326: E9 08 00 00 00     jmp         0000000010206333
  000000001020632B: B0 04              mov         al,4
  000000001020632D: B9 98 22 00 00     mov         ecx,2298h
  0000000010206332: CC                 int         3
  0000000010206333: 48 8B 49 40        mov         rcx,qword ptr [rcx+40h]
  0000000010206337: 48 85 C9           test        rcx,rcx
  000000001020633A: 0F 84 05 00 00 00  je          0000000010206345
  0000000010206340: E9 08 00 00 00     jmp         000000001020634D
  0000000010206345: B0 04              mov         al,4
  0000000010206347: B9 9D 22 00 00     mov         ecx,229Dh
  000000001020634C: CC                 int         3
  000000001020634D: 48 8B 49 18        mov         rcx,qword ptr [rcx+18h]
  0000000010206351: 48 89 48 18        mov         qword ptr [rax+18h],rcx
  0000000010206355: C9                 leave
  0000000010206356: C3                 ret
  0000000010206357: 55                 push        rbp
  0000000010206358: 48 8B EC           mov         rbp,rsp
  000000001020635B: 48 83 EC 10        sub         rsp,10h
  000000001020635F: 48 C7 45 F8 00 00  mov         qword ptr [rbp-8],0
                    00 00
  0000000010206367: 48 83 EC 20        sub         rsp,20h
  000000001020636B: 48 8D 4D F8        lea         rcx,[rbp-8]
  000000001020636F: BA 05 00 00 00     mov         edx,5
  0000000010206374: E8 AD FB FF FF     call        0000000010205F26
  0000000010206379: 48 83 C4 20        add         rsp,20h
  000000001020637D: 48 8B 45 F8        mov         rax,qword ptr [rbp-8]
  0000000010206381: 48 85 C0           test        rax,rax
  0000000010206384: 0F 84 05 00 00 00  je          000000001020638F
  000000001020638A: E9 08 00 00 00     jmp         0000000010206397
  000000001020638F: B0 04              mov         al,4
  0000000010206391: B9 0C 23 00 00     mov         ecx,230Ch
  0000000010206396: CC                 int         3
  0000000010206397: B9 01 00 00 00     mov         ecx,1
  000000001020639C: 48 89 48 18        mov         qword ptr [rax+18h],rcx
  00000000102063A0: 48 8B 45 F8        mov         rax,qword ptr [rbp-8]
  00000000102063A4: C9                 leave
  00000000102063A5: C3                 ret
  00000000102063A6: 55                 push        rbp
  00000000102063A7: 48 8B EC           mov         rbp,rsp
  00000000102063AA: 48 83 EC 10        sub         rsp,10h
  00000000102063AE: 48 C7 45 F8 00 00  mov         qword ptr [rbp-8],0
                    00 00
  00000000102063B6: 48 83 EC 20        sub         rsp,20h
  00000000102063BA: 48 8D 4D F8        lea         rcx,[rbp-8]
  00000000102063BE: BA 06 00 00 00     mov         edx,6
  00000000102063C3: E8 5E FB FF FF     call        0000000010205F26
  00000000102063C8: 48 83 C4 20        add         rsp,20h
  00000000102063CC: 48 8B 45 F8        mov         rax,qword ptr [rbp-8]
  00000000102063D0: 48 85 C0           test        rax,rax
  00000000102063D3: 0F 84 05 00 00 00  je          00000000102063DE
  00000000102063D9: E9 08 00 00 00     jmp         00000000102063E6
  00000000102063DE: B0 04              mov         al,4
  00000000102063E0: B9 87 23 00 00     mov         ecx,2387h
  00000000102063E5: CC                 int         3
  00000000102063E6: 31 C9              xor         ecx,ecx
  00000000102063E8: 48 89 48 58        mov         qword ptr [rax+58h],rcx
  00000000102063EC: 48 8B 45 F8        mov         rax,qword ptr [rbp-8]
  00000000102063F0: C9                 leave
  00000000102063F1: C3                 ret
  00000000102063F2: 55                 push        rbp
  00000000102063F3: 48 8B EC           mov         rbp,rsp
  00000000102063F6: 48 89 4D 10        mov         qword ptr [rbp+10h],rcx
  00000000102063FA: 48 89 55 18        mov         qword ptr [rbp+18h],rdx
  00000000102063FE: 48 83 EC 20        sub         rsp,20h
  0000000010206402: 48 8B 4D 10        mov         rcx,qword ptr [rbp+10h]
  0000000010206406: 48 8B 55 18        mov         rdx,qword ptr [rbp+18h]
  000000001020640A: E8 17 FB FF FF     call        0000000010205F26
  000000001020640F: 48 83 C4 20        add         rsp,20h
  0000000010206413: 48 83 05 A5 E9 FF  add         qword ptr [0000000010204DC0h],1
                    FF 01
  000000001020641B: 48 8B 45 10        mov         rax,qword ptr [rbp+10h]
  000000001020641F: 48 8B 00           mov         rax,qword ptr [rax]
  0000000010206422: 48 85 C0           test        rax,rax
  0000000010206425: 0F 84 05 00 00 00  je          0000000010206430
  000000001020642B: E9 08 00 00 00     jmp         0000000010206438
  0000000010206430: B0 04              mov         al,4
  0000000010206432: B9 20 24 00 00     mov         ecx,2420h
  0000000010206437: CC                 int         3
  0000000010206438: 48 8B 0D 81 E9 FF  mov         rcx,qword ptr [0000000010204DC0h]
                    FF
  000000001020643F: 48 89 48 68        mov         qword ptr [rax+68h],rcx
  0000000010206443: 48 8B 05 76 E9 FF  mov         rax,qword ptr [0000000010204DC0h]
                    FF
  000000001020644A: 48 83 F8 20        cmp         rax,20h
  000000001020644E: 0F 83 05 00 00 00  jae         0000000010206459
  0000000010206454: E9 08 00 00 00     jmp         0000000010206461
  0000000010206459: B0 01              mov         al,1
  000000001020645B: B9 4E 24 00 00     mov         ecx,244Eh
  0000000010206460: CC                 int         3
  0000000010206461: 48 C1 E0 03        shl         rax,3
  0000000010206465: 48 8D 0D 4C EA FF  lea         rcx,[0000000010204EB8h]
                    FF
  000000001020646C: 48 03 C1           add         rax,rcx
  000000001020646F: 48 8B 4D 10        mov         rcx,qword ptr [rbp+10h]
  0000000010206473: 48 8B 09           mov         rcx,qword ptr [rcx]
  0000000010206476: 48 89 08           mov         qword ptr [rax],rcx
  0000000010206479: C9                 leave
  000000001020647A: C3                 ret
  000000001020647B: 55                 push        rbp
  000000001020647C: 48 8B EC           mov         rbp,rsp
  000000001020647F: 48 83 EC 10        sub         rsp,10h
  0000000010206483: 48 C7 45 F8 00 00  mov         qword ptr [rbp-8],0
                    00 00
  000000001020648B: 48 83 EC 20        sub         rsp,20h
  000000001020648F: 48 8B 0D BA C0 DF  mov         rcx,qword ptr [0000000010002550h]
                    FF
  0000000010206496: BA 08 00 00 00     mov         edx,8
  000000001020649B: 41 B8 20 00 00 00  mov         r8d,20h
  00000000102064A1: FF 15 D1 C0 DF FF  call        qword ptr [0000000010002578h]
  00000000102064A7: 48 83 C4 20        add         rsp,20h
  00000000102064AB: 48 83 C0 10        add         rax,10h
  00000000102064AF: 48 8D 0D 7A BE DF  lea         rcx,[0000000010002330h]
                    FF
  00000000102064B6: 48 89 48 F8        mov         qword ptr [rax-8],rcx
  00000000102064BA: 48 89 45 F8        mov         qword ptr [rbp-8],rax
  00000000102064BE: 48 8B 45 F8        mov         rax,qword ptr [rbp-8]
  00000000102064C2: 48 85 C0           test        rax,rax
  00000000102064C5: 0F 84 05 00 00 00  je          00000000102064D0
  00000000102064CB: E9 08 00 00 00     jmp         00000000102064D8
  00000000102064D0: B0 04              mov         al,4
  00000000102064D2: B9 54 25 00 00     mov         ecx,2554h
  00000000102064D7: CC                 int         3
  00000000102064D8: 48 8B 0D C1 E9 FF  mov         rcx,qword ptr [0000000010204EA0h]
                    FF
  00000000102064DF: 48 89 48 08        mov         qword ptr [rax+8],rcx
  00000000102064E3: 48 8B 45 F8        mov         rax,qword ptr [rbp-8]
  00000000102064E7: 48 89 05 B2 E9 FF  mov         qword ptr [0000000010204EA0h],rax
                    FF
  00000000102064EE: C9                 leave
  00000000102064EF: C3                 ret
  00000000102064F0: 55                 push        rbp
  00000000102064F1: 48 8B EC           mov         rbp,rsp
  00000000102064F4: 48 8B 05 A5 E9 FF  mov         rax,qword ptr [0000000010204EA0h]
                    FF
  00000000102064FB: 48 85 C0           test        rax,rax
  00000000102064FE: 0F 84 05 00 00 00  je          0000000010206509
  0000000010206504: E9 08 00 00 00     jmp         0000000010206511
  0000000010206509: B0 04              mov         al,4
  000000001020650B: B9 BB 25 00 00     mov         ecx,25BBh
  0000000010206510: CC                 int         3
  0000000010206511: 48 8B 40 08        mov         rax,qword ptr [rax+8]
  0000000010206515: 48 89 05 84 E9 FF  mov         qword ptr [0000000010204EA0h],rax
                    FF
  000000001020651C: C9                 leave
  000000001020651D: C3                 ret
  000000001020651E: 55                 push        rbp
  000000001020651F: 48 8B EC           mov         rbp,rsp
  0000000010206522: 48 89 4D 10        mov         qword ptr [rbp+10h],rcx
  0000000010206526: 48 8B 05 5B E9 FF  mov         rax,qword ptr [0000000010204E88h]
                    FF
  000000001020652D: 48 8B 4D 10        mov         rcx,qword ptr [rbp+10h]
  0000000010206531: 48 03 C1           add         rax,rcx
  0000000010206534: 48 89 05 4D E9 FF  mov         qword ptr [0000000010204E88h],rax
                    FF
  000000001020653B: C9                 leave
  000000001020653C: C3                 ret
  000000001020653D: 55                 push        rbp
  000000001020653E: 48 8B EC           mov         rbp,rsp
  0000000010206541: 48 83 EC 10        sub         rsp,10h
  0000000010206545: 56                 push        rsi
  0000000010206546: 57                 push        rdi
  0000000010206547: 48 89 4D 10        mov         qword ptr [rbp+10h],rcx
  000000001020654B: 48 89 55 18        mov         qword ptr [rbp+18h],rdx
  000000001020654F: 48 C7 45 F8 00 00  mov         qword ptr [rbp-8],0
                    00 00
  0000000010206557: 48 83 EC 20        sub         rsp,20h
  000000001020655B: 48 8B 0D EE BF DF  mov         rcx,qword ptr [0000000010002550h]
                    FF
  0000000010206562: BA 08 00 00 00     mov         edx,8
  0000000010206567: 41 B8 A8 00 00 00  mov         r8d,0A8h
  000000001020656D: FF 15 05 C0 DF FF  call        qword ptr [0000000010002578h]
  0000000010206573: 48 83 C4 20        add         rsp,20h
  0000000010206577: 48 83 C0 10        add         rax,10h
  000000001020657B: 48 8D 0D EE BE DF  lea         rcx,[0000000010002470h]
                    FF
  0000000010206582: 48 89 48 F8        mov         qword ptr [rax-8],rcx
  0000000010206586: 48 89 45 F8        mov         qword ptr [rbp-8],rax
  000000001020658A: 48 8B 45 F8        mov         rax,qword ptr [rbp-8]
  000000001020658E: 48 85 C0           test        rax,rax
  0000000010206591: 0F 84 05 00 00 00  je          000000001020659C
  0000000010206597: E9 08 00 00 00     jmp         00000000102065A4
  000000001020659C: B0 04              mov         al,4
  000000001020659E: B9 76 26 00 00     mov         ecx,2676h
  00000000102065A3: CC                 int         3
  00000000102065A4: 48 8B F8           mov         rdi,rax
  00000000102065A7: 48 83 C7 02        add         rdi,2
  00000000102065AB: 48 8B 75 18        mov         rsi,qword ptr [rbp+18h]
  00000000102065AF: B9 10 00 00 00     mov         ecx,10h
  00000000102065B4: F3 48 A5           rep movs    qword ptr [rdi],qword ptr [rsi]
  00000000102065B7: 48 8B 45 F8        mov         rax,qword ptr [rbp-8]
  00000000102065BB: 48 85 C0           test        rax,rax
  00000000102065BE: 0F 84 05 00 00 00  je          00000000102065C9
  00000000102065C4: E9 08 00 00 00     jmp         00000000102065D1
  00000000102065C9: B0 04              mov         al,4
  00000000102065CB: B9 8A 26 00 00     mov         ecx,268Ah
  00000000102065D0: CC                 int         3
  00000000102065D1: 31 C9              xor         ecx,ecx
  00000000102065D3: 88 08              mov         byte ptr [rax],cl
  00000000102065D5: 48 8B 45 F8        mov         rax,qword ptr [rbp-8]
  00000000102065D9: 48 85 C0           test        rax,rax
  00000000102065DC: 0F 84 05 00 00 00  je          00000000102065E7
  00000000102065E2: E9 08 00 00 00     jmp         00000000102065EF
  00000000102065E7: B0 04              mov         al,4
  00000000102065E9: B9 A3 26 00 00     mov         ecx,26A3h
  00000000102065EE: CC                 int         3
  00000000102065EF: 48 8B 4D 10        mov         rcx,qword ptr [rbp+10h]
  00000000102065F3: 48 89 88 88 00 00  mov         qword ptr [rax+0000000000000088h],rcx
                    00
  00000000102065FA: 48 8B 45 10        mov         rax,qword ptr [rbp+10h]
  00000000102065FE: 48 85 C0           test        rax,rax
  0000000010206601: 0F 84 05 00 00 00  je          000000001020660C
  0000000010206607: E9 08 00 00 00     jmp         0000000010206614
  000000001020660C: B0 04              mov         al,4
  000000001020660E: B9 AF 26 00 00     mov         ecx,26AFh
  0000000010206613: CC                 int         3
  0000000010206614: 48 8B 4D F8        mov         rcx,qword ptr [rbp-8]
  0000000010206618: 48 89 48 10        mov         qword ptr [rax+10h],rcx
  000000001020661C: 48 8B 45 F8        mov         rax,qword ptr [rbp-8]
  0000000010206620: 48 85 C0           test        rax,rax
  0000000010206623: 0F 84 05 00 00 00  je          000000001020662E
  0000000010206629: E9 08 00 00 00     jmp         0000000010206636
  000000001020662E: B0 04              mov         al,4
  0000000010206630: B9 C7 26 00 00     mov         ecx,26C7h
  0000000010206635: CC                 int         3
  0000000010206636: 48 8B 0D 63 E8 FF  mov         rcx,qword ptr [0000000010204EA0h]
                    FF
  000000001020663D: 48 85 C9           test        rcx,rcx
  0000000010206640: 0F 84 05 00 00 00  je          000000001020664B
  0000000010206646: E9 08 00 00 00     jmp         0000000010206653
  000000001020664B: B0 04              mov         al,4
  000000001020664D: B9 D8 26 00 00     mov         ecx,26D8h
  0000000010206652: CC                 int         3
  0000000010206653: 48 8B 09           mov         rcx,qword ptr [rcx]
  0000000010206656: 48 89 88 90 00 00  mov         qword ptr [rax+0000000000000090h],rcx
                    00
  000000001020665D: 48 8B 05 3C E8 FF  mov         rax,qword ptr [0000000010204EA0h]
                    FF
  0000000010206664: 48 85 C0           test        rax,rax
  0000000010206667: 0F 84 05 00 00 00  je          0000000010206672
  000000001020666D: E9 08 00 00 00     jmp         000000001020667A
  0000000010206672: B0 04              mov         al,4
  0000000010206674: B9 E8 26 00 00     mov         ecx,26E8h
  0000000010206679: CC                 int         3
  000000001020667A: 48 8B 4D F8        mov         rcx,qword ptr [rbp-8]
  000000001020667E: 48 89 08           mov         qword ptr [rax],rcx
  0000000010206681: 5F                 pop         rdi
  0000000010206682: 5E                 pop         rsi
  0000000010206683: C9                 leave
  0000000010206684: C3                 ret
  0000000010206685: 55                 push        rbp
  0000000010206686: 48 8B EC           mov         rbp,rsp
  0000000010206689: 48 89 4D 10        mov         qword ptr [rbp+10h],rcx
  000000001020668D: 48 8B 45 10        mov         rax,qword ptr [rbp+10h]
  0000000010206691: 48 F7 D8           neg         rax
  0000000010206694: 48 83 E8 02        sub         rax,2
  0000000010206698: 48 81 F8 00 01 00  cmp         rax,100h
                    00
  000000001020669F: 0F 83 05 00 00 00  jae         00000000102066AA
  00000000102066A5: E9 08 00 00 00     jmp         00000000102066B2
  00000000102066AA: B0 01              mov         al,1
  00000000102066AC: B9 09 28 00 00     mov         ecx,2809h
  00000000102066B1: CC                 int         3
  00000000102066B2: 48 C1 E0 03        shl         rax,3
  00000000102066B6: 48 8D 0D F3 BE FF  lea         rcx,[00000000102025B0h]
                    FF
  00000000102066BD: 48 03 C1           add         rax,rcx
  00000000102066C0: 48 8B 00           mov         rax,qword ptr [rax]
  00000000102066C3: C9                 leave
  00000000102066C4: C3                 ret
  00000000102066C5: 55                 push        rbp
  00000000102066C6: 48 8B EC           mov         rbp,rsp
  00000000102066C9: 48 83 EC 10        sub         rsp,10h
  00000000102066CD: 48 89 4D 10        mov         qword ptr [rbp+10h],rcx
  00000000102066D1: 48 C7 45 F8 00 00  mov         qword ptr [rbp-8],0
                    00 00
  00000000102066D9: 48 83 EC 20        sub         rsp,20h
  00000000102066DD: 48 8B 0D 6C BE DF  mov         rcx,qword ptr [0000000010002550h]
                    FF
  00000000102066E4: BA 08 00 00 00     mov         edx,8
  00000000102066E9: 41 B8 A8 00 00 00  mov         r8d,0A8h
  00000000102066EF: FF 15 83 BE DF FF  call        qword ptr [0000000010002578h]
  00000000102066F5: 48 83 C4 20        add         rsp,20h
  00000000102066F9: 48 83 C0 10        add         rax,10h
  00000000102066FD: 48 8D 0D 6C BD DF  lea         rcx,[0000000010002470h]
                    FF
  0000000010206704: 48 89 48 F8        mov         qword ptr [rax-8],rcx
  0000000010206708: 48 8B 4D 10        mov         rcx,qword ptr [rbp+10h]
  000000001020670C: 48 89 01           mov         qword ptr [rcx],rax
  000000001020670F: 48 83 05 A1 E6 FF  add         qword ptr [0000000010204DB8h],1
                    FF 01
  0000000010206717: 48 8B 05 CA E6 FF  mov         rax,qword ptr [0000000010204DE8h]
                    FF
  000000001020671E: 48 85 C0           test        rax,rax
  0000000010206721: 0F 85 13 00 00 00  jne         000000001020673A
  0000000010206727: 48 8B 45 10        mov         rax,qword ptr [rbp+10h]
  000000001020672B: 48 8B 00           mov         rax,qword ptr [rax]
  000000001020672E: 48 89 05 B3 E6 FF  mov         qword ptr [0000000010204DE8h],rax
                    FF
  0000000010206735: E9 87 00 00 00     jmp         00000000102067C1
  000000001020673A: 48 8B 05 A7 E6 FF  mov         rax,qword ptr [0000000010204DE8h]
                    FF
  0000000010206741: 48 89 45 F8        mov         qword ptr [rbp-8],rax
  0000000010206745: 48 8B 45 F8        mov         rax,qword ptr [rbp-8]
  0000000010206749: 48 85 C0           test        rax,rax
  000000001020674C: 0F 84 05 00 00 00  je          0000000010206757
  0000000010206752: E9 08 00 00 00     jmp         000000001020675F
  0000000010206757: B0 04              mov         al,4
  0000000010206759: B9 BB 28 00 00     mov         ecx,28BBh
  000000001020675E: CC                 int         3
  000000001020675F: 48 8B 80 90 00 00  mov         rax,qword ptr [rax+0000000000000090h]
                    00
  0000000010206766: 48 85 C0           test        rax,rax
  0000000010206769: 0F 84 2A 00 00 00  je          0000000010206799
  000000001020676F: 48 8B 45 F8        mov         rax,qword ptr [rbp-8]
  0000000010206773: 48 85 C0           test        rax,rax
  0000000010206776: 0F 84 05 00 00 00  je          0000000010206781
  000000001020677C: E9 08 00 00 00     jmp         0000000010206789
  0000000010206781: B0 04              mov         al,4
  0000000010206783: B9 D0 28 00 00     mov         ecx,28D0h
  0000000010206788: CC                 int         3
  0000000010206789: 48 8B 80 90 00 00  mov         rax,qword ptr [rax+0000000000000090h]
                    00
  0000000010206790: 48 89 45 F8        mov         qword ptr [rbp-8],rax
  0000000010206794: E9 AC FF FF FF     jmp         0000000010206745
  0000000010206799: 48 8B 45 F8        mov         rax,qword ptr [rbp-8]
  000000001020679D: 48 85 C0           test        rax,rax
  00000000102067A0: 0F 84 05 00 00 00  je          00000000102067AB
  00000000102067A6: E9 08 00 00 00     jmp         00000000102067B3
  00000000102067AB: B0 04              mov         al,4
  00000000102067AD: B9 DF 28 00 00     mov         ecx,28DFh
  00000000102067B2: CC                 int         3
  00000000102067B3: 48 8B 4D 10        mov         rcx,qword ptr [rbp+10h]
  00000000102067B7: 48 8B 09           mov         rcx,qword ptr [rcx]
  00000000102067BA: 48 89 88 90 00 00  mov         qword ptr [rax+0000000000000090h],rcx
                    00
  00000000102067C1: C9                 leave
  00000000102067C2: C3                 ret
  00000000102067C3: 55                 push        rbp
  00000000102067C4: 48 8B EC           mov         rbp,rsp
  00000000102067C7: 48 89 4D 10        mov         qword ptr [rbp+10h],rcx
  00000000102067CB: 48 8B 45 10        mov         rax,qword ptr [rbp+10h]
  00000000102067CF: 48 85 C0           test        rax,rax
  00000000102067D2: 0F 84 C1 01 00 00  je          0000000010206999
  00000000102067D8: 48 83 EC 20        sub         rsp,20h
  00000000102067DC: 48 8D 0D ED E5 FF  lea         rcx,[0000000010204DD0h]
                    FF
  00000000102067E3: 48 8B 55 10        mov         rdx,qword ptr [rbp+10h]
  00000000102067E7: 48 85 D2           test        rdx,rdx
  00000000102067EA: 0F 84 05 00 00 00  je          00000000102067F5
  00000000102067F0: E9 08 00 00 00     jmp         00000000102067FD
  00000000102067F5: B0 04              mov         al,4
  00000000102067F7: B9 5B 29 00 00     mov         ecx,295Bh
  00000000102067FC: CC                 int         3
  00000000102067FD: 48 8B 52 30        mov         rdx,qword ptr [rdx+30h]
  0000000010206801: E8 FA E7 FF FF     call        0000000010205000
  0000000010206806: 48 83 C4 20        add         rsp,20h
  000000001020680A: 48 83 EC 20        sub         rsp,20h
  000000001020680E: 48 8D 0D BB E5 FF  lea         rcx,[0000000010204DD0h]
                    FF
  0000000010206815: 48 8B 55 10        mov         rdx,qword ptr [rbp+10h]
  0000000010206819: 48 85 D2           test        rdx,rdx
  000000001020681C: 0F 84 05 00 00 00  je          0000000010206827
  0000000010206822: E9 08 00 00 00     jmp         000000001020682F
  0000000010206827: B0 04              mov         al,4
  0000000010206829: B9 77 29 00 00     mov         ecx,2977h
  000000001020682E: CC                 int         3
  000000001020682F: 48 8B 52 68        mov         rdx,qword ptr [rdx+68h]
  0000000010206833: E8 C8 E7 FF FF     call        0000000010205000
  0000000010206838: 48 83 C4 20        add         rsp,20h
  000000001020683C: 48 8B 45 10        mov         rax,qword ptr [rbp+10h]
  0000000010206840: 48 85 C0           test        rax,rax
  0000000010206843: 0F 84 05 00 00 00  je          000000001020684E
  0000000010206849: E9 08 00 00 00     jmp         0000000010206856
  000000001020684E: B0 04              mov         al,4
  0000000010206850: B9 87 29 00 00     mov         ecx,2987h
  0000000010206855: CC                 int         3
  0000000010206856: 48 8B 40 30        mov         rax,qword ptr [rax+30h]
  000000001020685A: 48 83 F8 FF        cmp         rax,0FFFFFFFFFFFFFFFFh
  000000001020685E: 0F 8D 8D 00 00 00  jge         00000000102068F1
  0000000010206864: 48 83 EC 20        sub         rsp,20h
  0000000010206868: 48 8D 0D 61 E5 FF  lea         rcx,[0000000010204DD0h]
                    FF
  000000001020686F: 48 8B 55 10        mov         rdx,qword ptr [rbp+10h]
  0000000010206873: 48 85 D2           test        rdx,rdx
  0000000010206876: 0F 84 05 00 00 00  je          0000000010206881
  000000001020687C: E9 08 00 00 00     jmp         0000000010206889
  0000000010206881: B0 04              mov         al,4
  0000000010206883: B9 B8 29 00 00     mov         ecx,29B8h
  0000000010206888: CC                 int         3
  0000000010206889: 48 8B 52 30        mov         rdx,qword ptr [rdx+30h]
  000000001020688D: 48 F7 DA           neg         rdx
  0000000010206890: 48 83 EA 02        sub         rdx,2
  0000000010206894: 48 81 FA 00 01 00  cmp         rdx,100h
                    00
  000000001020689B: 0F 83 05 00 00 00  jae         00000000102068A6
  00000000102068A1: E9 08 00 00 00     jmp         00000000102068AE
  00000000102068A6: B0 01              mov         al,1
  00000000102068A8: B9 BE 29 00 00     mov         ecx,29BEh
  00000000102068AD: CC                 int         3
  00000000102068AE: 48 C1 E2 03        shl         rdx,3
  00000000102068B2: 4C 8D 05 F7 BC FF  lea         r8,[00000000102025B0h]
                    FF
  00000000102068B9: 49 03 D0           add         rdx,r8
  00000000102068BC: 48 8B 12           mov         rdx,qword ptr [rdx]
  00000000102068BF: 48 85 D2           test        rdx,rdx
  00000000102068C2: 0F 84 05 00 00 00  je          00000000102068CD
  00000000102068C8: E9 08 00 00 00     jmp         00000000102068D5
  00000000102068CD: B0 04              mov         al,4
  00000000102068CF: B9 BF 29 00 00     mov         ecx,29BFh
  00000000102068D4: CC                 int         3
  00000000102068D5: 48 81 C2 28 02 00  add         rdx,228h
                    00
  00000000102068DC: 41 B8 40 00 00 00  mov         r8d,40h
  00000000102068E2: FF 15 F8 B6 DF FF  call        qword ptr [0000000010001FE0h]
  00000000102068E8: 48 83 C4 20        add         rsp,20h
  00000000102068EC: E9 A3 00 00 00     jmp         0000000010206994
  00000000102068F1: 48 8B 45 10        mov         rax,qword ptr [rbp+10h]
  00000000102068F5: 48 85 C0           test        rax,rax
  00000000102068F8: 0F 84 05 00 00 00  je          0000000010206903
  00000000102068FE: E9 08 00 00 00     jmp         000000001020690B
  0000000010206903: B0 04              mov         al,4
  0000000010206905: B9 D2 29 00 00     mov         ecx,29D2h
  000000001020690A: CC                 int         3
  000000001020690B: 48 8B 40 30        mov         rax,qword ptr [rax+30h]
  000000001020690F: 48 85 C0           test        rax,rax
  0000000010206912: 0F 85 47 00 00 00  jne         000000001020695F
  0000000010206918: 48 8B 45 10        mov         rax,qword ptr [rbp+10h]
  000000001020691C: 48 85 C0           test        rax,rax
  000000001020691F: 0F 84 05 00 00 00  je          000000001020692A
  0000000010206925: E9 08 00 00 00     jmp         0000000010206932
  000000001020692A: B0 04              mov         al,4
  000000001020692C: B9 EA 29 00 00     mov         ecx,29EAh
  0000000010206931: CC                 int         3
  0000000010206932: 48 8B 40 68        mov         rax,qword ptr [rax+68h]
  0000000010206936: 48 85 C0           test        rax,rax
  0000000010206939: 0F 8D 1B 00 00 00  jge         000000001020695A
  000000001020693F: 48 8B 05 52 BC DF  mov         rax,qword ptr [0000000010002598h]
                    FF
  0000000010206946: 50                 push        rax
  0000000010206947: 48 83 EC 28        sub         rsp,28h
  000000001020694B: 48 8B 4D 10        mov         rcx,qword ptr [rbp+10h]
  000000001020694F: 48 8B 44 24 28     mov         rax,qword ptr [rsp+28h]
  0000000010206954: FF D0              call        rax
  0000000010206956: 48 83 C4 30        add         rsp,30h
  000000001020695A: E9 35 00 00 00     jmp         0000000010206994
  000000001020695F: 48 8B 45 10        mov         rax,qword ptr [rbp+10h]
  0000000010206963: 48 85 C0           test        rax,rax
  0000000010206966: 0F 84 05 00 00 00  je          0000000010206971
  000000001020696C: E9 08 00 00 00     jmp         0000000010206979
  0000000010206971: B0 04              mov         al,4
  0000000010206973: B9 1F 2A 00 00     mov         ecx,2A1Fh
  0000000010206978: CC                 int         3
  0000000010206979: 48 8B 40 30        mov         rax,qword ptr [rax+30h]
  000000001020697D: 48 83 F8 FF        cmp         rax,0FFFFFFFFFFFFFFFFh
  0000000010206981: 0F 85 05 00 00 00  jne         000000001020698C
  0000000010206987: E9 08 00 00 00     jmp         0000000010206994
  000000001020698C: B0 03              mov         al,3
  000000001020698E: B9 28 2A 00 00     mov         ecx,2A28h
  0000000010206993: CC                 int         3
  0000000010206994: E9 34 00 00 00     jmp         00000000102069CD
  0000000010206999: 48 83 EC 20        sub         rsp,20h
  000000001020699D: 48 8D 0D 2C E4 FF  lea         rcx,[0000000010204DD0h]
                    FF
  00000000102069A4: 48 BA FF FF FF FF  mov         rdx,0FFFFFFFFFFFFFFFFh
                    FF FF FF FF
  00000000102069AE: E8 4D E6 FF FF     call        0000000010205000
  00000000102069B3: 48 83 C4 20        add         rsp,20h
  00000000102069B7: 48 83 EC 20        sub         rsp,20h
  00000000102069BB: 48 8D 0D 0E E4 FF  lea         rcx,[0000000010204DD0h]
                    FF
  00000000102069C2: 31 D2              xor         edx,edx
  00000000102069C4: E8 37 E6 FF FF     call        0000000010205000
  00000000102069C9: 48 83 C4 20        add         rsp,20h
  00000000102069CD: C9                 leave
  00000000102069CE: C3                 ret
  00000000102069CF: 55                 push        rbp
  00000000102069D0: 48 8B EC           mov         rbp,rsp
  00000000102069D3: 48 83 EC 10        sub         rsp,10h
  00000000102069D7: 48 89 4D 10        mov         qword ptr [rbp+10h],rcx
  00000000102069DB: 48 C7 45 F8 00 00  mov         qword ptr [rbp-8],0
                    00 00
  00000000102069E3: 48 C7 45 F0 00 00  mov         qword ptr [rbp-10h],0
                    00 00
  00000000102069EB: 48 83 EC 20        sub         rsp,20h
  00000000102069EF: 48 8D 0D DA E3 FF  lea         rcx,[0000000010204DD0h]
                    FF
  00000000102069F6: 48 8B 55 10        mov         rdx,qword ptr [rbp+10h]
  00000000102069FA: 48 85 D2           test        rdx,rdx
  00000000102069FD: 0F 84 05 00 00 00  je          0000000010206A08
  0000000010206A03: E9 08 00 00 00     jmp         0000000010206A10
  0000000010206A08: B0 04              mov         al,4
  0000000010206A0A: B9 D7 2A 00 00     mov         ecx,2AD7h
  0000000010206A0F: CC                 int         3
  0000000010206A10: 48 8B 52 08        mov         rdx,qword ptr [rdx+8]
  0000000010206A14: E8 E7 E5 FF FF     call        0000000010205000
  0000000010206A19: 48 83 C4 20        add         rsp,20h
  0000000010206A1D: 48 83 EC 20        sub         rsp,20h
  0000000010206A21: 48 8D 0D A8 E3 FF  lea         rcx,[0000000010204DD0h]
                    FF
  0000000010206A28: 48 8B 55 10        mov         rdx,qword ptr [rbp+10h]
  0000000010206A2C: 48 85 D2           test        rdx,rdx
  0000000010206A2F: 0F 84 05 00 00 00  je          0000000010206A3A
  0000000010206A35: E9 08 00 00 00     jmp         0000000010206A42
  0000000010206A3A: B0 04              mov         al,4
  0000000010206A3C: B9 F4 2A 00 00     mov         ecx,2AF4h
  0000000010206A41: CC                 int         3
  0000000010206A42: 48 8B 52 10        mov         rdx,qword ptr [rdx+10h]
  0000000010206A46: E8 B5 E5 FF FF     call        0000000010205000
  0000000010206A4B: 48 83 C4 20        add         rsp,20h
  0000000010206A4F: 48 83 EC 20        sub         rsp,20h
  0000000010206A53: 48 8D 0D 76 E3 FF  lea         rcx,[0000000010204DD0h]
                    FF
  0000000010206A5A: 48 8B 55 10        mov         rdx,qword ptr [rbp+10h]
  0000000010206A5E: 48 85 D2           test        rdx,rdx
  0000000010206A61: 0F 84 05 00 00 00  je          0000000010206A6C
  0000000010206A67: E9 08 00 00 00     jmp         0000000010206A74
  0000000010206A6C: B0 04              mov         al,4
  0000000010206A6E: B9 14 2B 00 00     mov         ecx,2B14h
  0000000010206A73: CC                 int         3
  0000000010206A74: 48 8B 52 50        mov         rdx,qword ptr [rdx+50h]
  0000000010206A78: E8 83 E5 FF FF     call        0000000010205000
  0000000010206A7D: 48 83 C4 20        add         rsp,20h
  0000000010206A81: 48 83 EC 20        sub         rsp,20h
  0000000010206A85: 48 8B 4D 10        mov         rcx,qword ptr [rbp+10h]
  0000000010206A89: 48 85 C9           test        rcx,rcx
  0000000010206A8C: 0F 84 05 00 00 00  je          0000000010206A97
  0000000010206A92: E9 08 00 00 00     jmp         0000000010206A9F
  0000000010206A97: B0 04              mov         al,4
  0000000010206A99: B9 30 2B 00 00     mov         ecx,2B30h
  0000000010206A9E: CC                 int         3
  0000000010206A9F: 48 8B 49 40        mov         rcx,qword ptr [rcx+40h]
  0000000010206AA3: E8 1B FD FF FF     call        00000000102067C3
  0000000010206AA8: 48 83 C4 20        add         rsp,20h
  0000000010206AAC: 48 8B 45 10        mov         rax,qword ptr [rbp+10h]
  0000000010206AB0: 48 85 C0           test        rax,rax
  0000000010206AB3: 0F 84 05 00 00 00  je          0000000010206ABE
  0000000010206AB9: E9 08 00 00 00     jmp         0000000010206AC6
  0000000010206ABE: B0 04              mov         al,4
  0000000010206AC0: B9 44 2B 00 00     mov         ecx,2B44h
  0000000010206AC5: CC                 int         3
  0000000010206AC6: 48 8B 40 48        mov         rax,qword ptr [rax+48h]
  0000000010206ACA: 48 89 45 F8        mov         qword ptr [rbp-8],rax
  0000000010206ACE: 48 8B 45 F8        mov         rax,qword ptr [rbp-8]
  0000000010206AD2: 48 85 C0           test        rax,rax
  0000000010206AD5: 0F 84 38 01 00 00  je          0000000010206C13
  0000000010206ADB: 48 8B 45 F8        mov         rax,qword ptr [rbp-8]
  0000000010206ADF: 48 85 C0           test        rax,rax
  0000000010206AE2: 0F 84 05 00 00 00  je          0000000010206AED
  0000000010206AE8: E9 08 00 00 00     jmp         0000000010206AF5
  0000000010206AED: B0 04              mov         al,4
  0000000010206AEF: B9 6A 2B 00 00     mov         ecx,2B6Ah
  0000000010206AF4: CC                 int         3
  0000000010206AF5: 48 8B 80 88 00 00  mov         rax,qword ptr [rax+0000000000000088h]
                    00
  0000000010206AFC: 48 8B 48 F8        mov         rcx,qword ptr [rax-8]
  0000000010206B00: 48 8D 15 89 B6 DF  lea         rdx,[0000000010002190h]
                    FF
  0000000010206B07: 48 39 51 10        cmp         qword ptr [rcx+10h],rdx
  0000000010206B0B: 0F 85 05 00 00 00  jne         0000000010206B16
  0000000010206B11: E9 08 00 00 00     jmp         0000000010206B1E
  0000000010206B16: B0 02              mov         al,2
  0000000010206B18: B9 72 2B 00 00     mov         ecx,2B72h
  0000000010206B1D: CC                 int         3
  0000000010206B1E: 48 89 45 F0        mov         qword ptr [rbp-10h],rax
  0000000010206B22: 48 83 EC 20        sub         rsp,20h
  0000000010206B26: 48 8D 0D A3 E2 FF  lea         rcx,[0000000010204DD0h]
                    FF
  0000000010206B2D: 48 8B 55 F0        mov         rdx,qword ptr [rbp-10h]
  0000000010206B31: 48 85 D2           test        rdx,rdx
  0000000010206B34: 0F 84 05 00 00 00  je          0000000010206B3F
  0000000010206B3A: E9 08 00 00 00     jmp         0000000010206B47
  0000000010206B3F: B0 04              mov         al,4
  0000000010206B41: B9 8B 2B 00 00     mov         ecx,2B8Bh
  0000000010206B46: CC                 int         3
  0000000010206B47: 48 8B 12           mov         rdx,qword ptr [rdx]
  0000000010206B4A: E8 B1 E4 FF FF     call        0000000010205000
  0000000010206B4F: 48 83 C4 20        add         rsp,20h
  0000000010206B53: 48 83 EC 20        sub         rsp,20h
  0000000010206B57: 48 8D 0D 72 E2 FF  lea         rcx,[0000000010204DD0h]
                    FF
  0000000010206B5E: 48 8B 55 F8        mov         rdx,qword ptr [rbp-8]
  0000000010206B62: 48 85 D2           test        rdx,rdx
  0000000010206B65: 0F 84 05 00 00 00  je          0000000010206B70
  0000000010206B6B: E9 08 00 00 00     jmp         0000000010206B78
  0000000010206B70: B0 04              mov         al,4
  0000000010206B72: B9 B0 2B 00 00     mov         ecx,2BB0h
  0000000010206B77: CC                 int         3
  0000000010206B78: 48 83 C2 02        add         rdx,2
  0000000010206B7C: 41 B8 40 00 00 00  mov         r8d,40h
  0000000010206B82: FF 15 58 B4 DF FF  call        qword ptr [0000000010001FE0h]
  0000000010206B88: 48 83 C4 20        add         rsp,20h
  0000000010206B8C: 48 83 EC 20        sub         rsp,20h
  0000000010206B90: 48 8D 0D 39 E2 FF  lea         rcx,[0000000010204DD0h]
                    FF
  0000000010206B97: 48 8B 55 F0        mov         rdx,qword ptr [rbp-10h]
  0000000010206B9B: 48 85 D2           test        rdx,rdx
  0000000010206B9E: 0F 84 05 00 00 00  je          0000000010206BA9
  0000000010206BA4: E9 08 00 00 00     jmp         0000000010206BB1
  0000000010206BA9: B0 04              mov         al,4
  0000000010206BAB: B9 D2 2B 00 00     mov         ecx,2BD2h
  0000000010206BB0: CC                 int         3
  0000000010206BB1: 0F B6 52 41        movzx       edx,byte ptr [rdx+41h]
  0000000010206BB5: E8 46 E4 FF FF     call        0000000010205000
  0000000010206BBA: 48 83 C4 20        add         rsp,20h
  0000000010206BBE: 48 83 EC 20        sub         rsp,20h
  0000000010206BC2: 48 8B 4D F0        mov         rcx,qword ptr [rbp-10h]
  0000000010206BC6: 48 85 C9           test        rcx,rcx
  0000000010206BC9: 0F 84 05 00 00 00  je          0000000010206BD4
  0000000010206BCF: E9 08 00 00 00     jmp         0000000010206BDC
  0000000010206BD4: B0 04              mov         al,4
  0000000010206BD6: B9 EC 2B 00 00     mov         ecx,2BECh
  0000000010206BDB: CC                 int         3
  0000000010206BDC: 48 8B 49 08        mov         rcx,qword ptr [rcx+8]
  0000000010206BE0: E8 DE FB FF FF     call        00000000102067C3
  0000000010206BE5: 48 83 C4 20        add         rsp,20h
  0000000010206BE9: 48 8B 45 F8        mov         rax,qword ptr [rbp-8]
  0000000010206BED: 48 85 C0           test        rax,rax
  0000000010206BF0: 0F 84 05 00 00 00  je          0000000010206BFB
  0000000010206BF6: E9 08 00 00 00     jmp         0000000010206C03
  0000000010206BFB: B0 04              mov         al,4
  0000000010206BFD: B9 01 2C 00 00     mov         ecx,2C01h
  0000000010206C02: CC                 int         3
  0000000010206C03: 48 8B 80 90 00 00  mov         rax,qword ptr [rax+0000000000000090h]
                    00
  0000000010206C0A: 48 89 45 F8        mov         qword ptr [rbp-8],rax
  0000000010206C0E: E9 BB FE FF FF     jmp         0000000010206ACE
  0000000010206C13: 48 83 EC 20        sub         rsp,20h
  0000000010206C17: 48 8D 0D B2 E1 FF  lea         rcx,[0000000010204DD0h]
                    FF
  0000000010206C1E: BA 01 00 00 00     mov         edx,1
  0000000010206C23: E8 D8 E3 FF FF     call        0000000010205000
  0000000010206C28: 48 83 C4 20        add         rsp,20h
  0000000010206C2C: C9                 leave
  0000000010206C2D: C3                 ret
  0000000010206C2E: 55                 push        rbp
  0000000010206C2F: 48 8B EC           mov         rbp,rsp
  0000000010206C32: 48 81 EC 10 02 00  sub         rsp,210h
                    00
  0000000010206C39: 48 89 4D 10        mov         qword ptr [rbp+10h],rcx
  0000000010206C3D: 48 C7 45 F8 00 00  mov         qword ptr [rbp-8],0
                    00 00
  0000000010206C45: 48 C7 45 F0 00 00  mov         qword ptr [rbp-10h],0
                    00 00
  0000000010206C4D: 48 8B 05 74 E1 FF  mov         rax,qword ptr [0000000010204DC8h]
                    FF
  0000000010206C54: 48 81 F8 00 04 00  cmp         rax,400h
                    00
  0000000010206C5B: 0F 8D 32 00 00 00  jge         0000000010206C93
  0000000010206C61: 48 8B 45 10        mov         rax,qword ptr [rbp+10h]
  0000000010206C65: 48 85 C0           test        rax,rax
  0000000010206C68: 0F 84 05 00 00 00  je          0000000010206C73
  0000000010206C6E: E9 08 00 00 00     jmp         0000000010206C7B
  0000000010206C73: B0 04              mov         al,4
  0000000010206C75: B9 AB 2C 00 00     mov         ecx,2CABh
  0000000010206C7A: CC                 int         3
  0000000010206C7B: 48 8B 0D 46 E1 FF  mov         rcx,qword ptr [0000000010204DC8h]
                    FF
  0000000010206C82: 48 89 48 68        mov         qword ptr [rax+68h],rcx
  0000000010206C86: 48 83 05 3A E1 FF  add         qword ptr [0000000010204DC8h],1
                    FF 01
  0000000010206C8E: E9 1A 00 00 00     jmp         0000000010206CAD
  0000000010206C93: 48 83 EC 20        sub         rsp,20h
  0000000010206C97: 48 8D 0D 12 B3 DF  lea         rcx,[0000000010001FB0h]
                    FF
  0000000010206C9E: BA 18 00 00 00     mov         edx,18h
  0000000010206CA3: FF 15 67 B3 DF FF  call        qword ptr [0000000010002010h]
  0000000010206CA9: 48 83 C4 20        add         rsp,20h
  0000000010206CAD: 48 83 EC 20        sub         rsp,20h
  0000000010206CB1: 48 8D 0D 18 E1 FF  lea         rcx,[0000000010204DD0h]
                    FF
  0000000010206CB8: 48 8B 55 10        mov         rdx,qword ptr [rbp+10h]
  0000000010206CBC: 48 85 D2           test        rdx,rdx
  0000000010206CBF: 0F 84 05 00 00 00  je          0000000010206CCA
  0000000010206CC5: E9 08 00 00 00     jmp         0000000010206CD2
  0000000010206CCA: B0 04              mov         al,4
  0000000010206CCC: B9 0C 2D 00 00     mov         ecx,2D0Ch
  0000000010206CD1: CC                 int         3
  0000000010206CD2: 48 8B 52 68        mov         rdx,qword ptr [rdx+68h]
  0000000010206CD6: E8 25 E3 FF FF     call        0000000010205000
  0000000010206CDB: 48 83 C4 20        add         rsp,20h
  0000000010206CDF: 48 8B 45 10        mov         rax,qword ptr [rbp+10h]
  0000000010206CE3: 48 85 C0           test        rax,rax
  0000000010206CE6: 0F 84 05 00 00 00  je          0000000010206CF1
  0000000010206CEC: E9 08 00 00 00     jmp         0000000010206CF9
  0000000010206CF1: B0 04              mov         al,4
  0000000010206CF3: B9 1B 2D 00 00     mov         ecx,2D1Bh
  0000000010206CF8: CC                 int         3
  0000000010206CF9: 48 8B 00           mov         rax,qword ptr [rax]
  0000000010206CFC: 48 83 F8 08        cmp         rax,8
  0000000010206D00: 0F 85 04 01 00 00  jne         0000000010206E0A
  0000000010206D06: 48 83 EC 20        sub         rsp,20h
  0000000010206D0A: 48 8D 4D F0        lea         rcx,[rbp-10h]
  0000000010206D0E: E8 B2 F9 FF FF     call        00000000102066C5
  0000000010206D13: 48 83 C4 20        add         rsp,20h
  0000000010206D17: 48 8B 45 F0        mov         rax,qword ptr [rbp-10h]
  0000000010206D1B: 48 85 C0           test        rax,rax
  0000000010206D1E: 0F 84 05 00 00 00  je          0000000010206D29
  0000000010206D24: E9 08 00 00 00     jmp         0000000010206D31
  0000000010206D29: B0 04              mov         al,4
  0000000010206D2B: B9 4C 2D 00 00     mov         ecx,2D4Ch
  0000000010206D30: CC                 int         3
  0000000010206D31: 50                 push        rax
  0000000010206D32: 48 83 EC 28        sub         rsp,28h
  0000000010206D36: 48 8B 0D 13 B8 DF  mov         rcx,qword ptr [0000000010002550h]
                    FF
  0000000010206D3D: BA 08 00 00 00     mov         edx,8
  0000000010206D42: 41 B8 38 00 00 00  mov         r8d,38h
  0000000010206D48: FF 15 2A B8 DF FF  call        qword ptr [0000000010002578h]
  0000000010206D4E: 48 83 C4 28        add         rsp,28h
  0000000010206D52: 48 8B C8           mov         rcx,rax
  0000000010206D55: 58                 pop         rax
  0000000010206D56: 48 83 C1 10        add         rcx,10h
  0000000010206D5A: 48 8D 15 5F B7 DF  lea         rdx,[00000000100024C0h]
                    FF
  0000000010206D61: 48 89 51 F8        mov         qword ptr [rcx-8],rdx
  0000000010206D65: 48 89 88 88 00 00  mov         qword ptr [rax+0000000000000088h],rcx
                    00
  0000000010206D6C: 48 8B 45 F0        mov         rax,qword ptr [rbp-10h]
  0000000010206D70: 48 85 C0           test        rax,rax
  0000000010206D73: 0F 84 05 00 00 00  je          0000000010206D7E
  0000000010206D79: E9 08 00 00 00     jmp         0000000010206D86
  0000000010206D7E: B0 04              mov         al,4
  0000000010206D80: B9 58 2D 00 00     mov         ecx,2D58h
  0000000010206D85: CC                 int         3
  0000000010206D86: 48 8B 80 88 00 00  mov         rax,qword ptr [rax+0000000000000088h]
                    00
  0000000010206D8D: 48 85 C0           test        rax,rax
  0000000010206D90: 0F 84 05 00 00 00  je          0000000010206D9B
  0000000010206D96: E9 08 00 00 00     jmp         0000000010206DA3
  0000000010206D9B: B0 04              mov         al,4
  0000000010206D9D: B9 5C 2D 00 00     mov         ecx,2D5Ch
  0000000010206DA2: CC                 int         3
  0000000010206DA3: B9 01 00 00 00     mov         ecx,1
  0000000010206DA8: 48 89 08           mov         qword ptr [rax],rcx
  0000000010206DAB: 48 8B 45 F0        mov         rax,qword ptr [rbp-10h]
  0000000010206DAF: 48 85 C0           test        rax,rax
  0000000010206DB2: 0F 84 05 00 00 00  je          0000000010206DBD
  0000000010206DB8: E9 08 00 00 00     jmp         0000000010206DC5
  0000000010206DBD: B0 04              mov         al,4
  0000000010206DBF: B9 75 2D 00 00     mov         ecx,2D75h
  0000000010206DC4: CC                 int         3
  0000000010206DC5: 48 8B 80 88 00 00  mov         rax,qword ptr [rax+0000000000000088h]
                    00
  0000000010206DCC: 48 85 C0           test        rax,rax
  0000000010206DCF: 0F 84 05 00 00 00  je          0000000010206DDA
  0000000010206DD5: E9 08 00 00 00     jmp         0000000010206DE2
  0000000010206DDA: B0 04              mov         al,4
  0000000010206DDC: B9 79 2D 00 00     mov         ecx,2D79h
  0000000010206DE1: CC                 int         3
  0000000010206DE2: 48 8B 4D 10        mov         rcx,qword ptr [rbp+10h]
  0000000010206DE6: 48 89 48 08        mov         qword ptr [rax+8],rcx
  0000000010206DEA: 48 83 EC 20        sub         rsp,20h
  0000000010206DEE: 48 8D 0D DB DF FF  lea         rcx,[0000000010204DD0h]
                    FF
  0000000010206DF5: 48 8B 15 BC DF FF  mov         rdx,qword ptr [0000000010204DB8h]
                    FF
  0000000010206DFC: E8 FF E1 FF FF     call        0000000010205000
  0000000010206E01: 48 83 C4 20        add         rsp,20h
  0000000010206E05: E9 16 00 00 00     jmp         0000000010206E20
  0000000010206E0A: 48 83 EC 20        sub         rsp,20h
  0000000010206E0E: 48 8D 0D BB DF FF  lea         rcx,[0000000010204DD0h]
                    FF
  0000000010206E15: 31 D2              xor         edx,edx
  0000000010206E17: E8 E4 E1 FF FF     call        0000000010205000
  0000000010206E1C: 48 83 C4 20        add         rsp,20h
  0000000010206E20: 48 83 EC 20        sub         rsp,20h
  0000000010206E24: 48 8D 0D A5 DF FF  lea         rcx,[0000000010204DD0h]
                    FF
  0000000010206E2B: 48 8B 55 10        mov         rdx,qword ptr [rbp+10h]
  0000000010206E2F: 48 85 D2           test        rdx,rdx
  0000000010206E32: 0F 84 05 00 00 00  je          0000000010206E3D
  0000000010206E38: E9 08 00 00 00     jmp         0000000010206E45
  0000000010206E3D: B0 04              mov         al,4
  0000000010206E3F: B9 DA 2D 00 00     mov         ecx,2DDAh
  0000000010206E44: CC                 int         3
  0000000010206E45: 48 8B 12           mov         rdx,qword ptr [rdx]
  0000000010206E48: E8 B3 E1 FF FF     call        0000000010205000
  0000000010206E4D: 48 83 C4 20        add         rsp,20h
  0000000010206E51: 48 8B 45 10        mov         rax,qword ptr [rbp+10h]
  0000000010206E55: 48 85 C0           test        rax,rax
  0000000010206E58: 0F 84 05 00 00 00  je          0000000010206E63
  0000000010206E5E: E9 08 00 00 00     jmp         0000000010206E6B
  0000000010206E63: B0 04              mov         al,4
  0000000010206E65: B9 EA 2D 00 00     mov         ecx,2DEAh
  0000000010206E6A: CC                 int         3
  0000000010206E6B: 48 8B 00           mov         rax,qword ptr [rax]
  0000000010206E6E: 48 83 F8 08        cmp         rax,8
  0000000010206E72: 0F 85 66 02 00 00  jne         00000000102070DE
  0000000010206E78: 48 83 EC 20        sub         rsp,20h
  0000000010206E7C: 48 8D 0D 4D DF FF  lea         rcx,[0000000010204DD0h]
                    FF
  0000000010206E83: 48 8B 55 10        mov         rdx,qword ptr [rbp+10h]
  0000000010206E87: 48 85 D2           test        rdx,rdx
  0000000010206E8A: 0F 84 05 00 00 00  je          0000000010206E95
  0000000010206E90: E9 08 00 00 00     jmp         0000000010206E9D
  0000000010206E95: B0 04              mov         al,4
  0000000010206E97: B9 14 2E 00 00     mov         ecx,2E14h
  0000000010206E9C: CC                 int         3
  0000000010206E9D: 48 8B 52 08        mov         rdx,qword ptr [rdx+8]
  0000000010206EA1: E8 5A E1 FF FF     call        0000000010205000
  0000000010206EA6: 48 83 C4 20        add         rsp,20h
  0000000010206EAA: 48 83 EC 20        sub         rsp,20h
  0000000010206EAE: 48 8D 0D 1B DF FF  lea         rcx,[0000000010204DD0h]
                    FF
  0000000010206EB5: 48 8B 55 10        mov         rdx,qword ptr [rbp+10h]
  0000000010206EB9: 48 85 D2           test        rdx,rdx
  0000000010206EBC: 0F 84 05 00 00 00  je          0000000010206EC7
  0000000010206EC2: E9 08 00 00 00     jmp         0000000010206ECF
  0000000010206EC7: B0 04              mov         al,4
  0000000010206EC9: B9 31 2E 00 00     mov         ecx,2E31h
  0000000010206ECE: CC                 int         3
  0000000010206ECF: 48 8B 52 10        mov         rdx,qword ptr [rdx+10h]
  0000000010206ED3: E8 28 E1 FF FF     call        0000000010205000
  0000000010206ED8: 48 83 C4 20        add         rsp,20h
  0000000010206EDC: 48 83 EC 20        sub         rsp,20h
  0000000010206EE0: 48 8B 4D 10        mov         rcx,qword ptr [rbp+10h]
  0000000010206EE4: 48 85 C9           test        rcx,rcx
  0000000010206EE7: 0F 84 05 00 00 00  je          0000000010206EF2
  0000000010206EED: E9 08 00 00 00     jmp         0000000010206EFA
  0000000010206EF2: B0 04              mov         al,4
  0000000010206EF4: B9 4B 2E 00 00     mov         ecx,2E4Bh
  0000000010206EF9: CC                 int         3
  0000000010206EFA: 48 8B 49 40        mov         rcx,qword ptr [rcx+40h]
  0000000010206EFE: E8 C0 F8 FF FF     call        00000000102067C3
  0000000010206F03: 48 83 C4 20        add         rsp,20h
  0000000010206F07: 48 8B 45 10        mov         rax,qword ptr [rbp+10h]
  0000000010206F0B: 48 85 C0           test        rax,rax
  0000000010206F0E: 0F 84 05 00 00 00  je          0000000010206F19
  0000000010206F14: E9 08 00 00 00     jmp         0000000010206F21
  0000000010206F19: B0 04              mov         al,4
  0000000010206F1B: B9 5D 2E 00 00     mov         ecx,2E5Dh
  0000000010206F20: CC                 int         3
  0000000010206F21: 48 8B 40 48        mov         rax,qword ptr [rax+48h]
  0000000010206F25: 48 89 45 F8        mov         qword ptr [rbp-8],rax
  0000000010206F29: 48 8B 45 F8        mov         rax,qword ptr [rbp-8]
  0000000010206F2D: 48 85 C0           test        rax,rax
  0000000010206F30: 0F 84 8A 01 00 00  je          00000000102070C0
  0000000010206F36: 48 83 EC 20        sub         rsp,20h
  0000000010206F3A: 48 8D 0D 8F DE FF  lea         rcx,[0000000010204DD0h]
                    FF
  0000000010206F41: BA 06 00 00 00     mov         edx,6
  0000000010206F46: E8 B5 E0 FF FF     call        0000000010205000
  0000000010206F4B: 48 83 C4 20        add         rsp,20h
  0000000010206F4F: 48 8B 45 F8        mov         rax,qword ptr [rbp-8]
  0000000010206F53: 48 85 C0           test        rax,rax
  0000000010206F56: 0F 84 05 00 00 00  je          0000000010206F61
  0000000010206F5C: E9 08 00 00 00     jmp         0000000010206F69
  0000000010206F61: B0 04              mov         al,4
  0000000010206F63: B9 A6 2E 00 00     mov         ecx,2EA6h
  0000000010206F68: CC                 int         3
  0000000010206F69: 0F B6 00           movzx       eax,byte ptr [rax]
  0000000010206F6C: 85 C0              test        eax,eax
  0000000010206F6E: 0F 85 30 00 00 00  jne         0000000010206FA4
  0000000010206F74: 31 C0              xor         eax,eax
  0000000010206F76: 66 89 85 F0 FD FF  mov         word ptr [rbp+FFFFFFFFFFFFFDF0h],ax
                    FF
  0000000010206F7D: 48 83 EC 20        sub         rsp,20h
  0000000010206F81: 48 8D 0D 48 DE FF  lea         rcx,[0000000010204DD0h]
                    FF
  0000000010206F88: 48 8D 95 F0 FD FF  lea         rdx,[rbp+FFFFFFFFFFFFFDF0h]
                    FF
  0000000010206F8F: 41 B8 00 01 00 00  mov         r8d,100h
  0000000010206F95: FF 15 45 B0 DF FF  call        qword ptr [0000000010001FE0h]
  0000000010206F9B: 48 83 C4 20        add         rsp,20h
  0000000010206F9F: E9 39 00 00 00     jmp         0000000010206FDD
  0000000010206FA4: 48 83 EC 20        sub         rsp,20h
  0000000010206FA8: 48 8D 0D 21 DE FF  lea         rcx,[0000000010204DD0h]
                    FF
  0000000010206FAF: 48 8B 55 F8        mov         rdx,qword ptr [rbp-8]
  0000000010206FB3: 48 85 D2           test        rdx,rdx
  0000000010206FB6: 0F 84 05 00 00 00  je          0000000010206FC1
  0000000010206FBC: E9 08 00 00 00     jmp         0000000010206FC9
  0000000010206FC1: B0 04              mov         al,4
  0000000010206FC3: B9 FA 2E 00 00     mov         ecx,2EFAh
  0000000010206FC8: CC                 int         3
  0000000010206FC9: 48 83 C2 02        add         rdx,2
  0000000010206FCD: 41 B8 40 00 00 00  mov         r8d,40h
  0000000010206FD3: FF 15 07 B0 DF FF  call        qword ptr [0000000010001FE0h]
  0000000010206FD9: 48 83 C4 20        add         rsp,20h
  0000000010206FDD: 48 83 EC 20        sub         rsp,20h
  0000000010206FE1: 48 8B 4D F8        mov         rcx,qword ptr [rbp-8]
  0000000010206FE5: 48 85 C9           test        rcx,rcx
  0000000010206FE8: 0F 84 05 00 00 00  je          0000000010206FF3
  0000000010206FEE: E9 08 00 00 00     jmp         0000000010206FFB
  0000000010206FF3: B0 04              mov         al,4
  0000000010206FF5: B9 1C 2F 00 00     mov         ecx,2F1Ch
  0000000010206FFA: CC                 int         3
  0000000010206FFB: 48 8B 89 88 00 00  mov         rcx,qword ptr [rcx+0000000000000088h]
                    00
  0000000010207002: 48 85 C9           test        rcx,rcx
  0000000010207005: 0F 84 05 00 00 00  je          0000000010207010
  000000001020700B: E9 08 00 00 00     jmp         0000000010207018
  0000000010207010: B0 04              mov         al,4
  0000000010207012: B9 20 2F 00 00     mov         ecx,2F20h
  0000000010207017: CC                 int         3
  0000000010207018: 48 8B 49 08        mov         rcx,qword ptr [rcx+8]
  000000001020701C: E8 A2 F7 FF FF     call        00000000102067C3
  0000000010207021: 48 83 C4 20        add         rsp,20h
  0000000010207025: 48 83 EC 20        sub         rsp,20h
  0000000010207029: 48 8D 0D A0 DD FF  lea         rcx,[0000000010204DD0h]
                    FF
  0000000010207030: 48 8B 55 F8        mov         rdx,qword ptr [rbp-8]
  0000000010207034: 48 85 D2           test        rdx,rdx
  0000000010207037: 0F 84 05 00 00 00  je          0000000010207042
  000000001020703D: E9 08 00 00 00     jmp         000000001020704A
  0000000010207042: B0 04              mov         al,4
  0000000010207044: B9 41 2F 00 00     mov         ecx,2F41h
  0000000010207049: CC                 int         3
  000000001020704A: 48 8B 92 88 00 00  mov         rdx,qword ptr [rdx+0000000000000088h]
                    00
  0000000010207051: 4C 8B 42 F8        mov         r8,qword ptr [rdx-8]
  0000000010207055: 4C 8D 0D 94 B0 DF  lea         r9,[00000000100020F0h]
                    FF
  000000001020705C: 4D 39 48 08        cmp         qword ptr [r8+8],r9
  0000000010207060: 0F 85 05 00 00 00  jne         000000001020706B
  0000000010207066: E9 08 00 00 00     jmp         0000000010207073
  000000001020706B: B0 02              mov         al,2
  000000001020706D: B9 4B 2F 00 00     mov         ecx,2F4Bh
  0000000010207072: CC                 int         3
  0000000010207073: 48 85 D2           test        rdx,rdx
  0000000010207076: 0F 84 05 00 00 00  je          0000000010207081
  000000001020707C: E9 08 00 00 00     jmp         0000000010207089
  0000000010207081: B0 04              mov         al,4
  0000000010207083: B9 4C 2F 00 00     mov         ecx,2F4Ch
  0000000010207088: CC                 int         3
  0000000010207089: 48 8B 52 28        mov         rdx,qword ptr [rdx+28h]
  000000001020708D: E8 6E DF FF FF     call        0000000010205000
  0000000010207092: 48 83 C4 20        add         rsp,20h
  0000000010207096: 48 8B 45 F8        mov         rax,qword ptr [rbp-8]
  000000001020709A: 48 85 C0           test        rax,rax
  000000001020709D: 0F 84 05 00 00 00  je          00000000102070A8
  00000000102070A3: E9 08 00 00 00     jmp         00000000102070B0
  00000000102070A8: B0 04              mov         al,4
  00000000102070AA: B9 61 2F 00 00     mov         ecx,2F61h
  00000000102070AF: CC                 int         3
  00000000102070B0: 48 8B 80 90 00 00  mov         rax,qword ptr [rax+0000000000000090h]
                    00
  00000000102070B7: 48 89 45 F8        mov         qword ptr [rbp-8],rax
  00000000102070BB: E9 69 FE FF FF     jmp         0000000010206F29
  00000000102070C0: 48 83 EC 20        sub         rsp,20h
  00000000102070C4: 48 8D 0D 05 DD FF  lea         rcx,[0000000010204DD0h]
                    FF
  00000000102070CB: BA 01 00 00 00     mov         edx,1
  00000000102070D0: E8 2B DF FF FF     call        0000000010205000
  00000000102070D5: 48 83 C4 20        add         rsp,20h
  00000000102070D9: E9 E0 01 00 00     jmp         00000000102072BE
  00000000102070DE: 48 8B 45 10        mov         rax,qword ptr [rbp+10h]
  00000000102070E2: 48 85 C0           test        rax,rax
  00000000102070E5: 0F 84 05 00 00 00  je          00000000102070F0
  00000000102070EB: E9 08 00 00 00     jmp         00000000102070F8
  00000000102070F0: B0 04              mov         al,4
  00000000102070F2: B9 97 2F 00 00     mov         ecx,2F97h
  00000000102070F7: CC                 int         3
  00000000102070F8: 48 8B 00           mov         rax,qword ptr [rax]
  00000000102070FB: 48 83 F8 07        cmp         rax,7
  00000000102070FF: 0F 85 C6 00 00 00  jne         00000000102071CB
  0000000010207105: 48 83 EC 20        sub         rsp,20h
  0000000010207109: 48 8D 0D C0 DC FF  lea         rcx,[0000000010204DD0h]
                    FF
  0000000010207110: 48 8B 55 10        mov         rdx,qword ptr [rbp+10h]
  0000000010207114: 48 85 D2           test        rdx,rdx
  0000000010207117: 0F 84 05 00 00 00  je          0000000010207122
  000000001020711D: E9 08 00 00 00     jmp         000000001020712A
  0000000010207122: B0 04              mov         al,4
  0000000010207124: B9 C3 2F 00 00     mov         ecx,2FC3h
  0000000010207129: CC                 int         3
  000000001020712A: 48 8B 52 20        mov         rdx,qword ptr [rdx+20h]
  000000001020712E: E8 CD DE FF FF     call        0000000010205000
  0000000010207133: 48 83 C4 20        add         rsp,20h
  0000000010207137: 48 83 EC 20        sub         rsp,20h
  000000001020713B: 48 8D 0D 8E DC FF  lea         rcx,[0000000010204DD0h]
                    FF
  0000000010207142: 48 8B 55 10        mov         rdx,qword ptr [rbp+10h]
  0000000010207146: 48 85 D2           test        rdx,rdx
  0000000010207149: 0F 84 05 00 00 00  je          0000000010207154
  000000001020714F: E9 08 00 00 00     jmp         000000001020715C
  0000000010207154: B0 04              mov         al,4
  0000000010207156: B9 E2 2F 00 00     mov         ecx,2FE2h
  000000001020715B: CC                 int         3
  000000001020715C: 48 8B 52 08        mov         rdx,qword ptr [rdx+8]
  0000000010207160: E8 9B DE FF FF     call        0000000010205000
  0000000010207165: 48 83 C4 20        add         rsp,20h
  0000000010207169: 48 83 EC 20        sub         rsp,20h
  000000001020716D: 48 8D 0D 5C DC FF  lea         rcx,[0000000010204DD0h]
                    FF
  0000000010207174: 48 8B 55 10        mov         rdx,qword ptr [rbp+10h]
  0000000010207178: 48 85 D2           test        rdx,rdx
  000000001020717B: 0F 84 05 00 00 00  je          0000000010207186
  0000000010207181: E9 08 00 00 00     jmp         000000001020718E
  0000000010207186: B0 04              mov         al,4
  0000000010207188: B9 FF 2F 00 00     mov         ecx,2FFFh
  000000001020718D: CC                 int         3
  000000001020718E: 48 8B 52 10        mov         rdx,qword ptr [rdx+10h]
  0000000010207192: E8 69 DE FF FF     call        0000000010205000
  0000000010207197: 48 83 C4 20        add         rsp,20h
  000000001020719B: 48 83 EC 20        sub         rsp,20h
  000000001020719F: 48 8B 4D 10        mov         rcx,qword ptr [rbp+10h]
  00000000102071A3: 48 85 C9           test        rcx,rcx
  00000000102071A6: 0F 84 05 00 00 00  je          00000000102071B1
  00000000102071AC: E9 08 00 00 00     jmp         00000000102071B9
  00000000102071B1: B0 04              mov         al,4
  00000000102071B3: B9 1A 30 00 00     mov         ecx,301Ah
  00000000102071B8: CC                 int         3
  00000000102071B9: 48 8B 49 40        mov         rcx,qword ptr [rcx+40h]
  00000000102071BD: E8 01 F6 FF FF     call        00000000102067C3
  00000000102071C2: 48 83 C4 20        add         rsp,20h
  00000000102071C6: E9 F3 00 00 00     jmp         00000000102072BE
  00000000102071CB: 48 8B 45 10        mov         rax,qword ptr [rbp+10h]
  00000000102071CF: 48 85 C0           test        rax,rax
  00000000102071D2: 0F 84 05 00 00 00  je          00000000102071DD
  00000000102071D8: E9 08 00 00 00     jmp         00000000102071E5
  00000000102071DD: B0 04              mov         al,4
  00000000102071DF: B9 2C 30 00 00     mov         ecx,302Ch
  00000000102071E4: CC                 int         3
  00000000102071E5: 48 8B 00           mov         rax,qword ptr [rax]
  00000000102071E8: 48 83 F8 05        cmp         rax,5
  00000000102071EC: 0F 85 94 00 00 00  jne         0000000010207286
  00000000102071F2: 48 83 EC 20        sub         rsp,20h
  00000000102071F6: 48 8D 0D D3 DB FF  lea         rcx,[0000000010204DD0h]
                    FF
  00000000102071FD: 48 8B 55 10        mov         rdx,qword ptr [rbp+10h]
  0000000010207201: 48 85 D2           test        rdx,rdx
  0000000010207204: 0F 84 05 00 00 00  je          000000001020720F
  000000001020720A: E9 08 00 00 00     jmp         0000000010207217
  000000001020720F: B0 04              mov         al,4
  0000000010207211: B9 56 30 00 00     mov         ecx,3056h
  0000000010207216: CC                 int         3
  0000000010207217: 48 8B 52 08        mov         rdx,qword ptr [rdx+8]
  000000001020721B: E8 E0 DD FF FF     call        0000000010205000
  0000000010207220: 48 83 C4 20        add         rsp,20h
  0000000010207224: 48 83 EC 20        sub         rsp,20h
  0000000010207228: 48 8D 0D A1 DB FF  lea         rcx,[0000000010204DD0h]
                    FF
  000000001020722F: 48 8B 55 10        mov         rdx,qword ptr [rbp+10h]
  0000000010207233: 48 85 D2           test        rdx,rdx
  0000000010207236: 0F 84 05 00 00 00  je          0000000010207241
  000000001020723C: E9 08 00 00 00     jmp         0000000010207249
  0000000010207241: B0 04              mov         al,4
  0000000010207243: B9 73 30 00 00     mov         ecx,3073h
  0000000010207248: CC                 int         3
  0000000010207249: 48 8B 52 10        mov         rdx,qword ptr [rdx+10h]
  000000001020724D: E8 AE DD FF FF     call        0000000010205000
  0000000010207252: 48 83 C4 20        add         rsp,20h
  0000000010207256: 48 83 EC 20        sub         rsp,20h
  000000001020725A: 48 8B 4D 10        mov         rcx,qword ptr [rbp+10h]
  000000001020725E: 48 85 C9           test        rcx,rcx
  0000000010207261: 0F 84 05 00 00 00  je          000000001020726C
  0000000010207267: E9 08 00 00 00     jmp         0000000010207274
  000000001020726C: B0 04              mov         al,4
  000000001020726E: B9 8D 30 00 00     mov         ecx,308Dh
  0000000010207273: CC                 int         3
  0000000010207274: 48 8B 49 40        mov         rcx,qword ptr [rcx+40h]
  0000000010207278: E8 46 F5 FF FF     call        00000000102067C3
  000000001020727D: 48 83 C4 20        add         rsp,20h
  0000000010207281: E9 38 00 00 00     jmp         00000000102072BE
  0000000010207286: 48 8B 45 10        mov         rax,qword ptr [rbp+10h]
  000000001020728A: 48 85 C0           test        rax,rax
  000000001020728D: 0F 84 05 00 00 00  je          0000000010207298
  0000000010207293: E9 08 00 00 00     jmp         00000000102072A0
  0000000010207298: B0 04              mov         al,4
  000000001020729A: B9 9F 30 00 00     mov         ecx,309Fh
  000000001020729F: CC                 int         3
  00000000102072A0: 48 8B 00           mov         rax,qword ptr [rax]
  00000000102072A3: 48 83 F8 06        cmp         rax,6
  00000000102072A7: 0F 85 11 00 00 00  jne         00000000102072BE
  00000000102072AD: 48 83 EC 20        sub         rsp,20h
  00000000102072B1: 48 8B 4D 10        mov         rcx,qword ptr [rbp+10h]
  00000000102072B5: E8 15 F7 FF FF     call        00000000102069CF
  00000000102072BA: 48 83 C4 20        add         rsp,20h
  00000000102072BE: C9                 leave
  00000000102072BF: C3                 ret
  00000000102072C0: 55                 push        rbp
  00000000102072C1: 48 8B EC           mov         rbp,rsp
  00000000102072C4: 48 89 4D 10        mov         qword ptr [rbp+10h],rcx
  00000000102072C8: 48 83 EC 20        sub         rsp,20h
  00000000102072CC: 48 8D 0D FD DA FF  lea         rcx,[0000000010204DD0h]
                    FF
  00000000102072D3: 48 8B 55 10        mov         rdx,qword ptr [rbp+10h]
  00000000102072D7: 48 8B 12           mov         rdx,qword ptr [rdx]
  00000000102072DA: FF 15 C8 AC DF FF  call        qword ptr [0000000010001FA8h]
  00000000102072E0: 48 83 C4 20        add         rsp,20h
  00000000102072E4: 48 83 EC 20        sub         rsp,20h
  00000000102072E8: 48 8D 0D E1 DA FF  lea         rcx,[0000000010204DD0h]
                    FF
  00000000102072EF: 48 8B 55 10        mov         rdx,qword ptr [rbp+10h]
  00000000102072F3: 48 8B 52 08        mov         rdx,qword ptr [rdx+8]
  00000000102072F7: FF 15 AB AC DF FF  call        qword ptr [0000000010001FA8h]
  00000000102072FD: 48 83 C4 20        add         rsp,20h
  0000000010207301: C9                 leave
  0000000010207302: C3                 ret
  0000000010207303: 55                 push        rbp
  0000000010207304: 48 8B EC           mov         rbp,rsp
  0000000010207307: 48 81 EC B0 02 00  sub         rsp,2B0h
                    00
  000000001020730E: 48 C7 45 F8 00 00  mov         qword ptr [rbp-8],0
                    00 00
  0000000010207316: 48 C7 45 F0 00 00  mov         qword ptr [rbp-10h],0
                    00 00
  000000001020731E: 48 C7 45 C8 00 00  mov         qword ptr [rbp-38h],0
                    00 00
  0000000010207326: 31 C0              xor         eax,eax
  0000000010207328: 48 89 05 99 DA FF  mov         qword ptr [0000000010204DC8h],rax
                    FF
  000000001020732F: 31 C0              xor         eax,eax
  0000000010207331: 48 89 05 80 DA FF  mov         qword ptr [0000000010204DB8h],rax
                    FF
  0000000010207338: 48 83 EC 20        sub         rsp,20h
  000000001020733C: 48 8D 0D 8D DA FF  lea         rcx,[0000000010204DD0h]
                    FF
  0000000010207343: 48 8D 15 42 AC DF  lea         rdx,[0000000010001F8Ch]
                    FF
  000000001020734A: 41 B8 0A 00 00 00  mov         r8d,0Ah
  0000000010207350: FF 15 4A AC DF FF  call        qword ptr [0000000010001FA0h]
  0000000010207356: 48 83 C4 20        add         rsp,20h
  000000001020735A: 48 83 EC 20        sub         rsp,20h
  000000001020735E: 48 8D 0D 6B DA FF  lea         rcx,[0000000010204DD0h]
                    FF
  0000000010207365: BA 10 00 00 00     mov         edx,10h
  000000001020736A: FF 15 10 AC DF FF  call        qword ptr [0000000010001F80h]
  0000000010207370: 48 83 C4 20        add         rsp,20h
  0000000010207374: 48 83 EC 20        sub         rsp,20h
  0000000010207378: 48 8D 0D 51 DA FF  lea         rcx,[0000000010204DD0h]
                    FF
  000000001020737F: 48 8B 15 FA DA FF  mov         rdx,qword ptr [0000000010204E80h]
                    FF
  0000000010207386: E8 75 DC FF FF     call        0000000010205000
  000000001020738B: 48 83 C4 20        add         rsp,20h
  000000001020738F: 31 C0              xor         eax,eax
  0000000010207391: 48 89 45 E8        mov         qword ptr [rbp-18h],rax
  0000000010207395: 48 8B 05 14 DA FF  mov         rax,qword ptr [0000000010204DB0h]
                    FF
  000000001020739C: 48 83 E8 01        sub         rax,1
  00000000102073A0: 48 89 85 58 FD FF  mov         qword ptr [rbp+FFFFFFFFFFFFFD58h],rax
                    FF
  00000000102073A7: 48 8B 45 E8        mov         rax,qword ptr [rbp-18h]
  00000000102073AB: 48 3B 85 58 FD FF  cmp         rax,qword ptr [rbp+FFFFFFFFFFFFFD58h]
                    FF
  00000000102073B2: 0F 8F BD 00 00 00  jg          0000000010207475
  00000000102073B8: 48 8B 45 E8        mov         rax,qword ptr [rbp-18h]
  00000000102073BC: 48 81 F8 00 01 00  cmp         rax,100h
                    00
  00000000102073C3: 0F 83 05 00 00 00  jae         00000000102073CE
  00000000102073C9: E9 08 00 00 00     jmp         00000000102073D6
  00000000102073CE: B0 01              mov         al,1
  00000000102073D0: B9 A8 32 00 00     mov         ecx,32A8h
  00000000102073D5: CC                 int         3
  00000000102073D6: 48 C1 E0 03        shl         rax,3
  00000000102073DA: 48 8D 0D CF B1 FF  lea         rcx,[00000000102025B0h]
                    FF
  00000000102073E1: 48 03 C1           add         rax,rcx
  00000000102073E4: 48 8B 00           mov         rax,qword ptr [rax]
  00000000102073E7: 48 89 45 C8        mov         qword ptr [rbp-38h],rax
  00000000102073EB: 48 83 EC 20        sub         rsp,20h
  00000000102073EF: 48 8D 0D DA D9 FF  lea         rcx,[0000000010204DD0h]
                    FF
  00000000102073F6: 31 D2              xor         edx,edx
  00000000102073F8: E8 03 DC FF FF     call        0000000010205000
  00000000102073FD: 48 83 C4 20        add         rsp,20h
  0000000010207401: 48 83 EC 20        sub         rsp,20h
  0000000010207405: 48 8D 0D C4 D9 FF  lea         rcx,[0000000010204DD0h]
                    FF
  000000001020740C: 48 8B 55 C8        mov         rdx,qword ptr [rbp-38h]
  0000000010207410: 48 85 D2           test        rdx,rdx
  0000000010207413: 0F 84 05 00 00 00  je          000000001020741E
  0000000010207419: E9 08 00 00 00     jmp         0000000010207426
  000000001020741E: B0 04              mov         al,4
  0000000010207420: B9 E6 32 00 00     mov         ecx,32E6h
  0000000010207425: CC                 int         3
  0000000010207426: 48 81 C2 28 02 00  add         rdx,228h
                    00
  000000001020742D: 41 B8 40 00 00 00  mov         r8d,40h
  0000000010207433: FF 15 A7 AB DF FF  call        qword ptr [0000000010001FE0h]
  0000000010207439: 48 83 C4 20        add         rsp,20h
  000000001020743D: 48 83 EC 20        sub         rsp,20h
  0000000010207441: 48 8B 4D C8        mov         rcx,qword ptr [rbp-38h]
  0000000010207445: 48 85 C9           test        rcx,rcx
  0000000010207448: 0F 84 05 00 00 00  je          0000000010207453
  000000001020744E: E9 08 00 00 00     jmp         000000001020745B
  0000000010207453: B0 04              mov         al,4
  0000000010207455: B9 00 33 00 00     mov         ecx,3300h
  000000001020745A: CC                 int         3
  000000001020745B: 48 81 C1 A8 02 00  add         rcx,2A8h
                    00
  0000000010207462: E8 59 FE FF FF     call        00000000102072C0
  0000000010207467: 48 83 C4 20        add         rsp,20h
  000000001020746B: 48 83 45 E8 01     add         qword ptr [rbp-18h],1
  0000000010207470: E9 32 FF FF FF     jmp         00000000102073A7
  0000000010207475: 48 8B 05 1C DA FF  mov         rax,qword ptr [0000000010204E98h]
                    FF
  000000001020747C: 48 85 C0           test        rax,rax
  000000001020747F: 0F 84 05 00 00 00  je          000000001020748A
  0000000010207485: E9 08 00 00 00     jmp         0000000010207492
  000000001020748A: B0 04              mov         al,4
  000000001020748C: B9 23 33 00 00     mov         ecx,3323h
  0000000010207491: CC                 int         3
  0000000010207492: 48 8B 00           mov         rax,qword ptr [rax]
  0000000010207495: 48 89 45 F8        mov         qword ptr [rbp-8],rax
  0000000010207499: 48 8B 45 F8        mov         rax,qword ptr [rbp-8]
  000000001020749D: 48 85 C0           test        rax,rax
  00000000102074A0: 0F 84 EC 05 00 00  je          0000000010207A92
  00000000102074A6: 48 8B 45 F8        mov         rax,qword ptr [rbp-8]
  00000000102074AA: 48 85 C0           test        rax,rax
  00000000102074AD: 0F 84 05 00 00 00  je          00000000102074B8
  00000000102074B3: E9 08 00 00 00     jmp         00000000102074C0
  00000000102074B8: B0 04              mov         al,4
  00000000102074BA: B9 4D 33 00 00     mov         ecx,334Dh
  00000000102074BF: CC                 int         3
  00000000102074C0: 0F B6 00           movzx       eax,byte ptr [rax]
  00000000102074C3: 85 C0              test        eax,eax
  00000000102074C5: 0F 84 9D 05 00 00  je          0000000010207A68
  00000000102074CB: 48 8B 45 F8        mov         rax,qword ptr [rbp-8]
  00000000102074CF: 48 85 C0           test        rax,rax
  00000000102074D2: 0F 84 05 00 00 00  je          00000000102074DD
  00000000102074D8: E9 08 00 00 00     jmp         00000000102074E5
  00000000102074DD: B0 04              mov         al,4
  00000000102074DF: B9 66 33 00 00     mov         ecx,3366h
  00000000102074E4: CC                 int         3
  00000000102074E5: 48 8B 80 88 00 00  mov         rax,qword ptr [rax+0000000000000088h]
                    00
  00000000102074EC: 48 85 C0           test        rax,rax
  00000000102074EF: 0F 84 05 00 00 00  je          00000000102074FA
  00000000102074F5: E9 08 00 00 00     jmp         0000000010207502
  00000000102074FA: B0 04              mov         al,4
  00000000102074FC: B9 6A 33 00 00     mov         ecx,336Ah
  0000000010207501: CC                 int         3
  0000000010207502: 48 8B 00           mov         rax,qword ptr [rax]
  0000000010207505: 48 83 F8 04        cmp         rax,4
  0000000010207509: 0F 85 10 01 00 00  jne         000000001020761F
  000000001020750F: 48 83 EC 20        sub         rsp,20h
  0000000010207513: 48 8D 0D B6 D8 FF  lea         rcx,[0000000010204DD0h]
                    FF
  000000001020751A: BA 04 00 00 00     mov         edx,4
  000000001020751F: E8 DC DA FF FF     call        0000000010205000
  0000000010207524: 48 83 C4 20        add         rsp,20h
  0000000010207528: 48 83 EC 20        sub         rsp,20h
  000000001020752C: 48 8D 0D 9D D8 FF  lea         rcx,[0000000010204DD0h]
                    FF
  0000000010207533: 48 8B 55 F8        mov         rdx,qword ptr [rbp-8]
  0000000010207537: 48 85 D2           test        rdx,rdx
  000000001020753A: 0F 84 05 00 00 00  je          0000000010207545
  0000000010207540: E9 08 00 00 00     jmp         000000001020754D
  0000000010207545: B0 04              mov         al,4
  0000000010207547: B9 BF 33 00 00     mov         ecx,33BFh
  000000001020754C: CC                 int         3
  000000001020754D: 48 83 C2 02        add         rdx,2
  0000000010207551: 41 B8 40 00 00 00  mov         r8d,40h
  0000000010207557: FF 15 83 AA DF FF  call        qword ptr [0000000010001FE0h]
  000000001020755D: 48 83 C4 20        add         rsp,20h
  0000000010207561: 48 83 EC 20        sub         rsp,20h
  0000000010207565: 48 8D 0D 64 D8 FF  lea         rcx,[0000000010204DD0h]
                    FF
  000000001020756C: 48 8B 55 F8        mov         rdx,qword ptr [rbp-8]
  0000000010207570: 48 85 D2           test        rdx,rdx
  0000000010207573: 0F 84 05 00 00 00  je          000000001020757E
  0000000010207579: E9 08 00 00 00     jmp         0000000010207586
  000000001020757E: B0 04              mov         al,4
  0000000010207580: B9 E3 33 00 00     mov         ecx,33E3h
  0000000010207585: CC                 int         3
  0000000010207586: 48 8B 92 88 00 00  mov         rdx,qword ptr [rdx+0000000000000088h]
                    00
  000000001020758D: 4C 8B 42 F8        mov         r8,qword ptr [rdx-8]
  0000000010207591: 4C 8D 0D 08 AB DF  lea         r9,[00000000100020A0h]
                    FF
  0000000010207598: 4D 39 48 08        cmp         qword ptr [r8+8],r9
  000000001020759C: 0F 85 05 00 00 00  jne         00000000102075A7
  00000000102075A2: E9 08 00 00 00     jmp         00000000102075AF
  00000000102075A7: B0 02              mov         al,2
  00000000102075A9: B9 ED 33 00 00     mov         ecx,33EDh
  00000000102075AE: CC                 int         3
  00000000102075AF: 48 85 D2           test        rdx,rdx
  00000000102075B2: 0F 84 05 00 00 00  je          00000000102075BD
  00000000102075B8: E9 08 00 00 00     jmp         00000000102075C5
  00000000102075BD: B0 04              mov         al,4
  00000000102075BF: B9 EE 33 00 00     mov         ecx,33EEh
  00000000102075C4: CC                 int         3
  00000000102075C5: 48 8B 52 28        mov         rdx,qword ptr [rdx+28h]
  00000000102075C9: E8 32 DA FF FF     call        0000000010205000
  00000000102075CE: 48 83 C4 20        add         rsp,20h
  00000000102075D2: 48 83 EC 20        sub         rsp,20h
  00000000102075D6: 48 8B 4D F8        mov         rcx,qword ptr [rbp-8]
  00000000102075DA: 48 85 C9           test        rcx,rcx
  00000000102075DD: 0F 84 05 00 00 00  je          00000000102075E8
  00000000102075E3: E9 08 00 00 00     jmp         00000000102075F0
  00000000102075E8: B0 04              mov         al,4
  00000000102075EA: B9 0A 34 00 00     mov         ecx,340Ah
  00000000102075EF: CC                 int         3
  00000000102075F0: 48 8B 89 88 00 00  mov         rcx,qword ptr [rcx+0000000000000088h]
                    00
  00000000102075F7: 48 85 C9           test        rcx,rcx
  00000000102075FA: 0F 84 05 00 00 00  je          0000000010207605
  0000000010207600: E9 08 00 00 00     jmp         000000001020760D
  0000000010207605: B0 04              mov         al,4
  0000000010207607: B9 0E 34 00 00     mov         ecx,340Eh
  000000001020760C: CC                 int         3
  000000001020760D: 48 8B 49 08        mov         rcx,qword ptr [rcx+8]
  0000000010207611: E8 AD F1 FF FF     call        00000000102067C3
  0000000010207616: 48 83 C4 20        add         rsp,20h
  000000001020761A: E9 49 04 00 00     jmp         0000000010207A68
  000000001020761F: 48 8B 45 F8        mov         rax,qword ptr [rbp-8]
  0000000010207623: 48 85 C0           test        rax,rax
  0000000010207626: 0F 84 05 00 00 00  je          0000000010207631
  000000001020762C: E9 08 00 00 00     jmp         0000000010207639
  0000000010207631: B0 04              mov         al,4
  0000000010207633: B9 24 34 00 00     mov         ecx,3424h
  0000000010207638: CC                 int         3
  0000000010207639: 48 8B 80 88 00 00  mov         rax,qword ptr [rax+0000000000000088h]
                    00
  0000000010207640: 48 85 C0           test        rax,rax
  0000000010207643: 0F 84 05 00 00 00  je          000000001020764E
  0000000010207649: E9 08 00 00 00     jmp         0000000010207656
  000000001020764E: B0 04              mov         al,4
  0000000010207650: B9 28 34 00 00     mov         ecx,3428h
  0000000010207655: CC                 int         3
  0000000010207656: 48 8B 00           mov         rax,qword ptr [rax]
  0000000010207659: 48 83 F8 01        cmp         rax,1
  000000001020765D: 0F 85 9F 00 00 00  jne         0000000010207702
  0000000010207663: 48 83 EC 20        sub         rsp,20h
  0000000010207667: 48 8D 0D 62 D7 FF  lea         rcx,[0000000010204DD0h]
                    FF
  000000001020766E: BA 01 00 00 00     mov         edx,1
  0000000010207673: E8 88 D9 FF FF     call        0000000010205000
  0000000010207678: 48 83 C4 20        add         rsp,20h
  000000001020767C: 48 83 EC 20        sub         rsp,20h
  0000000010207680: 48 8D 0D 49 D7 FF  lea         rcx,[0000000010204DD0h]
                    FF
  0000000010207687: 48 8B 55 F8        mov         rdx,qword ptr [rbp-8]
  000000001020768B: 48 85 D2           test        rdx,rdx
  000000001020768E: 0F 84 05 00 00 00  je          0000000010207699
  0000000010207694: E9 08 00 00 00     jmp         00000000102076A1
  0000000010207699: B0 04              mov         al,4
  000000001020769B: B9 7B 34 00 00     mov         ecx,347Bh
  00000000102076A0: CC                 int         3
  00000000102076A1: 48 83 C2 02        add         rdx,2
  00000000102076A5: 41 B8 40 00 00 00  mov         r8d,40h
  00000000102076AB: FF 15 2F A9 DF FF  call        qword ptr [0000000010001FE0h]
  00000000102076B1: 48 83 C4 20        add         rsp,20h
  00000000102076B5: 48 83 EC 20        sub         rsp,20h
  00000000102076B9: 48 8B 4D F8        mov         rcx,qword ptr [rbp-8]
  00000000102076BD: 48 85 C9           test        rcx,rcx
  00000000102076C0: 0F 84 05 00 00 00  je          00000000102076CB
  00000000102076C6: E9 08 00 00 00     jmp         00000000102076D3
  00000000102076CB: B0 04              mov         al,4
  00000000102076CD: B9 98 34 00 00     mov         ecx,3498h
  00000000102076D2: CC                 int         3
  00000000102076D3: 48 8B 89 88 00 00  mov         rcx,qword ptr [rcx+0000000000000088h]
                    00
  00000000102076DA: 48 85 C9           test        rcx,rcx
  00000000102076DD: 0F 84 05 00 00 00  je          00000000102076E8
  00000000102076E3: E9 08 00 00 00     jmp         00000000102076F0
  00000000102076E8: B0 04              mov         al,4
  00000000102076EA: B9 9C 34 00 00     mov         ecx,349Ch
  00000000102076EF: CC                 int         3
  00000000102076F0: 48 8B 49 08        mov         rcx,qword ptr [rcx+8]
  00000000102076F4: E8 CA F0 FF FF     call        00000000102067C3
  00000000102076F9: 48 83 C4 20        add         rsp,20h
  00000000102076FD: E9 66 03 00 00     jmp         0000000010207A68
  0000000010207702: 48 8B 45 F8        mov         rax,qword ptr [rbp-8]
  0000000010207706: 48 85 C0           test        rax,rax
  0000000010207709: 0F 84 05 00 00 00  je          0000000010207714
  000000001020770F: E9 08 00 00 00     jmp         000000001020771C
  0000000010207714: B0 04              mov         al,4
  0000000010207716: B9 B2 34 00 00     mov         ecx,34B2h
  000000001020771B: CC                 int         3
  000000001020771C: 48 8B 80 88 00 00  mov         rax,qword ptr [rax+0000000000000088h]
                    00
  0000000010207723: 48 85 C0           test        rax,rax
  0000000010207726: 0F 84 05 00 00 00  je          0000000010207731
  000000001020772C: E9 08 00 00 00     jmp         0000000010207739
  0000000010207731: B0 04              mov         al,4
  0000000010207733: B9 B6 34 00 00     mov         ecx,34B6h
  0000000010207738: CC                 int         3
  0000000010207739: 48 8B 00           mov         rax,qword ptr [rax]
  000000001020773C: 48 83 F8 03        cmp         rax,3
  0000000010207740: 0F 85 C9 01 00 00  jne         000000001020790F
  0000000010207746: 48 83 EC 20        sub         rsp,20h
  000000001020774A: 48 8D 0D 7F D6 FF  lea         rcx,[0000000010204DD0h]
                    FF
  0000000010207751: BA 03 00 00 00     mov         edx,3
  0000000010207756: E8 A5 D8 FF FF     call        0000000010205000
  000000001020775B: 48 83 C4 20        add         rsp,20h
  000000001020775F: 48 83 EC 20        sub         rsp,20h
  0000000010207763: 48 8D 0D 66 D6 FF  lea         rcx,[0000000010204DD0h]
                    FF
  000000001020776A: 48 8B 55 F8        mov         rdx,qword ptr [rbp-8]
  000000001020776E: 48 85 D2           test        rdx,rdx
  0000000010207771: 0F 84 05 00 00 00  je          000000001020777C
  0000000010207777: E9 08 00 00 00     jmp         0000000010207784
  000000001020777C: B0 04              mov         al,4
  000000001020777E: B9 07 35 00 00     mov         ecx,3507h
  0000000010207783: CC                 int         3
  0000000010207784: 48 83 C2 02        add         rdx,2
  0000000010207788: 41 B8 40 00 00 00  mov         r8d,40h
  000000001020778E: FF 15 4C A8 DF FF  call        qword ptr [0000000010001FE0h]
  0000000010207794: 48 83 C4 20        add         rsp,20h
  0000000010207798: 48 83 EC 20        sub         rsp,20h
  000000001020779C: 48 8D 4D F0        lea         rcx,[rbp-10h]
  00000000102077A0: E8 20 EF FF FF     call        00000000102066C5
  00000000102077A5: 48 83 C4 20        add         rsp,20h
  00000000102077A9: 48 8B 45 F0        mov         rax,qword ptr [rbp-10h]
  00000000102077AD: 48 85 C0           test        rax,rax
  00000000102077B0: 0F 84 05 00 00 00  je          00000000102077BB
  00000000102077B6: E9 08 00 00 00     jmp         00000000102077C3
  00000000102077BB: B0 04              mov         al,4
  00000000102077BD: B9 27 35 00 00     mov         ecx,3527h
  00000000102077C2: CC                 int         3
  00000000102077C3: 48 8B 4D F8        mov         rcx,qword ptr [rbp-8]
  00000000102077C7: 48 85 C9           test        rcx,rcx
  00000000102077CA: 0F 84 05 00 00 00  je          00000000102077D5
  00000000102077D0: E9 08 00 00 00     jmp         00000000102077DD
  00000000102077D5: B0 04              mov         al,4
  00000000102077D7: B9 34 35 00 00     mov         ecx,3534h
  00000000102077DC: CC                 int         3
  00000000102077DD: 48 8B 89 88 00 00  mov         rcx,qword ptr [rcx+0000000000000088h]
                    00
  00000000102077E4: 48 89 88 88 00 00  mov         qword ptr [rax+0000000000000088h],rcx
                    00
  00000000102077EB: 48 83 EC 20        sub         rsp,20h
  00000000102077EF: 48 8D 0D DA D5 FF  lea         rcx,[0000000010204DD0h]
                    FF
  00000000102077F6: 48 8B 15 BB D5 FF  mov         rdx,qword ptr [0000000010204DB8h]
                    FF
  00000000102077FD: E8 FE D7 FF FF     call        0000000010205000
  0000000010207802: 48 83 C4 20        add         rsp,20h
  0000000010207806: 48 83 EC 20        sub         rsp,20h
  000000001020780A: 48 8B 4D F8        mov         rcx,qword ptr [rbp-8]
  000000001020780E: 48 85 C9           test        rcx,rcx
  0000000010207811: 0F 84 05 00 00 00  je          000000001020781C
  0000000010207817: E9 08 00 00 00     jmp         0000000010207824
  000000001020781C: B0 04              mov         al,4
  000000001020781E: B9 6E 35 00 00     mov         ecx,356Eh
  0000000010207823: CC                 int         3
  0000000010207824: 48 8B 89 88 00 00  mov         rcx,qword ptr [rcx+0000000000000088h]
                    00
  000000001020782B: 48 85 C9           test        rcx,rcx
  000000001020782E: 0F 84 05 00 00 00  je          0000000010207839
  0000000010207834: E9 08 00 00 00     jmp         0000000010207841
  0000000010207839: B0 04              mov         al,4
  000000001020783B: B9 72 35 00 00     mov         ecx,3572h
  0000000010207840: CC                 int         3
  0000000010207841: 48 8B 49 08        mov         rcx,qword ptr [rcx+8]
  0000000010207845: E8 79 EF FF FF     call        00000000102067C3
  000000001020784A: 48 83 C4 20        add         rsp,20h
  000000001020784E: 48 8B 45 F8        mov         rax,qword ptr [rbp-8]
  0000000010207852: 48 85 C0           test        rax,rax
  0000000010207855: 0F 84 05 00 00 00  je          0000000010207860
  000000001020785B: E9 08 00 00 00     jmp         0000000010207868
  0000000010207860: B0 04              mov         al,4
  0000000010207862: B9 87 35 00 00     mov         ecx,3587h
  0000000010207867: CC                 int         3
  0000000010207868: 48 8B 80 88 00 00  mov         rax,qword ptr [rax+0000000000000088h]
                    00
  000000001020786F: 48 85 C0           test        rax,rax
  0000000010207872: 0F 84 05 00 00 00  je          000000001020787D
  0000000010207878: E9 08 00 00 00     jmp         0000000010207885
  000000001020787D: B0 04              mov         al,4
  000000001020787F: B9 8B 35 00 00     mov         ecx,358Bh
  0000000010207884: CC                 int         3
  0000000010207885: 48 8B 40 08        mov         rax,qword ptr [rax+8]
  0000000010207889: 48 8B 0D 30 D7 FF  mov         rcx,qword ptr [0000000010204FC0h]
                    FF
  0000000010207890: 48 3B C1           cmp         rax,rcx
  0000000010207893: 0F 85 71 00 00 00  jne         000000001020790A
  0000000010207899: 48 83 EC 20        sub         rsp,20h
  000000001020789D: 48 8D 0D 2C D5 FF  lea         rcx,[0000000010204DD0h]
                    FF
  00000000102078A4: 48 8B 55 F8        mov         rdx,qword ptr [rbp-8]
  00000000102078A8: 48 85 D2           test        rdx,rdx
  00000000102078AB: 0F 84 05 00 00 00  je          00000000102078B6
  00000000102078B1: E9 08 00 00 00     jmp         00000000102078BE
  00000000102078B6: B0 04              mov         al,4
  00000000102078B8: B9 BD 35 00 00     mov         ecx,35BDh
  00000000102078BD: CC                 int         3
  00000000102078BE: 48 8B 92 88 00 00  mov         rdx,qword ptr [rdx+0000000000000088h]
                    00
  00000000102078C5: 4C 8B 42 F8        mov         r8,qword ptr [rdx-8]
  00000000102078C9: 4C 8D 0D 68 A9 DF  lea         r9,[0000000010002238h]
                    FF
  00000000102078D0: 4D 39 48 10        cmp         qword ptr [r8+10h],r9
  00000000102078D4: 0F 85 05 00 00 00  jne         00000000102078DF
  00000000102078DA: E9 08 00 00 00     jmp         00000000102078E7
  00000000102078DF: B0 02              mov         al,2
  00000000102078E1: B9 C5 35 00 00     mov         ecx,35C5h
  00000000102078E6: CC                 int         3
  00000000102078E7: 48 85 D2           test        rdx,rdx
  00000000102078EA: 0F 84 05 00 00 00  je          00000000102078F5
  00000000102078F0: E9 08 00 00 00     jmp         00000000102078FD
  00000000102078F5: B0 04              mov         al,4
  00000000102078F7: B9 C6 35 00 00     mov         ecx,35C6h
  00000000102078FC: CC                 int         3
  00000000102078FD: 48 8B 52 50        mov         rdx,qword ptr [rdx+50h]
  0000000010207901: E8 FA D6 FF FF     call        0000000010205000
  0000000010207906: 48 83 C4 20        add         rsp,20h
  000000001020790A: E9 59 01 00 00     jmp         0000000010207A68
  000000001020790F: 48 8B 45 F8        mov         rax,qword ptr [rbp-8]
  0000000010207913: 48 85 C0           test        rax,rax
  0000000010207916: 0F 84 05 00 00 00  je          0000000010207921
  000000001020791C: E9 08 00 00 00     jmp         0000000010207929
  0000000010207921: B0 04              mov         al,4
  0000000010207923: B9 E4 35 00 00     mov         ecx,35E4h
  0000000010207928: CC                 int         3
  0000000010207929: 48 8B 80 88 00 00  mov         rax,qword ptr [rax+0000000000000088h]
                    00
  0000000010207930: 48 85 C0           test        rax,rax
  0000000010207933: 0F 84 05 00 00 00  je          000000001020793E
  0000000010207939: E9 08 00 00 00     jmp         0000000010207946
  000000001020793E: B0 04              mov         al,4
  0000000010207940: B9 E8 35 00 00     mov         ecx,35E8h
  0000000010207945: CC                 int         3
  0000000010207946: 48 8B 00           mov         rax,qword ptr [rax]
  0000000010207949: 48 83 F8 05        cmp         rax,5
  000000001020794D: 0F 85 0D 01 00 00  jne         0000000010207A60
  0000000010207953: 48 83 EC 20        sub         rsp,20h
  0000000010207957: 48 8D 0D 72 D4 FF  lea         rcx,[0000000010204DD0h]
                    FF
  000000001020795E: BA 05 00 00 00     mov         edx,5
  0000000010207963: E8 98 D6 FF FF     call        0000000010205000
  0000000010207968: 48 83 C4 20        add         rsp,20h
  000000001020796C: 48 83 EC 20        sub         rsp,20h
  0000000010207970: 48 8D 0D 59 D4 FF  lea         rcx,[0000000010204DD0h]
                    FF
  0000000010207977: 48 8B 55 F8        mov         rdx,qword ptr [rbp-8]
  000000001020797B: 48 85 D2           test        rdx,rdx
  000000001020797E: 0F 84 05 00 00 00  je          0000000010207989
  0000000010207984: E9 08 00 00 00     jmp         0000000010207991
  0000000010207989: B0 04              mov         al,4
  000000001020798B: B9 3B 36 00 00     mov         ecx,363Bh
  0000000010207990: CC                 int         3
  0000000010207991: 48 83 C2 02        add         rdx,2
  0000000010207995: 41 B8 40 00 00 00  mov         r8d,40h
  000000001020799B: FF 15 3F A6 DF FF  call        qword ptr [0000000010001FE0h]
  00000000102079A1: 48 83 C4 20        add         rsp,20h
  00000000102079A5: 48 83 EC 20        sub         rsp,20h
  00000000102079A9: 48 8D 4D F0        lea         rcx,[rbp-10h]
  00000000102079AD: E8 13 ED FF FF     call        00000000102066C5
  00000000102079B2: 48 83 C4 20        add         rsp,20h
  00000000102079B6: 48 8B 45 F0        mov         rax,qword ptr [rbp-10h]
  00000000102079BA: 48 85 C0           test        rax,rax
  00000000102079BD: 0F 84 05 00 00 00  je          00000000102079C8
  00000000102079C3: E9 08 00 00 00     jmp         00000000102079D0
  00000000102079C8: B0 04              mov         al,4
  00000000102079CA: B9 5B 36 00 00     mov         ecx,365Bh
  00000000102079CF: CC                 int         3
  00000000102079D0: 48 8B 4D F8        mov         rcx,qword ptr [rbp-8]
  00000000102079D4: 48 85 C9           test        rcx,rcx
  00000000102079D7: 0F 84 05 00 00 00  je          00000000102079E2
  00000000102079DD: E9 08 00 00 00     jmp         00000000102079EA
  00000000102079E2: B0 04              mov         al,4
  00000000102079E4: B9 68 36 00 00     mov         ecx,3668h
  00000000102079E9: CC                 int         3
  00000000102079EA: 48 8B 89 88 00 00  mov         rcx,qword ptr [rcx+0000000000000088h]
                    00
  00000000102079F1: 48 89 88 88 00 00  mov         qword ptr [rax+0000000000000088h],rcx
                    00
  00000000102079F8: 48 83 EC 20        sub         rsp,20h
  00000000102079FC: 48 8D 0D CD D3 FF  lea         rcx,[0000000010204DD0h]
                    FF
  0000000010207A03: 48 8B 15 AE D3 FF  mov         rdx,qword ptr [0000000010204DB8h]
                    FF
  0000000010207A0A: E8 F1 D5 FF FF     call        0000000010205000
  0000000010207A0F: 48 83 C4 20        add         rsp,20h
  0000000010207A13: 48 83 EC 20        sub         rsp,20h
  0000000010207A17: 48 8B 4D F8        mov         rcx,qword ptr [rbp-8]
  0000000010207A1B: 48 85 C9           test        rcx,rcx
  0000000010207A1E: 0F 84 05 00 00 00  je          0000000010207A29
  0000000010207A24: E9 08 00 00 00     jmp         0000000010207A31
  0000000010207A29: B0 04              mov         al,4
  0000000010207A2B: B9 A2 36 00 00     mov         ecx,36A2h
  0000000010207A30: CC                 int         3
  0000000010207A31: 48 8B 89 88 00 00  mov         rcx,qword ptr [rcx+0000000000000088h]
                    00
  0000000010207A38: 48 85 C9           test        rcx,rcx
  0000000010207A3B: 0F 84 05 00 00 00  je          0000000010207A46
  0000000010207A41: E9 08 00 00 00     jmp         0000000010207A4E
  0000000010207A46: B0 04              mov         al,4
  0000000010207A48: B9 A6 36 00 00     mov         ecx,36A6h
  0000000010207A4D: CC                 int         3
  0000000010207A4E: 48 8B 49 08        mov         rcx,qword ptr [rcx+8]
  0000000010207A52: E8 78 EF FF FF     call        00000000102069CF
  0000000010207A57: 48 83 C4 20        add         rsp,20h
  0000000010207A5B: E9 08 00 00 00     jmp         0000000010207A68
  0000000010207A60: B0 03              mov         al,3
  0000000010207A62: B9 C2 36 00 00     mov         ecx,36C2h
  0000000010207A67: CC                 int         3
  0000000010207A68: 48 8B 45 F8        mov         rax,qword ptr [rbp-8]
  0000000010207A6C: 48 85 C0           test        rax,rax
  0000000010207A6F: 0F 84 05 00 00 00  je          0000000010207A7A
  0000000010207A75: E9 08 00 00 00     jmp         0000000010207A82
  0000000010207A7A: B0 04              mov         al,4
  0000000010207A7C: B9 E5 36 00 00     mov         ecx,36E5h
  0000000010207A81: CC                 int         3
  0000000010207A82: 48 8B 80 90 00 00  mov         rax,qword ptr [rax+0000000000000090h]
                    00
  0000000010207A89: 48 89 45 F8        mov         qword ptr [rbp-8],rax
  0000000010207A8D: E9 07 FA FF FF     jmp         0000000010207499
  0000000010207A92: 48 83 EC 20        sub         rsp,20h
  0000000010207A96: 48 8D 0D 33 D3 FF  lea         rcx,[0000000010204DD0h]
                    FF
  0000000010207A9D: 48 BA FF FF FF FF  mov         rdx,0FFFFFFFFFFFFFFFFh
                    FF FF FF FF
  0000000010207AA7: E8 54 D5 FF FF     call        0000000010205000
  0000000010207AAC: 48 83 C4 20        add         rsp,20h
  0000000010207AB0: 48 83 EC 20        sub         rsp,20h
  0000000010207AB4: 48 8D 0D 15 D3 FF  lea         rcx,[0000000010204DD0h]
                    FF
  0000000010207ABB: FF 15 B7 A4 DF FF  call        qword ptr [0000000010001F78h]
  0000000010207AC1: 48 83 C4 20        add         rsp,20h
  0000000010207AC5: 48 89 45 D0        mov         qword ptr [rbp-30h],rax
  0000000010207AC9: 48 83 EC 20        sub         rsp,20h
  0000000010207ACD: 48 8D 0D FC D2 FF  lea         rcx,[0000000010204DD0h]
                    FF
  0000000010207AD4: 31 D2              xor         edx,edx
  0000000010207AD6: FF 15 A4 A4 DF FF  call        qword ptr [0000000010001F80h]
  0000000010207ADC: 48 83 C4 20        add         rsp,20h
  0000000010207AE0: 48 83 EC 20        sub         rsp,20h
  0000000010207AE4: 48 8D 4D A0        lea         rcx,[rbp-60h]
  0000000010207AE8: FF 15 82 A4 DF FF  call        qword ptr [0000000010001F70h]
  0000000010207AEE: 48 83 C4 20        add         rsp,20h
  0000000010207AF2: 31 C0              xor         eax,eax
  0000000010207AF4: 48 89 45 E8        mov         qword ptr [rbp-18h],rax
  0000000010207AF8: 31 C0              xor         eax,eax
  0000000010207AFA: 48 89 45 E0        mov         qword ptr [rbp-20h],rax
  0000000010207AFE: 48 83 EC 20        sub         rsp,20h
  0000000010207B02: 48 8D 0D C7 D2 FF  lea         rcx,[0000000010204DD0h]
                    FF
  0000000010207B09: 48 8D 55 D8        lea         rdx,[rbp-28h]
  0000000010207B0D: FF 15 2D A5 DF FF  call        qword ptr [0000000010002040h]
  0000000010207B13: 48 83 C4 20        add         rsp,20h
  0000000010207B17: 48 8B 45 E0        mov         rax,qword ptr [rbp-20h]
  0000000010207B1B: 48 83 F8 40        cmp         rax,40h
  0000000010207B1F: 0F 83 05 00 00 00  jae         0000000010207B2A
  0000000010207B25: E9 08 00 00 00     jmp         0000000010207B32
  0000000010207B2A: B0 01              mov         al,1
  0000000010207B2C: B9 A3 37 00 00     mov         ecx,37A3h
  0000000010207B31: CC                 int         3
  0000000010207B32: 48 03 C5           add         rax,rbp
  0000000010207B35: 48 8B 4D D8        mov         rcx,qword ptr [rbp-28h]
  0000000010207B39: 88 88 60 FF FF FF  mov         byte ptr [rax+FFFFFFFFFFFFFF60h],cl
  0000000010207B3F: 48 83 45 E8 01     add         qword ptr [rbp-18h],1
  0000000010207B44: 48 83 45 E0 01     add         qword ptr [rbp-20h],1
  0000000010207B49: 48 8B 45 E8        mov         rax,qword ptr [rbp-18h]
  0000000010207B4D: 48 8B 4D D0        mov         rcx,qword ptr [rbp-30h]
  0000000010207B51: 48 3B C1           cmp         rax,rcx
  0000000010207B54: 0F 84 0E 00 00 00  je          0000000010207B68
  0000000010207B5A: 48 8B 45 E0        mov         rax,qword ptr [rbp-20h]
  0000000010207B5E: 48 83 F8 40        cmp         rax,40h
  0000000010207B62: 0F 85 96 FF FF FF  jne         0000000010207AFE
  0000000010207B68: 48 83 EC 20        sub         rsp,20h
  0000000010207B6C: 48 8D 4D A0        lea         rcx,[rbp-60h]
  0000000010207B70: 48 8D 95 60 FF FF  lea         rdx,[rbp+FFFFFFFFFFFFFF60h]
                    FF
  0000000010207B77: 4C 8B 45 E0        mov         r8,qword ptr [rbp-20h]
  0000000010207B7B: FF 15 E7 A3 DF FF  call        qword ptr [0000000010001F68h]
  0000000010207B81: 48 83 C4 20        add         rsp,20h
  0000000010207B85: 48 8B 45 E8        mov         rax,qword ptr [rbp-18h]
  0000000010207B89: 48 8B 4D D0        mov         rcx,qword ptr [rbp-30h]
  0000000010207B8D: 48 3B C1           cmp         rax,rcx
  0000000010207B90: 0F 85 62 FF FF FF  jne         0000000010207AF8
  0000000010207B96: 48 83 EC 20        sub         rsp,20h
  0000000010207B9A: 48 8D 0D 2F D2 FF  lea         rcx,[0000000010204DD0h]
                    FF
  0000000010207BA1: 31 D2              xor         edx,edx
  0000000010207BA3: FF 15 D7 A3 DF FF  call        qword ptr [0000000010001F80h]
  0000000010207BA9: 48 83 C4 20        add         rsp,20h
  0000000010207BAD: 48 83 EC 20        sub         rsp,20h
  0000000010207BB1: 48 8D 4D A0        lea         rcx,[rbp-60h]
  0000000010207BB5: FF 15 A5 A3 DF FF  call        qword ptr [0000000010001F60h]
  0000000010207BBB: 48 83 C4 20        add         rsp,20h
  0000000010207BBF: 48 89 05 2A D2 FF  mov         qword ptr [0000000010204DF0h],rax
                    FF
  0000000010207BC6: 48 83 EC 20        sub         rsp,20h
  0000000010207BCA: 48 8D 4D A0        lea         rcx,[rbp-60h]
  0000000010207BCE: FF 15 84 A3 DF FF  call        qword ptr [0000000010001F58h]
  0000000010207BD4: 48 83 C4 20        add         rsp,20h
  0000000010207BD8: 48 89 05 19 D2 FF  mov         qword ptr [0000000010204DF8h],rax
                    FF
  0000000010207BDF: 48 83 EC 20        sub         rsp,20h
  0000000010207BE3: 48 8D 0D 06 D2 FF  lea         rcx,[0000000010204DF0h]
                    FF
  0000000010207BEA: E8 D1 F6 FF FF     call        00000000102072C0
  0000000010207BEF: 48 83 C4 20        add         rsp,20h
  0000000010207BF3: 48 83 EC 20        sub         rsp,20h
  0000000010207BF7: 48 8D 0D D2 D1 FF  lea         rcx,[0000000010204DD0h]
                    FF
  0000000010207BFE: FF 15 4C A3 DF FF  call        qword ptr [0000000010001F50h]
  0000000010207C04: 48 83 C4 20        add         rsp,20h
  0000000010207C08: 48 8B 05 39 A3 DF  mov         rax,qword ptr [0000000010001F48h]
                    FF
  0000000010207C0F: 48 8B 00           mov         rax,qword ptr [rax]
  0000000010207C12: 48 85 C0           test        rax,rax
  0000000010207C15: 0F 85 9B 00 00 00  jne         0000000010207CB6
  0000000010207C1B: 31 C0              xor         eax,eax
  0000000010207C1D: 66 89 85 60 FD FF  mov         word ptr [rbp+FFFFFFFFFFFFFD60h],ax
                    FF
  0000000010207C24: 48 83 EC 20        sub         rsp,20h
  0000000010207C28: 48 8D 0D D1 D1 FF  lea         rcx,[0000000010204E00h]
                    FF
  0000000010207C2F: BA 40 00 00 00     mov         edx,40h
  0000000010207C34: 4C 8D 85 60 FD FF  lea         r8,[rbp+FFFFFFFFFFFFFD60h]
                    FF
  0000000010207C3B: 41 B9 00 01 00 00  mov         r9d,100h
  0000000010207C41: E8 BB D5 FF FF     call        0000000010205201
  0000000010207C46: 48 83 C4 20        add         rsp,20h
  0000000010207C4A: 48 83 EC 20        sub         rsp,20h
  0000000010207C4E: 48 8D 0D E9 A2 DF  lea         rcx,[0000000010001F3Eh]
                    FF
  0000000010207C55: BA 05 00 00 00     mov         edx,5
  0000000010207C5A: 4C 8D 85 60 FD FF  lea         r8,[rbp+FFFFFFFFFFFFFD60h]
                    FF
  0000000010207C61: 41 B9 00 01 00 00  mov         r9d,100h
  0000000010207C67: E8 95 D5 FF FF     call        0000000010205201
  0000000010207C6C: 48 83 C4 20        add         rsp,20h
  0000000010207C70: 48 83 EC 20        sub         rsp,20h
  0000000010207C74: 48 8D 8D 60 FD FF  lea         rcx,[rbp+FFFFFFFFFFFFFD60h]
                    FF
  0000000010207C7B: BA 00 01 00 00     mov         edx,100h
  0000000010207C80: FF 15 AA A2 DF FF  call        qword ptr [0000000010001F30h]
  0000000010207C86: 48 83 C4 20        add         rsp,20h
  0000000010207C8A: 48 83 EC 20        sub         rsp,20h
  0000000010207C8E: 48 8D 0D 7F A2 DF  lea         rcx,[0000000010001F14h]
                    FF
  0000000010207C95: BA 0A 00 00 00     mov         edx,0Ah
  0000000010207C9A: 4C 8D 85 60 FD FF  lea         r8,[rbp+FFFFFFFFFFFFFD60h]
                    FF
  0000000010207CA1: 41 B9 00 01 00 00  mov         r9d,100h
  0000000010207CA7: FF 15 7B A2 DF FF  call        qword ptr [0000000010001F28h]
  0000000010207CAD: 48 83 C4 20        add         rsp,20h
  0000000010207CB1: E9 1A 00 00 00     jmp         0000000010207CD0
  0000000010207CB6: 48 83 EC 20        sub         rsp,20h
  0000000010207CBA: 48 8D 0D 3F A2 DF  lea         rcx,[0000000010001F00h]
                    FF
  0000000010207CC1: BA 0A 00 00 00     mov         edx,0Ah
  0000000010207CC6: FF 15 64 A2 DF FF  call        qword ptr [0000000010001F30h]
  0000000010207CCC: 48 83 C4 20        add         rsp,20h
  0000000010207CD0: C9                 leave
  0000000010207CD1: C3                 ret
  0000000010207CD2: 55                 push        rbp
  0000000010207CD3: 48 8B EC           mov         rbp,rsp
  0000000010207CD6: 48 83 EC 20        sub         rsp,20h
  0000000010207CDA: 56                 push        rsi
  0000000010207CDB: 57                 push        rdi
  0000000010207CDC: 48 89 4D 10        mov         qword ptr [rbp+10h],rcx
  0000000010207CE0: 48 C7 45 F0 00 00  mov         qword ptr [rbp-10h],0
                    00 00
  0000000010207CE8: 31 C0              xor         eax,eax
  0000000010207CEA: 48 89 45 F0        mov         qword ptr [rbp-10h],rax
  0000000010207CEE: 31 C0              xor         eax,eax
  0000000010207CF0: 48 89 45 F8        mov         qword ptr [rbp-8],rax
  0000000010207CF4: 48 8B 05 B5 D0 FF  mov         rax,qword ptr [0000000010204DB0h]
                    FF
  0000000010207CFB: 48 83 E8 01        sub         rax,1
  0000000010207CFF: 48 89 45 E8        mov         qword ptr [rbp-18h],rax
  0000000010207D03: 48 8B 45 F8        mov         rax,qword ptr [rbp-8]
  0000000010207D07: 48 3B 45 E8        cmp         rax,qword ptr [rbp-18h]
  0000000010207D0B: 0F 8F EA 00 00 00  jg          0000000010207DFB
  0000000010207D11: 48 8B 45 F8        mov         rax,qword ptr [rbp-8]
  0000000010207D15: 48 81 F8 00 01 00  cmp         rax,100h
                    00
  0000000010207D1C: 0F 83 05 00 00 00  jae         0000000010207D27
  0000000010207D22: E9 08 00 00 00     jmp         0000000010207D2F
  0000000010207D27: B0 01              mov         al,1
  0000000010207D29: B9 F2 3A 00 00     mov         ecx,3AF2h
  0000000010207D2E: CC                 int         3
  0000000010207D2F: 48 C1 E0 03        shl         rax,3
  0000000010207D33: 48 8D 0D 76 A8 FF  lea         rcx,[00000000102025B0h]
                    FF
  0000000010207D3A: 48 03 C1           add         rax,rcx
  0000000010207D3D: 48 8B 00           mov         rax,qword ptr [rax]
  0000000010207D40: 48 85 C0           test        rax,rax
  0000000010207D43: 0F 84 05 00 00 00  je          0000000010207D4E
  0000000010207D49: E9 08 00 00 00     jmp         0000000010207D56
  0000000010207D4E: B0 04              mov         al,4
  0000000010207D50: B9 F3 3A 00 00     mov         ecx,3AF3h
  0000000010207D55: CC                 int         3
  0000000010207D56: 48 8B F8           mov         rdi,rax
  0000000010207D59: 48 81 C7 28 02 00  add         rdi,228h
                    00
  0000000010207D60: 48 8B 75 10        mov         rsi,qword ptr [rbp+10h]
  0000000010207D64: 33 C9              xor         ecx,ecx
  0000000010207D66: 48 83 F9 40        cmp         rcx,40h
  0000000010207D6A: 0F 84 3A 00 00 00  je          0000000010207DAA
  0000000010207D70: 66 83 3E 00        cmp         word ptr [rsi],0
  0000000010207D74: 0F 84 30 00 00 00  je          0000000010207DAA
  0000000010207D7A: 48 83 F9 40        cmp         rcx,40h
  0000000010207D7E: 0F 84 6D 00 00 00  je          0000000010207DF1
  0000000010207D84: 66 8B 17           mov         dx,word ptr [rdi]
  0000000010207D87: 66 85 D2           test        dx,dx
  0000000010207D8A: 0F 84 61 00 00 00  je          0000000010207DF1
  0000000010207D90: 66 3B 16           cmp         dx,word ptr [rsi]
  0000000010207D93: 0F 85 58 00 00 00  jne         0000000010207DF1
  0000000010207D99: 48 83 C7 02        add         rdi,2
  0000000010207D9D: 48 83 C6 02        add         rsi,2
  0000000010207DA1: 48 83 C1 01        add         rcx,1
  0000000010207DA5: E9 BC FF FF FF     jmp         0000000010207D66
  0000000010207DAA: 48 83 F9 40        cmp         rcx,40h
  0000000010207DAE: 0F 84 0A 00 00 00  je          0000000010207DBE
  0000000010207DB4: 66 83 3F 00        cmp         word ptr [rdi],0
  0000000010207DB8: 0F 85 33 00 00 00  jne         0000000010207DF1
  0000000010207DBE: 48 8B 45 F8        mov         rax,qword ptr [rbp-8]
  0000000010207DC2: 48 81 F8 00 01 00  cmp         rax,100h
                    00
  0000000010207DC9: 0F 83 05 00 00 00  jae         0000000010207DD4
  0000000010207DCF: E9 08 00 00 00     jmp         0000000010207DDC
  0000000010207DD4: B0 01              mov         al,1
  0000000010207DD6: B9 1B 3B 00 00     mov         ecx,3B1Bh
  0000000010207DDB: CC                 int         3
  0000000010207DDC: 48 C1 E0 03        shl         rax,3
  0000000010207DE0: 48 8D 0D C9 A7 FF  lea         rcx,[00000000102025B0h]
                    FF
  0000000010207DE7: 48 03 C1           add         rax,rcx
  0000000010207DEA: 48 8B 00           mov         rax,qword ptr [rax]
  0000000010207DED: 48 89 45 F0        mov         qword ptr [rbp-10h],rax
  0000000010207DF1: 48 83 45 F8 01     add         qword ptr [rbp-8],1
  0000000010207DF6: E9 08 FF FF FF     jmp         0000000010207D03
  0000000010207DFB: 48 8B 45 F0        mov         rax,qword ptr [rbp-10h]
  0000000010207DFF: 5F                 pop         rdi
  0000000010207E00: 5E                 pop         rsi
  0000000010207E01: C9                 leave
  0000000010207E02: C3                 ret
  0000000010207E03: 55                 push        rbp
  0000000010207E04: 48 8B EC           mov         rbp,rsp
  0000000010207E07: 56                 push        rsi
  0000000010207E08: 57                 push        rdi
  0000000010207E09: 48 89 4D 10        mov         qword ptr [rbp+10h],rcx
  0000000010207E0D: 48 89 55 18        mov         qword ptr [rbp+18h],rdx
  0000000010207E11: 4C 89 45 20        mov         qword ptr [rbp+20h],r8
  0000000010207E15: 48 8B 45 10        mov         rax,qword ptr [rbp+10h]
  0000000010207E19: 48 85 C0           test        rax,rax
  0000000010207E1C: 0F 84 7F 00 00 00  je          0000000010207EA1
  0000000010207E22: 48 8B 45 10        mov         rax,qword ptr [rbp+10h]
  0000000010207E26: 48 85 C0           test        rax,rax
  0000000010207E29: 0F 84 05 00 00 00  je          0000000010207E34
  0000000010207E2F: E9 08 00 00 00     jmp         0000000010207E3C
  0000000010207E34: B0 04              mov         al,4
  0000000010207E36: B9 B9 3B 00 00     mov         ecx,3BB9h
  0000000010207E3B: CC                 int         3
  0000000010207E3C: 50                 push        rax
  0000000010207E3D: 48 83 EC 28        sub         rsp,28h
  0000000010207E41: 48 8B 0D 08 A7 DF  mov         rcx,qword ptr [0000000010002550h]
                    FF
  0000000010207E48: BA 08 00 00 00     mov         edx,8
  0000000010207E4D: 41 B8 A8 00 00 00  mov         r8d,0A8h
  0000000010207E53: FF 15 1F A7 DF FF  call        qword ptr [0000000010002578h]
  0000000010207E59: 48 83 C4 28        add         rsp,28h
  0000000010207E5D: 48 8B C8           mov         rcx,rax
  0000000010207E60: 58                 pop         rax
  0000000010207E61: 48 83 C1 10        add         rcx,10h
  0000000010207E65: 48 8D 15 04 A6 DF  lea         rdx,[0000000010002470h]
                    FF
  0000000010207E6C: 48 89 51 F8        mov         qword ptr [rcx-8],rdx
  0000000010207E70: 48 89 88 90 00 00  mov         qword ptr [rax+0000000000000090h],rcx
                    00
  0000000010207E77: 48 8B 45 10        mov         rax,qword ptr [rbp+10h]
  0000000010207E7B: 48 85 C0           test        rax,rax
  0000000010207E7E: 0F 84 05 00 00 00  je          0000000010207E89
  0000000010207E84: E9 08 00 00 00     jmp         0000000010207E91
  0000000010207E89: B0 04              mov         al,4
  0000000010207E8B: B9 CF 3B 00 00     mov         ecx,3BCFh
  0000000010207E90: CC                 int         3
  0000000010207E91: 48 8B 80 90 00 00  mov         rax,qword ptr [rax+0000000000000090h]
                    00
  0000000010207E98: 48 89 45 10        mov         qword ptr [rbp+10h],rax
  0000000010207E9C: E9 78 00 00 00     jmp         0000000010207F19
  0000000010207EA1: 48 8B 05 F8 CF FF  mov         rax,qword ptr [0000000010204EA0h]
                    FF
  0000000010207EA8: 48 85 C0           test        rax,rax
  0000000010207EAB: 0F 84 05 00 00 00  je          0000000010207EB6
  0000000010207EB1: E9 08 00 00 00     jmp         0000000010207EBE
  0000000010207EB6: B0 04              mov         al,4
  0000000010207EB8: B9 E8 3B 00 00     mov         ecx,3BE8h
  0000000010207EBD: CC                 int         3
  0000000010207EBE: 50                 push        rax
  0000000010207EBF: 48 83 EC 28        sub         rsp,28h
  0000000010207EC3: 48 8B 0D 86 A6 DF  mov         rcx,qword ptr [0000000010002550h]
                    FF
  0000000010207ECA: BA 08 00 00 00     mov         edx,8
  0000000010207ECF: 41 B8 A8 00 00 00  mov         r8d,0A8h
  0000000010207ED5: FF 15 9D A6 DF FF  call        qword ptr [0000000010002578h]
  0000000010207EDB: 48 83 C4 28        add         rsp,28h
  0000000010207EDF: 48 8B C8           mov         rcx,rax
  0000000010207EE2: 58                 pop         rax
  0000000010207EE3: 48 83 C1 10        add         rcx,10h
  0000000010207EE7: 48 8D 15 82 A5 DF  lea         rdx,[0000000010002470h]
                    FF
  0000000010207EEE: 48 89 51 F8        mov         qword ptr [rcx-8],rdx
  0000000010207EF2: 48 89 08           mov         qword ptr [rax],rcx
  0000000010207EF5: 48 8B 05 A4 CF FF  mov         rax,qword ptr [0000000010204EA0h]
                    FF
  0000000010207EFC: 48 85 C0           test        rax,rax
  0000000010207EFF: 0F 84 05 00 00 00  je          0000000010207F0A
  0000000010207F05: E9 08 00 00 00     jmp         0000000010207F12
  0000000010207F0A: B0 04              mov         al,4
  0000000010207F0C: B9 02 3C 00 00     mov         ecx,3C02h
  0000000010207F11: CC                 int         3
  0000000010207F12: 48 8B 00           mov         rax,qword ptr [rax]
  0000000010207F15: 48 89 45 10        mov         qword ptr [rbp+10h],rax
  0000000010207F19: 48 8B 45 10        mov         rax,qword ptr [rbp+10h]
  0000000010207F1D: 48 85 C0           test        rax,rax
  0000000010207F20: 0F 84 05 00 00 00  je          0000000010207F2B
  0000000010207F26: E9 08 00 00 00     jmp         0000000010207F33
  0000000010207F2B: B0 04              mov         al,4
  0000000010207F2D: B9 17 3C 00 00     mov         ecx,3C17h
  0000000010207F32: CC                 int         3
  0000000010207F33: 31 C9              xor         ecx,ecx
  0000000010207F35: 88 08              mov         byte ptr [rax],cl
  0000000010207F37: 48 8B 45 10        mov         rax,qword ptr [rbp+10h]
  0000000010207F3B: 48 85 C0           test        rax,rax
  0000000010207F3E: 0F 84 05 00 00 00  je          0000000010207F49
  0000000010207F44: E9 08 00 00 00     jmp         0000000010207F51
  0000000010207F49: B0 04              mov         al,4
  0000000010207F4B: B9 2E 3C 00 00     mov         ecx,3C2Eh
  0000000010207F50: CC                 int         3
  0000000010207F51: 48 8B 4D 20        mov         rcx,qword ptr [rbp+20h]
  0000000010207F55: 48 89 88 88 00 00  mov         qword ptr [rax+0000000000000088h],rcx
                    00
  0000000010207F5C: 48 8B 45 10        mov         rax,qword ptr [rbp+10h]
  0000000010207F60: 48 85 C0           test        rax,rax
  0000000010207F63: 0F 84 05 00 00 00  je          0000000010207F6E
  0000000010207F69: E9 08 00 00 00     jmp         0000000010207F76
  0000000010207F6E: B0 04              mov         al,4
  0000000010207F70: B9 3E 3C 00 00     mov         ecx,3C3Eh
  0000000010207F75: CC                 int         3
  0000000010207F76: 48 8B F8           mov         rdi,rax
  0000000010207F79: 48 83 C7 02        add         rdi,2
  0000000010207F7D: 48 8B 75 18        mov         rsi,qword ptr [rbp+18h]
  0000000010207F81: B9 10 00 00 00     mov         ecx,10h
  0000000010207F86: F3 48 A5           rep movs    qword ptr [rdi],qword ptr [rsi]
  0000000010207F89: 48 8B 45 20        mov         rax,qword ptr [rbp+20h]
  0000000010207F8D: 48 85 C0           test        rax,rax
  0000000010207F90: 0F 84 05 00 00 00  je          0000000010207F9B
  0000000010207F96: E9 08 00 00 00     jmp         0000000010207FA3
  0000000010207F9B: B0 04              mov         al,4
  0000000010207F9D: B9 53 3C 00 00     mov         ecx,3C53h
  0000000010207FA2: CC                 int         3
  0000000010207FA3: 48 8B 40 10        mov         rax,qword ptr [rax+10h]
  0000000010207FA7: 48 85 C0           test        rax,rax
  0000000010207FAA: 0F 85 22 00 00 00  jne         0000000010207FD2
  0000000010207FB0: 48 8B 45 20        mov         rax,qword ptr [rbp+20h]
  0000000010207FB4: 48 85 C0           test        rax,rax
  0000000010207FB7: 0F 84 05 00 00 00  je          0000000010207FC2
  0000000010207FBD: E9 08 00 00 00     jmp         0000000010207FCA
  0000000010207FC2: B0 04              mov         al,4
  0000000010207FC4: B9 66 3C 00 00     mov         ecx,3C66h
  0000000010207FC9: CC                 int         3
  0000000010207FCA: 48 8B 4D 10        mov         rcx,qword ptr [rbp+10h]
  0000000010207FCE: 48 89 48 10        mov         qword ptr [rax+10h],rcx
  0000000010207FD2: 48 8B 45 10        mov         rax,qword ptr [rbp+10h]
  0000000010207FD6: 5F                 pop         rdi
  0000000010207FD7: 5E                 pop         rsi
  0000000010207FD8: C9                 leave
  0000000010207FD9: C3                 ret
  0000000010207FDA: 55                 push        rbp
  0000000010207FDB: 48 8B EC           mov         rbp,rsp
  0000000010207FDE: 48 81 EC B0 02 00  sub         rsp,2B0h
                    00
  0000000010207FE5: 56                 push        rsi
  0000000010207FE6: 57                 push        rdi
  0000000010207FE7: 48 89 4D 10        mov         qword ptr [rbp+10h],rcx
  0000000010207FEB: 48 C7 85 60 FD FF  mov         qword ptr [rbp+FFFFFFFFFFFFFD60h],0
                    FF 00 00 00 00
  0000000010207FF6: 48 C7 85 58 FD FF  mov         qword ptr [rbp+FFFFFFFFFFFFFD58h],0
                    FF 00 00 00 00
  0000000010208001: 48 83 EC 20        sub         rsp,20h
  0000000010208005: 48 8D 0D C4 CD FF  lea         rcx,[0000000010204DD0h]
                    FF
  000000001020800C: 48 8D 55 F8        lea         rdx,[rbp-8]
  0000000010208010: E8 82 D0 FF FF     call        0000000010205097
  0000000010208015: 48 83 C4 20        add         rsp,20h
  0000000010208019: 48 83 EC 20        sub         rsp,20h
  000000001020801D: 48 8D 0D AC CD FF  lea         rcx,[0000000010204DD0h]
                    FF
  0000000010208024: 48 8D 55 F0        lea         rdx,[rbp-10h]
  0000000010208028: E8 6A D0 FF FF     call        0000000010205097
  000000001020802D: 48 83 C4 20        add         rsp,20h
  0000000010208031: 48 8B 45 F8        mov         rax,qword ptr [rbp-8]
  0000000010208035: 48 83 F8 FF        cmp         rax,0FFFFFFFFFFFFFFFFh
  0000000010208039: 0F 85 38 00 00 00  jne         0000000010208077
  000000001020803F: 48 8B 45 F0        mov         rax,qword ptr [rbp-10h]
  0000000010208043: 48 83 F8 20        cmp         rax,20h
  0000000010208047: 0F 83 05 00 00 00  jae         0000000010208052
  000000001020804D: E9 08 00 00 00     jmp         000000001020805A
  0000000010208052: B0 01              mov         al,1
  0000000010208054: B9 85 3D 00 00     mov         ecx,3D85h
  0000000010208059: CC                 int         3
  000000001020805A: 48 C1 E0 03        shl         rax,3
  000000001020805E: 48 8D 0D 53 CE FF  lea         rcx,[0000000010204EB8h]
                    FF
  0000000010208065: 48 03 C1           add         rax,rcx
  0000000010208068: 48 8B 00           mov         rax,qword ptr [rax]
  000000001020806B: 48 8B 4D 10        mov         rcx,qword ptr [rbp+10h]
  000000001020806F: 48 89 01           mov         qword ptr [rcx],rax
  0000000010208072: E9 8B 03 00 00     jmp         0000000010208402
  0000000010208077: 48 8B 45 F8        mov         rax,qword ptr [rbp-8]
  000000001020807B: 48 85 C0           test        rax,rax
  000000001020807E: 0F 85 42 01 00 00  jne         00000000102081C6
  0000000010208084: 48 8B 45 F0        mov         rax,qword ptr [rbp-10h]
  0000000010208088: 48 85 C0           test        rax,rax
  000000001020808B: 0F 8C 15 01 00 00  jl          00000000102081A6
  0000000010208091: 48 8B 05 F0 CD FF  mov         rax,qword ptr [0000000010204E88h]
                    FF
  0000000010208098: 48 83 C0 02        add         rax,2
  000000001020809C: 48 F7 D8           neg         rax
  000000001020809F: 48 89 45 E8        mov         qword ptr [rbp-18h],rax
  00000000102080A3: 48 8B 45 E8        mov         rax,qword ptr [rbp-18h]
  00000000102080A7: 48 81 F8 00 01 00  cmp         rax,100h
                    00
  00000000102080AE: 0F 83 05 00 00 00  jae         00000000102080B9
  00000000102080B4: E9 08 00 00 00     jmp         00000000102080C1
  00000000102080B9: B0 01              mov         al,1
  00000000102080BB: B9 D4 3D 00 00     mov         ecx,3DD4h
  00000000102080C0: CC                 int         3
  00000000102080C1: 48 C1 E0 03        shl         rax,3
  00000000102080C5: 48 8D 0D E4 A4 FF  lea         rcx,[00000000102025B0h]
                    FF
  00000000102080CC: 48 03 C1           add         rax,rcx
  00000000102080CF: 48 8B 00           mov         rax,qword ptr [rax]
  00000000102080D2: 48 85 C0           test        rax,rax
  00000000102080D5: 0F 84 05 00 00 00  je          00000000102080E0
  00000000102080DB: E9 08 00 00 00     jmp         00000000102080E8
  00000000102080E0: B0 04              mov         al,4
  00000000102080E2: B9 D5 3D 00 00     mov         ecx,3DD5h
  00000000102080E7: CC                 int         3
  00000000102080E8: 48 8B 80 D8 02 00  mov         rax,qword ptr [rax+00000000000002D8h]
                    00
  00000000102080EF: 48 89 85 58 FD FF  mov         qword ptr [rbp+FFFFFFFFFFFFFD58h],rax
                    FF
  00000000102080F6: 48 8B 85 58 FD FF  mov         rax,qword ptr [rbp+FFFFFFFFFFFFFD58h]
                    FF
  00000000102080FD: 48 85 C0           test        rax,rax
  0000000010208100: 0F 84 74 00 00 00  je          000000001020817A
  0000000010208106: 48 8B 85 58 FD FF  mov         rax,qword ptr [rbp+FFFFFFFFFFFFFD58h]
                    FF
  000000001020810D: 48 85 C0           test        rax,rax
  0000000010208110: 0F 84 05 00 00 00  je          000000001020811B
  0000000010208116: E9 08 00 00 00     jmp         0000000010208123
  000000001020811B: B0 04              mov         al,4
  000000001020811D: B9 F5 3D 00 00     mov         ecx,3DF5h
  0000000010208122: CC                 int         3
  0000000010208123: 48 8B 00           mov         rax,qword ptr [rax]
  0000000010208126: 48 85 C0           test        rax,rax
  0000000010208129: 0F 84 05 00 00 00  je          0000000010208134
  000000001020812F: E9 08 00 00 00     jmp         000000001020813C
  0000000010208134: B0 04              mov         al,4
  0000000010208136: B9 FA 3D 00 00     mov         ecx,3DFAh
  000000001020813B: CC                 int         3
  000000001020813C: 48 8B 40 68        mov         rax,qword ptr [rax+68h]
  0000000010208140: 48 8B 4D F0        mov         rcx,qword ptr [rbp-10h]
  0000000010208144: 48 3B C1           cmp         rax,rcx
  0000000010208147: 0F 84 2D 00 00 00  je          000000001020817A
  000000001020814D: 48 8B 85 58 FD FF  mov         rax,qword ptr [rbp+FFFFFFFFFFFFFD58h]
                    FF
  0000000010208154: 48 85 C0           test        rax,rax
  0000000010208157: 0F 84 05 00 00 00  je          0000000010208162
  000000001020815D: E9 08 00 00 00     jmp         000000001020816A
  0000000010208162: B0 04              mov         al,4
  0000000010208164: B9 0F 3E 00 00     mov         ecx,3E0Fh
  0000000010208169: CC                 int         3
  000000001020816A: 48 8B 40 10        mov         rax,qword ptr [rax+10h]
  000000001020816E: 48 89 85 58 FD FF  mov         qword ptr [rbp+FFFFFFFFFFFFFD58h],rax
                    FF
  0000000010208175: E9 7C FF FF FF     jmp         00000000102080F6
  000000001020817A: 48 8B 85 58 FD FF  mov         rax,qword ptr [rbp+FFFFFFFFFFFFFD58h]
                    FF
  0000000010208181: 48 85 C0           test        rax,rax
  0000000010208184: 0F 84 05 00 00 00  je          000000001020818F
  000000001020818A: E9 08 00 00 00     jmp         0000000010208197
  000000001020818F: B0 04              mov         al,4
  0000000010208191: B9 26 3E 00 00     mov         ecx,3E26h
  0000000010208196: CC                 int         3
  0000000010208197: 48 8B 00           mov         rax,qword ptr [rax]
  000000001020819A: 48 8B 4D 10        mov         rcx,qword ptr [rbp+10h]
  000000001020819E: 48 89 01           mov         qword ptr [rcx],rax
  00000000102081A1: E9 1B 00 00 00     jmp         00000000102081C1
  00000000102081A6: 48 8B 05 E3 A3 DF  mov         rax,qword ptr [0000000010002590h]
                    FF
  00000000102081AD: 50                 push        rax
  00000000102081AE: 48 83 EC 28        sub         rsp,28h
  00000000102081B2: 48 8B 4D 10        mov         rcx,qword ptr [rbp+10h]
  00000000102081B6: 48 8B 44 24 28     mov         rax,qword ptr [rsp+28h]
  00000000102081BB: FF D0              call        rax
  00000000102081BD: 48 83 C4 30        add         rsp,30h
  00000000102081C1: E9 3C 02 00 00     jmp         0000000010208402
  00000000102081C6: 48 8B 45 F8        mov         rax,qword ptr [rbp-8]
  00000000102081CA: 48 83 F8 FF        cmp         rax,0FFFFFFFFFFFFFFFFh
  00000000102081CE: 0F 8D 26 02 00 00  jge         00000000102083FA
  00000000102081D4: 48 83 EC 20        sub         rsp,20h
  00000000102081D8: 48 8D 0D F1 CB FF  lea         rcx,[0000000010204DD0h]
                    FF
  00000000102081DF: 48 8D 95 68 FF FF  lea         rdx,[rbp+FFFFFFFFFFFFFF68h]
                    FF
  00000000102081E6: 41 B8 40 00 00 00  mov         r8d,40h
  00000000102081EC: FF 15 06 9D DF FF  call        qword ptr [0000000010001EF8h]
  00000000102081F2: 48 83 C4 20        add         rsp,20h
  00000000102081F6: 48 83 EC 20        sub         rsp,20h
  00000000102081FA: 48 8D 8D 68 FF FF  lea         rcx,[rbp+FFFFFFFFFFFFFF68h]
                    FF
  0000000010208201: E8 CC FA FF FF     call        0000000010207CD2
  0000000010208206: 48 83 C4 20        add         rsp,20h
  000000001020820A: 48 89 85 60 FD FF  mov         qword ptr [rbp+FFFFFFFFFFFFFD60h],rax
                    FF
  0000000010208211: 48 8B 85 60 FD FF  mov         rax,qword ptr [rbp+FFFFFFFFFFFFFD60h]
                    FF
  0000000010208218: 48 85 C0           test        rax,rax
  000000001020821B: 0F 84 DB 00 00 00  je          00000000102082FC
  0000000010208221: 48 8B 85 60 FD FF  mov         rax,qword ptr [rbp+FFFFFFFFFFFFFD60h]
                    FF
  0000000010208228: 48 85 C0           test        rax,rax
  000000001020822B: 0F 84 05 00 00 00  je          0000000010208236
  0000000010208231: E9 08 00 00 00     jmp         000000001020823E
  0000000010208236: B0 04              mov         al,4
  0000000010208238: B9 C6 3E 00 00     mov         ecx,3EC6h
  000000001020823D: CC                 int         3
  000000001020823E: 48 8B 80 D8 02 00  mov         rax,qword ptr [rax+00000000000002D8h]
                    00
  0000000010208245: 48 89 85 58 FD FF  mov         qword ptr [rbp+FFFFFFFFFFFFFD58h],rax
                    FF
  000000001020824C: 48 8B 85 58 FD FF  mov         rax,qword ptr [rbp+FFFFFFFFFFFFFD58h]
                    FF
  0000000010208253: 48 85 C0           test        rax,rax
  0000000010208256: 0F 84 74 00 00 00  je          00000000102082D0
  000000001020825C: 48 8B 85 58 FD FF  mov         rax,qword ptr [rbp+FFFFFFFFFFFFFD58h]
                    FF
  0000000010208263: 48 85 C0           test        rax,rax
  0000000010208266: 0F 84 05 00 00 00  je          0000000010208271
  000000001020826C: E9 08 00 00 00     jmp         0000000010208279
  0000000010208271: B0 04              mov         al,4
  0000000010208273: B9 E6 3E 00 00     mov         ecx,3EE6h
  0000000010208278: CC                 int         3
  0000000010208279: 48 8B 00           mov         rax,qword ptr [rax]
  000000001020827C: 48 85 C0           test        rax,rax
  000000001020827F: 0F 84 05 00 00 00  je          000000001020828A
  0000000010208285: E9 08 00 00 00     jmp         0000000010208292
  000000001020828A: B0 04              mov         al,4
  000000001020828C: B9 EB 3E 00 00     mov         ecx,3EEBh
  0000000010208291: CC                 int         3
  0000000010208292: 48 8B 40 68        mov         rax,qword ptr [rax+68h]
  0000000010208296: 48 8B 4D F0        mov         rcx,qword ptr [rbp-10h]
  000000001020829A: 48 3B C1           cmp         rax,rcx
  000000001020829D: 0F 84 2D 00 00 00  je          00000000102082D0
  00000000102082A3: 48 8B 85 58 FD FF  mov         rax,qword ptr [rbp+FFFFFFFFFFFFFD58h]
                    FF
  00000000102082AA: 48 85 C0           test        rax,rax
  00000000102082AD: 0F 84 05 00 00 00  je          00000000102082B8
  00000000102082B3: E9 08 00 00 00     jmp         00000000102082C0
  00000000102082B8: B0 04              mov         al,4
  00000000102082BA: B9 00 3F 00 00     mov         ecx,3F00h
  00000000102082BF: CC                 int         3
  00000000102082C0: 48 8B 40 10        mov         rax,qword ptr [rax+10h]
  00000000102082C4: 48 89 85 58 FD FF  mov         qword ptr [rbp+FFFFFFFFFFFFFD58h],rax
                    FF
  00000000102082CB: E9 7C FF FF FF     jmp         000000001020824C
  00000000102082D0: 48 8B 85 58 FD FF  mov         rax,qword ptr [rbp+FFFFFFFFFFFFFD58h]
                    FF
  00000000102082D7: 48 85 C0           test        rax,rax
  00000000102082DA: 0F 84 05 00 00 00  je          00000000102082E5
  00000000102082E0: E9 08 00 00 00     jmp         00000000102082ED
  00000000102082E5: B0 04              mov         al,4
  00000000102082E7: B9 17 3F 00 00     mov         ecx,3F17h
  00000000102082EC: CC                 int         3
  00000000102082ED: 48 8B 00           mov         rax,qword ptr [rax]
  00000000102082F0: 48 8B 4D 10        mov         rcx,qword ptr [rbp+10h]
  00000000102082F4: 48 89 01           mov         qword ptr [rcx],rax
  00000000102082F7: E9 F9 00 00 00     jmp         00000000102083F5
  00000000102082FC: 48 8D BD 68 FD FF  lea         rdi,[rbp+FFFFFFFFFFFFFD68h]
                    FF
  0000000010208303: 48 8D 35 CE 9B DF  lea         rsi,[0000000010001ED8h]
                    FF
  000000001020830A: B9 04 00 00 00     mov         ecx,4
  000000001020830F: F3 48 A5           rep movs    qword ptr [rdi],qword ptr [rsi]
  0000000010208312: 48 83 EC 20        sub         rsp,20h
  0000000010208316: 48 8D 8D 68 FF FF  lea         rcx,[rbp+FFFFFFFFFFFFFF68h]
                    FF
  000000001020831D: BA 40 00 00 00     mov         edx,40h
  0000000010208322: 4C 8D 85 68 FD FF  lea         r8,[rbp+FFFFFFFFFFFFFD68h]
                    FF
  0000000010208329: 41 B9 00 01 00 00  mov         r9d,100h
  000000001020832F: E8 CD CE FF FF     call        0000000010205201
  0000000010208334: 48 83 C4 20        add         rsp,20h
  0000000010208338: 48 83 EC 20        sub         rsp,20h
  000000001020833C: 48 8D 0D 6B 9B DF  lea         rcx,[0000000010001EAEh]
                    FF
  0000000010208343: BA 15 00 00 00     mov         edx,15h
  0000000010208348: 4C 8D 85 68 FD FF  lea         r8,[rbp+FFFFFFFFFFFFFD68h]
                    FF
  000000001020834F: 41 B9 00 01 00 00  mov         r9d,100h
  0000000010208355: E8 A7 CE FF FF     call        0000000010205201
  000000001020835A: 48 83 C4 20        add         rsp,20h
  000000001020835E: 48 8B 05 23 CB FF  mov         rax,qword ptr [0000000010204E88h]
                    FF
  0000000010208365: 48 83 C0 02        add         rax,2
  0000000010208369: 48 F7 D8           neg         rax
  000000001020836C: 48 89 45 E8        mov         qword ptr [rbp-18h],rax
  0000000010208370: 48 83 EC 20        sub         rsp,20h
  0000000010208374: 48 8B 4D E8        mov         rcx,qword ptr [rbp-18h]
  0000000010208378: 48 81 F9 00 01 00  cmp         rcx,100h
                    00
  000000001020837F: 0F 83 05 00 00 00  jae         000000001020838A
  0000000010208385: E9 08 00 00 00     jmp         0000000010208392
  000000001020838A: B0 01              mov         al,1
  000000001020838C: B9 AD 3F 00 00     mov         ecx,3FADh
  0000000010208391: CC                 int         3
  0000000010208392: 48 C1 E1 03        shl         rcx,3
  0000000010208396: 48 8D 15 13 A2 FF  lea         rdx,[00000000102025B0h]
                    FF
  000000001020839D: 48 03 CA           add         rcx,rdx
  00000000102083A0: 48 8B 09           mov         rcx,qword ptr [rcx]
  00000000102083A3: 48 85 C9           test        rcx,rcx
  00000000102083A6: 0F 84 05 00 00 00  je          00000000102083B1
  00000000102083AC: E9 08 00 00 00     jmp         00000000102083B9
  00000000102083B1: B0 04              mov         al,4
  00000000102083B3: B9 AE 3F 00 00     mov         ecx,3FAEh
  00000000102083B8: CC                 int         3
  00000000102083B9: 48 81 C1 28 02 00  add         rcx,228h
                    00
  00000000102083C0: BA 40 00 00 00     mov         edx,40h
  00000000102083C5: 4C 8D 85 68 FD FF  lea         r8,[rbp+FFFFFFFFFFFFFD68h]
                    FF
  00000000102083CC: 41 B9 00 01 00 00  mov         r9d,100h
  00000000102083D2: E8 2A CE FF FF     call        0000000010205201
  00000000102083D7: 48 83 C4 20        add         rsp,20h
  00000000102083DB: 48 83 EC 20        sub         rsp,20h
  00000000102083DF: 48 8D 8D 68 FD FF  lea         rcx,[rbp+FFFFFFFFFFFFFD68h]
                    FF
  00000000102083E6: BA 00 01 00 00     mov         edx,100h
  00000000102083EB: FF 15 1F 9C DF FF  call        qword ptr [0000000010002010h]
  00000000102083F1: 48 83 C4 20        add         rsp,20h
  00000000102083F5: E9 08 00 00 00     jmp         0000000010208402
  00000000102083FA: B0 03              mov         al,3
  00000000102083FC: B9 E1 3F 00 00     mov         ecx,3FE1h
  0000000010208401: CC                 int         3
  0000000010208402: 5F                 pop         rdi
  0000000010208403: 5E                 pop         rsi
  0000000010208404: C9                 leave
  0000000010208405: C3                 ret
  0000000010208406: 55                 push        rbp
  0000000010208407: 48 8B EC           mov         rbp,rsp
  000000001020840A: 48 83 EC 10        sub         rsp,10h
  000000001020840E: 48 89 4D 10        mov         qword ptr [rbp+10h],rcx
  0000000010208412: 48 C7 45 F0 00 00  mov         qword ptr [rbp-10h],0
                    00 00
  000000001020841A: 48 8B 05 67 CA FF  mov         rax,qword ptr [0000000010204E88h]
                    FF
  0000000010208421: 48 83 C0 02        add         rax,2
  0000000010208425: 48 F7 D8           neg         rax
  0000000010208428: 48 89 45 F8        mov         qword ptr [rbp-8],rax
  000000001020842C: 48 8B 45 F8        mov         rax,qword ptr [rbp-8]
  0000000010208430: 48 81 F8 00 01 00  cmp         rax,100h
                    00
  0000000010208437: 0F 83 05 00 00 00  jae         0000000010208442
  000000001020843D: E9 08 00 00 00     jmp         000000001020844A
  0000000010208442: B0 01              mov         al,1
  0000000010208444: B9 68 40 00 00     mov         ecx,4068h
  0000000010208449: CC                 int         3
  000000001020844A: 48 C1 E0 03        shl         rax,3
  000000001020844E: 48 8D 0D 5B A1 FF  lea         rcx,[00000000102025B0h]
                    FF
  0000000010208455: 48 03 C1           add         rax,rcx
  0000000010208458: 48 8B 00           mov         rax,qword ptr [rax]
  000000001020845B: 48 85 C0           test        rax,rax
  000000001020845E: 0F 84 05 00 00 00  je          0000000010208469
  0000000010208464: E9 08 00 00 00     jmp         0000000010208471
  0000000010208469: B0 04              mov         al,4
  000000001020846B: B9 69 40 00 00     mov         ecx,4069h
  0000000010208470: CC                 int         3
  0000000010208471: 48 8B 80 D8 02 00  mov         rax,qword ptr [rax+00000000000002D8h]
                    00
  0000000010208478: 48 85 C0           test        rax,rax
  000000001020847B: 0F 84 38 01 00 00  je          00000000102085B9
  0000000010208481: 48 8B 45 F8        mov         rax,qword ptr [rbp-8]
  0000000010208485: 48 81 F8 00 01 00  cmp         rax,100h
                    00
  000000001020848C: 0F 83 05 00 00 00  jae         0000000010208497
  0000000010208492: E9 08 00 00 00     jmp         000000001020849F
  0000000010208497: B0 01              mov         al,1
  0000000010208499: B9 89 40 00 00     mov         ecx,4089h
  000000001020849E: CC                 int         3
  000000001020849F: 48 C1 E0 03        shl         rax,3
  00000000102084A3: 48 8D 0D 06 A1 FF  lea         rcx,[00000000102025B0h]
                    FF
  00000000102084AA: 48 03 C1           add         rax,rcx
  00000000102084AD: 48 8B 00           mov         rax,qword ptr [rax]
  00000000102084B0: 48 85 C0           test        rax,rax
  00000000102084B3: 0F 84 05 00 00 00  je          00000000102084BE
  00000000102084B9: E9 08 00 00 00     jmp         00000000102084C6
  00000000102084BE: B0 04              mov         al,4
  00000000102084C0: B9 8A 40 00 00     mov         ecx,408Ah
  00000000102084C5: CC                 int         3
  00000000102084C6: 48 8B 80 D8 02 00  mov         rax,qword ptr [rax+00000000000002D8h]
                    00
  00000000102084CD: 48 89 45 F0        mov         qword ptr [rbp-10h],rax
  00000000102084D1: 48 8B 45 F0        mov         rax,qword ptr [rbp-10h]
  00000000102084D5: 48 85 C0           test        rax,rax
  00000000102084D8: 0F 84 05 00 00 00  je          00000000102084E3
  00000000102084DE: E9 08 00 00 00     jmp         00000000102084EB
  00000000102084E3: B0 04              mov         al,4
  00000000102084E5: B9 9C 40 00 00     mov         ecx,409Ch
  00000000102084EA: CC                 int         3
  00000000102084EB: 48 8B 40 10        mov         rax,qword ptr [rax+10h]
  00000000102084EF: 48 85 C0           test        rax,rax
  00000000102084F2: 0F 84 27 00 00 00  je          000000001020851F
  00000000102084F8: 48 8B 45 F0        mov         rax,qword ptr [rbp-10h]
  00000000102084FC: 48 85 C0           test        rax,rax
  00000000102084FF: 0F 84 05 00 00 00  je          000000001020850A
  0000000010208505: E9 08 00 00 00     jmp         0000000010208512
  000000001020850A: B0 04              mov         al,4
  000000001020850C: B9 B1 40 00 00     mov         ecx,40B1h
  0000000010208511: CC                 int         3
  0000000010208512: 48 8B 40 10        mov         rax,qword ptr [rax+10h]
  0000000010208516: 48 89 45 F0        mov         qword ptr [rbp-10h],rax
  000000001020851A: E9 B2 FF FF FF     jmp         00000000102084D1
  000000001020851F: 48 8B 45 F0        mov         rax,qword ptr [rbp-10h]
  0000000010208523: 48 85 C0           test        rax,rax
  0000000010208526: 0F 84 05 00 00 00  je          0000000010208531
  000000001020852C: E9 08 00 00 00     jmp         0000000010208539
  0000000010208531: B0 04              mov         al,4
  0000000010208533: B9 C4 40 00 00     mov         ecx,40C4h
  0000000010208538: CC                 int         3
  0000000010208539: 50                 push        rax
  000000001020853A: 48 83 EC 28        sub         rsp,28h
  000000001020853E: 48 8B 0D 0B A0 DF  mov         rcx,qword ptr [0000000010002550h]
                    FF
  0000000010208545: BA 08 00 00 00     mov         edx,8
  000000001020854A: 41 B8 28 00 00 00  mov         r8d,28h
  0000000010208550: FF 15 22 A0 DF FF  call        qword ptr [0000000010002578h]
  0000000010208556: 48 83 C4 28        add         rsp,28h
  000000001020855A: 48 8B C8           mov         rcx,rax
  000000001020855D: 58                 pop         rax
  000000001020855E: 48 83 C1 10        add         rcx,10h
  0000000010208562: 48 8D 15 E7 9A DF  lea         rdx,[0000000010002050h]
                    FF
  0000000010208569: 48 89 51 F8        mov         qword ptr [rcx-8],rdx
  000000001020856D: 48 89 48 10        mov         qword ptr [rax+10h],rcx
  0000000010208571: 48 8B 45 F0        mov         rax,qword ptr [rbp-10h]
  0000000010208575: 48 85 C0           test        rax,rax
  0000000010208578: 0F 84 05 00 00 00  je          0000000010208583
  000000001020857E: E9 08 00 00 00     jmp         000000001020858B
  0000000010208583: B0 04              mov         al,4
  0000000010208585: B9 D2 40 00 00     mov         ecx,40D2h
  000000001020858A: CC                 int         3
  000000001020858B: 48 8B 40 10        mov         rax,qword ptr [rax+10h]
  000000001020858F: 48 89 45 F0        mov         qword ptr [rbp-10h],rax
  0000000010208593: 48 8B 45 F0        mov         rax,qword ptr [rbp-10h]
  0000000010208597: 48 85 C0           test        rax,rax
  000000001020859A: 0F 84 05 00 00 00  je          00000000102085A5
  00000000102085A0: E9 08 00 00 00     jmp         00000000102085AD
  00000000102085A5: B0 04              mov         al,4
  00000000102085A7: B9 DA 40 00 00     mov         ecx,40DAh
  00000000102085AC: CC                 int         3
  00000000102085AD: 48 8B 4D 10        mov         rcx,qword ptr [rbp+10h]
  00000000102085B1: 48 89 08           mov         qword ptr [rax],rcx
  00000000102085B4: E9 E9 00 00 00     jmp         00000000102086A2
  00000000102085B9: 48 8B 45 F8        mov         rax,qword ptr [rbp-8]
  00000000102085BD: 48 81 F8 00 01 00  cmp         rax,100h
                    00
  00000000102085C4: 0F 83 05 00 00 00  jae         00000000102085CF
  00000000102085CA: E9 08 00 00 00     jmp         00000000102085D7
  00000000102085CF: B0 01              mov         al,1
  00000000102085D1: B9 FB 40 00 00     mov         ecx,40FBh
  00000000102085D6: CC                 int         3
  00000000102085D7: 48 C1 E0 03        shl         rax,3
  00000000102085DB: 48 8D 0D CE 9F FF  lea         rcx,[00000000102025B0h]
                    FF
  00000000102085E2: 48 03 C1           add         rax,rcx
  00000000102085E5: 48 8B 00           mov         rax,qword ptr [rax]
  00000000102085E8: 48 85 C0           test        rax,rax
  00000000102085EB: 0F 84 05 00 00 00  je          00000000102085F6
  00000000102085F1: E9 08 00 00 00     jmp         00000000102085FE
  00000000102085F6: B0 04              mov         al,4
  00000000102085F8: B9 FC 40 00 00     mov         ecx,40FCh
  00000000102085FD: CC                 int         3
  00000000102085FE: 50                 push        rax
  00000000102085FF: 48 83 EC 28        sub         rsp,28h
  0000000010208603: 48 8B 0D 46 9F DF  mov         rcx,qword ptr [0000000010002550h]
                    FF
  000000001020860A: BA 08 00 00 00     mov         edx,8
  000000001020860F: 41 B8 28 00 00 00  mov         r8d,28h
  0000000010208615: FF 15 5D 9F DF FF  call        qword ptr [0000000010002578h]
  000000001020861B: 48 83 C4 28        add         rsp,28h
  000000001020861F: 48 8B C8           mov         rcx,rax
  0000000010208622: 58                 pop         rax
  0000000010208623: 48 83 C1 10        add         rcx,10h
  0000000010208627: 48 8D 15 22 9A DF  lea         rdx,[0000000010002050h]
                    FF
  000000001020862E: 48 89 51 F8        mov         qword ptr [rcx-8],rdx
  0000000010208632: 48 89 88 D8 02 00  mov         qword ptr [rax+00000000000002D8h],rcx
                    00
  0000000010208639: 48 8B 45 F8        mov         rax,qword ptr [rbp-8]
  000000001020863D: 48 81 F8 00 01 00  cmp         rax,100h
                    00
  0000000010208644: 0F 83 05 00 00 00  jae         000000001020864F
  000000001020864A: E9 08 00 00 00     jmp         0000000010208657
  000000001020864F: B0 01              mov         al,1
  0000000010208651: B9 0E 41 00 00     mov         ecx,410Eh
  0000000010208656: CC                 int         3
  0000000010208657: 48 C1 E0 03        shl         rax,3
  000000001020865B: 48 8D 0D 4E 9F FF  lea         rcx,[00000000102025B0h]
                    FF
  0000000010208662: 48 03 C1           add         rax,rcx
  0000000010208665: 48 8B 00           mov         rax,qword ptr [rax]
  0000000010208668: 48 85 C0           test        rax,rax
  000000001020866B: 0F 84 05 00 00 00  je          0000000010208676
  0000000010208671: E9 08 00 00 00     jmp         000000001020867E
  0000000010208676: B0 04              mov         al,4
  0000000010208678: B9 0F 41 00 00     mov         ecx,410Fh
  000000001020867D: CC                 int         3
  000000001020867E: 48 8B 80 D8 02 00  mov         rax,qword ptr [rax+00000000000002D8h]
                    00
  0000000010208685: 48 85 C0           test        rax,rax
  0000000010208688: 0F 84 05 00 00 00  je          0000000010208693
  000000001020868E: E9 08 00 00 00     jmp         000000001020869B
  0000000010208693: B0 04              mov         al,4
  0000000010208695: B9 15 41 00 00     mov         ecx,4115h
  000000001020869A: CC                 int         3
  000000001020869B: 48 8B 4D 10        mov         rcx,qword ptr [rbp+10h]
  000000001020869F: 48 89 08           mov         qword ptr [rax],rcx
  00000000102086A2: C9                 leave
  00000000102086A3: C3                 ret
  00000000102086A4: 55                 push        rbp
  00000000102086A5: 48 8B EC           mov         rbp,rsp
  00000000102086A8: 48 81 EC B0 00 00  sub         rsp,0B0h
                    00
  00000000102086AF: 48 89 4D 10        mov         qword ptr [rbp+10h],rcx
  00000000102086B3: 48 89 55 18        mov         qword ptr [rbp+18h],rdx
  00000000102086B7: 48 C7 45 F8 00 00  mov         qword ptr [rbp-8],0
                    00 00
  00000000102086BF: 48 C7 45 F0 00 00  mov         qword ptr [rbp-10h],0
                    00 00
  00000000102086C7: 48 C7 45 E8 00 00  mov         qword ptr [rbp-18h],0
                    00 00
  00000000102086CF: 48 83 EC 20        sub         rsp,20h
  00000000102086D3: E8 CE DC FF FF     call        00000000102063A6
  00000000102086D8: 48 83 C4 20        add         rsp,20h
  00000000102086DC: 48 8B 4D 10        mov         rcx,qword ptr [rbp+10h]
  00000000102086E0: 48 89 01           mov         qword ptr [rcx],rax
  00000000102086E3: 48 8B 45 18        mov         rax,qword ptr [rbp+18h]
  00000000102086E7: 48 83 F8 FF        cmp         rax,0FFFFFFFFFFFFFFFFh
  00000000102086EB: 0F 8E 39 00 00 00  jle         000000001020872A
  00000000102086F1: 48 8B 45 10        mov         rax,qword ptr [rbp+10h]
  00000000102086F5: 48 8B 00           mov         rax,qword ptr [rax]
  00000000102086F8: 48 85 C0           test        rax,rax
  00000000102086FB: 0F 84 05 00 00 00  je          0000000010208706
  0000000010208701: E9 08 00 00 00     jmp         000000001020870E
  0000000010208706: B0 04              mov         al,4
  0000000010208708: B9 FE 41 00 00     mov         ecx,41FEh
  000000001020870D: CC                 int         3
  000000001020870E: 48 8B 4D 18        mov         rcx,qword ptr [rbp+18h]
  0000000010208712: 48 89 48 68        mov         qword ptr [rax+68h],rcx
  0000000010208716: 48 83 EC 20        sub         rsp,20h
  000000001020871A: 48 8B 4D 10        mov         rcx,qword ptr [rbp+10h]
  000000001020871E: 48 8B 09           mov         rcx,qword ptr [rcx]
  0000000010208721: E8 E0 FC FF FF     call        0000000010208406
  0000000010208726: 48 83 C4 20        add         rsp,20h
  000000001020872A: 48 83 EC 20        sub         rsp,20h
  000000001020872E: 48 8D 0D 9B C6 FF  lea         rcx,[0000000010204DD0h]
                    FF
  0000000010208735: 48 8B 55 10        mov         rdx,qword ptr [rbp+10h]
  0000000010208739: 48 8B 12           mov         rdx,qword ptr [rdx]
  000000001020873C: 48 85 D2           test        rdx,rdx
  000000001020873F: 0F 84 05 00 00 00  je          000000001020874A
  0000000010208745: E9 08 00 00 00     jmp         0000000010208752
  000000001020874A: B0 04              mov         al,4
  000000001020874C: B9 39 42 00 00     mov         ecx,4239h
  0000000010208751: CC                 int         3
  0000000010208752: 48 83 C2 08        add         rdx,8
  0000000010208756: E8 3C C9 FF FF     call        0000000010205097
  000000001020875B: 48 83 C4 20        add         rsp,20h
  000000001020875F: 48 83 EC 20        sub         rsp,20h
  0000000010208763: 48 8D 0D 66 C6 FF  lea         rcx,[0000000010204DD0h]
                    FF
  000000001020876A: 48 8B 55 10        mov         rdx,qword ptr [rbp+10h]
  000000001020876E: 48 8B 12           mov         rdx,qword ptr [rdx]
  0000000010208771: 48 85 D2           test        rdx,rdx
  0000000010208774: 0F 84 05 00 00 00  je          000000001020877F
  000000001020877A: E9 08 00 00 00     jmp         0000000010208787
  000000001020877F: B0 04              mov         al,4
  0000000010208781: B9 55 42 00 00     mov         ecx,4255h
  0000000010208786: CC                 int         3
  0000000010208787: 48 83 C2 10        add         rdx,10h
  000000001020878B: E8 07 C9 FF FF     call        0000000010205097
  0000000010208790: 48 83 C4 20        add         rsp,20h
  0000000010208794: 48 83 EC 20        sub         rsp,20h
  0000000010208798: 48 8D 0D 31 C6 FF  lea         rcx,[0000000010204DD0h]
                    FF
  000000001020879F: 48 8B 55 10        mov         rdx,qword ptr [rbp+10h]
  00000000102087A3: 48 8B 12           mov         rdx,qword ptr [rdx]
  00000000102087A6: 48 85 D2           test        rdx,rdx
  00000000102087A9: 0F 84 05 00 00 00  je          00000000102087B4
  00000000102087AF: E9 08 00 00 00     jmp         00000000102087BC
  00000000102087B4: B0 04              mov         al,4
  00000000102087B6: B9 74 42 00 00     mov         ecx,4274h
  00000000102087BB: CC                 int         3
  00000000102087BC: 48 83 C2 50        add         rdx,50h
  00000000102087C0: E8 D2 C8 FF FF     call        0000000010205097
  00000000102087C5: 48 83 C4 20        add         rsp,20h
  00000000102087C9: 48 83 EC 20        sub         rsp,20h
  00000000102087CD: 48 8B 4D 10        mov         rcx,qword ptr [rbp+10h]
  00000000102087D1: 48 8B 09           mov         rcx,qword ptr [rcx]
  00000000102087D4: 48 85 C9           test        rcx,rcx
  00000000102087D7: 0F 84 05 00 00 00  je          00000000102087E2
  00000000102087DD: E9 08 00 00 00     jmp         00000000102087EA
  00000000102087E2: B0 04              mov         al,4
  00000000102087E4: B9 91 42 00 00     mov         ecx,4291h
  00000000102087E9: CC                 int         3
  00000000102087EA: 48 83 C1 40        add         rcx,40h
  00000000102087EE: E8 E7 F7 FF FF     call        0000000010207FDA
  00000000102087F3: 48 83 C4 20        add         rsp,20h
  00000000102087F7: 48 83 EC 20        sub         rsp,20h
  00000000102087FB: 48 8D 0D CE C5 FF  lea         rcx,[0000000010204DD0h]
                    FF
  0000000010208802: 48 8D 55 E0        lea         rdx,[rbp-20h]
  0000000010208806: E8 8C C8 FF FF     call        0000000010205097
  000000001020880B: 48 83 C4 20        add         rsp,20h
  000000001020880F: 48 83 EC 20        sub         rsp,20h
  0000000010208813: E8 63 DC FF FF     call        000000001020647B
  0000000010208818: 48 83 C4 20        add         rsp,20h
  000000001020881C: 48 8B 45 E0        mov         rax,qword ptr [rbp-20h]
  0000000010208820: 48 83 F8 01        cmp         rax,1
  0000000010208824: 0F 84 C0 00 00 00  je          00000000102088EA
  000000001020882A: 48 83 EC 20        sub         rsp,20h
  000000001020882E: 48 8D 0D 9B C5 FF  lea         rcx,[0000000010204DD0h]
                    FF
  0000000010208835: 48 8D 95 58 FF FF  lea         rdx,[rbp+FFFFFFFFFFFFFF58h]
                    FF
  000000001020883C: 41 B8 40 00 00 00  mov         r8d,40h
  0000000010208842: FF 15 B0 96 DF FF  call        qword ptr [0000000010001EF8h]
  0000000010208848: 48 83 C4 20        add         rsp,20h
  000000001020884C: 48 83 EC 20        sub         rsp,20h
  0000000010208850: 48 8D 0D 79 C5 FF  lea         rcx,[0000000010204DD0h]
                    FF
  0000000010208857: 48 8D 55 D8        lea         rdx,[rbp-28h]
  000000001020885B: E8 37 C8 FF FF     call        0000000010205097
  0000000010208860: 48 83 C4 20        add         rsp,20h
  0000000010208864: 48 8B 45 D8        mov         rax,qword ptr [rbp-28h]
  0000000010208868: 48 83 F8 01        cmp         rax,1
  000000001020886C: 0F 94 C0           sete        al
  000000001020886F: 0F B6 C0           movzx       eax,al
  0000000010208872: 88 85 57 FF FF FF  mov         byte ptr [rbp+FFFFFFFFFFFFFF57h],al
  0000000010208878: 48 83 EC 20        sub         rsp,20h
  000000001020887C: 48 8D 4D E8        lea         rcx,[rbp-18h]
  0000000010208880: E8 55 F7 FF FF     call        0000000010207FDA
  0000000010208885: 48 83 C4 20        add         rsp,20h
  0000000010208889: 48 83 EC 20        sub         rsp,20h
  000000001020888D: 48 8B 4D 10        mov         rcx,qword ptr [rbp+10h]
  0000000010208891: 48 8B 09           mov         rcx,qword ptr [rcx]
  0000000010208894: 48 8B 55 E8        mov         rdx,qword ptr [rbp-18h]
  0000000010208898: 44 0F B6 85 57 FF  movzx       r8d,byte ptr [rbp+FFFFFFFFFFFFFF57h]
                    FF FF
  00000000102088A0: E8 E2 CE FF FF     call        0000000010205787
  00000000102088A5: 48 83 C4 20        add         rsp,20h
  00000000102088A9: 48 89 45 F0        mov         qword ptr [rbp-10h],rax
  00000000102088AD: 48 83 EC 20        sub         rsp,20h
  00000000102088B1: 48 8B 4D F8        mov         rcx,qword ptr [rbp-8]
  00000000102088B5: 48 8D 95 58 FF FF  lea         rdx,[rbp+FFFFFFFFFFFFFF58h]
                    FF
  00000000102088BC: 4C 8B 45 F0        mov         r8,qword ptr [rbp-10h]
  00000000102088C0: E8 3E F5 FF FF     call        0000000010207E03
  00000000102088C5: 48 83 C4 20        add         rsp,20h
  00000000102088C9: 48 89 45 F8        mov         qword ptr [rbp-8],rax
  00000000102088CD: 48 83 EC 20        sub         rsp,20h
  00000000102088D1: 48 8D 0D F8 C4 FF  lea         rcx,[0000000010204DD0h]
                    FF
  00000000102088D8: 48 8D 55 E0        lea         rdx,[rbp-20h]
  00000000102088DC: E8 B6 C7 FF FF     call        0000000010205097
  00000000102088E1: 48 83 C4 20        add         rsp,20h
  00000000102088E5: E9 32 FF FF FF     jmp         000000001020881C
  00000000102088EA: 48 8B 45 10        mov         rax,qword ptr [rbp+10h]
  00000000102088EE: 48 8B 00           mov         rax,qword ptr [rax]
  00000000102088F1: 48 85 C0           test        rax,rax
  00000000102088F4: 0F 84 05 00 00 00  je          00000000102088FF
  00000000102088FA: E9 08 00 00 00     jmp         0000000010208907
  00000000102088FF: B0 04              mov         al,4
  0000000010208901: B9 A9 43 00 00     mov         ecx,43A9h
  0000000010208906: CC                 int         3
  0000000010208907: 48 8B 0D 92 C5 FF  mov         rcx,qword ptr [0000000010204EA0h]
                    FF
  000000001020890E: 48 85 C9           test        rcx,rcx
  0000000010208911: 0F 84 05 00 00 00  je          000000001020891C
  0000000010208917: E9 08 00 00 00     jmp         0000000010208924
  000000001020891C: B0 04              mov         al,4
  000000001020891E: B9 BC 43 00 00     mov         ecx,43BCh
  0000000010208923: CC                 int         3
  0000000010208924: 48 8B 09           mov         rcx,qword ptr [rcx]
  0000000010208927: 48 89 48 48        mov         qword ptr [rax+48h],rcx
  000000001020892B: 48 83 EC 20        sub         rsp,20h
  000000001020892F: E8 BC DB FF FF     call        00000000102064F0
  0000000010208934: 48 83 C4 20        add         rsp,20h
  0000000010208938: C9                 leave
  0000000010208939: C3                 ret
  000000001020893A: 55                 push        rbp
  000000001020893B: 48 8B EC           mov         rbp,rsp
  000000001020893E: 48 81 EC C0 00 00  sub         rsp,0C0h
                    00
  0000000010208945: 48 89 4D 10        mov         qword ptr [rbp+10h],rcx
  0000000010208949: 48 C7 45 F8 00 00  mov         qword ptr [rbp-8],0
                    00 00
  0000000010208951: 48 C7 45 F0 00 00  mov         qword ptr [rbp-10h],0
                    00 00
  0000000010208959: 48 C7 85 68 FF FF  mov         qword ptr [rbp+FFFFFFFFFFFFFF68h],0
                    FF 00 00 00 00
  0000000010208964: 48 83 EC 20        sub         rsp,20h
  0000000010208968: 48 8D 0D 61 C4 FF  lea         rcx,[0000000010204DD0h]
                    FF
  000000001020896F: 48 8D 95 50 FF FF  lea         rdx,[rbp+FFFFFFFFFFFFFF50h]
                    FF
  0000000010208976: E8 1C C7 FF FF     call        0000000010205097
  000000001020897B: 48 83 C4 20        add         rsp,20h
  000000001020897F: 48 83 EC 20        sub         rsp,20h
  0000000010208983: 48 8D 0D 46 C4 FF  lea         rcx,[0000000010204DD0h]
                    FF
  000000001020898A: 48 8D 95 48 FF FF  lea         rdx,[rbp+FFFFFFFFFFFFFF48h]
                    FF
  0000000010208991: E8 01 C7 FF FF     call        0000000010205097
  0000000010208996: 48 83 C4 20        add         rsp,20h
  000000001020899A: 48 83 EC 20        sub         rsp,20h
  000000001020899E: 48 8D 0D 2B C4 FF  lea         rcx,[0000000010204DD0h]
                    FF
  00000000102089A5: 48 8D 95 58 FF FF  lea         rdx,[rbp+FFFFFFFFFFFFFF58h]
                    FF
  00000000102089AC: E8 E6 C6 FF FF     call        0000000010205097
  00000000102089B1: 48 83 C4 20        add         rsp,20h
  00000000102089B5: 48 8B 85 58 FF FF  mov         rax,qword ptr [rbp+FFFFFFFFFFFFFF58h]
                    FF
  00000000102089BC: 48 83 F8 08        cmp         rax,8
  00000000102089C0: 0F 85 BC 02 00 00  jne         0000000010208C82
  00000000102089C6: 48 83 EC 20        sub         rsp,20h
  00000000102089CA: E8 A1 D7 FF FF     call        0000000010206170
  00000000102089CF: 48 83 C4 20        add         rsp,20h
  00000000102089D3: 48 8B 4D 10        mov         rcx,qword ptr [rbp+10h]
  00000000102089D7: 48 89 01           mov         qword ptr [rcx],rax
  00000000102089DA: 48 83 EC 20        sub         rsp,20h
  00000000102089DE: 48 8B 4D 10        mov         rcx,qword ptr [rbp+10h]
  00000000102089E2: 48 8B 09           mov         rcx,qword ptr [rcx]
  00000000102089E5: E8 1C FA FF FF     call        0000000010208406
  00000000102089EA: 48 83 C4 20        add         rsp,20h
  00000000102089EE: 48 8B 45 10        mov         rax,qword ptr [rbp+10h]
  00000000102089F2: 48 8B 00           mov         rax,qword ptr [rax]
  00000000102089F5: 48 85 C0           test        rax,rax
  00000000102089F8: 0F 84 05 00 00 00  je          0000000010208A03
  00000000102089FE: E9 08 00 00 00     jmp         0000000010208A0B
  0000000010208A03: B0 04              mov         al,4
  0000000010208A05: B9 FF 44 00 00     mov         ecx,44FFh
  0000000010208A0A: CC                 int         3
  0000000010208A0B: 48 8B 8D 50 FF FF  mov         rcx,qword ptr [rbp+FFFFFFFFFFFFFF50h]
                    FF
  0000000010208A12: 48 89 48 68        mov         qword ptr [rax+68h],rcx
  0000000010208A16: 48 8B 45 10        mov         rax,qword ptr [rbp+10h]
  0000000010208A1A: 48 8B 00           mov         rax,qword ptr [rax]
  0000000010208A1D: 48 85 C0           test        rax,rax
  0000000010208A20: 0F 84 05 00 00 00  je          0000000010208A2B
  0000000010208A26: E9 08 00 00 00     jmp         0000000010208A33
  0000000010208A2B: B0 04              mov         al,4
  0000000010208A2D: B9 0F 45 00 00     mov         ecx,450Fh
  0000000010208A32: CC                 int         3
  0000000010208A33: 48 8B 8D 48 FF FF  mov         rcx,qword ptr [rbp+FFFFFFFFFFFFFF48h]
                    FF
  0000000010208A3A: 48 89 48 38        mov         qword ptr [rax+38h],rcx
  0000000010208A3E: 48 8B 45 10        mov         rax,qword ptr [rbp+10h]
  0000000010208A42: 48 8B 00           mov         rax,qword ptr [rax]
  0000000010208A45: 48 85 C0           test        rax,rax
  0000000010208A48: 0F 84 05 00 00 00  je          0000000010208A53
  0000000010208A4E: E9 08 00 00 00     jmp         0000000010208A5B
  0000000010208A53: B0 04              mov         al,4
  0000000010208A55: B9 21 45 00 00     mov         ecx,4521h
  0000000010208A5A: CC                 int         3
  0000000010208A5B: 31 C9              xor         ecx,ecx
  0000000010208A5D: 48 89 48 28        mov         qword ptr [rax+28h],rcx
  0000000010208A61: 48 83 EC 20        sub         rsp,20h
  0000000010208A65: 48 8D 0D 64 C3 FF  lea         rcx,[0000000010204DD0h]
                    FF
  0000000010208A6C: 48 8B 55 10        mov         rdx,qword ptr [rbp+10h]
  0000000010208A70: 48 8B 12           mov         rdx,qword ptr [rdx]
  0000000010208A73: 48 85 D2           test        rdx,rdx
  0000000010208A76: 0F 84 05 00 00 00  je          0000000010208A81
  0000000010208A7C: E9 08 00 00 00     jmp         0000000010208A89
  0000000010208A81: B0 04              mov         al,4
  0000000010208A83: B9 43 45 00 00     mov         ecx,4543h
  0000000010208A88: CC                 int         3
  0000000010208A89: 48 83 C2 08        add         rdx,8
  0000000010208A8D: E8 05 C6 FF FF     call        0000000010205097
  0000000010208A92: 48 83 C4 20        add         rsp,20h
  0000000010208A96: 48 83 EC 20        sub         rsp,20h
  0000000010208A9A: 48 8D 0D 2F C3 FF  lea         rcx,[0000000010204DD0h]
                    FF
  0000000010208AA1: 48 8B 55 10        mov         rdx,qword ptr [rbp+10h]
  0000000010208AA5: 48 8B 12           mov         rdx,qword ptr [rdx]
  0000000010208AA8: 48 85 D2           test        rdx,rdx
  0000000010208AAB: 0F 84 05 00 00 00  je          0000000010208AB6
  0000000010208AB1: E9 08 00 00 00     jmp         0000000010208ABE
  0000000010208AB6: B0 04              mov         al,4
  0000000010208AB8: B9 5F 45 00 00     mov         ecx,455Fh
  0000000010208ABD: CC                 int         3
  0000000010208ABE: 48 83 C2 10        add         rdx,10h
  0000000010208AC2: E8 D0 C5 FF FF     call        0000000010205097
  0000000010208AC7: 48 83 C4 20        add         rsp,20h
  0000000010208ACB: 48 83 EC 20        sub         rsp,20h
  0000000010208ACF: 48 8B 4D 10        mov         rcx,qword ptr [rbp+10h]
  0000000010208AD3: 48 8B 09           mov         rcx,qword ptr [rcx]
  0000000010208AD6: 48 85 C9           test        rcx,rcx
  0000000010208AD9: 0F 84 05 00 00 00  je          0000000010208AE4
  0000000010208ADF: E9 08 00 00 00     jmp         0000000010208AEC
  0000000010208AE4: B0 04              mov         al,4
  0000000010208AE6: B9 7A 45 00 00     mov         ecx,457Ah
  0000000010208AEB: CC                 int         3
  0000000010208AEC: 48 83 C1 40        add         rcx,40h
  0000000010208AF0: E8 E5 F4 FF FF     call        0000000010207FDA
  0000000010208AF5: 48 83 C4 20        add         rsp,20h
  0000000010208AF9: 48 83 EC 20        sub         rsp,20h
  0000000010208AFD: 48 8B 4D 10        mov         rcx,qword ptr [rbp+10h]
  0000000010208B01: 48 8B 09           mov         rcx,qword ptr [rcx]
  0000000010208B04: E8 6D D7 FF FF     call        0000000010206276
  0000000010208B09: 48 83 C4 20        add         rsp,20h
  0000000010208B0D: 48 83 EC 20        sub         rsp,20h
  0000000010208B11: 48 8D 0D B8 C2 FF  lea         rcx,[0000000010204DD0h]
                    FF
  0000000010208B18: 48 8D 95 60 FF FF  lea         rdx,[rbp+FFFFFFFFFFFFFF60h]
                    FF
  0000000010208B1F: E8 73 C5 FF FF     call        0000000010205097
  0000000010208B24: 48 83 C4 20        add         rsp,20h
  0000000010208B28: 48 83 EC 20        sub         rsp,20h
  0000000010208B2C: E8 4A D9 FF FF     call        000000001020647B
  0000000010208B31: 48 83 C4 20        add         rsp,20h
  0000000010208B35: 48 8B 85 60 FF FF  mov         rax,qword ptr [rbp+FFFFFFFFFFFFFF60h]
                    FF
  0000000010208B3C: 48 83 F8 01        cmp         rax,1
  0000000010208B40: 0F 84 E9 00 00 00  je          0000000010208C2F
  0000000010208B46: 48 83 EC 20        sub         rsp,20h
  0000000010208B4A: 48 8D 0D 7F C2 FF  lea         rcx,[0000000010204DD0h]
                    FF
  0000000010208B51: 48 8D 95 70 FF FF  lea         rdx,[rbp+FFFFFFFFFFFFFF70h]
                    FF
  0000000010208B58: 41 B8 40 00 00 00  mov         r8d,40h
  0000000010208B5E: FF 15 94 93 DF FF  call        qword ptr [0000000010001EF8h]
  0000000010208B64: 48 83 C4 20        add         rsp,20h
  0000000010208B68: 48 83 EC 20        sub         rsp,20h
  0000000010208B6C: 48 8D 8D 68 FF FF  lea         rcx,[rbp+FFFFFFFFFFFFFF68h]
                    FF
  0000000010208B73: E8 62 F4 FF FF     call        0000000010207FDA
  0000000010208B78: 48 83 C4 20        add         rsp,20h
  0000000010208B7C: 48 83 EC 20        sub         rsp,20h
  0000000010208B80: 48 8B 4D 10        mov         rcx,qword ptr [rbp+10h]
  0000000010208B84: 48 8B 09           mov         rcx,qword ptr [rcx]
  0000000010208B87: 48 8B 95 68 FF FF  mov         rdx,qword ptr [rbp+FFFFFFFFFFFFFF68h]
                    FF
  0000000010208B8E: E8 53 CD FF FF     call        00000000102058E6
  0000000010208B93: 48 83 C4 20        add         rsp,20h
  0000000010208B97: 48 89 45 F0        mov         qword ptr [rbp-10h],rax
  0000000010208B9B: 48 83 EC 20        sub         rsp,20h
  0000000010208B9F: 48 8D 0D 2A C2 FF  lea         rcx,[0000000010204DD0h]
                    FF
  0000000010208BA6: 48 8B 55 F0        mov         rdx,qword ptr [rbp-10h]
  0000000010208BAA: 4C 8B 42 F8        mov         r8,qword ptr [rdx-8]
  0000000010208BAE: 4C 8D 0D 3B 95 DF  lea         r9,[00000000100020F0h]
                    FF
  0000000010208BB5: 4D 39 48 08        cmp         qword ptr [r8+8],r9
  0000000010208BB9: 0F 85 05 00 00 00  jne         0000000010208BC4
  0000000010208BBF: E9 08 00 00 00     jmp         0000000010208BCC
  0000000010208BC4: B0 02              mov         al,2
  0000000010208BC6: B9 47 46 00 00     mov         ecx,4647h
  0000000010208BCB: CC                 int         3
  0000000010208BCC: 48 85 D2           test        rdx,rdx
  0000000010208BCF: 0F 84 05 00 00 00  je          0000000010208BDA
  0000000010208BD5: E9 08 00 00 00     jmp         0000000010208BE2
  0000000010208BDA: B0 04              mov         al,4
  0000000010208BDC: B9 48 46 00 00     mov         ecx,4648h
  0000000010208BE1: CC                 int         3
  0000000010208BE2: 48 83 C2 28        add         rdx,28h
  0000000010208BE6: E8 AC C4 FF FF     call        0000000010205097
  0000000010208BEB: 48 83 C4 20        add         rsp,20h
  0000000010208BEF: 48 83 EC 20        sub         rsp,20h
  0000000010208BF3: 48 8B 4D F8        mov         rcx,qword ptr [rbp-8]
  0000000010208BF7: 48 8D 95 70 FF FF  lea         rdx,[rbp+FFFFFFFFFFFFFF70h]
                    FF
  0000000010208BFE: 4C 8B 45 F0        mov         r8,qword ptr [rbp-10h]
  0000000010208C02: E8 FC F1 FF FF     call        0000000010207E03
  0000000010208C07: 48 83 C4 20        add         rsp,20h
  0000000010208C0B: 48 89 45 F8        mov         qword ptr [rbp-8],rax
  0000000010208C0F: 48 83 EC 20        sub         rsp,20h
  0000000010208C13: 48 8D 0D B6 C1 FF  lea         rcx,[0000000010204DD0h]
                    FF
  0000000010208C1A: 48 8D 95 60 FF FF  lea         rdx,[rbp+FFFFFFFFFFFFFF60h]
                    FF
  0000000010208C21: E8 71 C4 FF FF     call        0000000010205097
  0000000010208C26: 48 83 C4 20        add         rsp,20h
  0000000010208C2A: E9 06 FF FF FF     jmp         0000000010208B35
  0000000010208C2F: 48 8B 45 10        mov         rax,qword ptr [rbp+10h]
  0000000010208C33: 48 8B 00           mov         rax,qword ptr [rax]
  0000000010208C36: 48 85 C0           test        rax,rax
  0000000010208C39: 0F 84 05 00 00 00  je          0000000010208C44
  0000000010208C3F: E9 08 00 00 00     jmp         0000000010208C4C
  0000000010208C44: B0 04              mov         al,4
  0000000010208C46: B9 A0 46 00 00     mov         ecx,46A0h
  0000000010208C4B: CC                 int         3
  0000000010208C4C: 48 8B 0D 4D C2 FF  mov         rcx,qword ptr [0000000010204EA0h]
                    FF
  0000000010208C53: 48 85 C9           test        rcx,rcx
  0000000010208C56: 0F 84 05 00 00 00  je          0000000010208C61
  0000000010208C5C: E9 08 00 00 00     jmp         0000000010208C69
  0000000010208C61: B0 04              mov         al,4
  0000000010208C63: B9 B3 46 00 00     mov         ecx,46B3h
  0000000010208C68: CC                 int         3
  0000000010208C69: 48 8B 09           mov         rcx,qword ptr [rcx]
  0000000010208C6C: 48 89 48 48        mov         qword ptr [rax+48h],rcx
  0000000010208C70: 48 83 EC 20        sub         rsp,20h
  0000000010208C74: E8 77 D8 FF FF     call        00000000102064F0
  0000000010208C79: 48 83 C4 20        add         rsp,20h
  0000000010208C7D: E9 5B 02 00 00     jmp         0000000010208EDD
  0000000010208C82: 48 8B 85 58 FF FF  mov         rax,qword ptr [rbp+FFFFFFFFFFFFFF58h]
                    FF
  0000000010208C89: 48 83 F8 07        cmp         rax,7
  0000000010208C8D: 0F 85 23 01 00 00  jne         0000000010208DB6
  0000000010208C93: 48 83 EC 20        sub         rsp,20h
  0000000010208C97: 48 8D 0D 32 C1 FF  lea         rcx,[0000000010204DD0h]
                    FF
  0000000010208C9E: 48 8D 95 40 FF FF  lea         rdx,[rbp+FFFFFFFFFFFFFF40h]
                    FF
  0000000010208CA5: E8 ED C3 FF FF     call        0000000010205097
  0000000010208CAA: 48 83 C4 20        add         rsp,20h
  0000000010208CAE: 48 83 EC 20        sub         rsp,20h
  0000000010208CB2: 48 8B 8D 40 FF FF  mov         rcx,qword ptr [rbp+FFFFFFFFFFFFFF40h]
                    FF
  0000000010208CB9: E8 8C D3 FF FF     call        000000001020604A
  0000000010208CBE: 48 83 C4 20        add         rsp,20h
  0000000010208CC2: 48 8B 4D 10        mov         rcx,qword ptr [rbp+10h]
  0000000010208CC6: 48 89 01           mov         qword ptr [rcx],rax
  0000000010208CC9: 48 8B 45 10        mov         rax,qword ptr [rbp+10h]
  0000000010208CCD: 48 8B 00           mov         rax,qword ptr [rax]
  0000000010208CD0: 48 85 C0           test        rax,rax
  0000000010208CD3: 0F 84 05 00 00 00  je          0000000010208CDE
  0000000010208CD9: E9 08 00 00 00     jmp         0000000010208CE6
  0000000010208CDE: B0 04              mov         al,4
  0000000010208CE0: B9 18 47 00 00     mov         ecx,4718h
  0000000010208CE5: CC                 int         3
  0000000010208CE6: 48 8B 8D 50 FF FF  mov         rcx,qword ptr [rbp+FFFFFFFFFFFFFF50h]
                    FF
  0000000010208CED: 48 89 48 68        mov         qword ptr [rax+68h],rcx
  0000000010208CF1: 48 83 EC 20        sub         rsp,20h
  0000000010208CF5: 48 8B 4D 10        mov         rcx,qword ptr [rbp+10h]
  0000000010208CF9: 48 8B 09           mov         rcx,qword ptr [rcx]
  0000000010208CFC: E8 05 F7 FF FF     call        0000000010208406
  0000000010208D01: 48 83 C4 20        add         rsp,20h
  0000000010208D05: 48 83 EC 20        sub         rsp,20h
  0000000010208D09: 48 8D 0D C0 C0 FF  lea         rcx,[0000000010204DD0h]
                    FF
  0000000010208D10: 48 8B 55 10        mov         rdx,qword ptr [rbp+10h]
  0000000010208D14: 48 8B 12           mov         rdx,qword ptr [rdx]
  0000000010208D17: 48 85 D2           test        rdx,rdx
  0000000010208D1A: 0F 84 05 00 00 00  je          0000000010208D25
  0000000010208D20: E9 08 00 00 00     jmp         0000000010208D2D
  0000000010208D25: B0 04              mov         al,4
  0000000010208D27: B9 50 47 00 00     mov         ecx,4750h
  0000000010208D2C: CC                 int         3
  0000000010208D2D: 48 83 C2 08        add         rdx,8
  0000000010208D31: E8 61 C3 FF FF     call        0000000010205097
  0000000010208D36: 48 83 C4 20        add         rsp,20h
  0000000010208D3A: 48 83 EC 20        sub         rsp,20h
  0000000010208D3E: 48 8D 0D 8B C0 FF  lea         rcx,[0000000010204DD0h]
                    FF
  0000000010208D45: 48 8B 55 10        mov         rdx,qword ptr [rbp+10h]
  0000000010208D49: 48 8B 12           mov         rdx,qword ptr [rdx]
  0000000010208D4C: 48 85 D2           test        rdx,rdx
  0000000010208D4F: 0F 84 05 00 00 00  je          0000000010208D5A
  0000000010208D55: E9 08 00 00 00     jmp         0000000010208D62
  0000000010208D5A: B0 04              mov         al,4
  0000000010208D5C: B9 6C 47 00 00     mov         ecx,476Ch
  0000000010208D61: CC                 int         3
  0000000010208D62: 48 83 C2 10        add         rdx,10h
  0000000010208D66: E8 2C C3 FF FF     call        0000000010205097
  0000000010208D6B: 48 83 C4 20        add         rsp,20h
  0000000010208D6F: 48 83 EC 20        sub         rsp,20h
  0000000010208D73: 48 8B 4D 10        mov         rcx,qword ptr [rbp+10h]
  0000000010208D77: 48 8B 09           mov         rcx,qword ptr [rcx]
  0000000010208D7A: 48 85 C9           test        rcx,rcx
  0000000010208D7D: 0F 84 05 00 00 00  je          0000000010208D88
  0000000010208D83: E9 08 00 00 00     jmp         0000000010208D90
  0000000010208D88: B0 04              mov         al,4
  0000000010208D8A: B9 87 47 00 00     mov         ecx,4787h
  0000000010208D8F: CC                 int         3
  0000000010208D90: 48 83 C1 40        add         rcx,40h
  0000000010208D94: E8 41 F2 FF FF     call        0000000010207FDA
  0000000010208D99: 48 83 C4 20        add         rsp,20h
  0000000010208D9D: 48 83 EC 20        sub         rsp,20h
  0000000010208DA1: 48 8B 4D 10        mov         rcx,qword ptr [rbp+10h]
  0000000010208DA5: 48 8B 09           mov         rcx,qword ptr [rcx]
  0000000010208DA8: E8 EF D2 FF FF     call        000000001020609C
  0000000010208DAD: 48 83 C4 20        add         rsp,20h
  0000000010208DB1: E9 27 01 00 00     jmp         0000000010208EDD
  0000000010208DB6: 48 8B 85 58 FF FF  mov         rax,qword ptr [rbp+FFFFFFFFFFFFFF58h]
                    FF
  0000000010208DBD: 48 83 F8 05        cmp         rax,5
  0000000010208DC1: 0F 85 ED 00 00 00  jne         0000000010208EB4
  0000000010208DC7: 48 83 EC 20        sub         rsp,20h
  0000000010208DCB: E8 87 D5 FF FF     call        0000000010206357
  0000000010208DD0: 48 83 C4 20        add         rsp,20h
  0000000010208DD4: 48 8B 4D 10        mov         rcx,qword ptr [rbp+10h]
  0000000010208DD8: 48 89 01           mov         qword ptr [rcx],rax
  0000000010208DDB: 48 8B 45 10        mov         rax,qword ptr [rbp+10h]
  0000000010208DDF: 48 8B 00           mov         rax,qword ptr [rax]
  0000000010208DE2: 48 85 C0           test        rax,rax
  0000000010208DE5: 0F 84 05 00 00 00  je          0000000010208DF0
  0000000010208DEB: E9 08 00 00 00     jmp         0000000010208DF8
  0000000010208DF0: B0 04              mov         al,4
  0000000010208DF2: B9 D6 47 00 00     mov         ecx,47D6h
  0000000010208DF7: CC                 int         3
  0000000010208DF8: 48 8B 8D 50 FF FF  mov         rcx,qword ptr [rbp+FFFFFFFFFFFFFF50h]
                    FF
  0000000010208DFF: 48 89 48 68        mov         qword ptr [rax+68h],rcx
  0000000010208E03: 48 83 EC 20        sub         rsp,20h
  0000000010208E07: 48 8B 4D 10        mov         rcx,qword ptr [rbp+10h]
  0000000010208E0B: 48 8B 09           mov         rcx,qword ptr [rcx]
  0000000010208E0E: E8 F3 F5 FF FF     call        0000000010208406
  0000000010208E13: 48 83 C4 20        add         rsp,20h
  0000000010208E17: 48 83 EC 20        sub         rsp,20h
  0000000010208E1B: 48 8D 0D AE BF FF  lea         rcx,[0000000010204DD0h]
                    FF
  0000000010208E22: 48 8B 55 10        mov         rdx,qword ptr [rbp+10h]
  0000000010208E26: 48 8B 12           mov         rdx,qword ptr [rdx]
  0000000010208E29: 48 85 D2           test        rdx,rdx
  0000000010208E2C: 0F 84 05 00 00 00  je          0000000010208E37
  0000000010208E32: E9 08 00 00 00     jmp         0000000010208E3F
  0000000010208E37: B0 04              mov         al,4
  0000000010208E39: B9 0E 48 00 00     mov         ecx,480Eh
  0000000010208E3E: CC                 int         3
  0000000010208E3F: 48 83 C2 08        add         rdx,8
  0000000010208E43: E8 4F C2 FF FF     call        0000000010205097
  0000000010208E48: 48 83 C4 20        add         rsp,20h
  0000000010208E4C: 48 83 EC 20        sub         rsp,20h
  0000000010208E50: 48 8D 0D 79 BF FF  lea         rcx,[0000000010204DD0h]
                    FF
  0000000010208E57: 48 8B 55 10        mov         rdx,qword ptr [rbp+10h]
  0000000010208E5B: 48 8B 12           mov         rdx,qword ptr [rdx]
  0000000010208E5E: 48 85 D2           test        rdx,rdx
  0000000010208E61: 0F 84 05 00 00 00  je          0000000010208E6C
  0000000010208E67: E9 08 00 00 00     jmp         0000000010208E74
  0000000010208E6C: B0 04              mov         al,4
  0000000010208E6E: B9 2A 48 00 00     mov         ecx,482Ah
  0000000010208E73: CC                 int         3
  0000000010208E74: 48 83 C2 10        add         rdx,10h
  0000000010208E78: E8 1A C2 FF FF     call        0000000010205097
  0000000010208E7D: 48 83 C4 20        add         rsp,20h
  0000000010208E81: 48 83 EC 20        sub         rsp,20h
  0000000010208E85: 48 8B 4D 10        mov         rcx,qword ptr [rbp+10h]
  0000000010208E89: 48 8B 09           mov         rcx,qword ptr [rcx]
  0000000010208E8C: 48 85 C9           test        rcx,rcx
  0000000010208E8F: 0F 84 05 00 00 00  je          0000000010208E9A
  0000000010208E95: E9 08 00 00 00     jmp         0000000010208EA2
  0000000010208E9A: B0 04              mov         al,4
  0000000010208E9C: B9 45 48 00 00     mov         ecx,4845h
  0000000010208EA1: CC                 int         3
  0000000010208EA2: 48 83 C1 40        add         rcx,40h
  0000000010208EA6: E8 2F F1 FF FF     call        0000000010207FDA
  0000000010208EAB: 48 83 C4 20        add         rsp,20h
  0000000010208EAF: E9 29 00 00 00     jmp         0000000010208EDD
  0000000010208EB4: 48 8B 85 58 FF FF  mov         rax,qword ptr [rbp+FFFFFFFFFFFFFF58h]
                    FF
  0000000010208EBB: 48 83 F8 06        cmp         rax,6
  0000000010208EBF: 0F 85 18 00 00 00  jne         0000000010208EDD
  0000000010208EC5: 48 83 EC 20        sub         rsp,20h
  0000000010208EC9: 48 8B 4D 10        mov         rcx,qword ptr [rbp+10h]
  0000000010208ECD: 48 8B 95 50 FF FF  mov         rdx,qword ptr [rbp+FFFFFFFFFFFFFF50h]
                    FF
  0000000010208ED4: E8 CB F7 FF FF     call        00000000102086A4
  0000000010208ED9: 48 83 C4 20        add         rsp,20h
  0000000010208EDD: C9                 leave
  0000000010208EDE: C3                 ret
  0000000010208EDF: 55                 push        rbp
  0000000010208EE0: 48 8B EC           mov         rbp,rsp
  0000000010208EE3: 48 89 4D 10        mov         qword ptr [rbp+10h],rcx
  0000000010208EE7: 48 83 EC 20        sub         rsp,20h
  0000000010208EEB: 48 8D 0D DE BE FF  lea         rcx,[0000000010204DD0h]
                    FF
  0000000010208EF2: 48 8B 55 10        mov         rdx,qword ptr [rbp+10h]
  0000000010208EF6: FF 15 A4 8F DF FF  call        qword ptr [0000000010001EA0h]
  0000000010208EFC: 48 83 C4 20        add         rsp,20h
  0000000010208F00: 48 83 EC 20        sub         rsp,20h
  0000000010208F04: 48 8D 0D C5 BE FF  lea         rcx,[0000000010204DD0h]
                    FF
  0000000010208F0B: 48 8B 55 10        mov         rdx,qword ptr [rbp+10h]
  0000000010208F0F: 48 83 C2 08        add         rdx,8
  0000000010208F13: FF 15 87 8F DF FF  call        qword ptr [0000000010001EA0h]
  0000000010208F19: 48 83 C4 20        add         rsp,20h
  0000000010208F1D: C9                 leave
  0000000010208F1E: C3                 ret
  0000000010208F1F: 55                 push        rbp
  0000000010208F20: 48 8B EC           mov         rbp,rsp
  0000000010208F23: 48 81 EC 80 03 00  sub         rsp,380h
                    00
  0000000010208F2A: 56                 push        rsi
  0000000010208F2B: 57                 push        rdi
  0000000010208F2C: 48 C7 45 F8 00 00  mov         qword ptr [rbp-8],0
                    00 00
  0000000010208F34: 48 C7 45 F0 00 00  mov         qword ptr [rbp-10h],0
                    00 00
  0000000010208F3C: 48 C7 45 B8 00 00  mov         qword ptr [rbp-48h],0
                    00 00
  0000000010208F44: 48 C7 45 B0 00 00  mov         qword ptr [rbp-50h],0
                    00 00
  0000000010208F4C: 48 C7 85 A8 FE FF  mov         qword ptr [rbp+FFFFFFFFFFFFFEA8h],0
                    FF 00 00 00 00
  0000000010208F57: 31 C0              xor         eax,eax
  0000000010208F59: 48 89 45 E0        mov         qword ptr [rbp-20h],rax
  0000000010208F5D: 48 8B 05 4C BE FF  mov         rax,qword ptr [0000000010204DB0h]
                    FF
  0000000010208F64: 48 83 E8 02        sub         rax,2
  0000000010208F68: 48 89 85 90 FC FF  mov         qword ptr [rbp+FFFFFFFFFFFFFC90h],rax
                    FF
  0000000010208F6F: 48 8B 45 E0        mov         rax,qword ptr [rbp-20h]
  0000000010208F73: 48 3B 85 90 FC FF  cmp         rax,qword ptr [rbp+FFFFFFFFFFFFFC90h]
                    FF
  0000000010208F7A: 0F 8F C9 01 00 00  jg          0000000010209149
  0000000010208F80: 48 8B 45 E0        mov         rax,qword ptr [rbp-20h]
  0000000010208F84: 48 89 45 D0        mov         qword ptr [rbp-30h],rax
  0000000010208F88: 48 8B 45 E0        mov         rax,qword ptr [rbp-20h]
  0000000010208F8C: 48 83 C0 01        add         rax,1
  0000000010208F90: 48 89 45 D8        mov         qword ptr [rbp-28h],rax
  0000000010208F94: 48 8B 05 15 BE FF  mov         rax,qword ptr [0000000010204DB0h]
                    FF
  0000000010208F9B: 48 83 E8 01        sub         rax,1
  0000000010208F9F: 48 89 85 88 FC FF  mov         qword ptr [rbp+FFFFFFFFFFFFFC88h],rax
                    FF
  0000000010208FA6: 48 8B 45 D8        mov         rax,qword ptr [rbp-28h]
  0000000010208FAA: 48 3B 85 88 FC FF  cmp         rax,qword ptr [rbp+FFFFFFFFFFFFFC88h]
                    FF
  0000000010208FB1: 0F 8F B3 00 00 00  jg          000000001020906A
  0000000010208FB7: 48 8B 45 D0        mov         rax,qword ptr [rbp-30h]
  0000000010208FBB: 48 81 F8 00 01 00  cmp         rax,100h
                    00
  0000000010208FC2: 0F 83 05 00 00 00  jae         0000000010208FCD
  0000000010208FC8: E9 08 00 00 00     jmp         0000000010208FD5
  0000000010208FCD: B0 01              mov         al,1
  0000000010208FCF: B9 3F 4A 00 00     mov         ecx,4A3Fh
  0000000010208FD4: CC                 int         3
  0000000010208FD5: 48 C1 E0 03        shl         rax,3
  0000000010208FD9: 48 8D 0D D0 95 FF  lea         rcx,[00000000102025B0h]
                    FF
  0000000010208FE0: 48 03 C1           add         rax,rcx
  0000000010208FE3: 48 8B 00           mov         rax,qword ptr [rax]
  0000000010208FE6: 48 85 C0           test        rax,rax
  0000000010208FE9: 0F 84 05 00 00 00  je          0000000010208FF4
  0000000010208FEF: E9 08 00 00 00     jmp         0000000010208FFC
  0000000010208FF4: B0 04              mov         al,4
  0000000010208FF6: B9 40 4A 00 00     mov         ecx,4A40h
  0000000010208FFB: CC                 int         3
  0000000010208FFC: 48 8B 80 B8 02 00  mov         rax,qword ptr [rax+00000000000002B8h]
                    00
  0000000010209003: 48 8B 4D D8        mov         rcx,qword ptr [rbp-28h]
  0000000010209007: 48 81 F9 00 01 00  cmp         rcx,100h
                    00
  000000001020900E: 0F 83 05 00 00 00  jae         0000000010209019
  0000000010209014: E9 08 00 00 00     jmp         0000000010209021
  0000000010209019: B0 01              mov         al,1
  000000001020901B: B9 50 4A 00 00     mov         ecx,4A50h
  0000000010209020: CC                 int         3
  0000000010209021: 48 C1 E1 03        shl         rcx,3
  0000000010209025: 48 8D 15 84 95 FF  lea         rdx,[00000000102025B0h]
                    FF
  000000001020902C: 48 03 CA           add         rcx,rdx
  000000001020902F: 48 8B 09           mov         rcx,qword ptr [rcx]
  0000000010209032: 48 85 C9           test        rcx,rcx
  0000000010209035: 0F 84 05 00 00 00  je          0000000010209040
  000000001020903B: E9 08 00 00 00     jmp         0000000010209048
  0000000010209040: B0 04              mov         al,4
  0000000010209042: B9 51 4A 00 00     mov         ecx,4A51h
  0000000010209047: CC                 int         3
  0000000010209048: 48 8B 89 B8 02 00  mov         rcx,qword ptr [rcx+00000000000002B8h]
                    00
  000000001020904F: 48 3B C1           cmp         rax,rcx
  0000000010209052: 0F 8E 08 00 00 00  jle         0000000010209060
  0000000010209058: 48 8B 45 D8        mov         rax,qword ptr [rbp-28h]
  000000001020905C: 48 89 45 D0        mov         qword ptr [rbp-30h],rax
  0000000010209060: 48 83 45 D8 01     add         qword ptr [rbp-28h],1
  0000000010209065: E9 3C FF FF FF     jmp         0000000010208FA6
  000000001020906A: 48 8B 45 E0        mov         rax,qword ptr [rbp-20h]
  000000001020906E: 48 8B 4D D0        mov         rcx,qword ptr [rbp-30h]
  0000000010209072: 48 3B C1           cmp         rax,rcx
  0000000010209075: 0F 84 C4 00 00 00  je          000000001020913F
  000000001020907B: 48 8B 45 E0        mov         rax,qword ptr [rbp-20h]
  000000001020907F: 48 81 F8 00 01 00  cmp         rax,100h
                    00
  0000000010209086: 0F 83 05 00 00 00  jae         0000000010209091
  000000001020908C: E9 08 00 00 00     jmp         0000000010209099
  0000000010209091: B0 01              mov         al,1
  0000000010209093: B9 92 4A 00 00     mov         ecx,4A92h
  0000000010209098: CC                 int         3
  0000000010209099: 48 C1 E0 03        shl         rax,3
  000000001020909D: 48 8D 0D 0C 95 FF  lea         rcx,[00000000102025B0h]
                    FF
  00000000102090A4: 48 03 C1           add         rax,rcx
  00000000102090A7: 48 8B 00           mov         rax,qword ptr [rax]
  00000000102090AA: 48 89 45 B8        mov         qword ptr [rbp-48h],rax
  00000000102090AE: 48 8B 45 E0        mov         rax,qword ptr [rbp-20h]
  00000000102090B2: 48 81 F8 00 01 00  cmp         rax,100h
                    00
  00000000102090B9: 0F 83 05 00 00 00  jae         00000000102090C4
  00000000102090BF: E9 08 00 00 00     jmp         00000000102090CC
  00000000102090C4: B0 01              mov         al,1
  00000000102090C6: B9 A2 4A 00 00     mov         ecx,4AA2h
  00000000102090CB: CC                 int         3
  00000000102090CC: 48 C1 E0 03        shl         rax,3
  00000000102090D0: 48 8D 0D D9 94 FF  lea         rcx,[00000000102025B0h]
                    FF
  00000000102090D7: 48 03 C1           add         rax,rcx
  00000000102090DA: 48 8B 4D D0        mov         rcx,qword ptr [rbp-30h]
  00000000102090DE: 48 81 F9 00 01 00  cmp         rcx,100h
                    00
  00000000102090E5: 0F 83 05 00 00 00  jae         00000000102090F0
  00000000102090EB: E9 08 00 00 00     jmp         00000000102090F8
  00000000102090F0: B0 01              mov         al,1
  00000000102090F2: B9 B0 4A 00 00     mov         ecx,4AB0h
  00000000102090F7: CC                 int         3
  00000000102090F8: 48 C1 E1 03        shl         rcx,3
  00000000102090FC: 48 8D 15 AD 94 FF  lea         rdx,[00000000102025B0h]
                    FF
  0000000010209103: 48 03 CA           add         rcx,rdx
  0000000010209106: 48 8B 09           mov         rcx,qword ptr [rcx]
  0000000010209109: 48 89 08           mov         qword ptr [rax],rcx
  000000001020910C: 48 8B 45 D0        mov         rax,qword ptr [rbp-30h]
  0000000010209110: 48 81 F8 00 01 00  cmp         rax,100h
                    00
  0000000010209117: 0F 83 05 00 00 00  jae         0000000010209122
  000000001020911D: E9 08 00 00 00     jmp         000000001020912A
  0000000010209122: B0 01              mov         al,1
  0000000010209124: B9 BC 4A 00 00     mov         ecx,4ABCh
  0000000010209129: CC                 int         3
  000000001020912A: 48 C1 E0 03        shl         rax,3
  000000001020912E: 48 8D 0D 7B 94 FF  lea         rcx,[00000000102025B0h]
                    FF
  0000000010209135: 48 03 C1           add         rax,rcx
  0000000010209138: 48 8B 4D B8        mov         rcx,qword ptr [rbp-48h]
  000000001020913C: 48 89 08           mov         qword ptr [rax],rcx
  000000001020913F: 48 83 45 E0 01     add         qword ptr [rbp-20h],1
  0000000010209144: E9 26 FE FF FF     jmp         0000000010208F6F
  0000000010209149: 31 C0              xor         eax,eax
  000000001020914B: 48 89 45 E0        mov         qword ptr [rbp-20h],rax
  000000001020914F: 48 8B 05 5A BC FF  mov         rax,qword ptr [0000000010204DB0h]
                    FF
  0000000010209156: 48 83 E8 01        sub         rax,1
  000000001020915A: 48 89 85 80 FC FF  mov         qword ptr [rbp+FFFFFFFFFFFFFC80h],rax
                    FF
  0000000010209161: 48 8B 45 E0        mov         rax,qword ptr [rbp-20h]
  0000000010209165: 48 3B 85 80 FC FF  cmp         rax,qword ptr [rbp+FFFFFFFFFFFFFC80h]
                    FF
  000000001020916C: 0F 8F C4 07 00 00  jg          0000000010209936
  0000000010209172: 48 8B 45 E0        mov         rax,qword ptr [rbp-20h]
  0000000010209176: 48 81 F8 00 01 00  cmp         rax,100h
                    00
  000000001020917D: 0F 83 05 00 00 00  jae         0000000010209188
  0000000010209183: E9 08 00 00 00     jmp         0000000010209190
  0000000010209188: B0 01              mov         al,1
  000000001020918A: B9 07 4B 00 00     mov         ecx,4B07h
  000000001020918F: CC                 int         3
  0000000010209190: 48 C1 E0 03        shl         rax,3
  0000000010209194: 48 8D 0D 15 94 FF  lea         rcx,[00000000102025B0h]
                    FF
  000000001020919B: 48 03 C1           add         rax,rcx
  000000001020919E: 48 8B 00           mov         rax,qword ptr [rax]
  00000000102091A1: 48 89 45 B8        mov         qword ptr [rbp-48h],rax
  00000000102091A5: 48 83 EC 20        sub         rsp,20h
  00000000102091A9: 48 8D 0D 20 BC FF  lea         rcx,[0000000010204DD0h]
                    FF
  00000000102091B0: 48 8B 55 B8        mov         rdx,qword ptr [rbp-48h]
  00000000102091B4: 48 85 D2           test        rdx,rdx
  00000000102091B7: 0F 84 05 00 00 00  je          00000000102091C2
  00000000102091BD: E9 08 00 00 00     jmp         00000000102091CA
  00000000102091C2: B0 04              mov         al,4
  00000000102091C4: B9 22 4B 00 00     mov         ecx,4B22h
  00000000102091C9: CC                 int         3
  00000000102091CA: 48 83 C2 28        add         rdx,28h
  00000000102091CE: 41 B8 00 01 00 00  mov         r8d,100h
  00000000102091D4: FF 15 BE 8C DF FF  call        qword ptr [0000000010001E98h]
  00000000102091DA: 48 83 C4 20        add         rsp,20h
  00000000102091DE: 48 83 EC 20        sub         rsp,20h
  00000000102091E2: 48 8B 4D B8        mov         rcx,qword ptr [rbp-48h]
  00000000102091E6: 48 85 C9           test        rcx,rcx
  00000000102091E9: 0F 84 05 00 00 00  je          00000000102091F4
  00000000102091EF: E9 08 00 00 00     jmp         00000000102091FC
  00000000102091F4: B0 04              mov         al,4
  00000000102091F6: B9 3E 4B 00 00     mov         ecx,4B3Eh
  00000000102091FB: CC                 int         3
  00000000102091FC: 48 81 C1 A8 02 00  add         rcx,2A8h
                    00
  0000000010209203: E8 D7 FC FF FF     call        0000000010208EDF
  0000000010209208: 48 83 C4 20        add         rsp,20h
  000000001020920C: 48 83 EC 20        sub         rsp,20h
  0000000010209210: 48 8D 0D B9 BB FF  lea         rcx,[0000000010204DD0h]
                    FF
  0000000010209217: 48 8B 55 B8        mov         rdx,qword ptr [rbp-48h]
  000000001020921B: 48 85 D2           test        rdx,rdx
  000000001020921E: 0F 84 05 00 00 00  je          0000000010209229
  0000000010209224: E9 08 00 00 00     jmp         0000000010209231
  0000000010209229: B0 04              mov         al,4
  000000001020922B: B9 5C 4B 00 00     mov         ecx,4B5Ch
  0000000010209230: CC                 int         3
  0000000010209231: 48 81 C2 B8 02 00  add         rdx,2B8h
                    00
  0000000010209238: E8 5A BE FF FF     call        0000000010205097
  000000001020923D: 48 83 C4 20        add         rsp,20h
  0000000010209241: 48 83 EC 20        sub         rsp,20h
  0000000010209245: E8 31 D2 FF FF     call        000000001020647B
  000000001020924A: 48 83 C4 20        add         rsp,20h
  000000001020924E: 48 8B 45 E0        mov         rax,qword ptr [rbp-20h]
  0000000010209252: 48 83 C0 02        add         rax,2
  0000000010209256: 48 F7 D8           neg         rax
  0000000010209259: 48 89 05 28 BC FF  mov         qword ptr [0000000010204E88h],rax
                    FF
  0000000010209260: 31 C0              xor         eax,eax
  0000000010209262: 48 89 45 F8        mov         qword ptr [rbp-8],rax
  0000000010209266: 48 83 EC 20        sub         rsp,20h
  000000001020926A: 48 8D 0D 5F BB FF  lea         rcx,[0000000010204DD0h]
                    FF
  0000000010209271: 48 8D 55 E8        lea         rdx,[rbp-18h]
  0000000010209275: E8 1D BE FF FF     call        0000000010205097
  000000001020927A: 48 83 C4 20        add         rsp,20h
  000000001020927E: 48 8B 45 E8        mov         rax,qword ptr [rbp-18h]
  0000000010209282: 48 83 F8 FF        cmp         rax,0FFFFFFFFFFFFFFFFh
  0000000010209286: 0F 84 52 06 00 00  je          00000000102098DE
  000000001020928C: 48 8B 45 E8        mov         rax,qword ptr [rbp-18h]
  0000000010209290: 48 83 F8 04        cmp         rax,4
  0000000010209294: 0F 85 8F 00 00 00  jne         0000000010209329
  000000001020929A: 48 83 EC 20        sub         rsp,20h
  000000001020929E: 48 8D 0D 2B BB FF  lea         rcx,[0000000010204DD0h]
                    FF
  00000000102092A5: 48 8D 95 30 FF FF  lea         rdx,[rbp+FFFFFFFFFFFFFF30h]
                    FF
  00000000102092AC: 41 B8 40 00 00 00  mov         r8d,40h
  00000000102092B2: FF 15 40 8C DF FF  call        qword ptr [0000000010001EF8h]
  00000000102092B8: 48 83 C4 20        add         rsp,20h
  00000000102092BC: 48 83 EC 20        sub         rsp,20h
  00000000102092C0: 48 8D 0D 09 BB FF  lea         rcx,[0000000010204DD0h]
                    FF
  00000000102092C7: 48 8D 55 C8        lea         rdx,[rbp-38h]
  00000000102092CB: E8 C7 BD FF FF     call        0000000010205097
  00000000102092D0: 48 83 C4 20        add         rsp,20h
  00000000102092D4: 48 83 EC 20        sub         rsp,20h
  00000000102092D8: 48 8D 8D A8 FE FF  lea         rcx,[rbp+FFFFFFFFFFFFFEA8h]
                    FF
  00000000102092DF: E8 F6 EC FF FF     call        0000000010207FDA
  00000000102092E4: 48 83 C4 20        add         rsp,20h
  00000000102092E8: 48 83 EC 20        sub         rsp,20h
  00000000102092EC: 48 8B 8D A8 FE FF  mov         rcx,qword ptr [rbp+FFFFFFFFFFFFFEA8h]
                    FF
  00000000102092F3: 48 8B 55 C8        mov         rdx,qword ptr [rbp-38h]
  00000000102092F7: E8 D4 C3 FF FF     call        00000000102056D0
  00000000102092FC: 48 83 C4 20        add         rsp,20h
  0000000010209300: 48 89 45 F0        mov         qword ptr [rbp-10h],rax
  0000000010209304: 48 83 EC 20        sub         rsp,20h
  0000000010209308: 48 8B 4D F8        mov         rcx,qword ptr [rbp-8]
  000000001020930C: 48 8D 95 30 FF FF  lea         rdx,[rbp+FFFFFFFFFFFFFF30h]
                    FF
  0000000010209313: 4C 8B 45 F0        mov         r8,qword ptr [rbp-10h]
  0000000010209317: E8 E7 EA FF FF     call        0000000010207E03
  000000001020931C: 48 83 C4 20        add         rsp,20h
  0000000010209320: 48 89 45 F8        mov         qword ptr [rbp-8],rax
  0000000010209324: E9 98 05 00 00     jmp         00000000102098C1
  0000000010209329: 48 8B 45 E8        mov         rax,qword ptr [rbp-18h]
  000000001020932D: 48 83 F8 01        cmp         rax,1
  0000000010209331: 0F 85 73 00 00 00  jne         00000000102093AA
  0000000010209337: 48 83 EC 20        sub         rsp,20h
  000000001020933B: 48 8D 0D 8E BA FF  lea         rcx,[0000000010204DD0h]
                    FF
  0000000010209342: 48 8D 95 30 FF FF  lea         rdx,[rbp+FFFFFFFFFFFFFF30h]
                    FF
  0000000010209349: 41 B8 40 00 00 00  mov         r8d,40h
  000000001020934F: FF 15 A3 8B DF FF  call        qword ptr [0000000010001EF8h]
  0000000010209355: 48 83 C4 20        add         rsp,20h
  0000000010209359: 48 83 EC 20        sub         rsp,20h
  000000001020935D: 48 8D 8D A8 FE FF  lea         rcx,[rbp+FFFFFFFFFFFFFEA8h]
                    FF
  0000000010209364: E8 71 EC FF FF     call        0000000010207FDA
  0000000010209369: 48 83 C4 20        add         rsp,20h
  000000001020936D: 48 83 EC 20        sub         rsp,20h
  0000000010209371: 48 8B 8D A8 FE FF  mov         rcx,qword ptr [rbp+FFFFFFFFFFFFFEA8h]
                    FF
  0000000010209378: E8 16 CA FF FF     call        0000000010205D93
  000000001020937D: 48 83 C4 20        add         rsp,20h
  0000000010209381: 48 89 45 F0        mov         qword ptr [rbp-10h],rax
  0000000010209385: 48 83 EC 20        sub         rsp,20h
  0000000010209389: 48 8B 4D F8        mov         rcx,qword ptr [rbp-8]
  000000001020938D: 48 8D 95 30 FF FF  lea         rdx,[rbp+FFFFFFFFFFFFFF30h]
                    FF
  0000000010209394: 4C 8B 45 F0        mov         r8,qword ptr [rbp-10h]
  0000000010209398: E8 66 EA FF FF     call        0000000010207E03
  000000001020939D: 48 83 C4 20        add         rsp,20h
  00000000102093A1: 48 89 45 F8        mov         qword ptr [rbp-8],rax
  00000000102093A5: E9 17 05 00 00     jmp         00000000102098C1
  00000000102093AA: 48 8B 45 E8        mov         rax,qword ptr [rbp-18h]
  00000000102093AE: 48 83 F8 03        cmp         rax,3
  00000000102093B2: 0F 85 A5 01 00 00  jne         000000001020955D
  00000000102093B8: 48 83 EC 20        sub         rsp,20h
  00000000102093BC: 48 8D 0D 0D BA FF  lea         rcx,[0000000010204DD0h]
                    FF
  00000000102093C3: 48 8D 95 30 FF FF  lea         rdx,[rbp+FFFFFFFFFFFFFF30h]
                    FF
  00000000102093CA: 41 B8 40 00 00 00  mov         r8d,40h
  00000000102093D0: FF 15 22 8B DF FF  call        qword ptr [0000000010001EF8h]
  00000000102093D6: 48 83 C4 20        add         rsp,20h
  00000000102093DA: 48 83 EC 20        sub         rsp,20h
  00000000102093DE: 48 8D 0D EB B9 FF  lea         rcx,[0000000010204DD0h]
                    FF
  00000000102093E5: 48 8D 55 C8        lea         rdx,[rbp-38h]
  00000000102093E9: E8 A9 BC FF FF     call        0000000010205097
  00000000102093EE: 48 83 C4 20        add         rsp,20h
  00000000102093F2: 48 83 EC 20        sub         rsp,20h
  00000000102093F6: 48 8D 8D A8 FE FF  lea         rcx,[rbp+FFFFFFFFFFFFFEA8h]
                    FF
  00000000102093FD: E8 D8 EB FF FF     call        0000000010207FDA
  0000000010209402: 48 83 C4 20        add         rsp,20h
  0000000010209406: 48 8B 85 A8 FE FF  mov         rax,qword ptr [rbp+FFFFFFFFFFFFFEA8h]
                    FF
  000000001020940D: 48 8B 0D AC BB FF  mov         rcx,qword ptr [0000000010204FC0h]
                    FF
  0000000010209414: 48 3B C1           cmp         rax,rcx
  0000000010209417: 0F 84 61 00 00 00  je          000000001020947E
  000000001020941D: 48 83 EC 20        sub         rsp,20h
  0000000010209421: 48 8B 8D A8 FE FF  mov         rcx,qword ptr [rbp+FFFFFFFFFFFFFEA8h]
                    FF
  0000000010209428: E8 CE C1 FF FF     call        00000000102055FB
  000000001020942D: 48 83 C4 20        add         rsp,20h
  0000000010209431: 48 89 45 F0        mov         qword ptr [rbp-10h],rax
  0000000010209435: 48 8B 45 F0        mov         rax,qword ptr [rbp-10h]
  0000000010209439: 48 8B 48 F8        mov         rcx,qword ptr [rax-8]
  000000001020943D: 48 8D 15 FC 8C DF  lea         rdx,[0000000010002140h]
                    FF
  0000000010209444: 48 39 51 08        cmp         qword ptr [rcx+8],rdx
  0000000010209448: 0F 85 05 00 00 00  jne         0000000010209453
  000000001020944E: E9 08 00 00 00     jmp         000000001020945B
  0000000010209453: B0 02              mov         al,2
  0000000010209455: B9 A4 4D 00 00     mov         ecx,4DA4h
  000000001020945A: CC                 int         3
  000000001020945B: 48 85 C0           test        rax,rax
  000000001020945E: 0F 84 05 00 00 00  je          0000000010209469
  0000000010209464: E9 08 00 00 00     jmp         0000000010209471
  0000000010209469: B0 04              mov         al,4
  000000001020946B: B9 A5 4D 00 00     mov         ecx,4DA5h
  0000000010209470: CC                 int         3
  0000000010209471: B9 01 00 00 00     mov         ecx,1
  0000000010209476: 88 48 40           mov         byte ptr [rax+40h],cl
  0000000010209479: E9 34 00 00 00     jmp         00000000102094B2
  000000001020947E: 48 83 EC 20        sub         rsp,20h
  0000000010209482: 48 8D 0D 47 B9 FF  lea         rcx,[0000000010204DD0h]
                    FF
  0000000010209489: 48 8D 55 C0        lea         rdx,[rbp-40h]
  000000001020948D: E8 05 BC FF FF     call        0000000010205097
  0000000010209492: 48 83 C4 20        add         rsp,20h
  0000000010209496: 48 83 EC 20        sub         rsp,20h
  000000001020949A: 48 8D 0D F5 89 DF  lea         rcx,[0000000010001E96h]
                    FF
  00000000102094A1: 48 8B 55 C0        mov         rdx,qword ptr [rbp-40h]
  00000000102094A5: E8 2E C5 FF FF     call        00000000102059D8
  00000000102094AA: 48 83 C4 20        add         rsp,20h
  00000000102094AE: 48 89 45 F0        mov         qword ptr [rbp-10h],rax
  00000000102094B2: 48 8B 45 F0        mov         rax,qword ptr [rbp-10h]
  00000000102094B6: 48 8B 48 F8        mov         rcx,qword ptr [rax-8]
  00000000102094BA: 48 8D 15 7F 8C DF  lea         rdx,[0000000010002140h]
                    FF
  00000000102094C1: 48 39 51 08        cmp         qword ptr [rcx+8],rdx
  00000000102094C5: 0F 85 05 00 00 00  jne         00000000102094D0
  00000000102094CB: E9 08 00 00 00     jmp         00000000102094D8
  00000000102094D0: B0 02              mov         al,2
  00000000102094D2: B9 00 4E 00 00     mov         ecx,4E00h
  00000000102094D7: CC                 int         3
  00000000102094D8: 48 85 C0           test        rax,rax
  00000000102094DB: 0F 84 05 00 00 00  je          00000000102094E6
  00000000102094E1: E9 08 00 00 00     jmp         00000000102094EE
  00000000102094E6: B0 04              mov         al,4
  00000000102094E8: B9 01 4E 00 00     mov         ecx,4E01h
  00000000102094ED: CC                 int         3
  00000000102094EE: 48 8B 4D C8        mov         rcx,qword ptr [rbp-38h]
  00000000102094F2: 48 89 48 30        mov         qword ptr [rax+30h],rcx
  00000000102094F6: 48 8B 45 F0        mov         rax,qword ptr [rbp-10h]
  00000000102094FA: 48 8B 48 F8        mov         rcx,qword ptr [rax-8]
  00000000102094FE: 48 8D 15 3B 8C DF  lea         rdx,[0000000010002140h]
                    FF
  0000000010209505: 48 39 51 08        cmp         qword ptr [rcx+8],rdx
  0000000010209509: 0F 85 05 00 00 00  jne         0000000010209514
  000000001020950F: E9 08 00 00 00     jmp         000000001020951C
  0000000010209514: B0 02              mov         al,2
  0000000010209516: B9 15 4E 00 00     mov         ecx,4E15h
  000000001020951B: CC                 int         3
  000000001020951C: 48 85 C0           test        rax,rax
  000000001020951F: 0F 84 05 00 00 00  je          000000001020952A
  0000000010209525: E9 08 00 00 00     jmp         0000000010209532
  000000001020952A: B0 04              mov         al,4
  000000001020952C: B9 16 4E 00 00     mov         ecx,4E16h
  0000000010209531: CC                 int         3
  0000000010209532: 31 C9              xor         ecx,ecx
  0000000010209534: 48 89 48 28        mov         qword ptr [rax+28h],rcx
  0000000010209538: 48 83 EC 20        sub         rsp,20h
  000000001020953C: 48 8B 4D F8        mov         rcx,qword ptr [rbp-8]
  0000000010209540: 48 8D 95 30 FF FF  lea         rdx,[rbp+FFFFFFFFFFFFFF30h]
                    FF
  0000000010209547: 4C 8B 45 F0        mov         r8,qword ptr [rbp-10h]
  000000001020954B: E8 B3 E8 FF FF     call        0000000010207E03
  0000000010209550: 48 83 C4 20        add         rsp,20h
  0000000010209554: 48 89 45 F8        mov         qword ptr [rbp-8],rax
  0000000010209558: E9 64 03 00 00     jmp         00000000102098C1
  000000001020955D: 48 8B 45 E8        mov         rax,qword ptr [rbp-18h]
  0000000010209561: 48 83 F8 05        cmp         rax,5
  0000000010209565: 0F 85 23 01 00 00  jne         000000001020968E
  000000001020956B: 48 83 EC 20        sub         rsp,20h
  000000001020956F: 48 8D 0D 5A B8 FF  lea         rcx,[0000000010204DD0h]
                    FF
  0000000010209576: 48 8D 95 30 FF FF  lea         rdx,[rbp+FFFFFFFFFFFFFF30h]
                    FF
  000000001020957D: 41 B8 40 00 00 00  mov         r8d,40h
  0000000010209583: FF 15 6F 89 DF FF  call        qword ptr [0000000010001EF8h]
  0000000010209589: 48 83 C4 20        add         rsp,20h
  000000001020958D: 48 83 EC 20        sub         rsp,20h
  0000000010209591: E8 6D C7 FF FF     call        0000000010205D03
  0000000010209596: 48 83 C4 20        add         rsp,20h
  000000001020959A: 48 89 45 F0        mov         qword ptr [rbp-10h],rax
  000000001020959E: 48 83 EC 20        sub         rsp,20h
  00000000102095A2: 48 8D 0D 27 B8 FF  lea         rcx,[0000000010204DD0h]
                    FF
  00000000102095A9: 48 8B 55 F0        mov         rdx,qword ptr [rbp-10h]
  00000000102095AD: 4C 8B 42 F8        mov         r8,qword ptr [rdx-8]
  00000000102095B1: 4C 8D 0D 28 8C DF  lea         r9,[00000000100021E0h]
                    FF
  00000000102095B8: 4D 39 48 08        cmp         qword ptr [r8+8],r9
  00000000102095BC: 0F 85 05 00 00 00  jne         00000000102095C7
  00000000102095C2: E9 08 00 00 00     jmp         00000000102095CF
  00000000102095C7: B0 02              mov         al,2
  00000000102095C9: B9 B6 4E 00 00     mov         ecx,4EB6h
  00000000102095CE: CC                 int         3
  00000000102095CF: 48 85 D2           test        rdx,rdx
  00000000102095D2: 0F 84 05 00 00 00  je          00000000102095DD
  00000000102095D8: E9 08 00 00 00     jmp         00000000102095E5
  00000000102095DD: B0 04              mov         al,4
  00000000102095DF: B9 B7 4E 00 00     mov         ecx,4EB7h
  00000000102095E4: CC                 int         3
  00000000102095E5: 48 83 C2 30        add         rdx,30h
  00000000102095E9: E8 A9 BA FF FF     call        0000000010205097
  00000000102095EE: 48 83 C4 20        add         rsp,20h
  00000000102095F2: 48 8B 45 F0        mov         rax,qword ptr [rbp-10h]
  00000000102095F6: 48 8B 48 F8        mov         rcx,qword ptr [rax-8]
  00000000102095FA: 48 8D 15 DF 8B DF  lea         rdx,[00000000100021E0h]
                    FF
  0000000010209601: 48 39 51 08        cmp         qword ptr [rcx+8],rdx
  0000000010209605: 0F 85 05 00 00 00  jne         0000000010209610
  000000001020960B: E9 08 00 00 00     jmp         0000000010209618
  0000000010209610: B0 02              mov         al,2
  0000000010209612: B9 CB 4E 00 00     mov         ecx,4ECBh
  0000000010209617: CC                 int         3
  0000000010209618: 48 85 C0           test        rax,rax
  000000001020961B: 0F 84 05 00 00 00  je          0000000010209626
  0000000010209621: E9 08 00 00 00     jmp         000000001020962E
  0000000010209626: B0 04              mov         al,4
  0000000010209628: B9 CC 4E 00 00     mov         ecx,4ECCh
  000000001020962D: CC                 int         3
  000000001020962E: 31 C9              xor         ecx,ecx
  0000000010209630: 48 89 48 28        mov         qword ptr [rax+28h],rcx
  0000000010209634: 48 83 EC 20        sub         rsp,20h
  0000000010209638: 48 8B 4D F0        mov         rcx,qword ptr [rbp-10h]
  000000001020963C: 48 85 C9           test        rcx,rcx
  000000001020963F: 0F 84 05 00 00 00  je          000000001020964A
  0000000010209645: E9 08 00 00 00     jmp         0000000010209652
  000000001020964A: B0 04              mov         al,4
  000000001020964C: B9 E3 4E 00 00     mov         ecx,4EE3h
  0000000010209651: CC                 int         3
  0000000010209652: 48 83 C1 08        add         rcx,8
  0000000010209656: 48 BA FF FF FF FF  mov         rdx,0FFFFFFFFFFFFFFFFh
                    FF FF FF FF
  0000000010209660: E8 3F F0 FF FF     call        00000000102086A4
  0000000010209665: 48 83 C4 20        add         rsp,20h
  0000000010209669: 48 83 EC 20        sub         rsp,20h
  000000001020966D: 48 8B 4D F8        mov         rcx,qword ptr [rbp-8]
  0000000010209671: 48 8D 95 30 FF FF  lea         rdx,[rbp+FFFFFFFFFFFFFF30h]
                    FF
  0000000010209678: 4C 8B 45 F0        mov         r8,qword ptr [rbp-10h]
  000000001020967C: E8 82 E7 FF FF     call        0000000010207E03
  0000000010209681: 48 83 C4 20        add         rsp,20h
  0000000010209685: 48 89 45 F8        mov         qword ptr [rbp-8],rax
  0000000010209689: E9 33 02 00 00     jmp         00000000102098C1
  000000001020968E: 48 8B 45 E8        mov         rax,qword ptr [rbp-18h]
  0000000010209692: 48 85 C0           test        rax,rax
  0000000010209695: 0F 85 26 02 00 00  jne         00000000102098C1
  000000001020969B: 48 83 EC 20        sub         rsp,20h
  000000001020969F: 48 8D 0D 2A B7 FF  lea         rcx,[0000000010204DD0h]
                    FF
  00000000102096A6: 48 8D 95 30 FF FF  lea         rdx,[rbp+FFFFFFFFFFFFFF30h]
                    FF
  00000000102096AD: 41 B8 40 00 00 00  mov         r8d,40h
  00000000102096B3: FF 15 3F 88 DF FF  call        qword ptr [0000000010001EF8h]
  00000000102096B9: 48 83 C4 20        add         rsp,20h
  00000000102096BD: 48 83 EC 20        sub         rsp,20h
  00000000102096C1: 48 8D 8D 98 FE FF  lea         rcx,[rbp+FFFFFFFFFFFFFE98h]
                    FF
  00000000102096C8: E8 12 F8 FF FF     call        0000000010208EDF
  00000000102096CD: 48 83 C4 20        add         rsp,20h
  00000000102096D1: 48 83 EC 20        sub         rsp,20h
  00000000102096D5: 48 8D 8D 30 FF FF  lea         rcx,[rbp+FFFFFFFFFFFFFF30h]
                    FF
  00000000102096DC: E8 F1 E5 FF FF     call        0000000010207CD2
  00000000102096E1: 48 83 C4 20        add         rsp,20h
  00000000102096E5: 48 89 45 B0        mov         qword ptr [rbp-50h],rax
  00000000102096E9: 48 8D BD 30 FF FF  lea         rdi,[rbp+FFFFFFFFFFFFFF30h]
                    FF
  00000000102096F0: 48 8D 35 09 B7 FF  lea         rsi,[0000000010204E00h]
                    FF
  00000000102096F7: 33 C0              xor         eax,eax
  00000000102096F9: 48 83 F8 40        cmp         rax,40h
  00000000102096FD: 0F 84 3A 00 00 00  je          000000001020973D
  0000000010209703: 66 83 3E 00        cmp         word ptr [rsi],0
  0000000010209707: 0F 84 30 00 00 00  je          000000001020973D
  000000001020970D: 48 83 F8 40        cmp         rax,40h
  0000000010209711: 0F 84 59 00 00 00  je          0000000010209770
  0000000010209717: 66 8B 0F           mov         cx,word ptr [rdi]
  000000001020971A: 66 85 C9           test        cx,cx
  000000001020971D: 0F 84 4D 00 00 00  je          0000000010209770
  0000000010209723: 66 3B 0E           cmp         cx,word ptr [rsi]
  0000000010209726: 0F 85 44 00 00 00  jne         0000000010209770
  000000001020972C: 48 83 C7 02        add         rdi,2
  0000000010209730: 48 83 C6 02        add         rsi,2
  0000000010209734: 48 83 C0 01        add         rax,1
  0000000010209738: E9 BC FF FF FF     jmp         00000000102096F9
  000000001020973D: 48 83 F8 40        cmp         rax,40h
  0000000010209741: 0F 84 0A 00 00 00  je          0000000010209751
  0000000010209747: 66 83 3F 00        cmp         word ptr [rdi],0
  000000001020974B: 0F 85 1F 00 00 00  jne         0000000010209770
  0000000010209751: 48 83 EC 20        sub         rsp,20h
  0000000010209755: 48 8D 0D 12 87 DF  lea         rcx,[0000000010001E6Eh]
                    FF
  000000001020975C: BA 14 00 00 00     mov         edx,14h
  0000000010209761: FF 15 A9 88 DF FF  call        qword ptr [0000000010002010h]
  0000000010209767: 48 83 C4 20        add         rsp,20h
  000000001020976B: E9 51 01 00 00     jmp         00000000102098C1
  0000000010209770: 48 8B 45 B0        mov         rax,qword ptr [rbp-50h]
  0000000010209774: 48 85 C0           test        rax,rax
  0000000010209777: 0F 84 44 01 00 00  je          00000000102098C1
  000000001020977D: 48 8B 45 B0        mov         rax,qword ptr [rbp-50h]
  0000000010209781: 48 85 C0           test        rax,rax
  0000000010209784: 0F 84 05 00 00 00  je          000000001020978F
  000000001020978A: E9 08 00 00 00     jmp         0000000010209797
  000000001020978F: B0 04              mov         al,4
  0000000010209791: B9 EB 4F 00 00     mov         ecx,4FEBh
  0000000010209796: CC                 int         3
  0000000010209797: 48 8B 80 A8 02 00  mov         rax,qword ptr [rax+00000000000002A8h]
                    00
  000000001020979E: 48 8B 8D 98 FE FF  mov         rcx,qword ptr [rbp+FFFFFFFFFFFFFE98h]
                    FF
  00000000102097A5: 48 3B C1           cmp         rax,rcx
  00000000102097A8: 0F 85 31 00 00 00  jne         00000000102097DF
  00000000102097AE: 48 8B 45 B0        mov         rax,qword ptr [rbp-50h]
  00000000102097B2: 48 85 C0           test        rax,rax
  00000000102097B5: 0F 84 05 00 00 00  je          00000000102097C0
  00000000102097BB: E9 08 00 00 00     jmp         00000000102097C8
  00000000102097C0: B0 04              mov         al,4
  00000000102097C2: B9 07 50 00 00     mov         ecx,5007h
  00000000102097C7: CC                 int         3
  00000000102097C8: 48 8B 80 B0 02 00  mov         rax,qword ptr [rax+00000000000002B0h]
                    00
  00000000102097CF: 48 8B 8D A0 FE FF  mov         rcx,qword ptr [rbp+FFFFFFFFFFFFFEA0h]
                    FF
  00000000102097D6: 48 3B C1           cmp         rax,rcx
  00000000102097D9: 0F 84 E2 00 00 00  je          00000000102098C1
  00000000102097DF: 48 8D BD 98 FC FF  lea         rdi,[rbp+FFFFFFFFFFFFFC98h]
                    FF
  00000000102097E6: 48 8D 35 71 86 DF  lea         rsi,[0000000010001E5Eh]
                    FF
  00000000102097ED: B9 02 00 00 00     mov         ecx,2
  00000000102097F2: F3 48 A5           rep movs    qword ptr [rdi],qword ptr [rsi]
  00000000102097F5: 48 83 EC 20        sub         rsp,20h
  00000000102097F9: 48 8D 8D 30 FF FF  lea         rcx,[rbp+FFFFFFFFFFFFFF30h]
                    FF
  0000000010209800: BA 40 00 00 00     mov         edx,40h
  0000000010209805: 4C 8D 85 98 FC FF  lea         r8,[rbp+FFFFFFFFFFFFFC98h]
                    FF
  000000001020980C: 41 B9 00 01 00 00  mov         r9d,100h
  0000000010209812: E8 EA B9 FF FF     call        0000000010205201
  0000000010209817: 48 83 C4 20        add         rsp,20h
  000000001020981B: 48 83 EC 20        sub         rsp,20h
  000000001020981F: 48 8D 0D 14 86 DF  lea         rcx,[0000000010001E3Ah]
                    FF
  0000000010209826: BA 12 00 00 00     mov         edx,12h
  000000001020982B: 4C 8D 85 98 FC FF  lea         r8,[rbp+FFFFFFFFFFFFFC98h]
                    FF
  0000000010209832: 41 B9 00 01 00 00  mov         r9d,100h
  0000000010209838: E8 C4 B9 FF FF     call        0000000010205201
  000000001020983D: 48 83 C4 20        add         rsp,20h
  0000000010209841: 48 83 EC 20        sub         rsp,20h
  0000000010209845: 48 8B 4D B8        mov         rcx,qword ptr [rbp-48h]
  0000000010209849: 48 85 C9           test        rcx,rcx
  000000001020984C: 0F 84 05 00 00 00  je          0000000010209857
  0000000010209852: E9 08 00 00 00     jmp         000000001020985F
  0000000010209857: B0 04              mov         al,4
  0000000010209859: B9 92 50 00 00     mov         ecx,5092h
  000000001020985E: CC                 int         3
  000000001020985F: 48 81 C1 28 02 00  add         rcx,228h
                    00
  0000000010209866: BA 40 00 00 00     mov         edx,40h
  000000001020986B: 4C 8D 85 98 FC FF  lea         r8,[rbp+FFFFFFFFFFFFFC98h]
                    FF
  0000000010209872: 41 B9 00 01 00 00  mov         r9d,100h
  0000000010209878: E8 84 B9 FF FF     call        0000000010205201
  000000001020987D: 48 83 C4 20        add         rsp,20h
  0000000010209881: 48 83 EC 20        sub         rsp,20h
  0000000010209885: 48 8D 0D 82 85 DF  lea         rcx,[0000000010001E0Eh]
                    FF
  000000001020988C: BA 16 00 00 00     mov         edx,16h
  0000000010209891: 4C 8D 85 98 FC FF  lea         r8,[rbp+FFFFFFFFFFFFFC98h]
                    FF
  0000000010209898: 41 B9 00 01 00 00  mov         r9d,100h
  000000001020989E: E8 5E B9 FF FF     call        0000000010205201
  00000000102098A3: 48 83 C4 20        add         rsp,20h
  00000000102098A7: 48 83 EC 20        sub         rsp,20h
  00000000102098AB: 48 8D 8D 98 FC FF  lea         rcx,[rbp+FFFFFFFFFFFFFC98h]
                    FF
  00000000102098B2: BA 00 01 00 00     mov         edx,100h
  00000000102098B7: FF 15 53 87 DF FF  call        qword ptr [0000000010002010h]
  00000000102098BD: 48 83 C4 20        add         rsp,20h
  00000000102098C1: 48 83 EC 20        sub         rsp,20h
  00000000102098C5: 48 8D 0D 04 B5 FF  lea         rcx,[0000000010204DD0h]
                    FF
  00000000102098CC: 48 8D 55 E8        lea         rdx,[rbp-18h]
  00000000102098D0: E8 C2 B7 FF FF     call        0000000010205097
  00000000102098D5: 48 83 C4 20        add         rsp,20h
  00000000102098D9: E9 A0 F9 FF FF     jmp         000000001020927E
  00000000102098DE: 48 8B 45 B8        mov         rax,qword ptr [rbp-48h]
  00000000102098E2: 48 85 C0           test        rax,rax
  00000000102098E5: 0F 84 05 00 00 00  je          00000000102098F0
  00000000102098EB: E9 08 00 00 00     jmp         00000000102098F8
  00000000102098F0: B0 04              mov         al,4
  00000000102098F2: B9 22 51 00 00     mov         ecx,5122h
  00000000102098F7: CC                 int         3
  00000000102098F8: 48 8B 0D A1 B5 FF  mov         rcx,qword ptr [0000000010204EA0h]
                    FF
  00000000102098FF: 48 85 C9           test        rcx,rcx
  0000000010209902: 0F 84 05 00 00 00  je          000000001020990D
  0000000010209908: E9 08 00 00 00     jmp         0000000010209915
  000000001020990D: B0 04              mov         al,4
  000000001020990F: B9 34 51 00 00     mov         ecx,5134h
  0000000010209914: CC                 int         3
  0000000010209915: 48 8B 09           mov         rcx,qword ptr [rcx]
  0000000010209918: 48 89 88 C8 02 00  mov         qword ptr [rax+00000000000002C8h],rcx
                    00
  000000001020991F: 48 83 EC 20        sub         rsp,20h
  0000000010209923: E8 C8 CB FF FF     call        00000000102064F0
  0000000010209928: 48 83 C4 20        add         rsp,20h
  000000001020992C: 48 83 45 E0 01     add         qword ptr [rbp-20h],1
  0000000010209931: E9 2B F8 FF FF     jmp         0000000010209161
  0000000010209936: 48 83 EC 20        sub         rsp,20h
  000000001020993A: 48 8D 0D 8F B4 FF  lea         rcx,[0000000010204DD0h]
                    FF
  0000000010209941: FF 15 09 86 DF FF  call        qword ptr [0000000010001F50h]
  0000000010209947: 48 83 C4 20        add         rsp,20h
  000000001020994B: 31 C0              xor         eax,eax
  000000001020994D: 48 89 05 34 B5 FF  mov         qword ptr [0000000010204E88h],rax
                    FF
  0000000010209954: 5F                 pop         rdi
  0000000010209955: 5E                 pop         rsi
  0000000010209956: C9                 leave
  0000000010209957: C3                 ret
  0000000010209958: 55                 push        rbp
  0000000010209959: 48 8B EC           mov         rbp,rsp
  000000001020995C: 48 81 EC 10 02 00  sub         rsp,210h
                    00
  0000000010209963: 56                 push        rsi
  0000000010209964: 57                 push        rdi
  0000000010209965: 48 89 4D 10        mov         qword ptr [rbp+10h],rcx
  0000000010209969: 48 89 55 18        mov         qword ptr [rbp+18h],rdx
  000000001020996D: 48 C7 85 F8 FD FF  mov         qword ptr [rbp+FFFFFFFFFFFFFDF8h],0
                    FF 00 00 00 00
  0000000010209978: 31 C0              xor         eax,eax
  000000001020997A: 66 89 85 00 FE FF  mov         word ptr [rbp+FFFFFFFFFFFFFE00h],ax
                    FF
  0000000010209981: 48 83 EC 20        sub         rsp,20h
  0000000010209985: 48 8B 4D 18        mov         rcx,qword ptr [rbp+18h]
  0000000010209989: BA 40 00 00 00     mov         edx,40h
  000000001020998E: 4C 8D 85 00 FE FF  lea         r8,[rbp+FFFFFFFFFFFFFE00h]
                    FF
  0000000010209995: 41 B9 00 01 00 00  mov         r9d,100h
  000000001020999B: E8 61 B8 FF FF     call        0000000010205201
  00000000102099A0: 48 83 C4 20        add         rsp,20h
  00000000102099A4: 48 83 EC 20        sub         rsp,20h
  00000000102099A8: 48 8D 0D 55 84 DF  lea         rcx,[0000000010001E04h]
                    FF
  00000000102099AF: BA 05 00 00 00     mov         edx,5
  00000000102099B4: 4C 8D 85 00 FE FF  lea         r8,[rbp+FFFFFFFFFFFFFE00h]
                    FF
  00000000102099BB: 41 B9 00 01 00 00  mov         r9d,100h
  00000000102099C1: E8 3B B8 FF FF     call        0000000010205201
  00000000102099C6: 48 83 C4 20        add         rsp,20h
  00000000102099CA: 48 8B 7D 18        mov         rdi,qword ptr [rbp+18h]
  00000000102099CE: 48 8D 35 21 84 DF  lea         rsi,[0000000010001DF6h]
                    FF
  00000000102099D5: 33 C0              xor         eax,eax
  00000000102099D7: 48 83 F8 07        cmp         rax,7
  00000000102099DB: 0F 84 3A 00 00 00  je          0000000010209A1B
  00000000102099E1: 66 83 3E 00        cmp         word ptr [rsi],0
  00000000102099E5: 0F 84 30 00 00 00  je          0000000010209A1B
  00000000102099EB: 48 83 F8 40        cmp         rax,40h
  00000000102099EF: 0F 84 74 01 00 00  je          0000000010209B69
  00000000102099F5: 66 8B 0F           mov         cx,word ptr [rdi]
  00000000102099F8: 66 85 C9           test        cx,cx
  00000000102099FB: 0F 84 68 01 00 00  je          0000000010209B69
  0000000010209A01: 66 3B 0E           cmp         cx,word ptr [rsi]
  0000000010209A04: 0F 85 5F 01 00 00  jne         0000000010209B69
  0000000010209A0A: 48 83 C7 02        add         rdi,2
  0000000010209A0E: 48 83 C6 02        add         rsi,2
  0000000010209A12: 48 83 C0 01        add         rax,1
  0000000010209A16: E9 BC FF FF FF     jmp         00000000102099D7
  0000000010209A1B: 48 83 F8 40        cmp         rax,40h
  0000000010209A1F: 0F 84 0A 00 00 00  je          0000000010209A2F
  0000000010209A25: 66 83 3F 00        cmp         word ptr [rdi],0
  0000000010209A29: 0F 85 3A 01 00 00  jne         0000000010209B69
  0000000010209A2F: 48 83 EC 20        sub         rsp,20h
  0000000010209A33: 48 8B 0D 16 8B DF  mov         rcx,qword ptr [0000000010002550h]
                    FF
  0000000010209A3A: BA 08 00 00 00     mov         edx,8
  0000000010209A3F: 41 B8 F0 02 00 00  mov         r8d,2F0h
  0000000010209A45: FF 15 2D 8B DF FF  call        qword ptr [0000000010002578h]
  0000000010209A4B: 48 83 C4 20        add         rsp,20h
  0000000010209A4F: 48 83 C0 10        add         rax,10h
  0000000010209A53: 48 8D 0D 2E 88 DF  lea         rcx,[0000000010002288h]
                    FF
  0000000010209A5A: 48 89 48 F8        mov         qword ptr [rax-8],rcx
  0000000010209A5E: 48 89 85 F8 FD FF  mov         qword ptr [rbp+FFFFFFFFFFFFFDF8h],rax
                    FF
  0000000010209A65: 48 8B 85 F8 FD FF  mov         rax,qword ptr [rbp+FFFFFFFFFFFFFDF8h]
                    FF
  0000000010209A6C: 48 85 C0           test        rax,rax
  0000000010209A6F: 0F 84 05 00 00 00  je          0000000010209A7A
  0000000010209A75: E9 08 00 00 00     jmp         0000000010209A82
  0000000010209A7A: B0 04              mov         al,4
  0000000010209A7C: B9 60 52 00 00     mov         ecx,5260h
  0000000010209A81: CC                 int         3
  0000000010209A82: 48 8B F8           mov         rdi,rax
  0000000010209A85: 48 81 C7 28 02 00  add         rdi,228h
                    00
  0000000010209A8C: 48 8B 75 18        mov         rsi,qword ptr [rbp+18h]
  0000000010209A90: B9 10 00 00 00     mov         ecx,10h
  0000000010209A95: F3 48 A5           rep movs    qword ptr [rdi],qword ptr [rsi]
  0000000010209A98: 48 8B 85 F8 FD FF  mov         rax,qword ptr [rbp+FFFFFFFFFFFFFDF8h]
                    FF
  0000000010209A9F: 48 85 C0           test        rax,rax
  0000000010209AA2: 0F 84 05 00 00 00  je          0000000010209AAD
  0000000010209AA8: E9 08 00 00 00     jmp         0000000010209AB5
  0000000010209AAD: B0 04              mov         al,4
  0000000010209AAF: B9 7B 52 00 00     mov         ecx,527Bh
  0000000010209AB4: CC                 int         3
  0000000010209AB5: 48 B9 FF FF FF FF  mov         rcx,0FFFFFFFFFFFFFFFFh
                    FF FF FF FF
  0000000010209ABF: 48 89 88 B8 02 00  mov         qword ptr [rax+00000000000002B8h],rcx
                    00
  0000000010209AC6: 48 8B 85 F8 FD FF  mov         rax,qword ptr [rbp+FFFFFFFFFFFFFDF8h]
                    FF
  0000000010209ACD: 48 85 C0           test        rax,rax
  0000000010209AD0: 0F 84 05 00 00 00  je          0000000010209ADB
  0000000010209AD6: E9 08 00 00 00     jmp         0000000010209AE3
  0000000010209ADB: B0 04              mov         al,4
  0000000010209ADD: B9 8D 52 00 00     mov         ecx,528Dh
  0000000010209AE2: CC                 int         3
  0000000010209AE3: 48 8B 0D A6 B3 FF  mov         rcx,qword ptr [0000000010204E90h]
                    FF
  0000000010209AEA: 48 85 C9           test        rcx,rcx
  0000000010209AED: 0F 84 05 00 00 00  je          0000000010209AF8
  0000000010209AF3: E9 08 00 00 00     jmp         0000000010209B00
  0000000010209AF8: B0 04              mov         al,4
  0000000010209AFA: B9 A2 52 00 00     mov         ecx,52A2h
  0000000010209AFF: CC                 int         3
  0000000010209B00: 48 8B 09           mov         rcx,qword ptr [rcx]
  0000000010209B03: 48 89 88 C8 02 00  mov         qword ptr [rax+00000000000002C8h],rcx
                    00
  0000000010209B0A: 48 8B 45 10        mov         rax,qword ptr [rbp+10h]
  0000000010209B0E: 48 85 C0           test        rax,rax
  0000000010209B11: 0F 84 4D 00 00 00  je          0000000010209B64
  0000000010209B17: 48 8B 45 10        mov         rax,qword ptr [rbp+10h]
  0000000010209B1B: 48 85 C0           test        rax,rax
  0000000010209B1E: 0F 84 05 00 00 00  je          0000000010209B29
  0000000010209B24: E9 08 00 00 00     jmp         0000000010209B31
  0000000010209B29: B0 04              mov         al,4
  0000000010209B2B: B9 D0 52 00 00     mov         ecx,52D0h
  0000000010209B30: CC                 int         3
  0000000010209B31: 48 8B 8D F8 FD FF  mov         rcx,qword ptr [rbp+FFFFFFFFFFFFFDF8h]
                    FF
  0000000010209B38: 48 89 88 88 00 00  mov         qword ptr [rax+0000000000000088h],rcx
                    00
  0000000010209B3F: 48 8B 85 F8 FD FF  mov         rax,qword ptr [rbp+FFFFFFFFFFFFFDF8h]
                    FF
  0000000010209B46: 48 85 C0           test        rax,rax
  0000000010209B49: 0F 84 05 00 00 00  je          0000000010209B54
  0000000010209B4F: E9 08 00 00 00     jmp         0000000010209B5C
  0000000010209B54: B0 04              mov         al,4
  0000000010209B56: B9 E6 52 00 00     mov         ecx,52E6h
  0000000010209B5B: CC                 int         3
  0000000010209B5C: 48 8B 4D 10        mov         rcx,qword ptr [rbp+10h]
  0000000010209B60: 48 89 48 10        mov         qword ptr [rax+10h],rcx
  0000000010209B64: E9 F5 02 00 00     jmp         0000000010209E5E
  0000000010209B69: 48 83 EC 20        sub         rsp,20h
  0000000010209B6D: 48 8D 8D 00 FE FF  lea         rcx,[rbp+FFFFFFFFFFFFFE00h]
                    FF
  0000000010209B74: BA 00 01 00 00     mov         edx,100h
  0000000010209B79: FF 15 69 82 DF FF  call        qword ptr [0000000010001DE8h]
  0000000010209B7F: 48 83 C4 20        add         rsp,20h
  0000000010209B83: 85 C0              test        eax,eax
  0000000010209B85: 0F 84 B9 02 00 00  je          0000000010209E44
  0000000010209B8B: 48 83 EC 20        sub         rsp,20h
  0000000010209B8F: 48 8B 0D BA 89 DF  mov         rcx,qword ptr [0000000010002550h]
                    FF
  0000000010209B96: BA 08 00 00 00     mov         edx,8
  0000000010209B9B: 41 B8 F0 02 00 00  mov         r8d,2F0h
  0000000010209BA1: FF 15 D1 89 DF FF  call        qword ptr [0000000010002578h]
  0000000010209BA7: 48 83 C4 20        add         rsp,20h
  0000000010209BAB: 48 83 C0 10        add         rax,10h
  0000000010209BAF: 48 8D 0D D2 86 DF  lea         rcx,[0000000010002288h]
                    FF
  0000000010209BB6: 48 89 48 F8        mov         qword ptr [rax-8],rcx
  0000000010209BBA: 48 89 85 F8 FD FF  mov         qword ptr [rbp+FFFFFFFFFFFFFDF8h],rax
                    FF
  0000000010209BC1: 48 8B 85 F8 FD FF  mov         rax,qword ptr [rbp+FFFFFFFFFFFFFDF8h]
                    FF
  0000000010209BC8: 48 85 C0           test        rax,rax
  0000000010209BCB: 0F 84 05 00 00 00  je          0000000010209BD6
  0000000010209BD1: E9 08 00 00 00     jmp         0000000010209BDE
  0000000010209BD6: B0 04              mov         al,4
  0000000010209BD8: B9 35 53 00 00     mov         ecx,5335h
  0000000010209BDD: CC                 int         3
  0000000010209BDE: 48 8B F8           mov         rdi,rax
  0000000010209BE1: 48 81 C7 28 02 00  add         rdi,228h
                    00
  0000000010209BE8: 48 8B 75 18        mov         rsi,qword ptr [rbp+18h]
  0000000010209BEC: B9 10 00 00 00     mov         ecx,10h
  0000000010209BF1: F3 48 A5           rep movs    qword ptr [rdi],qword ptr [rsi]
  0000000010209BF4: 48 8B 85 F8 FD FF  mov         rax,qword ptr [rbp+FFFFFFFFFFFFFDF8h]
                    FF
  0000000010209BFB: 48 85 C0           test        rax,rax
  0000000010209BFE: 0F 84 05 00 00 00  je          0000000010209C09
  0000000010209C04: E9 08 00 00 00     jmp         0000000010209C11
  0000000010209C09: B0 04              mov         al,4
  0000000010209C0B: B9 50 53 00 00     mov         ecx,5350h
  0000000010209C10: CC                 int         3
  0000000010209C11: 48 8B F8           mov         rdi,rax
  0000000010209C14: 48 83 C7 28        add         rdi,28h
  0000000010209C18: 48 8D B5 00 FE FF  lea         rsi,[rbp+FFFFFFFFFFFFFE00h]
                    FF
  0000000010209C1F: B9 40 00 00 00     mov         ecx,40h
  0000000010209C24: F3 48 A5           rep movs    qword ptr [rdi],qword ptr [rsi]
  0000000010209C27: 48 8B 85 F8 FD FF  mov         rax,qword ptr [rbp+FFFFFFFFFFFFFDF8h]
                    FF
  0000000010209C2E: 48 85 C0           test        rax,rax
  0000000010209C31: 0F 84 05 00 00 00  je          0000000010209C3C
  0000000010209C37: E9 08 00 00 00     jmp         0000000010209C44
  0000000010209C3C: B0 04              mov         al,4
  0000000010209C3E: B9 65 53 00 00     mov         ecx,5365h
  0000000010209C43: CC                 int         3
  0000000010209C44: 31 C9              xor         ecx,ecx
  0000000010209C46: 48 89 88 B8 02 00  mov         qword ptr [rax+00000000000002B8h],rcx
                    00
  0000000010209C4D: 48 8B 85 F8 FD FF  mov         rax,qword ptr [rbp+FFFFFFFFFFFFFDF8h]
                    FF
  0000000010209C54: 48 85 C0           test        rax,rax
  0000000010209C57: 0F 84 05 00 00 00  je          0000000010209C62
  0000000010209C5D: E9 08 00 00 00     jmp         0000000010209C6A
  0000000010209C62: B0 04              mov         al,4
  0000000010209C64: B9 76 53 00 00     mov         ecx,5376h
  0000000010209C69: CC                 int         3
  0000000010209C6A: 31 C9              xor         ecx,ecx
  0000000010209C6C: 48 89 88 C0 02 00  mov         qword ptr [rax+00000000000002C0h],rcx
                    00
  0000000010209C73: 48 8B 45 10        mov         rax,qword ptr [rbp+10h]
  0000000010209C77: 48 85 C0           test        rax,rax
  0000000010209C7A: 0F 84 4D 00 00 00  je          0000000010209CCD
  0000000010209C80: 48 8B 45 10        mov         rax,qword ptr [rbp+10h]
  0000000010209C84: 48 85 C0           test        rax,rax
  0000000010209C87: 0F 84 05 00 00 00  je          0000000010209C92
  0000000010209C8D: E9 08 00 00 00     jmp         0000000010209C9A
  0000000010209C92: B0 04              mov         al,4
  0000000010209C94: B9 A7 53 00 00     mov         ecx,53A7h
  0000000010209C99: CC                 int         3
  0000000010209C9A: 48 8B 8D F8 FD FF  mov         rcx,qword ptr [rbp+FFFFFFFFFFFFFDF8h]
                    FF
  0000000010209CA1: 48 89 88 88 00 00  mov         qword ptr [rax+0000000000000088h],rcx
                    00
  0000000010209CA8: 48 8B 85 F8 FD FF  mov         rax,qword ptr [rbp+FFFFFFFFFFFFFDF8h]
                    FF
  0000000010209CAF: 48 85 C0           test        rax,rax
  0000000010209CB2: 0F 84 05 00 00 00  je          0000000010209CBD
  0000000010209CB8: E9 08 00 00 00     jmp         0000000010209CC5
  0000000010209CBD: B0 04              mov         al,4
  0000000010209CBF: B9 BD 53 00 00     mov         ecx,53BDh
  0000000010209CC4: CC                 int         3
  0000000010209CC5: 48 8B 4D 10        mov         rcx,qword ptr [rbp+10h]
  0000000010209CC9: 48 89 48 10        mov         qword ptr [rax+10h],rcx
  0000000010209CCD: 48 8B 05 DC B0 FF  mov         rax,qword ptr [0000000010204DB0h]
                    FF
  0000000010209CD4: 48 81 F8 00 01 00  cmp         rax,100h
                    00
  0000000010209CDB: 0F 83 05 00 00 00  jae         0000000010209CE6
  0000000010209CE1: E9 08 00 00 00     jmp         0000000010209CEE
  0000000010209CE6: B0 01              mov         al,1
  0000000010209CE8: B9 E8 53 00 00     mov         ecx,53E8h
  0000000010209CED: CC                 int         3
  0000000010209CEE: 48 C1 E0 03        shl         rax,3
  0000000010209CF2: 48 8D 0D B7 88 FF  lea         rcx,[00000000102025B0h]
                    FF
  0000000010209CF9: 48 03 C1           add         rax,rcx
  0000000010209CFC: 48 8B 8D F8 FD FF  mov         rcx,qword ptr [rbp+FFFFFFFFFFFFFDF8h]
                    FF
  0000000010209D03: 48 89 08           mov         qword ptr [rax],rcx
  0000000010209D06: 48 83 05 A2 B0 FF  add         qword ptr [0000000010204DB0h],1
                    FF 01
  0000000010209D0E: 48 83 EC 20        sub         rsp,20h
  0000000010209D12: 48 8D 0D B7 B0 FF  lea         rcx,[0000000010204DD0h]
                    FF
  0000000010209D19: 48 8D 95 00 FE FF  lea         rdx,[rbp+FFFFFFFFFFFFFE00h]
                    FF
  0000000010209D20: 41 B8 00 01 00 00  mov         r8d,100h
  0000000010209D26: FF 15 6C 81 DF FF  call        qword ptr [0000000010001E98h]
  0000000010209D2C: 48 83 C4 20        add         rsp,20h
  0000000010209D30: 48 83 EC 20        sub         rsp,20h
  0000000010209D34: 48 8B 8D F8 FD FF  mov         rcx,qword ptr [rbp+FFFFFFFFFFFFFDF8h]
                    FF
  0000000010209D3B: 48 85 C9           test        rcx,rcx
  0000000010209D3E: 0F 84 05 00 00 00  je          0000000010209D49
  0000000010209D44: E9 08 00 00 00     jmp         0000000010209D51
  0000000010209D49: B0 04              mov         al,4
  0000000010209D4B: B9 2E 54 00 00     mov         ecx,542Eh
  0000000010209D50: CC                 int         3
  0000000010209D51: 48 81 C1 A8 02 00  add         rcx,2A8h
                    00
  0000000010209D58: E8 82 F1 FF FF     call        0000000010208EDF
  0000000010209D5D: 48 83 C4 20        add         rsp,20h
  0000000010209D61: 48 83 EC 20        sub         rsp,20h
  0000000010209D65: 48 8D 0D 64 B0 FF  lea         rcx,[0000000010204DD0h]
                    FF
  0000000010209D6C: 48 8B 95 F8 FD FF  mov         rdx,qword ptr [rbp+FFFFFFFFFFFFFDF8h]
                    FF
  0000000010209D73: 48 85 D2           test        rdx,rdx
  0000000010209D76: 0F 84 05 00 00 00  je          0000000010209D81
  0000000010209D7C: E9 08 00 00 00     jmp         0000000010209D89
  0000000010209D81: B0 04              mov         al,4
  0000000010209D83: B9 4C 54 00 00     mov         ecx,544Ch
  0000000010209D88: CC                 int         3
  0000000010209D89: 48 81 C2 B8 02 00  add         rdx,2B8h
                    00
  0000000010209D90: E8 02 B3 FF FF     call        0000000010205097
  0000000010209D95: 48 83 C4 20        add         rsp,20h
  0000000010209D99: 48 8B 85 F8 FD FF  mov         rax,qword ptr [rbp+FFFFFFFFFFFFFDF8h]
                    FF
  0000000010209DA0: 48 85 C0           test        rax,rax
  0000000010209DA3: 0F 84 05 00 00 00  je          0000000010209DAE
  0000000010209DA9: E9 08 00 00 00     jmp         0000000010209DB6
  0000000010209DAE: B0 04              mov         al,4
  0000000010209DB0: B9 5F 54 00 00     mov         ecx,545Fh
  0000000010209DB5: CC                 int         3
  0000000010209DB6: 48 8B 80 B8 02 00  mov         rax,qword ptr [rax+00000000000002B8h]
                    00
  0000000010209DBD: 48 8B 0D BC B0 FF  mov         rcx,qword ptr [0000000010204E80h]
                    FF
  0000000010209DC4: 48 3B C1           cmp         rax,rcx
  0000000010209DC7: 0F 8C 5D 00 00 00  jl          0000000010209E2A
  0000000010209DCD: 48 8B 85 F8 FD FF  mov         rax,qword ptr [rbp+FFFFFFFFFFFFFDF8h]
                    FF
  0000000010209DD4: 48 85 C0           test        rax,rax
  0000000010209DD7: 0F 84 05 00 00 00  je          0000000010209DE2
  0000000010209DDD: E9 08 00 00 00     jmp         0000000010209DEA
  0000000010209DE2: B0 04              mov         al,4
  0000000010209DE4: B9 83 54 00 00     mov         ecx,5483h
  0000000010209DE9: CC                 int         3
  0000000010209DEA: 48 8B 80 B8 02 00  mov         rax,qword ptr [rax+00000000000002B8h]
                    00
  0000000010209DF1: 48 83 C0 01        add         rax,1
  0000000010209DF5: 48 89 05 84 B0 FF  mov         qword ptr [0000000010204E80h],rax
                    FF
  0000000010209DFC: 48 8B 05 7D B0 FF  mov         rax,qword ptr [0000000010204E80h]
                    FF
  0000000010209E03: 48 81 F8 FF 00 00  cmp         rax,0FFh
                    00
  0000000010209E0A: 0F 8E 1A 00 00 00  jle         0000000010209E2A
  0000000010209E10: 48 83 EC 20        sub         rsp,20h
  0000000010209E14: 48 8D 0D A1 7F DF  lea         rcx,[0000000010001DBCh]
                    FF
  0000000010209E1B: BA 16 00 00 00     mov         edx,16h
  0000000010209E20: FF 15 EA 81 DF FF  call        qword ptr [0000000010002010h]
  0000000010209E26: 48 83 C4 20        add         rsp,20h
  0000000010209E2A: 48 83 EC 20        sub         rsp,20h
  0000000010209E2E: 48 8D 0D 9B AF FF  lea         rcx,[0000000010204DD0h]
                    FF
  0000000010209E35: FF 15 15 81 DF FF  call        qword ptr [0000000010001F50h]
  0000000010209E3B: 48 83 C4 20        add         rsp,20h
  0000000010209E3F: E9 1A 00 00 00     jmp         0000000010209E5E
  0000000010209E44: 48 83 EC 20        sub         rsp,20h
  0000000010209E48: 48 8D 0D 3D 7F DF  lea         rcx,[0000000010001D8Ch]
                    FF
  0000000010209E4F: BA 18 00 00 00     mov         edx,18h
  0000000010209E54: FF 15 B6 81 DF FF  call        qword ptr [0000000010002010h]
  0000000010209E5A: 48 83 C4 20        add         rsp,20h
  0000000010209E5E: 5F                 pop         rdi
  0000000010209E5F: 5E                 pop         rsi
  0000000010209E60: C9                 leave
  0000000010209E61: C3                 ret
  0000000010209E62: 55                 push        rbp
  0000000010209E63: 48 8B EC           mov         rbp,rsp
  0000000010209E66: 56                 push        rsi
  0000000010209E67: 57                 push        rdi
  0000000010209E68: 48 89 4D 10        mov         qword ptr [rbp+10h],rcx
  0000000010209E6C: 48 83 EC 20        sub         rsp,20h
  0000000010209E70: 48 8B 0D D9 86 DF  mov         rcx,qword ptr [0000000010002550h]
                    FF
  0000000010209E77: BA 08 00 00 00     mov         edx,8
  0000000010209E7C: 41 B8 20 00 00 00  mov         r8d,20h
  0000000010209E82: FF 15 F0 86 DF FF  call        qword ptr [0000000010002578h]
  0000000010209E88: 48 83 C4 20        add         rsp,20h
  0000000010209E8C: 48 83 C0 10        add         rax,10h
  0000000010209E90: 48 8D 0D 99 84 DF  lea         rcx,[0000000010002330h]
                    FF
  0000000010209E97: 48 89 48 F8        mov         qword ptr [rax-8],rcx
  0000000010209E9B: 48 89 05 F6 AF FF  mov         qword ptr [0000000010204E98h],rax
                    FF
  0000000010209EA2: 48 8B 05 EF AF FF  mov         rax,qword ptr [0000000010204E98h]
                    FF
  0000000010209EA9: 48 89 05 F0 AF FF  mov         qword ptr [0000000010204EA0h],rax
                    FF
  0000000010209EB0: 48 B8 FF FF FF FF  mov         rax,0FFFFFFFFFFFFFFFFh
                    FF FF FF FF
  0000000010209EBA: 48 89 05 C7 AF FF  mov         qword ptr [0000000010204E88h],rax
                    FF
  0000000010209EC1: 48 8D 3D 38 AF FF  lea         rdi,[0000000010204E00h]
                    FF
  0000000010209EC8: 48 8B 75 10        mov         rsi,qword ptr [rbp+10h]
  0000000010209ECC: B9 10 00 00 00     mov         ecx,10h
  0000000010209ED1: F3 48 A5           rep movs    qword ptr [rdi],qword ptr [rsi]
  0000000010209ED4: 31 C0              xor         eax,eax
  0000000010209ED6: 48 89 05 D3 AE FF  mov         qword ptr [0000000010204DB0h],rax
                    FF
  0000000010209EDD: 31 C0              xor         eax,eax
  0000000010209EDF: 48 89 05 C2 86 DF  mov         qword ptr [00000000100025A8h],rax
                    FF
  0000000010209EE6: 48 83 EC 20        sub         rsp,20h
  0000000010209EEA: 48 83 EC 20        sub         rsp,20h
  0000000010209EEE: 48 8B 0D 03 B1 FF  mov         rcx,qword ptr [0000000010204FF8h]
                    FF
  0000000010209EF5: E8 99 BE FF FF     call        0000000010205D93
  0000000010209EFA: 48 83 C4 20        add         rsp,20h
  0000000010209EFE: 48 8B C8           mov         rcx,rax
  0000000010209F01: 48 8D 15 74 7E DF  lea         rdx,[0000000010001D7Ch]
                    FF
  0000000010209F08: E8 30 C6 FF FF     call        000000001020653D
  0000000010209F0D: 48 83 C4 20        add         rsp,20h
  0000000010209F11: 48 83 EC 20        sub         rsp,20h
  0000000010209F15: 48 83 EC 20        sub         rsp,20h
  0000000010209F19: 48 8B 0D D0 B0 FF  mov         rcx,qword ptr [0000000010204FF0h]
                    FF
  0000000010209F20: E8 6E BE FF FF     call        0000000010205D93
  0000000010209F25: 48 83 C4 20        add         rsp,20h
  0000000010209F29: 48 8B C8           mov         rcx,rax
  0000000010209F2C: 48 8D 15 3F 7E DF  lea         rdx,[0000000010001D72h]
                    FF
  0000000010209F33: E8 05 C6 FF FF     call        000000001020653D
  0000000010209F38: 48 83 C4 20        add         rsp,20h
  0000000010209F3C: 48 83 EC 20        sub         rsp,20h
  0000000010209F40: 48 83 EC 20        sub         rsp,20h
  0000000010209F44: 48 8B 0D 9D B0 FF  mov         rcx,qword ptr [0000000010204FE8h]
                    FF
  0000000010209F4B: E8 43 BE FF FF     call        0000000010205D93
  0000000010209F50: 48 83 C4 20        add         rsp,20h
  0000000010209F54: 48 8B C8           mov         rcx,rax
  0000000010209F57: 48 8D 15 0A 7E DF  lea         rdx,[0000000010001D68h]
                    FF
  0000000010209F5E: E8 DA C5 FF FF     call        000000001020653D
  0000000010209F63: 48 83 C4 20        add         rsp,20h
  0000000010209F67: 48 83 EC 20        sub         rsp,20h
  0000000010209F6B: 48 83 EC 20        sub         rsp,20h
  0000000010209F6F: 48 8B 0D 62 B0 FF  mov         rcx,qword ptr [0000000010204FD8h]
                    FF
  0000000010209F76: E8 18 BE FF FF     call        0000000010205D93
  0000000010209F7B: 48 83 C4 20        add         rsp,20h
  0000000010209F7F: 48 8B C8           mov         rcx,rax
  0000000010209F82: 48 8D 15 D7 7D DF  lea         rdx,[0000000010001D60h]
                    FF
  0000000010209F89: E8 AF C5 FF FF     call        000000001020653D
  0000000010209F8E: 48 83 C4 20        add         rsp,20h
  0000000010209F92: 48 83 EC 20        sub         rsp,20h
  0000000010209F96: 48 83 EC 20        sub         rsp,20h
  0000000010209F9A: 48 8B 0D 3F B0 FF  mov         rcx,qword ptr [0000000010204FE0h]
                    FF
  0000000010209FA1: E8 ED BD FF FF     call        0000000010205D93
  0000000010209FA6: 48 83 C4 20        add         rsp,20h
  0000000010209FAA: 48 8B C8           mov         rcx,rax
  0000000010209FAD: 48 8D 15 9C 7D DF  lea         rdx,[0000000010001D50h]
                    FF
  0000000010209FB4: E8 84 C5 FF FF     call        000000001020653D
  0000000010209FB9: 48 83 C4 20        add         rsp,20h
  0000000010209FBD: 48 83 EC 20        sub         rsp,20h
  0000000010209FC1: 48 83 EC 20        sub         rsp,20h
  0000000010209FC5: 48 8B 0D 04 B0 FF  mov         rcx,qword ptr [0000000010204FD0h]
                    FF
  0000000010209FCC: E8 C2 BD FF FF     call        0000000010205D93
  0000000010209FD1: 48 83 C4 20        add         rsp,20h
  0000000010209FD5: 48 8B C8           mov         rcx,rax
  0000000010209FD8: 48 8D 15 67 7D DF  lea         rdx,[0000000010001D46h]
                    FF
  0000000010209FDF: E8 59 C5 FF FF     call        000000001020653D
  0000000010209FE4: 48 83 C4 20        add         rsp,20h
  0000000010209FE8: 48 83 EC 20        sub         rsp,20h
  0000000010209FEC: 48 83 EC 20        sub         rsp,20h
  0000000010209FF0: B9 82 00 00 00     mov         ecx,82h
  0000000010209FF5: BA 07 00 00 00     mov         edx,7
  0000000010209FFA: E8 6E BE FF FF     call        0000000010205E6D
  0000000010209FFF: 48 83 C4 20        add         rsp,20h
  000000001020A003: 48 8B C8           mov         rcx,rax
  000000001020A006: 48 8D 15 31 7D DF  lea         rdx,[0000000010001D3Eh]
                    FF
  000000001020A00D: E8 2B C5 FF FF     call        000000001020653D
  000000001020A012: 48 83 C4 20        add         rsp,20h
  000000001020A016: 48 83 EC 20        sub         rsp,20h
  000000001020A01A: 48 83 EC 20        sub         rsp,20h
  000000001020A01E: B9 83 00 00 00     mov         ecx,83h
  000000001020A023: BA 07 00 00 00     mov         edx,7
  000000001020A028: E8 40 BE FF FF     call        0000000010205E6D
  000000001020A02D: 48 83 C4 20        add         rsp,20h
  000000001020A031: 48 8B C8           mov         rcx,rax
  000000001020A034: 48 8D 15 FB 7C DF  lea         rdx,[0000000010001D36h]
                    FF
  000000001020A03B: E8 FD C4 FF FF     call        000000001020653D
  000000001020A040: 48 83 C4 20        add         rsp,20h
  000000001020A044: 48 83 EC 20        sub         rsp,20h
  000000001020A048: 48 83 EC 20        sub         rsp,20h
  000000001020A04C: B9 84 00 00 00     mov         ecx,84h
  000000001020A051: BA 07 00 00 00     mov         edx,7
  000000001020A056: E8 12 BE FF FF     call        0000000010205E6D
  000000001020A05B: 48 83 C4 20        add         rsp,20h
  000000001020A05F: 48 8B C8           mov         rcx,rax
  000000001020A062: 48 8D 15 C3 7C DF  lea         rdx,[0000000010001D2Ch]
                    FF
  000000001020A069: E8 CF C4 FF FF     call        000000001020653D
  000000001020A06E: 48 83 C4 20        add         rsp,20h
  000000001020A072: 48 83 EC 20        sub         rsp,20h
  000000001020A076: 48 83 EC 20        sub         rsp,20h
  000000001020A07A: B9 85 00 00 00     mov         ecx,85h
  000000001020A07F: BA 07 00 00 00     mov         edx,7
  000000001020A084: E8 E4 BD FF FF     call        0000000010205E6D
  000000001020A089: 48 83 C4 20        add         rsp,20h
  000000001020A08D: 48 8B C8           mov         rcx,rax
  000000001020A090: 48 8D 15 8B 7C DF  lea         rdx,[0000000010001D22h]
                    FF
  000000001020A097: E8 A1 C4 FF FF     call        000000001020653D
  000000001020A09C: 48 83 C4 20        add         rsp,20h
  000000001020A0A0: 48 83 EC 20        sub         rsp,20h
  000000001020A0A4: 48 83 EC 20        sub         rsp,20h
  000000001020A0A8: B9 04 00 00 00     mov         ecx,4
  000000001020A0AD: BA 07 00 00 00     mov         edx,7
  000000001020A0B2: E8 B6 BD FF FF     call        0000000010205E6D
  000000001020A0B7: 48 83 C4 20        add         rsp,20h
  000000001020A0BB: 48 8B C8           mov         rcx,rax
  000000001020A0BE: 48 8D 15 55 7C DF  lea         rdx,[0000000010001D1Ah]
                    FF
  000000001020A0C5: E8 73 C4 FF FF     call        000000001020653D
  000000001020A0CA: 48 83 C4 20        add         rsp,20h
  000000001020A0CE: 48 83 EC 20        sub         rsp,20h
  000000001020A0D2: 48 83 EC 20        sub         rsp,20h
  000000001020A0D6: B9 05 00 00 00     mov         ecx,5
  000000001020A0DB: BA 07 00 00 00     mov         edx,7
  000000001020A0E0: E8 88 BD FF FF     call        0000000010205E6D
  000000001020A0E5: 48 83 C4 20        add         rsp,20h
  000000001020A0E9: 48 8B C8           mov         rcx,rax
  000000001020A0EC: 48 8D 15 19 7C DF  lea         rdx,[0000000010001D0Ch]
                    FF
  000000001020A0F3: E8 45 C4 FF FF     call        000000001020653D
  000000001020A0F8: 48 83 C4 20        add         rsp,20h
  000000001020A0FC: 48 83 EC 20        sub         rsp,20h
  000000001020A100: 48 83 EC 20        sub         rsp,20h
  000000001020A104: B9 06 00 00 00     mov         ecx,6
  000000001020A109: BA 07 00 00 00     mov         edx,7
  000000001020A10E: E8 5A BD FF FF     call        0000000010205E6D
  000000001020A113: 48 83 C4 20        add         rsp,20h
  000000001020A117: 48 8B C8           mov         rcx,rax
  000000001020A11A: 48 8D 15 E1 7B DF  lea         rdx,[0000000010001D02h]
                    FF
  000000001020A121: E8 17 C4 FF FF     call        000000001020653D
  000000001020A126: 48 83 C4 20        add         rsp,20h
  000000001020A12A: 48 83 EC 20        sub         rsp,20h
  000000001020A12E: 48 83 EC 20        sub         rsp,20h
  000000001020A132: B9 07 00 00 00     mov         ecx,7
  000000001020A137: BA 07 00 00 00     mov         edx,7
  000000001020A13C: E8 2C BD FF FF     call        0000000010205E6D
  000000001020A141: 48 83 C4 20        add         rsp,20h
  000000001020A145: 48 8B C8           mov         rcx,rax
  000000001020A148: 48 8D 15 A9 7B DF  lea         rdx,[0000000010001CF8h]
                    FF
  000000001020A14F: E8 E9 C3 FF FF     call        000000001020653D
  000000001020A154: 48 83 C4 20        add         rsp,20h
  000000001020A158: 48 83 EC 20        sub         rsp,20h
  000000001020A15C: 48 83 EC 20        sub         rsp,20h
  000000001020A160: B9 08 00 00 00     mov         ecx,8
  000000001020A165: BA 08 00 00 00     mov         edx,8
  000000001020A16A: E8 FE BC FF FF     call        0000000010205E6D
  000000001020A16F: 48 83 C4 20        add         rsp,20h
  000000001020A173: 48 8B C8           mov         rcx,rax
  000000001020A176: 48 8D 15 73 7B DF  lea         rdx,[0000000010001CF0h]
                    FF
  000000001020A17D: E8 BB C3 FF FF     call        000000001020653D
  000000001020A182: 48 83 C4 20        add         rsp,20h
  000000001020A186: 48 83 EC 20        sub         rsp,20h
  000000001020A18A: 48 83 EC 20        sub         rsp,20h
  000000001020A18E: B9 09 00 00 00     mov         ecx,9
  000000001020A193: BA 08 00 00 00     mov         edx,8
  000000001020A198: E8 D0 BC FF FF     call        0000000010205E6D
  000000001020A19D: 48 83 C4 20        add         rsp,20h
  000000001020A1A1: 48 8B C8           mov         rcx,rax
  000000001020A1A4: 48 8D 15 3D 7B DF  lea         rdx,[0000000010001CE8h]
                    FF
  000000001020A1AB: E8 8D C3 FF FF     call        000000001020653D
  000000001020A1B0: 48 83 C4 20        add         rsp,20h
  000000001020A1B4: 48 83 EC 20        sub         rsp,20h
  000000001020A1B8: 48 83 EC 20        sub         rsp,20h
  000000001020A1BC: B9 0A 00 00 00     mov         ecx,0Ah
  000000001020A1C1: BA 08 00 00 00     mov         edx,8
  000000001020A1C6: E8 A2 BC FF FF     call        0000000010205E6D
  000000001020A1CB: 48 83 C4 20        add         rsp,20h
  000000001020A1CF: 48 8B C8           mov         rcx,rax
  000000001020A1D2: 48 8D 15 07 7B DF  lea         rdx,[0000000010001CE0h]
                    FF
  000000001020A1D9: E8 5F C3 FF FF     call        000000001020653D
  000000001020A1DE: 48 83 C4 20        add         rsp,20h
  000000001020A1E2: 48 83 EC 20        sub         rsp,20h
  000000001020A1E6: 48 83 EC 20        sub         rsp,20h
  000000001020A1EA: B9 71 00 00 00     mov         ecx,71h
  000000001020A1EF: BA 08 00 00 00     mov         edx,8
  000000001020A1F4: E8 74 BC FF FF     call        0000000010205E6D
  000000001020A1F9: 48 83 C4 20        add         rsp,20h
  000000001020A1FD: 48 8B C8           mov         rcx,rax
  000000001020A200: 48 8D 15 D1 7A DF  lea         rdx,[0000000010001CD8h]
                    FF
  000000001020A207: E8 31 C3 FF FF     call        000000001020653D
  000000001020A20C: 48 83 C4 20        add         rsp,20h
  000000001020A210: 48 83 EC 20        sub         rsp,20h
  000000001020A214: 48 83 EC 20        sub         rsp,20h
  000000001020A218: B9 72 00 00 00     mov         ecx,72h
  000000001020A21D: BA 08 00 00 00     mov         edx,8
  000000001020A222: E8 46 BC FF FF     call        0000000010205E6D
  000000001020A227: 48 83 C4 20        add         rsp,20h
  000000001020A22B: 48 8B C8           mov         rcx,rax
  000000001020A22E: 48 8D 15 9B 7A DF  lea         rdx,[0000000010001CD0h]
                    FF
  000000001020A235: E8 03 C3 FF FF     call        000000001020653D
  000000001020A23A: 48 83 C4 20        add         rsp,20h
  000000001020A23E: 48 83 EC 20        sub         rsp,20h
  000000001020A242: 48 83 EC 20        sub         rsp,20h
  000000001020A246: B9 73 00 00 00     mov         ecx,73h
  000000001020A24B: BA 08 00 00 00     mov         edx,8
  000000001020A250: E8 18 BC FF FF     call        0000000010205E6D
  000000001020A255: 48 83 C4 20        add         rsp,20h
  000000001020A259: 48 8B C8           mov         rcx,rax
  000000001020A25C: 48 8D 15 65 7A DF  lea         rdx,[0000000010001CC8h]
                    FF
  000000001020A263: E8 D5 C2 FF FF     call        000000001020653D
  000000001020A268: 48 83 C4 20        add         rsp,20h
  000000001020A26C: 48 83 EC 20        sub         rsp,20h
  000000001020A270: 48 83 EC 20        sub         rsp,20h
  000000001020A274: B9 0E 00 00 00     mov         ecx,0Eh
  000000001020A279: BA 08 00 00 00     mov         edx,8
  000000001020A27E: E8 EA BB FF FF     call        0000000010205E6D
  000000001020A283: 48 83 C4 20        add         rsp,20h
  000000001020A287: 48 8B C8           mov         rcx,rax
  000000001020A28A: 48 8D 15 2B 7A DF  lea         rdx,[0000000010001CBCh]
                    FF
  000000001020A291: E8 A7 C2 FF FF     call        000000001020653D
  000000001020A296: 48 83 C4 20        add         rsp,20h
  000000001020A29A: 48 83 EC 20        sub         rsp,20h
  000000001020A29E: 48 83 EC 20        sub         rsp,20h
  000000001020A2A2: B9 0F 00 00 00     mov         ecx,0Fh
  000000001020A2A7: BA 08 00 00 00     mov         edx,8
  000000001020A2AC: E8 BC BB FF FF     call        0000000010205E6D
  000000001020A2B1: 48 83 C4 20        add         rsp,20h
  000000001020A2B5: 48 8B C8           mov         rcx,rax
  000000001020A2B8: 48 8D 15 F5 79 DF  lea         rdx,[0000000010001CB4h]
                    FF
  000000001020A2BF: E8 79 C2 FF FF     call        000000001020653D
  000000001020A2C4: 48 83 C4 20        add         rsp,20h
  000000001020A2C8: 48 83 EC 20        sub         rsp,20h
  000000001020A2CC: 48 83 EC 20        sub         rsp,20h
  000000001020A2D0: B9 10 00 00 00     mov         ecx,10h
  000000001020A2D5: BA 08 00 00 00     mov         edx,8
  000000001020A2DA: E8 8E BB FF FF     call        0000000010205E6D
  000000001020A2DF: 48 83 C4 20        add         rsp,20h
  000000001020A2E3: 48 8B C8           mov         rcx,rax
  000000001020A2E6: 48 8D 15 BF 79 DF  lea         rdx,[0000000010001CACh]
                    FF
  000000001020A2ED: E8 4B C2 FF FF     call        000000001020653D
  000000001020A2F2: 48 83 C4 20        add         rsp,20h
  000000001020A2F6: 48 83 EC 20        sub         rsp,20h
  000000001020A2FA: 48 83 EC 20        sub         rsp,20h
  000000001020A2FE: B9 11 00 00 00     mov         ecx,11h
  000000001020A303: BA 08 00 00 00     mov         edx,8
  000000001020A308: E8 60 BB FF FF     call        0000000010205E6D
  000000001020A30D: 48 83 C4 20        add         rsp,20h
  000000001020A311: 48 8B C8           mov         rcx,rax
  000000001020A314: 48 8D 15 89 79 DF  lea         rdx,[0000000010001CA4h]
                    FF
  000000001020A31B: E8 1D C2 FF FF     call        000000001020653D
  000000001020A320: 48 83 C4 20        add         rsp,20h
  000000001020A324: 48 83 EC 20        sub         rsp,20h
  000000001020A328: E8 4E C1 FF FF     call        000000001020647B
  000000001020A32D: 48 83 C4 20        add         rsp,20h
  000000001020A331: 48 83 EC 20        sub         rsp,20h
  000000001020A335: 48 83 EC 20        sub         rsp,20h
  000000001020A339: B9 12 00 00 00     mov         ecx,12h
  000000001020A33E: BA 07 00 00 00     mov         edx,7
  000000001020A343: E8 25 BB FF FF     call        0000000010205E6D
  000000001020A348: 48 83 C4 20        add         rsp,20h
  000000001020A34C: 48 8B C8           mov         rcx,rax
  000000001020A34F: 48 8D 15 46 79 DF  lea         rdx,[0000000010001C9Ch]
                    FF
  000000001020A356: E8 E2 C1 FF FF     call        000000001020653D
  000000001020A35B: 48 83 C4 20        add         rsp,20h
  000000001020A35F: 48 83 EC 20        sub         rsp,20h
  000000001020A363: 48 83 EC 20        sub         rsp,20h
  000000001020A367: B9 13 00 00 00     mov         ecx,13h
  000000001020A36C: BA 07 00 00 00     mov         edx,7
  000000001020A371: E8 F7 BA FF FF     call        0000000010205E6D
  000000001020A376: 48 83 C4 20        add         rsp,20h
  000000001020A37A: 48 8B C8           mov         rcx,rax
  000000001020A37D: 48 8D 15 10 79 DF  lea         rdx,[0000000010001C94h]
                    FF
  000000001020A384: E8 B4 C1 FF FF     call        000000001020653D
  000000001020A389: 48 83 C4 20        add         rsp,20h
  000000001020A38D: 48 83 EC 20        sub         rsp,20h
  000000001020A391: 48 83 EC 20        sub         rsp,20h
  000000001020A395: B9 14 00 00 00     mov         ecx,14h
  000000001020A39A: BA 07 00 00 00     mov         edx,7
  000000001020A39F: E8 C9 BA FF FF     call        0000000010205E6D
  000000001020A3A4: 48 83 C4 20        add         rsp,20h
  000000001020A3A8: 48 8B C8           mov         rcx,rax
  000000001020A3AB: 48 8D 15 D8 78 DF  lea         rdx,[0000000010001C8Ah]
                    FF
  000000001020A3B2: E8 86 C1 FF FF     call        000000001020653D
  000000001020A3B7: 48 83 C4 20        add         rsp,20h
  000000001020A3BB: 48 83 EC 20        sub         rsp,20h
  000000001020A3BF: 48 83 EC 20        sub         rsp,20h
  000000001020A3C3: B9 15 00 00 00     mov         ecx,15h
  000000001020A3C8: BA 07 00 00 00     mov         edx,7
  000000001020A3CD: E8 9B BA FF FF     call        0000000010205E6D
  000000001020A3D2: 48 83 C4 20        add         rsp,20h
  000000001020A3D6: 48 8B C8           mov         rcx,rax
  000000001020A3D9: 48 8D 15 90 78 DF  lea         rdx,[0000000010001C70h]
                    FF
  000000001020A3E0: E8 58 C1 FF FF     call        000000001020653D
  000000001020A3E5: 48 83 C4 20        add         rsp,20h
  000000001020A3E9: 48 83 EC 20        sub         rsp,20h
  000000001020A3ED: 48 83 EC 20        sub         rsp,20h
  000000001020A3F1: B9 16 00 00 00     mov         ecx,16h
  000000001020A3F6: BA 07 00 00 00     mov         edx,7
  000000001020A3FB: E8 6D BA FF FF     call        0000000010205E6D
  000000001020A400: 48 83 C4 20        add         rsp,20h
  000000001020A404: 48 8B C8           mov         rcx,rax
  000000001020A407: 48 8D 15 44 78 DF  lea         rdx,[0000000010001C52h]
                    FF
  000000001020A40E: E8 2A C1 FF FF     call        000000001020653D
  000000001020A413: 48 83 C4 20        add         rsp,20h
  000000001020A417: 48 83 EC 20        sub         rsp,20h
  000000001020A41B: 48 83 EC 20        sub         rsp,20h
  000000001020A41F: B9 8D 00 00 00     mov         ecx,8Dh
  000000001020A424: BA 07 00 00 00     mov         edx,7
  000000001020A429: E8 3F BA FF FF     call        0000000010205E6D
  000000001020A42E: 48 83 C4 20        add         rsp,20h
  000000001020A432: 48 8B C8           mov         rcx,rax
  000000001020A435: 48 8D 15 0C 78 DF  lea         rdx,[0000000010001C48h]
                    FF
  000000001020A43C: E8 FC C0 FF FF     call        000000001020653D
  000000001020A441: 48 83 C4 20        add         rsp,20h
  000000001020A445: 48 83 EC 20        sub         rsp,20h
  000000001020A449: 48 83 EC 20        sub         rsp,20h
  000000001020A44D: B9 17 00 00 00     mov         ecx,17h
  000000001020A452: BA 08 00 00 00     mov         edx,8
  000000001020A457: E8 11 BA FF FF     call        0000000010205E6D
  000000001020A45C: 48 83 C4 20        add         rsp,20h
  000000001020A460: 48 8B C8           mov         rcx,rax
  000000001020A463: 48 8D 15 D6 77 DF  lea         rdx,[0000000010001C40h]
                    FF
  000000001020A46A: E8 CE C0 FF FF     call        000000001020653D
  000000001020A46F: 48 83 C4 20        add         rsp,20h
  000000001020A473: 48 83 EC 20        sub         rsp,20h
  000000001020A477: 48 83 EC 20        sub         rsp,20h
  000000001020A47B: B9 18 00 00 00     mov         ecx,18h
  000000001020A480: BA 08 00 00 00     mov         edx,8
  000000001020A485: E8 E3 B9 FF FF     call        0000000010205E6D
  000000001020A48A: 48 83 C4 20        add         rsp,20h
  000000001020A48E: 48 8B C8           mov         rcx,rax
  000000001020A491: 48 8D 15 9E 77 DF  lea         rdx,[0000000010001C36h]
                    FF
  000000001020A498: E8 A0 C0 FF FF     call        000000001020653D
  000000001020A49D: 48 83 C4 20        add         rsp,20h
  000000001020A4A1: 48 83 EC 20        sub         rsp,20h
  000000001020A4A5: 48 83 EC 20        sub         rsp,20h
  000000001020A4A9: B9 19 00 00 00     mov         ecx,19h
  000000001020A4AE: BA 08 00 00 00     mov         edx,8
  000000001020A4B3: E8 B5 B9 FF FF     call        0000000010205E6D
  000000001020A4B8: 48 83 C4 20        add         rsp,20h
  000000001020A4BC: 48 8B C8           mov         rcx,rax
  000000001020A4BF: 48 8D 15 68 77 DF  lea         rdx,[0000000010001C2Eh]
                    FF
  000000001020A4C6: E8 72 C0 FF FF     call        000000001020653D
  000000001020A4CB: 48 83 C4 20        add         rsp,20h
  000000001020A4CF: 48 83 EC 20        sub         rsp,20h
  000000001020A4D3: 48 83 EC 20        sub         rsp,20h
  000000001020A4D7: B9 1A 00 00 00     mov         ecx,1Ah
  000000001020A4DC: BA 08 00 00 00     mov         edx,8
  000000001020A4E1: E8 87 B9 FF FF     call        0000000010205E6D
  000000001020A4E6: 48 83 C4 20        add         rsp,20h
  000000001020A4EA: 48 8B C8           mov         rcx,rax
  000000001020A4ED: 48 8D 15 32 77 DF  lea         rdx,[0000000010001C26h]
                    FF
  000000001020A4F4: E8 44 C0 FF FF     call        000000001020653D
  000000001020A4F9: 48 83 C4 20        add         rsp,20h
  000000001020A4FD: 48 83 EC 20        sub         rsp,20h
  000000001020A501: 48 83 EC 20        sub         rsp,20h
  000000001020A505: 48 8B 0D E4 AA FF  mov         rcx,qword ptr [0000000010204FF0h]
                    FF
  000000001020A50C: E8 82 B8 FF FF     call        0000000010205D93
  000000001020A511: 48 83 C4 20        add         rsp,20h
  000000001020A515: 48 8B C8           mov         rcx,rax
  000000001020A518: 48 8D 15 FD 76 DF  lea         rdx,[0000000010001C1Ch]
                    FF
  000000001020A51F: E8 19 C0 FF FF     call        000000001020653D
  000000001020A524: 48 83 C4 20        add         rsp,20h
  000000001020A528: 48 8B 05 71 A9 FF  mov         rax,qword ptr [0000000010204EA0h]
                    FF
  000000001020A52F: 48 89 05 5A A9 FF  mov         qword ptr [0000000010204E90h],rax
                    FF
  000000001020A536: 48 83 EC 20        sub         rsp,20h
  000000001020A53A: E8 B1 BF FF FF     call        00000000102064F0
  000000001020A53F: 48 83 C4 20        add         rsp,20h
  000000001020A543: 48 83 EC 20        sub         rsp,20h
  000000001020A547: E8 B7 B7 FF FF     call        0000000010205D03
  000000001020A54C: 48 83 C4 20        add         rsp,20h
  000000001020A550: 48 89 05 59 A9 FF  mov         qword ptr [0000000010204EB0h],rax
                    FF
  000000001020A557: 48 8B 05 52 A9 FF  mov         rax,qword ptr [0000000010204EB0h]
                    FF
  000000001020A55E: 48 85 C0           test        rax,rax
  000000001020A561: 0F 84 05 00 00 00  je          000000001020A56C
  000000001020A567: E9 08 00 00 00     jmp         000000001020A574
  000000001020A56C: B0 04              mov         al,4
  000000001020A56E: B9 03 5C 00 00     mov         ecx,5C03h
  000000001020A573: CC                 int         3
  000000001020A574: 50                 push        rax
  000000001020A575: 48 83 EC 28        sub         rsp,28h
  000000001020A579: E8 28 BE FF FF     call        00000000102063A6
  000000001020A57E: 48 83 C4 28        add         rsp,28h
  000000001020A582: 48 8B C8           mov         rcx,rax
  000000001020A585: 58                 pop         rax
  000000001020A586: 48 89 48 08        mov         qword ptr [rax+8],rcx
  000000001020A58A: 48 83 EC 20        sub         rsp,20h
  000000001020A58E: E8 E8 BE FF FF     call        000000001020647B
  000000001020A593: 48 83 C4 20        add         rsp,20h
  000000001020A597: 48 83 EC 20        sub         rsp,20h
  000000001020A59B: 48 83 EC 20        sub         rsp,20h
  000000001020A59F: 48 8B 0D 0A A9 FF  mov         rcx,qword ptr [0000000010204EB0h]
                    FF
  000000001020A5A6: 48 85 C9           test        rcx,rcx
  000000001020A5A9: 0F 84 05 00 00 00  je          000000001020A5B4
  000000001020A5AF: E9 08 00 00 00     jmp         000000001020A5BC
  000000001020A5B4: B0 04              mov         al,4
  000000001020A5B6: B9 41 5C 00 00     mov         ecx,5C41h
  000000001020A5BB: CC                 int         3
  000000001020A5BC: 48 8B 49 08        mov         rcx,qword ptr [rcx+8]
  000000001020A5C0: 48 8B 15 F9 A9 FF  mov         rdx,qword ptr [0000000010204FC0h]
                    FF
  000000001020A5C7: 45 31 C0           xor         r8d,r8d
  000000001020A5CA: E8 B8 B1 FF FF     call        0000000010205787
  000000001020A5CF: 48 83 C4 20        add         rsp,20h
  000000001020A5D3: 48 8B C8           mov         rcx,rax
  000000001020A5D6: 48 8D 15 3B 76 DF  lea         rdx,[0000000010001C18h]
                    FF
  000000001020A5DD: E8 5B BF FF FF     call        000000001020653D
  000000001020A5E2: 48 83 C4 20        add         rsp,20h
  000000001020A5E6: 48 8B 05 C3 A8 FF  mov         rax,qword ptr [0000000010204EB0h]
                    FF
  000000001020A5ED: 48 85 C0           test        rax,rax
  000000001020A5F0: 0F 84 05 00 00 00  je          000000001020A5FB
  000000001020A5F6: E9 08 00 00 00     jmp         000000001020A603
  000000001020A5FB: B0 04              mov         al,4
  000000001020A5FD: B9 6D 5C 00 00     mov         ecx,5C6Dh
  000000001020A602: CC                 int         3
  000000001020A603: 48 8B 40 08        mov         rax,qword ptr [rax+8]
  000000001020A607: 48 85 C0           test        rax,rax
  000000001020A60A: 0F 84 05 00 00 00  je          000000001020A615
  000000001020A610: E9 08 00 00 00     jmp         000000001020A61D
  000000001020A615: B0 04              mov         al,4
  000000001020A617: B9 72 5C 00 00     mov         ecx,5C72h
  000000001020A61C: CC                 int         3
  000000001020A61D: 48 8B 0D 7C A8 FF  mov         rcx,qword ptr [0000000010204EA0h]
                    FF
  000000001020A624: 48 85 C9           test        rcx,rcx
  000000001020A627: 0F 84 05 00 00 00  je          000000001020A632
  000000001020A62D: E9 08 00 00 00     jmp         000000001020A63A
  000000001020A632: B0 04              mov         al,4
  000000001020A634: B9 85 5C 00 00     mov         ecx,5C85h
  000000001020A639: CC                 int         3
  000000001020A63A: 48 8B 09           mov         rcx,qword ptr [rcx]
  000000001020A63D: 48 89 48 48        mov         qword ptr [rax+48h],rcx
  000000001020A641: 48 83 EC 20        sub         rsp,20h
  000000001020A645: E8 A6 BE FF FF     call        00000000102064F0
  000000001020A64A: 48 83 C4 20        add         rsp,20h
  000000001020A64E: 48 8B 05 5B A8 FF  mov         rax,qword ptr [0000000010204EB0h]
                    FF
  000000001020A655: 48 85 C0           test        rax,rax
  000000001020A658: 0F 84 05 00 00 00  je          000000001020A663
  000000001020A65E: E9 08 00 00 00     jmp         000000001020A66B
  000000001020A663: B0 04              mov         al,4
  000000001020A665: B9 A7 5C 00 00     mov         ecx,5CA7h
  000000001020A66A: CC                 int         3
  000000001020A66B: 48 8B 40 08        mov         rax,qword ptr [rax+8]
  000000001020A66F: 48 85 C0           test        rax,rax
  000000001020A672: 0F 84 05 00 00 00  je          000000001020A67D
  000000001020A678: E9 08 00 00 00     jmp         000000001020A685
  000000001020A67D: B0 04              mov         al,4
  000000001020A67F: B9 AC 5C 00 00     mov         ecx,5CACh
  000000001020A684: CC                 int         3
  000000001020A685: B9 08 00 00 00     mov         ecx,8
  000000001020A68A: 48 89 48 50        mov         qword ptr [rax+50h],rcx
  000000001020A68E: 48 8B 05 1B A8 FF  mov         rax,qword ptr [0000000010204EB0h]
                    FF
  000000001020A695: 48 85 C0           test        rax,rax
  000000001020A698: 0F 84 05 00 00 00  je          000000001020A6A3
  000000001020A69E: E9 08 00 00 00     jmp         000000001020A6AB
  000000001020A6A3: B0 04              mov         al,4
  000000001020A6A5: B9 CC 5C 00 00     mov         ecx,5CCCh
  000000001020A6AA: CC                 int         3
  000000001020A6AB: 48 8B 40 08        mov         rax,qword ptr [rax+8]
  000000001020A6AF: 48 85 C0           test        rax,rax
  000000001020A6B2: 0F 84 05 00 00 00  je          000000001020A6BD
  000000001020A6B8: E9 08 00 00 00     jmp         000000001020A6C5
  000000001020A6BD: B0 04              mov         al,4
  000000001020A6BF: B9 D1 5C 00 00     mov         ecx,5CD1h
  000000001020A6C4: CC                 int         3
  000000001020A6C5: 48 8B 0D 2C A9 FF  mov         rcx,qword ptr [0000000010204FF8h]
                    FF
  000000001020A6CC: 48 89 48 40        mov         qword ptr [rax+40h],rcx
  000000001020A6D0: 48 8B 05 D9 A7 FF  mov         rax,qword ptr [0000000010204EB0h]
                    FF
  000000001020A6D7: 48 85 C0           test        rax,rax
  000000001020A6DA: 0F 84 05 00 00 00  je          000000001020A6E5
  000000001020A6E0: E9 08 00 00 00     jmp         000000001020A6ED
  000000001020A6E5: B0 04              mov         al,4
  000000001020A6E7: B9 F1 5C 00 00     mov         ecx,5CF1h
  000000001020A6EC: CC                 int         3
  000000001020A6ED: 48 B9 D0 FF FF FF  mov         rcx,0FFFFFFFFFFFFFFD0h
                    FF FF FF FF
  000000001020A6F7: 48 89 48 28        mov         qword ptr [rax+28h],rcx
  000000001020A6FB: 48 83 EC 20        sub         rsp,20h
  000000001020A6FF: E8 FF B5 FF FF     call        0000000010205D03
  000000001020A704: 48 83 C4 20        add         rsp,20h
  000000001020A708: 48 89 05 99 A7 FF  mov         qword ptr [0000000010204EA8h],rax
                    FF
  000000001020A70F: 48 8B 05 92 A7 FF  mov         rax,qword ptr [0000000010204EA8h]
                    FF
  000000001020A716: 48 85 C0           test        rax,rax
  000000001020A719: 0F 84 05 00 00 00  je          000000001020A724
  000000001020A71F: E9 08 00 00 00     jmp         000000001020A72C
  000000001020A724: B0 04              mov         al,4
  000000001020A726: B9 2E 5D 00 00     mov         ecx,5D2Eh
  000000001020A72B: CC                 int         3
  000000001020A72C: 50                 push        rax
  000000001020A72D: 48 83 EC 28        sub         rsp,28h
  000000001020A731: E8 70 BC FF FF     call        00000000102063A6
  000000001020A736: 48 83 C4 28        add         rsp,28h
  000000001020A73A: 48 8B C8           mov         rcx,rax
  000000001020A73D: 58                 pop         rax
  000000001020A73E: 48 89 48 08        mov         qword ptr [rax+8],rcx
  000000001020A742: 48 83 EC 20        sub         rsp,20h
  000000001020A746: E8 30 BD FF FF     call        000000001020647B
  000000001020A74B: 48 83 C4 20        add         rsp,20h
  000000001020A74F: 48 83 EC 20        sub         rsp,20h
  000000001020A753: 48 83 EC 20        sub         rsp,20h
  000000001020A757: 48 8B 0D 4A A7 FF  mov         rcx,qword ptr [0000000010204EA8h]
                    FF
  000000001020A75E: 48 85 C9           test        rcx,rcx
  000000001020A761: 0F 84 05 00 00 00  je          000000001020A76C
  000000001020A767: E9 08 00 00 00     jmp         000000001020A774
  000000001020A76C: B0 04              mov         al,4
  000000001020A76E: B9 6E 5D 00 00     mov         ecx,5D6Eh
  000000001020A773: CC                 int         3
  000000001020A774: 48 8B 49 08        mov         rcx,qword ptr [rcx+8]
  000000001020A778: 48 8B 15 79 A8 FF  mov         rdx,qword ptr [0000000010204FF8h]
                    FF
  000000001020A77F: 45 31 C0           xor         r8d,r8d
  000000001020A782: E8 00 B0 FF FF     call        0000000010205787
  000000001020A787: 48 83 C4 20        add         rsp,20h
  000000001020A78B: 48 8B C8           mov         rcx,rax
  000000001020A78E: 48 8D 15 7F 74 DF  lea         rdx,[0000000010001C14h]
                    FF
  000000001020A795: E8 A3 BD FF FF     call        000000001020653D
  000000001020A79A: 48 83 C4 20        add         rsp,20h
  000000001020A79E: 48 83 EC 20        sub         rsp,20h
  000000001020A7A2: 48 83 EC 20        sub         rsp,20h
  000000001020A7A6: 48 8B 0D FB A6 FF  mov         rcx,qword ptr [0000000010204EA8h]
                    FF
  000000001020A7AD: 48 85 C9           test        rcx,rcx
  000000001020A7B0: 0F 84 05 00 00 00  je          000000001020A7BB
  000000001020A7B6: E9 08 00 00 00     jmp         000000001020A7C3
  000000001020A7BB: B0 04              mov         al,4
  000000001020A7BD: B9 A9 5D 00 00     mov         ecx,5DA9h
  000000001020A7C2: CC                 int         3
  000000001020A7C3: 48 8B 49 08        mov         rcx,qword ptr [rcx+8]
  000000001020A7C7: 48 8B 15 2A A8 FF  mov         rdx,qword ptr [0000000010204FF8h]
                    FF
  000000001020A7CE: 45 31 C0           xor         r8d,r8d
  000000001020A7D1: E8 B1 AF FF FF     call        0000000010205787
  000000001020A7D6: 48 83 C4 20        add         rsp,20h
  000000001020A7DA: 48 8B C8           mov         rcx,rax
  000000001020A7DD: 48 8D 15 2C 74 DF  lea         rdx,[0000000010001C10h]
                    FF
  000000001020A7E4: E8 54 BD FF FF     call        000000001020653D
  000000001020A7E9: 48 83 C4 20        add         rsp,20h
  000000001020A7ED: 48 8B 05 B4 A6 FF  mov         rax,qword ptr [0000000010204EA8h]
                    FF
  000000001020A7F4: 48 85 C0           test        rax,rax
  000000001020A7F7: 0F 84 05 00 00 00  je          000000001020A802
  000000001020A7FD: E9 08 00 00 00     jmp         000000001020A80A
  000000001020A802: B0 04              mov         al,4
  000000001020A804: B9 D7 5D 00 00     mov         ecx,5DD7h
  000000001020A809: CC                 int         3
  000000001020A80A: 48 8B 40 08        mov         rax,qword ptr [rax+8]
  000000001020A80E: 48 85 C0           test        rax,rax
  000000001020A811: 0F 84 05 00 00 00  je          000000001020A81C
  000000001020A817: E9 08 00 00 00     jmp         000000001020A824
  000000001020A81C: B0 04              mov         al,4
  000000001020A81E: B9 DC 5D 00 00     mov         ecx,5DDCh
  000000001020A823: CC                 int         3
  000000001020A824: 48 8B 0D 75 A6 FF  mov         rcx,qword ptr [0000000010204EA0h]
                    FF
  000000001020A82B: 48 85 C9           test        rcx,rcx
  000000001020A82E: 0F 84 05 00 00 00  je          000000001020A839
  000000001020A834: E9 08 00 00 00     jmp         000000001020A841
  000000001020A839: B0 04              mov         al,4
  000000001020A83B: B9 EF 5D 00 00     mov         ecx,5DEFh
  000000001020A840: CC                 int         3
  000000001020A841: 48 8B 09           mov         rcx,qword ptr [rcx]
  000000001020A844: 48 89 48 48        mov         qword ptr [rax+48h],rcx
  000000001020A848: 48 83 EC 20        sub         rsp,20h
  000000001020A84C: E8 9F BC FF FF     call        00000000102064F0
  000000001020A851: 48 83 C4 20        add         rsp,20h
  000000001020A855: 48 8B 05 4C A6 FF  mov         rax,qword ptr [0000000010204EA8h]
                    FF
  000000001020A85C: 48 85 C0           test        rax,rax
  000000001020A85F: 0F 84 05 00 00 00  je          000000001020A86A
  000000001020A865: E9 08 00 00 00     jmp         000000001020A872
  000000001020A86A: B0 04              mov         al,4
  000000001020A86C: B9 13 5E 00 00     mov         ecx,5E13h
  000000001020A871: CC                 int         3
  000000001020A872: 48 8B 40 08        mov         rax,qword ptr [rax+8]
  000000001020A876: 48 85 C0           test        rax,rax
  000000001020A879: 0F 84 05 00 00 00  je          000000001020A884
  000000001020A87F: E9 08 00 00 00     jmp         000000001020A88C
  000000001020A884: B0 04              mov         al,4
  000000001020A886: B9 18 5E 00 00     mov         ecx,5E18h
  000000001020A88B: CC                 int         3
  000000001020A88C: B9 10 00 00 00     mov         ecx,10h
  000000001020A891: 48 89 48 50        mov         qword ptr [rax+50h],rcx
  000000001020A895: 48 8B 05 0C A6 FF  mov         rax,qword ptr [0000000010204EA8h]
                    FF
  000000001020A89C: 48 85 C0           test        rax,rax
  000000001020A89F: 0F 84 05 00 00 00  je          000000001020A8AA
  000000001020A8A5: E9 08 00 00 00     jmp         000000001020A8B2
  000000001020A8AA: B0 04              mov         al,4
  000000001020A8AC: B9 3B 5E 00 00     mov         ecx,5E3Bh
  000000001020A8B1: CC                 int         3
  000000001020A8B2: 48 8B 40 08        mov         rax,qword ptr [rax+8]
  000000001020A8B6: 48 85 C0           test        rax,rax
  000000001020A8B9: 0F 84 05 00 00 00  je          000000001020A8C4
  000000001020A8BF: E9 08 00 00 00     jmp         000000001020A8CC
  000000001020A8C4: B0 04              mov         al,4
  000000001020A8C6: B9 40 5E 00 00     mov         ecx,5E40h
  000000001020A8CB: CC                 int         3
  000000001020A8CC: 48 8B 0D 25 A7 FF  mov         rcx,qword ptr [0000000010204FF8h]
                    FF
  000000001020A8D3: 48 89 48 40        mov         qword ptr [rax+40h],rcx
  000000001020A8D7: 48 8B 05 CA A5 FF  mov         rax,qword ptr [0000000010204EA8h]
                    FF
  000000001020A8DE: 48 85 C0           test        rax,rax
  000000001020A8E1: 0F 84 05 00 00 00  je          000000001020A8EC
  000000001020A8E7: E9 08 00 00 00     jmp         000000001020A8F4
  000000001020A8EC: B0 04              mov         al,4
  000000001020A8EE: B9 62 5E 00 00     mov         ecx,5E62h
  000000001020A8F3: CC                 int         3
  000000001020A8F4: 48 B9 D8 FF FF FF  mov         rcx,0FFFFFFFFFFFFFFD8h
                    FF FF FF FF
  000000001020A8FE: 48 89 48 28        mov         qword ptr [rax+28h],rcx
  000000001020A902: 31 C0              xor         eax,eax
  000000001020A904: 48 89 05 7D A5 FF  mov         qword ptr [0000000010204E88h],rax
                    FF
  000000001020A90B: 5F                 pop         rdi
  000000001020A90C: 5E                 pop         rsi
  000000001020A90D: C9                 leave
  000000001020A90E: C3                 ret
  000000001020A90F: 55                 push        rbp
  000000001020A910: 48 8B EC           mov         rbp,rsp
  000000001020A913: 48 8D 05 14 C3 FF  lea         rax,[0000000010206C2Eh]
                    FF
  000000001020A91A: 48 89 05 77 7C DF  mov         qword ptr [0000000010002598h],rax
                    FF
  000000001020A921: 48 8D 05 12 E0 FF  lea         rax,[000000001020893Ah]
                    FF
  000000001020A928: 48 89 05 61 7C DF  mov         qword ptr [0000000010002590h],rax
                    FF
  000000001020A92F: 48 83 EC 20        sub         rsp,20h
  000000001020A933: 48 8D 0D F0 A9 FF  lea         rcx,[000000001020532Ah]
                    FF
  000000001020A93A: FF 15 C8 72 DF FF  call        qword ptr [0000000010001C08h]
  000000001020A940: 48 83 C4 20        add         rsp,20h
  000000001020A944: 31 C0              xor         eax,eax
  000000001020A946: 48 89 05 73 A4 FF  mov         qword ptr [0000000010204DC0h],rax
                    FF
  000000001020A94D: 31 C0              xor         eax,eax
  000000001020A94F: 48 89 05 62 A5 FF  mov         qword ptr [0000000010204EB8h],rax
                    FF
  000000001020A956: 48 B8 FF FF FF FF  mov         rax,0FFFFFFFFFFFFFFFFh
                    FF FF FF FF
  000000001020A960: 48 89 05 21 A5 FF  mov         qword ptr [0000000010204E88h],rax
                    FF
  000000001020A967: 48 83 EC 20        sub         rsp,20h
  000000001020A96B: 48 8D 0D 86 A6 FF  lea         rcx,[0000000010204FF8h]
                    FF
  000000001020A972: 31 D2              xor         edx,edx
  000000001020A974: E8 79 BA FF FF     call        00000000102063F2
  000000001020A979: 48 83 C4 20        add         rsp,20h
  000000001020A97D: 48 83 EC 20        sub         rsp,20h
  000000001020A981: 48 8D 0D 68 A6 FF  lea         rcx,[0000000010204FF0h]
                    FF
  000000001020A988: 31 D2              xor         edx,edx
  000000001020A98A: E8 63 BA FF FF     call        00000000102063F2
  000000001020A98F: 48 83 C4 20        add         rsp,20h
  000000001020A993: 48 83 EC 20        sub         rsp,20h
  000000001020A997: 48 8D 0D 42 A6 FF  lea         rcx,[0000000010204FE0h]
                    FF
  000000001020A99E: BA 01 00 00 00     mov         edx,1
  000000001020A9A3: E8 4A BA FF FF     call        00000000102063F2
  000000001020A9A8: 48 83 C4 20        add         rsp,20h
  000000001020A9AC: 48 83 EC 20        sub         rsp,20h
  000000001020A9B0: 48 8D 0D 21 A6 FF  lea         rcx,[0000000010204FD8h]
                    FF
  000000001020A9B7: BA 02 00 00 00     mov         edx,2
  000000001020A9BC: E8 31 BA FF FF     call        00000000102063F2
  000000001020A9C1: 48 83 C4 20        add         rsp,20h
  000000001020A9C5: 48 83 EC 20        sub         rsp,20h
  000000001020A9C9: 48 8D 0D 00 A6 FF  lea         rcx,[0000000010204FD0h]
                    FF
  000000001020A9D0: BA 03 00 00 00     mov         edx,3
  000000001020A9D5: E8 18 BA FF FF     call        00000000102063F2
  000000001020A9DA: 48 83 C4 20        add         rsp,20h
  000000001020A9DE: 48 83 EC 20        sub         rsp,20h
  000000001020A9E2: 48 8D 0D DF A5 FF  lea         rcx,[0000000010204FC8h]
                    FF
  000000001020A9E9: BA 0A 00 00 00     mov         edx,0Ah
  000000001020A9EE: E8 FF B9 FF FF     call        00000000102063F2
  000000001020A9F3: 48 83 C4 20        add         rsp,20h
  000000001020A9F7: 48 83 EC 20        sub         rsp,20h
  000000001020A9FB: 48 8D 0D E6 A5 FF  lea         rcx,[0000000010204FE8h]
                    FF
  000000001020AA02: BA 04 00 00 00     mov         edx,4
  000000001020AA07: E8 E6 B9 FF FF     call        00000000102063F2
  000000001020AA0C: 48 83 C4 20        add         rsp,20h
  000000001020AA10: 48 83 EC 20        sub         rsp,20h
  000000001020AA14: 48 8D 0D A5 A5 FF  lea         rcx,[0000000010204FC0h]
                    FF
  000000001020AA1B: BA 09 00 00 00     mov         edx,9
  000000001020AA20: E8 CD B9 FF FF     call        00000000102063F2
  000000001020AA25: 48 83 C4 20        add         rsp,20h
  000000001020AA29: 48 83 EC 20        sub         rsp,20h
  000000001020AA2D: 48 8D 0D 84 A5 FF  lea         rcx,[0000000010204FB8h]
                    FF
  000000001020AA34: BA 1F 00 00 00     mov         edx,1Fh
  000000001020AA39: E8 B4 B9 FF FF     call        00000000102063F2
  000000001020AA3E: 48 83 C4 20        add         rsp,20h
  000000001020AA42: C9                 leave
  000000001020AA43: C3                 ret
  000000001020AA44: 83 FA 01           cmp         edx,1
  000000001020AA47: 0F 84 01 00 00 00  je          000000001020AA4E
  000000001020AA4D: C3                 ret
  000000001020AA4E: 56                 push        rsi
  000000001020AA4F: 57                 push        rdi
  000000001020AA50: 48 83 EC 28        sub         rsp,28h
  000000001020AA54: FF 15 16 7B DF FF  call        qword ptr [0000000010002570h]
  000000001020AA5A: 48 89 05 EF 7A DF  mov         qword ptr [0000000010002550h],rax
                    FF
  000000001020AA61: 48 8D 0D 86 71 DF  lea         rcx,[0000000010001BEEh]
                    FF
  000000001020AA68: FF 15 F2 7A DF FF  call        qword ptr [0000000010002560h]
  000000001020AA6E: 48 85 C0           test        rax,rax
  000000001020AA71: 0F 84 05 00 00 00  je          000000001020AA7C
  000000001020AA77: E9 08 00 00 00     jmp         000000001020AA84
  000000001020AA7C: B0 05              mov         al,5
  000000001020AA7E: B9 98 60 00 00     mov         ecx,6098h
  000000001020AA83: CC                 int         3
  000000001020AA84: 48 8B F0           mov         rsi,rax
  000000001020AA87: 48 B8 52 F3 8D 11  mov         rax,0EBF76C4F118DF352h
                    4F 6C F7 EB
  000000001020AA91: 48 3B 86 F0 03 00  cmp         rax,qword ptr [rsi+00000000000003F0h]
                    00
  000000001020AA98: 0F 85 05 00 00 00  jne         000000001020AAA3
  000000001020AA9E: E9 08 00 00 00     jmp         000000001020AAAB
  000000001020AAA3: B0 05              mov         al,5
  000000001020AAA5: B9 98 60 00 00     mov         ecx,6098h
  000000001020AAAA: CC                 int         3
  000000001020AAAB: 48 B8 37 F3 AE 85  mov         rax,0D34257BA85AEF337h
                    BA 57 42 D3
  000000001020AAB5: 48 3B 86 F8 03 00  cmp         rax,qword ptr [rsi+00000000000003F8h]
                    00
  000000001020AABC: 0F 85 05 00 00 00  jne         000000001020AAC7
  000000001020AAC2: E9 08 00 00 00     jmp         000000001020AACF
  000000001020AAC7: B0 05              mov         al,5
  000000001020AAC9: B9 98 60 00 00     mov         ecx,6098h
  000000001020AACE: CC                 int         3
  000000001020AACF: 48 8B CE           mov         rcx,rsi
  000000001020AAD2: BA 0C 00 00 00     mov         edx,0Ch
  000000001020AAD7: FF 15 8B 7A DF FF  call        qword ptr [0000000010002568h]
  000000001020AADD: 48 89 05 24 71 DF  mov         qword ptr [0000000010001C08h],rax
                    FF
  000000001020AAE4: 48 8B CE           mov         rcx,rsi
  000000001020AAE7: BA 09 00 00 00     mov         edx,9
  000000001020AAEC: FF 15 76 7A DF FF  call        qword ptr [0000000010002568h]
  000000001020AAF2: 48 89 05 17 75 DF  mov         qword ptr [0000000010002010h],rax
                    FF
  000000001020AAF9: 48 8B CE           mov         rcx,rsi
  000000001020AAFC: BA 07 00 00 00     mov         edx,7
  000000001020AB01: FF 15 61 7A DF FF  call        qword ptr [0000000010002568h]
  000000001020AB07: 48 89 05 3A 74 DF  mov         qword ptr [0000000010001F48h],rax
                    FF
  000000001020AB0E: 48 8D 0D C5 70 DF  lea         rcx,[0000000010001BDAh]
                    FF
  000000001020AB15: FF 15 45 7A DF FF  call        qword ptr [0000000010002560h]
  000000001020AB1B: 48 85 C0           test        rax,rax
  000000001020AB1E: 0F 84 05 00 00 00  je          000000001020AB29
  000000001020AB24: E9 08 00 00 00     jmp         000000001020AB31
  000000001020AB29: B0 05              mov         al,5
  000000001020AB2B: B9 98 60 00 00     mov         ecx,6098h
  000000001020AB30: CC                 int         3
  000000001020AB31: 48 8B F0           mov         rsi,rax
  000000001020AB34: 48 B8 98 A4 49 26  mov         rax,0E0C4E3112649A498h
                    11 E3 C4 E0
  000000001020AB3E: 48 3B 86 F0 03 00  cmp         rax,qword ptr [rsi+00000000000003F0h]
                    00
  000000001020AB45: 0F 85 05 00 00 00  jne         000000001020AB50
  000000001020AB4B: E9 08 00 00 00     jmp         000000001020AB58
  000000001020AB50: B0 05              mov         al,5
  000000001020AB52: B9 98 60 00 00     mov         ecx,6098h
  000000001020AB57: CC                 int         3
  000000001020AB58: 48 B8 9E F9 C1 72  mov         rax,0BE33AB6672C1F99Eh
                    66 AB 33 BE
  000000001020AB62: 48 3B 86 F8 03 00  cmp         rax,qword ptr [rsi+00000000000003F8h]
                    00
  000000001020AB69: 0F 85 05 00 00 00  jne         000000001020AB74
  000000001020AB6F: E9 08 00 00 00     jmp         000000001020AB7C
  000000001020AB74: B0 05              mov         al,5
  000000001020AB76: B9 98 60 00 00     mov         ecx,6098h
  000000001020AB7B: CC                 int         3
  000000001020AB7C: 48 8B CE           mov         rcx,rsi
  000000001020AB7F: BA 06 00 00 00     mov         edx,6
  000000001020AB84: FF 15 DE 79 DF FF  call        qword ptr [0000000010002568h]
  000000001020AB8A: 48 89 05 C7 73 DF  mov         qword ptr [0000000010001F58h],rax
                    FF
  000000001020AB91: 48 8B CE           mov         rcx,rsi
  000000001020AB94: BA 05 00 00 00     mov         edx,5
  000000001020AB99: FF 15 C9 79 DF FF  call        qword ptr [0000000010002568h]
  000000001020AB9F: 48 89 05 BA 73 DF  mov         qword ptr [0000000010001F60h],rax
                    FF
  000000001020ABA6: 48 8B CE           mov         rcx,rsi
  000000001020ABA9: BA 03 00 00 00     mov         edx,3
  000000001020ABAE: FF 15 B4 79 DF FF  call        qword ptr [0000000010002568h]
  000000001020ABB4: 48 89 05 AD 73 DF  mov         qword ptr [0000000010001F68h],rax
                    FF
  000000001020ABBB: 48 8B CE           mov         rcx,rsi
  000000001020ABBE: BA 02 00 00 00     mov         edx,2
  000000001020ABC3: FF 15 9F 79 DF FF  call        qword ptr [0000000010002568h]
  000000001020ABC9: 48 89 05 A0 73 DF  mov         qword ptr [0000000010001F70h],rax
                    FF
  000000001020ABD0: 48 8D 0D EB 6F DF  lea         rcx,[0000000010001BC2h]
                    FF
  000000001020ABD7: FF 15 83 79 DF FF  call        qword ptr [0000000010002560h]
  000000001020ABDD: 48 85 C0           test        rax,rax
  000000001020ABE0: 0F 84 05 00 00 00  je          000000001020ABEB
  000000001020ABE6: E9 08 00 00 00     jmp         000000001020ABF3
  000000001020ABEB: B0 05              mov         al,5
  000000001020ABED: B9 98 60 00 00     mov         ecx,6098h
  000000001020ABF2: CC                 int         3
  000000001020ABF3: 48 8B F0           mov         rsi,rax
  000000001020ABF6: 48 B8 CD 2C 99 AE  mov         rax,0E4D95F8CAE992CCDh
                    8C 5F D9 E4
  000000001020AC00: 48 3B 86 F0 03 00  cmp         rax,qword ptr [rsi+00000000000003F0h]
                    00
  000000001020AC07: 0F 85 05 00 00 00  jne         000000001020AC12
  000000001020AC0D: E9 08 00 00 00     jmp         000000001020AC1A
  000000001020AC12: B0 05              mov         al,5
  000000001020AC14: B9 98 60 00 00     mov         ecx,6098h
  000000001020AC19: CC                 int         3
  000000001020AC1A: 48 B8 15 0D CA 44  mov         rax,2EF2D42744CA0D15h
                    27 D4 F2 2E
  000000001020AC24: 48 3B 86 F8 03 00  cmp         rax,qword ptr [rsi+00000000000003F8h]
                    00
  000000001020AC2B: 0F 85 05 00 00 00  jne         000000001020AC36
  000000001020AC31: E9 08 00 00 00     jmp         000000001020AC3E
  000000001020AC36: B0 05              mov         al,5
  000000001020AC38: B9 98 60 00 00     mov         ecx,6098h
  000000001020AC3D: CC                 int         3
  000000001020AC3E: 48 8B CE           mov         rcx,rsi
  000000001020AC41: BA 19 00 00 00     mov         edx,19h
  000000001020AC46: FF 15 1C 79 DF FF  call        qword ptr [0000000010002568h]
  000000001020AC4C: 48 89 05 2D 73 DF  mov         qword ptr [0000000010001F80h],rax
                    FF
  000000001020AC53: 48 8B CE           mov         rcx,rsi
  000000001020AC56: BA 18 00 00 00     mov         edx,18h
  000000001020AC5B: FF 15 07 79 DF FF  call        qword ptr [0000000010002568h]
  000000001020AC61: 48 89 05 10 73 DF  mov         qword ptr [0000000010001F78h],rax
                    FF
  000000001020AC68: 48 8B CE           mov         rcx,rsi
  000000001020AC6B: BA 15 00 00 00     mov         edx,15h
  000000001020AC70: FF 15 F2 78 DF FF  call        qword ptr [0000000010002568h]
  000000001020AC76: 48 89 05 2B 73 DF  mov         qword ptr [0000000010001FA8h],rax
                    FF
  000000001020AC7D: 48 8B CE           mov         rcx,rsi
  000000001020AC80: BA 12 00 00 00     mov         edx,12h
  000000001020AC85: FF 15 DD 78 DF FF  call        qword ptr [0000000010002568h]
  000000001020AC8B: 48 89 05 4E 73 DF  mov         qword ptr [0000000010001FE0h],rax
                    FF
  000000001020AC92: 48 8B CE           mov         rcx,rsi
  000000001020AC95: BA 10 00 00 00     mov         edx,10h
  000000001020AC9A: FF 15 C8 78 DF FF  call        qword ptr [0000000010002568h]
  000000001020ACA0: 48 89 05 A1 73 DF  mov         qword ptr [0000000010002048h],rax
                    FF
  000000001020ACA7: 48 8B CE           mov         rcx,rsi
  000000001020ACAA: BA 0E 00 00 00     mov         edx,0Eh
  000000001020ACAF: FF 15 B3 78 DF FF  call        qword ptr [0000000010002568h]
  000000001020ACB5: 48 89 05 E4 71 DF  mov         qword ptr [0000000010001EA0h],rax
                    FF
  000000001020ACBC: 48 8B CE           mov         rcx,rsi
  000000001020ACBF: BA 0C 00 00 00     mov         edx,0Ch
  000000001020ACC4: FF 15 9E 78 DF FF  call        qword ptr [0000000010002568h]
  000000001020ACCA: 48 89 05 27 72 DF  mov         qword ptr [0000000010001EF8h],rax
                    FF
  000000001020ACD1: 48 8B CE           mov         rcx,rsi
  000000001020ACD4: BA 0A 00 00 00     mov         edx,0Ah
  000000001020ACD9: FF 15 89 78 DF FF  call        qword ptr [0000000010002568h]
  000000001020ACDF: 48 89 05 5A 73 DF  mov         qword ptr [0000000010002040h],rax
                    FF
  000000001020ACE6: 48 8B CE           mov         rcx,rsi
  000000001020ACE9: BA 09 00 00 00     mov         edx,9
  000000001020ACEE: FF 15 74 78 DF FF  call        qword ptr [0000000010002568h]
  000000001020ACF4: 48 89 05 35 72 DF  mov         qword ptr [0000000010001F30h],rax
                    FF
  000000001020ACFB: 48 8B CE           mov         rcx,rsi
  000000001020ACFE: BA 08 00 00 00     mov         edx,8
  000000001020AD03: FF 15 5F 78 DF FF  call        qword ptr [0000000010002568h]
  000000001020AD09: 48 89 05 18 72 DF  mov         qword ptr [0000000010001F28h],rax
                    FF
  000000001020AD10: 48 8B CE           mov         rcx,rsi
  000000001020AD13: BA 07 00 00 00     mov         edx,7
  000000001020AD18: FF 15 4A 78 DF FF  call        qword ptr [0000000010002568h]
  000000001020AD1E: 48 89 05 2B 72 DF  mov         qword ptr [0000000010001F50h],rax
                    FF
  000000001020AD25: 48 8B CE           mov         rcx,rsi
  000000001020AD28: BA 06 00 00 00     mov         edx,6
  000000001020AD2D: FF 15 35 78 DF FF  call        qword ptr [0000000010002568h]
  000000001020AD33: 48 89 05 66 72 DF  mov         qword ptr [0000000010001FA0h],rax
                    FF
  000000001020AD3A: 48 8B CE           mov         rcx,rsi
  000000001020AD3D: BA 05 00 00 00     mov         edx,5
  000000001020AD42: FF 15 20 78 DF FF  call        qword ptr [0000000010002568h]
  000000001020AD48: 48 89 05 49 71 DF  mov         qword ptr [0000000010001E98h],rax
                    FF
  000000001020AD4F: 48 8B CE           mov         rcx,rsi
  000000001020AD52: BA 04 00 00 00     mov         edx,4
  000000001020AD57: FF 15 0B 78 DF FF  call        qword ptr [0000000010002568h]
  000000001020AD5D: 48 89 05 84 70 DF  mov         qword ptr [0000000010001DE8h],rax
                    FF
  000000001020AD64: 48 8D 0D AD 76 DF  lea         rcx,[0000000010002418h]
                    FF
  000000001020AD6B: 48 89 0D AE 76 DF  mov         qword ptr [0000000010002420h],rcx
                    FF
  000000001020AD72: 48 8D 0D 67 75 DF  lea         rcx,[00000000100022E0h]
                    FF
  000000001020AD79: 48 89 0D 68 75 DF  mov         qword ptr [00000000100022E8h],rcx
                    FF
  000000001020AD80: 48 8D 0D 01 75 DF  lea         rcx,[0000000010002288h]
                    FF
  000000001020AD87: 48 89 0D 02 75 DF  mov         qword ptr [0000000010002290h],rcx
                    FF
  000000001020AD8E: 48 8D 0D A3 74 DF  lea         rcx,[0000000010002238h]
                    FF
  000000001020AD95: 48 89 0D AC 74 DF  mov         qword ptr [0000000010002248h],rcx
                    FF
  000000001020AD9C: 48 8D 0D 9D 73 DF  lea         rcx,[0000000010002140h]
                    FF
  000000001020ADA3: 48 89 0D 96 74 DF  mov         qword ptr [0000000010002240h],rcx
                    FF
  000000001020ADAA: 48 8D 0D 2F 74 DF  lea         rcx,[00000000100021E0h]
                    FF
  000000001020ADB1: 48 89 0D 30 74 DF  mov         qword ptr [00000000100021E8h],rcx
                    FF
  000000001020ADB8: 48 8D 0D D1 73 DF  lea         rcx,[0000000010002190h]
                    FF
  000000001020ADBF: 48 89 0D DA 73 DF  mov         qword ptr [00000000100021A0h],rcx
                    FF
  000000001020ADC6: 48 8D 0D 73 73 DF  lea         rcx,[0000000010002140h]
                    FF
  000000001020ADCD: 48 89 0D C4 73 DF  mov         qword ptr [0000000010002198h],rcx
                    FF
  000000001020ADD4: 48 8D 0D 65 73 DF  lea         rcx,[0000000010002140h]
                    FF
  000000001020ADDB: 48 89 0D 66 73 DF  mov         qword ptr [0000000010002148h],rcx
                    FF
  000000001020ADE2: 48 8D 0D 07 73 DF  lea         rcx,[00000000100020F0h]
                    FF
  000000001020ADE9: 48 89 0D 08 73 DF  mov         qword ptr [00000000100020F8h],rcx
                    FF
  000000001020ADF0: 48 8D 0D A9 72 DF  lea         rcx,[00000000100020A0h]
                    FF
  000000001020ADF7: 48 89 0D AA 72 DF  mov         qword ptr [00000000100020A8h],rcx
                    FF
  000000001020ADFE: E8 0C FB FF FF     call        000000001020A90F
  000000001020AE03: B8 01 00 00 00     mov         eax,1
  000000001020AE08: 48 83 C4 28        add         rsp,28h
  000000001020AE0C: 5F                 pop         rdi
  000000001020AE0D: 5E                 pop         rsi
  000000001020AE0E: C3                 ret

RAW DATA #2
  0000000010205000: 55 48 8B EC 48 83 EC 10 48 89 4D 10 48 89 55 18  UH.?H.?.H.M.H.U.
  0000000010205010: 48 8B 45 18 48 83 E0 7F 48 89 45 F0 48 8B 45 18  H.E.H.à.H.E?H.E.
  0000000010205020: 48 83 F8 C0 0F 8C 18 00 00 00 48 8B 45 18 48 83  H.øÀ......H.E.H.
  0000000010205030: F8 40 0F 8D 0A 00 00 00 B8 01 00 00 00 E9 02 00  ø@......¸....é..
  0000000010205040: 00 00 31 C0 88 45 FF 0F B6 45 FF 85 C0 0F 84 14  ..1À.Eÿ.¶Eÿ.À...
  0000000010205050: 00 00 00 48 8B 45 F0 48 81 C0 80 00 00 00 48 89  ...H.E?H.À....H.
  0000000010205060: 45 F0 E9 0C 00 00 00 48 8B 45 18 48 C1 F8 07 48  E?é....H.E.HÁø.H
  0000000010205070: 89 45 18 48 83 EC 20 48 8B 4D 10 48 8B 55 F0 FF  .E.H.? H.M.H.U?ÿ
  0000000010205080: 15 C3 CF DF FF 48 83 C4 20 0F B6 45 FF 85 C0 0F  .?ÏßÿH.Ä .¶Eÿ.À.
  0000000010205090: 84 7B FF FF FF C9 C3 55 48 8B EC 48 83 EC 20 48  .{ÿÿÿÉ?UH.?H.? H
  00000000102050A0: 89 4D 10 48 89 55 18 31 C0 48 8B 4D 18 48 89 01  .M.H.U.1ÀH.M.H..
  00000000102050B0: B8 01 00 00 00 48 89 45 F0 B8 01 00 00 00 48 89  ¸....H.E?¸....H.
  00000000102050C0: 45 E0 48 83 EC 20 48 8B 4D 10 48 8D 55 E8 FF 15  EàH.? H.M.H.Uèÿ.
  00000000102050D0: 6C CF DF FF 48 83 C4 20 48 8B 45 F0 48 83 F8 0A  lÏßÿH.Ä H.E?H.ø.
  00000000102050E0: 0F 8D C1 00 00 00 48 8B 45 E8 48 81 F8 80 00 00  ..Á...H.EèH.ø...
  00000000102050F0: 00 0F 9D C0 0F B6 C0 88 45 FF 48 8B 45 E8 48 83  ...À.¶À.EÿH.EèH.
  0000000010205100: E0 7F 48 89 45 E8 48 8B 45 18 48 8B 00 48 8B 4D  à.H.EèH.E.H..H.M
  0000000010205110: E8 48 8B 55 E0 48 0F AF CA 48 03 C1 48 8B 4D 18  èH.UàH.¯ÊH.ÁH.M.
  0000000010205120: 48 89 01 48 8B 45 F0 48 83 F8 09 0F 84 0C 00 00  H..H.E?H.ø......
  0000000010205130: 00 48 8B 45 E0 48 C1 E0 07 48 89 45 E0 48 83 45  .H.EàHÁà.H.EàH.E
  0000000010205140: F0 01 0F B6 45 FF 85 C0 0F 84 54 00 00 00 48 8B  ?..¶Eÿ.À..T...H.
  0000000010205150: 45 E8 48 83 F8 40 0F 8C 46 00 00 00 48 8B 45 F0  EèH.ø@..F...H.E?
  0000000010205160: 48 83 F8 09 0F 84 1D 00 00 00 48 8B 45 18 48 8B  H.ø.......H.E.H.
  0000000010205170: 00 48 8B 4D E0 48 F7 D9 48 03 C1 48 8B 4D 18 48  .H.MàH÷ÙH.ÁH.M.H
  0000000010205180: 89 01 E9 1B 00 00 00 48 8B 45 18 48 8B 00 48 B9  ..é....H.E.H..H¹
  0000000010205190: 00 00 00 00 00 00 00 80 48 03 C1 48 8B 4D 18 48  ........H.ÁH.M.H
  00000000102051A0: 89 01 E9 4C 00 00 00 48 8B 45 F0 48 83 F8 0A 0F  ..éL...H.E?H.ø..
  00000000102051B0: 85 36 00 00 00 B8 01 00 00 00 88 45 FF 48 8B 45  .6...¸.....EÿH.E
  00000000102051C0: E8 48 83 F8 7F 0F 85 1B 00 00 00 48 8B 45 18 48  èH.ø.......H.E.H
  00000000102051D0: 8B 00 48 B9 00 00 00 00 00 00 00 80 48 03 C1 48  ..H¹........H.ÁH
  00000000102051E0: 8B 4D 18 48 89 01 E9 08 00 00 00 B0 03 B9 C6 12  .M.H..é....°.¹Æ.
  00000000102051F0: 00 00 CC 0F B6 45 FF 85 C0 0F 84 C3 FE FF FF C9  ..?.¶Eÿ.À..??ÿÿÉ
  0000000010205200: C3 55 48 8B EC 48 83 EC 10 48 89 4D 10 48 89 55  ?UH.?H.?.H.M.H.U
  0000000010205210: 18 4C 89 45 20 4C 89 4D 28 31 C0 48 89 45 F8 48  .L.E L.M(1ÀH.EøH
  0000000010205220: 8B 45 F8 48 3B 45 28 0F 83 05 00 00 00 E9 08 00  .EøH;E(......é..
  0000000010205230: 00 00 B0 01 B9 60 13 00 00 CC 48 C1 E0 01 48 8B  ..°.¹`...?HÁà.H.
  0000000010205240: 4D 20 48 03 C1 0F B7 00 66 85 C0 0F 84 0A 00 00  M H.Á.·.f.À.....
  0000000010205250: 00 48 83 45 F8 01 E9 C4 FF FF FF 31 C0 48 89 45  .H.Eø.éÄÿÿÿ1ÀH.E
  0000000010205260: F0 48 8B 45 F0 48 3B 45 18 0F 83 05 00 00 00 E9  ?H.E?H;E.......é
  0000000010205270: 08 00 00 00 B0 01 B9 8B 13 00 00 CC 48 C1 E0 01  ....°.¹....?HÁà.
  0000000010205280: 48 8B 4D 10 48 03 C1 0F B7 00 66 85 C0 0F 84 63  H.M.H.Á.·.f.À..c
  0000000010205290: 00 00 00 48 8B 45 F8 48 8B 4D F0 48 03 C1 48 3B  ...H.EøH.M?H.ÁH;
  00000000102052A0: 45 28 0F 83 05 00 00 00 E9 08 00 00 00 B0 01 B9  E(......é....°.¹
  00000000102052B0: 9C 13 00 00 CC 48 C1 E0 01 48 8B 4D 20 48 03 C1  ....?HÁà.H.M H.Á
  00000000102052C0: 48 8B 4D F0 48 3B 4D 18 0F 83 05 00 00 00 E9 08  H.M?H;M.......é.
  00000000102052D0: 00 00 00 B0 01 B9 A6 13 00 00 CC 48 C1 E1 01 48  ...°.¹¦...?HÁá.H
  00000000102052E0: 8B 55 10 48 03 CA 0F B7 09 66 89 08 48 83 45 F0  .U.H.Ê.·.f..H.E?
  00000000102052F0: 01 E9 6B FF FF FF 48 8B 45 F8 48 8B 4D F0 48 03  .ékÿÿÿH.EøH.M?H.
  0000000010205300: C1 48 3B 45 28 0F 83 05 00 00 00 E9 08 00 00 00  ÁH;E(......é....
  0000000010205310: B0 01 B9 BE 13 00 00 CC 48 C1 E0 01 48 8B 4D 20  °.¹¾...?HÁà.H.M 
  0000000010205320: 48 03 C1 31 C9 66 89 08 C9 C3 55 48 8B EC 56 57  H.Á1Éf..É?UH.?VW
  0000000010205330: 48 89 4D 10 48 89 55 18 48 8B 7D 10 48 8D 35 F3  H.M.H.U.H.}.H.5ó
  0000000010205340: CC DF FF 33 C0 48 83 F8 05 0F 84 3A 00 00 00 66  ?ßÿ3ÀH.ø...:...f
  0000000010205350: 83 3E 00 0F 84 30 00 00 00 48 3B 45 18 0F 84 4A  .>...0...H;E...J
  0000000010205360: 00 00 00 66 8B 0F 66 85 C9 0F 84 3E 00 00 00 66  ...f..f.É..>...f
  0000000010205370: 3B 0E 0F 85 35 00 00 00 48 83 C7 02 48 83 C6 02  ;...5...H.Ç.H.Æ.
  0000000010205380: 48 83 C0 01 E9 BC FF FF FF 48 3B 45 18 0F 84 0A  H.À.é¼ÿÿÿH;E....
  0000000010205390: 00 00 00 66 83 3F 00 0F 85 10 00 00 00 B8 01 00  ...f.?.......¸..
  00000000102053A0: 00 00 88 05 FD D1 DF FF E9 F0 00 00 00 48 8B 7D  ....?Ñßÿé?...H.}
  00000000102053B0: 10 48 8D 35 6E CC DF FF 33 C0 48 83 F8 08 0F 84  .H.5n?ßÿ3ÀH.ø...
  00000000102053C0: 3A 00 00 00 66 83 3E 00 0F 84 30 00 00 00 48 3B  :...f.>...0...H;
  00000000102053D0: 45 18 0F 84 55 00 00 00 66 8B 0F 66 85 C9 0F 84  E...U...f..f.É..
  00000000102053E0: 49 00 00 00 66 3B 0E 0F 85 40 00 00 00 48 83 C7  I...f;...@...H.Ç
  00000000102053F0: 02 48 83 C6 02 48 83 C0 01 E9 BC FF FF FF 48 3B  .H.Æ.H.À.é¼ÿÿÿH;
  0000000010205400: 45 18 0F 84 0A 00 00 00 66 83 3F 00 0F 85 1B 00  E.......f.?.....
  0000000010205410: 00 00 B8 01 00 00 00 88 05 88 D1 DF FF B8 01 00  ..¸.......Ñßÿ¸..
  0000000010205420: 00 00 88 05 7E D1 DF FF E9 70 00 00 00 48 8B 7D  ....~Ñßÿép...H.}
  0000000010205430: 10 48 8D 35 E2 CB DF FF 33 C0 48 83 F8 06 0F 84  .H.5âËßÿ3ÀH.ø...
  0000000010205440: 3A 00 00 00 66 83 3E 00 0F 84 30 00 00 00 48 3B  :...f.>...0...H;
  0000000010205450: 45 18 0F 84 45 00 00 00 66 8B 0F 66 85 C9 0F 84  E...E...f..f.É..
  0000000010205460: 39 00 00 00 66 3B 0E 0F 85 30 00 00 00 48 83 C7  9...f;...0...H.Ç
  0000000010205470: 02 48 83 C6 02 48 83 C0 01 E9 BC FF FF FF 48 3B  .H.Æ.H.À.é¼ÿÿÿH;
  0000000010205480: 45 18 0F 84 0A 00 00 00 66 83 3F 00 0F 85 0B 00  E.......f.?.....
  0000000010205490: 00 00 B8 01 00 00 00 88 05 0A D1 DF FF 5F 5E C9  ..¸.......Ñßÿ_^É
  00000000102054A0: C3 55 48 8B EC 48 89 4D 10 48 8B 45 10 48 85 C0  ?UH.?H.M.H.E.H.À
  00000000102054B0: 0F 84 05 00 00 00 E9 08 00 00 00 B0 04 B9 C3 15  ......é....°.¹?.
  00000000102054C0: 00 00 CC 48 8B 00 48 83 F8 07 0F 85 31 00 00 00  ..?H..H.ø...1...
  00000000102054D0: 48 8B 45 10 48 85 C0 0F 84 05 00 00 00 E9 08 00  H.E.H.À......é..
  00000000102054E0: 00 00 B0 04 B9 D8 15 00 00 CC 48 8B 40 20 48 85  ..°.¹Ø...?H.@ H.
  00000000102054F0: C0 0F 8D 0A 00 00 00 B8 01 00 00 00 E9 02 00 00  À......¸....é...
  0000000010205500: 00 31 C0 C9 C3 55 48 8B EC 48 89 4D 10 48 8B 45  .1ÀÉ?UH.?H.M.H.E
  0000000010205510: 10 48 85 C0 0F 84 05 00 00 00 E9 08 00 00 00 B0  .H.À......é....°
  0000000010205520: 04 B9 30 16 00 00 CC 48 8B 00 48 83 F8 07 0F 85  .¹0...?H..H.ø...
  0000000010205530: 31 00 00 00 48 8B 45 10 48 85 C0 0F 84 05 00 00  1...H.E.H.À.....
  0000000010205540: 00 E9 08 00 00 00 B0 04 B9 45 16 00 00 CC 48 8B  .é....°.¹E...?H.
  0000000010205550: 40 20 48 85 C0 0F 8C 0A 00 00 00 B8 01 00 00 00  @ H.À......¸....
  0000000010205560: E9 02 00 00 00 31 C0 C9 C3 55 48 8B EC 48 89 4D  é....1ÀÉ?UH.?H.M
  0000000010205570: 10 48 8B 45 10 48 8B 0D 44 FA FF FF 48 3B C1 0F  .H.E.H..DúÿÿH;Á.
  0000000010205580: 84 68 00 00 00 48 8B 45 10 48 85 C0 0F 84 05 00  .h...H.E.H.À....
  0000000010205590: 00 00 E9 08 00 00 00 B0 04 B9 A7 16 00 00 CC 48  ..é....°.¹§...?H
  00000000102055A0: 8B 00 48 83 F8 07 0F 85 4B 00 00 00 48 8B 45 10  ..H.ø...K...H.E.
  00000000102055B0: 48 85 C0 0F 84 05 00 00 00 E9 08 00 00 00 B0 04  H.À......é....°.
  00000000102055C0: B9 BB 16 00 00 CC 48 8B 40 40 48 85 C0 0F 84 05  ¹»...?H.@@H.À...
  00000000102055D0: 00 00 00 E9 08 00 00 00 B0 04 B9 C0 16 00 00 CC  ...é....°.¹À...?
  00000000102055E0: 48 8B 00 48 83 F8 03 0F 85 0A 00 00 00 B8 01 00  H..H.ø.......¸..
  00000000102055F0: 00 00 E9 02 00 00 00 31 C0 C9 C3 55 48 8B EC 48  ..é....1ÀÉ?UH.?H
  0000000010205600: 83 EC 10 48 89 4D 10 48 C7 45 F8 00 00 00 00 48  .?.H.M.HÇEø....H
  0000000010205610: 83 EC 20 48 8B 0D 36 CF DF FF BA 08 00 00 00 41  .? H..6Ïßÿº....A
  0000000010205620: B8 58 00 00 00 FF 15 4D CF DF FF 48 83 C4 20 48  ¸X...ÿ.MÏßÿH.Ä H
  0000000010205630: 83 C0 10 48 8D 0D 06 CB DF FF 48 89 48 F8 48 89  .À.H...ËßÿH.HøH.
  0000000010205640: 45 F8 48 8B 45 F8 48 85 C0 0F 84 05 00 00 00 E9  EøH.EøH.À......é
  0000000010205650: 08 00 00 00 B0 04 B9 C6 17 00 00 CC B9 03 00 00  ....°.¹Æ...?¹...
  0000000010205660: 00 48 89 08 48 8B 45 F8 48 85 C0 0F 84 05 00 00  .H..H.EøH.À.....
  0000000010205670: 00 E9 08 00 00 00 B0 04 B9 D7 17 00 00 CC 31 C9  .é....°.¹×...?1É
  0000000010205680: 88 48 40 48 8B 45 F8 48 85 C0 0F 84 05 00 00 00  .H@H.EøH.À......
  0000000010205690: E9 08 00 00 00 B0 04 B9 EB 17 00 00 CC 48 8B 4D  é....°.¹ë...?H.M
  00000000102056A0: 10 48 89 48 08 48 8B 45 F8 48 85 C0 0F 84 05 00  .H.H.H.EøH.À....
  00000000102056B0: 00 00 E9 08 00 00 00 B0 04 B9 F9 17 00 00 CC 48  ..é....°.¹ù...?H
  00000000102056C0: 8B 0D C2 F7 FF FF 48 89 48 38 48 8B 45 F8 C9 C3  ..Â÷ÿÿH.H8H.EøÉ?
  00000000102056D0: 55 48 8B EC 48 83 EC 10 48 89 4D 10 48 89 55 18  UH.?H.?.H.M.H.U.
  00000000102056E0: 48 C7 45 F8 00 00 00 00 48 83 EC 20 48 8B 0D 5D  HÇEø....H.? H..]
  00000000102056F0: CE DF FF BA 08 00 00 00 41 B8 40 00 00 00 FF 15  Îßÿº....A¸@...ÿ.
  0000000010205700: 74 CE DF FF 48 83 C4 20 48 83 C0 10 48 8D 0D 8D  tÎßÿH.Ä H.À.H...
  0000000010205710: C9 DF FF 48 89 48 F8 48 89 45 F8 48 8B 45 F8 48  ÉßÿH.HøH.EøH.EøH
  0000000010205720: 85 C0 0F 84 05 00 00 00 E9 08 00 00 00 B0 04 B9  .À......é....°.¹
  0000000010205730: 7A 18 00 00 CC B9 04 00 00 00 48 89 08 48 8B 45  z...?¹....H..H.E
  0000000010205740: F8 48 85 C0 0F 84 05 00 00 00 E9 08 00 00 00 B0  øH.À......é....°
  0000000010205750: 04 B9 8F 18 00 00 CC 48 8B 4D 10 48 89 48 08 48  .¹....?H.M.H.H.H
  0000000010205760: 8B 45 F8 48 85 C0 0F 84 05 00 00 00 E9 08 00 00  .EøH.À......é...
  0000000010205770: 00 B0 04 B9 9D 18 00 00 CC 48 8B 4D 18 48 89 48  .°.¹....?H.M.H.H
  0000000010205780: 28 48 8B 45 F8 C9 C3 55 48 8B EC 48 83 EC 10 48  (H.EøÉ?UH.?H.?.H
  0000000010205790: 89 4D 10 48 89 55 18 4C 89 45 20 48 C7 45 F8 00  .M.H.U.L.E HÇEø.
  00000000102057A0: 00 00 00 48 83 EC 20 48 8B 0D A2 CD DF FF BA 08  ...H.? H..¢Íßÿº.
  00000000102057B0: 00 00 00 41 B8 58 00 00 00 FF 15 B9 CD DF FF 48  ...A¸X...ÿ.¹ÍßÿH
  00000000102057C0: 83 C4 20 48 83 C0 10 48 8D 0D C2 C9 DF FF 48 89  .Ä H.À.H..ÂÉßÿH.
  00000000102057D0: 48 F8 48 89 45 F8 48 8B 45 F8 48 85 C0 0F 84 05  HøH.EøH.EøH.À...
  00000000102057E0: 00 00 00 E9 08 00 00 00 B0 04 B9 20 19 00 00 CC  ...é....°.¹ ...?
  00000000102057F0: B9 03 00 00 00 48 89 08 48 8B 45 F8 48 85 C0 0F  ¹....H..H.EøH.À.
  0000000010205800: 84 05 00 00 00 E9 08 00 00 00 B0 04 B9 33 19 00  .....é....°.¹3..
  0000000010205810: 00 CC 48 8B 4D 18 48 89 48 08 48 8B 45 F8 48 85  .?H.M.H.H.H.EøH.
  0000000010205820: C0 0F 84 05 00 00 00 E9 08 00 00 00 B0 04 B9 41  À......é....°.¹A
  0000000010205830: 19 00 00 CC 48 8B 0D 4D F6 FF FF 48 89 48 38 48  ...?H..MöÿÿH.H8H
  0000000010205840: 8B 45 F8 48 85 C0 0F 84 05 00 00 00 E9 08 00 00  .EøH.À......é...
  0000000010205850: 00 B0 04 B9 54 19 00 00 CC 0F B6 4D 20 88 48 41  .°.¹T...?.¶M .HA
  0000000010205860: 48 8B 45 10 48 85 C0 0F 84 05 00 00 00 E9 08 00  H.E.H.À......é..
  0000000010205870: 00 00 B0 04 B9 6F 19 00 00 CC 48 83 40 58 01 48  ..°.¹o...?H.@X.H
  0000000010205880: 8B 45 F8 48 85 C0 0F 84 05 00 00 00 E9 08 00 00  .EøH.À......é...
  0000000010205890: 00 B0 04 B9 7B 19 00 00 CC 0F B6 4D 20 85 C9 0F  .°.¹{...?.¶M .É.
  00000000102058A0: 85 36 00 00 00 48 8B 4D 18 48 85 C9 0F 84 05 00  .6...H.M.H.É....
  00000000102058B0: 00 00 E9 08 00 00 00 B0 04 B9 92 19 00 00 CC 48  ..é....°.¹....?H
  00000000102058C0: 8B 09 BA 80 01 00 00 48 0F A3 CA 0F 83 0A 00 00  ..º....H.£Ê.....
  00000000102058D0: 00 B9 01 00 00 00 E9 02 00 00 00 31 C9 88 48 40  .¹....é....1É.H@
  00000000102058E0: 48 8B 45 F8 C9 C3 55 48 8B EC 48 83 EC 10 48 89  H.EøÉ?UH.?H.?.H.
  00000000102058F0: 4D 10 48 89 55 18 48 C7 45 F8 00 00 00 00 48 83  M.H.U.HÇEø....H.
  0000000010205900: EC 20 48 8B 0D 47 CC DF FF BA 08 00 00 00 41 B8  ? H..G?ßÿº....A¸
  0000000010205910: 40 00 00 00 FF 15 5E CC DF FF 48 83 C4 20 48 83  @...ÿ.^?ßÿH.Ä H.
  0000000010205920: C0 10 48 8D 0D C7 C7 DF FF 48 89 48 F8 48 89 45  À.H..ÇÇßÿH.HøH.E
  0000000010205930: F8 48 8B 45 F8 48 85 C0 0F 84 05 00 00 00 E9 08  øH.EøH.À......é.
  0000000010205940: 00 00 00 B0 04 B9 1A 1A 00 00 CC B9 06 00 00 00  ...°.¹....?¹....
  0000000010205950: 48 89 08 48 8B 45 F8 48 85 C0 0F 84 05 00 00 00  H..H.EøH.À......
  0000000010205960: E9 08 00 00 00 B0 04 B9 31 1A 00 00 CC 48 8B 4D  é....°.¹1...?H.M
  0000000010205970: 18 48 89 48 08 48 8B 45 10 48 85 C0 0F 84 05 00  .H.H.H.E.H.À....
  0000000010205980: 00 00 E9 08 00 00 00 B0 04 B9 41 1A 00 00 CC 48  ..é....°.¹A...?H
  0000000010205990: 8B 4D 10 48 85 C9 0F 84 05 00 00 00 E9 08 00 00  .M.H.É......é...
  00000000102059A0: 00 B0 04 B9 4D 1A 00 00 CC 48 8B 49 18 48 8B 55  .°.¹M...?H.I.H.U
  00000000102059B0: 18 48 85 D2 0F 84 05 00 00 00 E9 08 00 00 00 B0  .H.?......é....°
  00000000102059C0: 04 B9 57 1A 00 00 CC 48 8B 52 18 48 03 CA 48 89  .¹W...?H.R.H.ÊH.
  00000000102059D0: 48 18 48 8B 45 F8 C9 C3 55 48 8B EC 48 83 EC 20  H.H.EøÉ?UH.?H.? 
  00000000102059E0: 48 89 4D 10 48 89 55 18 48 C7 45 F8 00 00 00 00  H.M.H.U.HÇEø....
  00000000102059F0: 48 C7 45 E8 00 00 00 00 48 83 EC 20 48 8B 0D 4D  HÇEè....H.? H..M
  0000000010205A00: CB DF FF BA 08 00 00 00 41 B8 68 00 00 00 FF 15  Ëßÿº....A¸h...ÿ.
  0000000010205A10: 64 CB DF FF 48 83 C4 20 48 83 C0 10 48 8D 0D 15  dËßÿH.Ä H.À.H...
  0000000010205A20: C8 DF FF 48 89 48 F8 48 89 45 F8 48 8B 45 F8 48  ÈßÿH.HøH.EøH.EøH
  0000000010205A30: 85 C0 0F 84 05 00 00 00 E9 08 00 00 00 B0 04 B9  .À......é....°.¹
  0000000010205A40: E7 1A 00 00 CC B9 03 00 00 00 48 89 08 48 8B 45  ç...?¹....H..H.E
  0000000010205A50: F8 48 85 C0 0F 84 05 00 00 00 E9 08 00 00 00 B0  øH.À......é....°
  0000000010205A60: 04 B9 F8 1A 00 00 CC B9 01 00 00 00 88 48 40 48  .¹ø...?¹.....H@H
  0000000010205A70: 8B 45 F8 48 85 C0 0F 84 05 00 00 00 E9 08 00 00  .EøH.À......é...
  0000000010205A80: 00 B0 04 B9 0B 1B 00 00 CC 48 8B 0D 30 F5 FF FF  .°.¹....?H..0?ÿÿ
  0000000010205A90: 48 89 48 08 48 8B 45 F8 48 85 C0 0F 84 05 00 00  H.H.H.EøH.À.....
  0000000010205AA0: 00 E9 08 00 00 00 B0 04 B9 1E 1B 00 00 CC 48 8B  .é....°.¹....?H.
  0000000010205AB0: 0D D3 F3 FF FF 48 89 48 38 48 8B 45 F8 48 85 C0  .ÓóÿÿH.H8H.EøH.À
  0000000010205AC0: 0F 84 05 00 00 00 E9 08 00 00 00 B0 04 B9 2F 1B  ......é....°.¹/.
  0000000010205AD0: 00 00 CC 48 8B 4D 18 48 89 48 50 48 8B 45 F8 48  ..?H.M.H.HPH.EøH
  0000000010205AE0: 85 C0 0F 84 05 00 00 00 E9 08 00 00 00 B0 04 B9  .À......é....°.¹
  0000000010205AF0: 43 1B 00 00 CC 48 8B 40 38 48 83 F8 FF 0F 8C D2  C...?H.@8H.øÿ..?
  0000000010205B00: 01 00 00 48 8B 05 9E CA DF FF 48 8B 4D 18 48 03  ...H...ÊßÿH.M.H.
  0000000010205B10: C1 48 81 F8 00 00 10 00 0F 8C 47 00 00 00 48 83  ÁH.ø......G...H.
  0000000010205B20: EC 20 48 8D 0D C5 C4 DF FF BA 11 00 00 00 FF 15  ? H..ÅÄßÿº....ÿ.
  0000000010205B30: DC C4 DF FF 48 83 C4 20 48 8B 45 F8 48 85 C0 0F  ÜÄßÿH.Ä H.EøH.À.
  0000000010205B40: 84 05 00 00 00 E9 08 00 00 00 B0 04 B9 BC 1B 00  .....é....°.¹¼..
  0000000010205B50: 00 CC 48 B9 FF FF FF FF FF FF FF FF 48 89 48 48  .?H¹ÿÿÿÿÿÿÿÿH.HH
  0000000010205B60: E9 6B 01 00 00 48 8B 45 F8 48 85 C0 0F 84 05 00  ék...H.EøH.À....
  0000000010205B70: 00 00 E9 08 00 00 00 B0 04 B9 D3 1B 00 00 CC 48  ..é....°.¹Ó...?H
  0000000010205B80: 8B 0D 22 CA DF FF 48 89 48 48 48 8B 05 17 CA DF  .."ÊßÿH.HHH...Êß
  0000000010205B90: FF 48 8B 4D 18 48 03 C1 48 89 05 09 CA DF FF 31  ÿH.M.H.ÁH...Êßÿ1
  0000000010205BA0: C0 48 89 45 F0 48 8B 45 18 48 83 E8 01 48 89 45  ÀH.E?H.E.H.è.H.E
  0000000010205BB0: E0 48 8B 45 F0 48 3B 45 E0 0F 8F 86 00 00 00 48  àH.E?H;Eà......H
  0000000010205BC0: 8B 45 F8 48 85 C0 0F 84 05 00 00 00 E9 08 00 00  .EøH.À......é...
  0000000010205BD0: 00 B0 04 B9 2F 1C 00 00 CC 48 8B 40 48 48 8B 4D  .°.¹/...?H.@HH.M
  0000000010205BE0: F0 48 03 C1 48 81 F8 00 00 10 00 0F 83 05 00 00  ?H.ÁH.ø.........
  0000000010205BF0: 00 E9 08 00 00 00 B0 01 B9 38 1C 00 00 CC 48 C1  .é....°.¹8...?HÁ
  0000000010205C00: E0 01 48 8D 0D A7 C9 DF FF 48 03 C1 48 8B 4D F0  à.H..§ÉßÿH.ÁH.M?
  0000000010205C10: 48 81 F9 00 01 00 00 0F 83 05 00 00 00 E9 08 00  H.ù..........é..
  0000000010205C20: 00 00 B0 01 B9 42 1C 00 00 CC 48 C1 E1 01 48 8B  ..°.¹B...?HÁá.H.
  0000000010205C30: 55 10 48 03 CA 0F B7 09 66 89 08 48 83 45 F0 01  U.H.Ê.·.f..H.E?.
  0000000010205C40: E9 6C FF FF FF 48 83 EC 20 48 8B 0D 00 C9 DF FF  élÿÿÿH.? H...Éßÿ
  0000000010205C50: BA 08 00 00 00 41 B8 A8 00 00 00 FF 15 17 C9 DF  º....A¸¨...ÿ..Éß
  0000000010205C60: FF 48 83 C4 20 48 83 C0 10 48 8D 0D 00 C8 DF FF  ÿH.Ä H.À.H...Èßÿ
  0000000010205C70: 48 89 48 F8 48 89 45 E8 48 8B 45 E8 48 85 C0 0F  H.HøH.EèH.EèH.À.
  0000000010205C80: 84 05 00 00 00 E9 08 00 00 00 B0 04 B9 56 1C 00  .....é....°.¹V..
  0000000010205C90: 00 CC 48 8B 4D F8 48 89 88 88 00 00 00 48 8B 45  .?H.MøH......H.E
  0000000010205CA0: E8 48 85 C0 0F 84 05 00 00 00 E9 08 00 00 00 B0  èH.À......é....°
  0000000010205CB0: 04 B9 62 1C 00 00 CC 48 8B 0D 22 F1 FF FF 48 89  .¹b...?H.."ñÿÿH.
  0000000010205CC0: 88 90 00 00 00 48 8B 45 E8 48 89 05 10 F1 FF FF  .....H.EèH...ñÿÿ
  0000000010205CD0: E9 28 00 00 00 48 8B 45 F8 48 85 C0 0F 84 05 00  é(...H.EøH.À....
  0000000010205CE0: 00 00 E9 08 00 00 00 B0 04 B9 90 1C 00 00 CC 48  ..é....°.¹....?H
  0000000010205CF0: B9 FF FF FF FF FF FF FF FF 48 89 48 48 48 8B 45  ¹ÿÿÿÿÿÿÿÿH.HHH.E
  0000000010205D00: F8 C9 C3 55 48 8B EC 48 83 EC 10 48 C7 45 F8 00  øÉ?UH.?H.?.HÇEø.
  0000000010205D10: 00 00 00 48 83 EC 20 48 8B 0D 32 C8 DF FF BA 08  ...H.? H..2Èßÿº.
  0000000010205D20: 00 00 00 41 B8 70 00 00 00 FF 15 49 C8 DF FF 48  ...A¸p...ÿ.IÈßÿH
  0000000010205D30: 83 C4 20 48 83 C0 10 48 8D 0D A2 C4 DF FF 48 89  .Ä H.À.H..¢ÄßÿH.
  0000000010205D40: 48 F8 48 89 45 F8 48 8B 45 F8 48 85 C0 0F 84 05  HøH.EøH.EøH.À...
  0000000010205D50: 00 00 00 E9 08 00 00 00 B0 04 B9 FD 1C 00 00 CC  ...é....°.¹?...?
  0000000010205D60: B9 05 00 00 00 48 89 08 48 8B 45 F8 48 85 C0 0F  ¹....H..H.EøH.À.
  0000000010205D70: 84 05 00 00 00 E9 08 00 00 00 B0 04 B9 0F 1D 00  .....é....°.¹...
  0000000010205D80: 00 CC 48 8B 0D FF F0 FF FF 48 89 48 38 48 8B 45  .?H..ÿ?ÿÿH.H8H.E
  0000000010205D90: F8 C9 C3 55 48 8B EC 48 83 EC 10 48 89 4D 10 48  øÉ?UH.?H.?.H.M.H
  0000000010205DA0: C7 45 F8 00 00 00 00 48 83 EC 20 48 8B 0D 9E C7  ÇEø....H.? H...Ç
  0000000010205DB0: DF FF BA 08 00 00 00 41 B8 38 00 00 00 FF 15 B5  ßÿº....A¸8...ÿ.µ
  0000000010205DC0: C7 DF FF 48 83 C4 20 48 83 C0 10 48 8D 0D EE C6  ÇßÿH.Ä H.À.H..îÆ
  0000000010205DD0: DF FF 48 89 48 F8 48 89 45 F8 48 8B 45 F8 48 85  ßÿH.HøH.EøH.EøH.
  0000000010205DE0: C0 0F 84 05 00 00 00 E9 08 00 00 00 B0 04 B9 87  À......é....°.¹.
  0000000010205DF0: 1D 00 00 CC B9 01 00 00 00 48 89 08 48 8B 45 F8  ...?¹....H..H.Eø
  0000000010205E00: 48 85 C0 0F 84 05 00 00 00 E9 08 00 00 00 B0 04  H.À......é....°.
  0000000010205E10: B9 9B 1D 00 00 CC 48 8B 4D 10 48 89 48 08 48 8B  ¹....?H.M.H.H.H.
  0000000010205E20: 45 10 48 85 C0 0F 84 05 00 00 00 E9 08 00 00 00  E.H.À......é....
  0000000010205E30: B0 04 B9 AD 1D 00 00 CC 48 8B 40 60 48 85 C0 0F  °.¹­...?H.@`H.À.
  0000000010205E40: 85 22 00 00 00 48 8B 45 10 48 85 C0 0F 84 05 00  ."...H.E.H.À....
  0000000010205E50: 00 00 E9 08 00 00 00 B0 04 B9 BF 1D 00 00 CC 48  ..é....°.¹¿...?H
  0000000010205E60: 8B 4D F8 48 89 48 60 48 8B 45 F8 C9 C3 55 48 8B  .MøH.H`H.EøÉ?UH.
  0000000010205E70: EC 48 83 EC 10 48 89 4D 10 48 89 55 18 48 C7 45  ?H.?.H.M.H.U.HÇE
  0000000010205E80: F8 00 00 00 00 48 83 EC 20 48 8B 0D C0 C6 DF FF  ø....H.? H..ÀÆßÿ
  0000000010205E90: BA 08 00 00 00 41 B8 40 00 00 00 FF 15 D7 C6 DF  º....A¸@...ÿ.×Æß
  0000000010205EA0: FF 48 83 C4 20 48 83 C0 10 48 8D 0D 30 C4 DF FF  ÿH.Ä H.À.H..0Äßÿ
  0000000010205EB0: 48 89 48 F8 48 89 45 F8 48 8B 45 F8 48 85 C0 0F  H.HøH.EøH.EøH.À.
  0000000010205EC0: 84 05 00 00 00 E9 08 00 00 00 B0 04 B9 3D 1E 00  .....é....°.¹=..
  0000000010205ED0: 00 CC 48 8B 4D 18 48 89 08 48 8B 45 F8 48 85 C0  .?H.M.H..H.EøH.À
  0000000010205EE0: 0F 84 05 00 00 00 E9 08 00 00 00 B0 04 B9 4F 1E  ......é....°.¹O.
  0000000010205EF0: 00 00 CC 48 8B 4D 10 48 89 48 28 48 8B 45 F8 48  ..?H.M.H.H(H.EøH
  0000000010205F00: 85 C0 0F 84 05 00 00 00 E9 08 00 00 00 B0 04 B9  .À......é....°.¹
  0000000010205F10: 5B 1E 00 00 CC 48 8B 0D 9C F0 FF FF 48 89 48 08  [...?H...?ÿÿH.H.
  0000000010205F20: 48 8B 45 F8 C9 C3 55 48 8B EC 48 89 4D 10 48 89  H.EøÉ?UH.?H.M.H.
  0000000010205F30: 55 18 48 83 EC 20 48 8B 0D 13 C6 DF FF BA 08 00  U.H.? H...Æßÿº..
  0000000010205F40: 00 00 41 B8 80 00 00 00 FF 15 2A C6 DF FF 48 83  ..A¸....ÿ.*ÆßÿH.
  0000000010205F50: C4 20 48 83 C0 10 48 8D 0D 6B C4 DF FF 48 89 48  Ä H.À.H..kÄßÿH.H
  0000000010205F60: F8 48 8B 4D 10 48 89 01 48 8B 45 10 48 8B 00 48  øH.M.H..H.E.H..H
  0000000010205F70: 85 C0 0F 84 05 00 00 00 E9 08 00 00 00 B0 04 B9  .À......é....°.¹
  0000000010205F80: 77 1F 00 00 CC 48 8B 4D 18 48 89 08 48 8B 45 10  w...?H.M.H..H.E.
  0000000010205F90: 48 8B 00 48 85 C0 0F 84 05 00 00 00 E9 08 00 00  H..H.À......é...
  0000000010205FA0: 00 B0 04 B9 89 1F 00 00 CC 31 C9 48 89 48 18 48  .°.¹....?1ÉH.H.H
  0000000010205FB0: 8B 45 10 48 8B 00 48 85 C0 0F 84 05 00 00 00 E9  .E.H..H.À......é
  0000000010205FC0: 08 00 00 00 B0 04 B9 9A 1F 00 00 CC 31 C9 48 89  ....°.¹....?1ÉH.
  0000000010205FD0: 48 08 48 8B 45 10 48 8B 00 48 85 C0 0F 84 05 00  H.H.E.H..H.À....
  0000000010205FE0: 00 00 E9 08 00 00 00 B0 04 B9 A9 1F 00 00 CC 31  ..é....°.¹©...?1
  0000000010205FF0: C9 48 89 48 10 48 8B 45 10 48 8B 00 48 85 C0 0F  ÉH.H.H.E.H..H.À.
  0000000010206000: 84 05 00 00 00 E9 08 00 00 00 B0 04 B9 BB 1F 00  .....é....°.¹»..
  0000000010206010: 00 CC 48 8B 0D 6F EE FF FF 48 89 48 30 48 8B 45  .?H..oîÿÿH.H0H.E
  0000000010206020: 10 48 8B 00 48 85 C0 0F 84 05 00 00 00 E9 08 00  .H..H.À......é..
  0000000010206030: 00 00 B0 04 B9 CE 1F 00 00 CC 48 B9 FF FF FF FF  ..°.¹Î...?H¹ÿÿÿÿ
  0000000010206040: FF FF FF FF 48 89 48 68 C9 C3 55 48 8B EC 48 83  ÿÿÿÿH.HhÉ?UH.?H.
  0000000010206050: EC 10 48 89 4D 10 48 C7 45 F8 00 00 00 00 48 83  ?.H.M.HÇEø....H.
  0000000010206060: EC 20 48 8D 4D F8 BA 07 00 00 00 E8 B6 FE FF FF  ? H.Møº....è¶?ÿÿ
  0000000010206070: 48 83 C4 20 48 8B 45 F8 48 85 C0 0F 84 05 00 00  H.Ä H.EøH.À.....
  0000000010206080: 00 E9 08 00 00 00 B0 04 B9 43 20 00 00 CC 48 8B  .é....°.¹C ..?H.
  0000000010206090: 4D 10 48 89 48 20 48 8B 45 F8 C9 C3 55 48 8B EC  M.H.H H.EøÉ?UH.?
  00000000102060A0: 48 89 4D 10 48 8B 45 10 48 85 C0 0F 84 05 00 00  H.M.H.E.H.À.....
  00000000102060B0: 00 E9 08 00 00 00 B0 04 B9 A0 20 00 00 CC 48 8B  .é....°.¹. ..?H.
  00000000102060C0: 40 40 48 85 C0 0F 84 05 00 00 00 E9 08 00 00 00  @@H.À......é....
  00000000102060D0: B0 04 B9 A5 20 00 00 CC 48 8B 00 48 83 F8 07 0F  °.¹¥ ..?H..H.ø..
  00000000102060E0: 85 11 00 00 00 48 83 EC 20 48 8B 4D 10 E8 AA FF  .....H.? H.M.èªÿ
  00000000102060F0: FF FF 48 83 C4 20 48 8B 45 10 48 85 C0 0F 84 05  ÿÿH.Ä H.E.H.À...
  0000000010206100: 00 00 00 E9 08 00 00 00 B0 04 B9 D4 20 00 00 CC  ...é....°.¹Ô ..?
  0000000010206110: 48 8B 4D 10 48 85 C9 0F 84 05 00 00 00 E9 08 00  H.M.H.É......é..
  0000000010206120: 00 00 B0 04 B9 DF 20 00 00 CC 48 8B 49 20 48 8B  ..°.¹ß ..?H.I H.
  0000000010206130: 55 10 48 85 D2 0F 84 05 00 00 00 E9 08 00 00 00  U.H.?......é....
  0000000010206140: B0 04 B9 E8 20 00 00 CC 48 8B 52 40 48 85 D2 0F  °.¹è ..?H.R@H.?.
  0000000010206150: 84 05 00 00 00 E9 08 00 00 00 B0 04 B9 ED 20 00  .....é....°.¹í .
  0000000010206160: 00 CC 48 8B 52 18 48 0F AF CA 48 89 48 18 C9 C3  .?H.R.H.¯ÊH.H.É?
  0000000010206170: 55 48 8B EC 48 83 EC 10 48 C7 45 F8 00 00 00 00  UH.?H.?.HÇEø....
  0000000010206180: 48 C7 45 F0 00 00 00 00 48 83 EC 20 48 8D 4D F8  HÇE?....H.? H.Mø
  0000000010206190: BA 08 00 00 00 E8 8C FD FF FF 48 83 C4 20 48 8B  º....è.?ÿÿH.Ä H.
  00000000102061A0: 45 F8 48 85 C0 0F 84 05 00 00 00 E9 08 00 00 00  EøH.À......é....
  00000000102061B0: B0 04 B9 63 21 00 00 CC 31 C9 48 89 48 20 48 8B  °.¹c!..?1ÉH.H H.
  00000000102061C0: 05 C3 EC FF FF 48 85 C0 0F 8C 89 00 00 00 48 83  .??ÿÿH.À......H.
  00000000102061D0: EC 20 48 8B 0D 77 C3 DF FF BA 08 00 00 00 41 B8  ? H..w?ßÿº....A¸
  00000000102061E0: 28 00 00 00 FF 15 8E C3 DF FF 48 83 C4 20 48 83  (...ÿ..?ßÿH.Ä H.
  00000000102061F0: C0 10 48 8D 0D 57 BE DF FF 48 89 48 F8 48 89 45  À.H..W¾ßÿH.HøH.E
  0000000010206200: F0 48 8B 45 F0 48 85 C0 0F 84 05 00 00 00 E9 08  ?H.E?H.À......é.
  0000000010206210: 00 00 00 B0 04 B9 90 21 00 00 CC 48 8B 4D F8 48  ...°.¹.!..?H.MøH
  0000000010206220: 89 08 48 8B 45 F0 48 85 C0 0F 84 05 00 00 00 E9  ..H.E?H.À......é
  0000000010206230: 08 00 00 00 B0 04 B9 9E 21 00 00 CC 48 8B 0D 95  ....°.¹.!..?H...
  0000000010206240: EB FF FF 48 89 48 10 48 8B 45 F0 48 89 05 86 EB  ëÿÿH.H.H.E?H...ë
  0000000010206250: FF FF E9 19 00 00 00 48 8B 05 2A EC FF FF 48 83  ÿÿé....H..*?ÿÿH.
  0000000010206260: F8 FF 0F 85 08 00 00 00 B0 03 B9 E2 21 00 00 CC  øÿ......°.¹â!..?
  0000000010206270: 48 8B 45 F8 C9 C3 55 48 8B EC 48 89 4D 10 48 8B  H.EøÉ?UH.?H.M.H.
  0000000010206280: 45 10 48 85 C0 0F 84 05 00 00 00 E9 08 00 00 00  E.H.À......é....
  0000000010206290: B0 04 B9 45 22 00 00 CC 48 8B 40 40 48 85 C0 0F  °.¹E"..?H.@@H.À.
  00000000102062A0: 84 B0 00 00 00 48 8B 45 10 48 85 C0 0F 84 05 00  .°...H.E.H.À....
  00000000102062B0: 00 00 E9 08 00 00 00 B0 04 B9 60 22 00 00 CC 48  ..é....°.¹`"..?H
  00000000102062C0: 8B 4D 10 48 85 C9 0F 84 05 00 00 00 E9 08 00 00  .M.H.É......é...
  00000000102062D0: 00 B0 04 B9 6F 22 00 00 CC 48 8B 49 40 48 85 C9  .°.¹o"..?H.I@H.É
  00000000102062E0: 0F 84 05 00 00 00 E9 08 00 00 00 B0 04 B9 74 22  ......é....°.¹t"
  00000000102062F0: 00 00 CC 48 8B 49 20 48 83 C1 01 48 89 48 20 48  ..?H.I H.Á.H.H H
  0000000010206300: 8B 45 10 48 85 C0 0F 84 05 00 00 00 E9 08 00 00  .E.H.À......é...
  0000000010206310: 00 B0 04 B9 88 22 00 00 CC 48 8B 4D 10 48 85 C9  .°.¹."..?H.M.H.É
  0000000010206320: 0F 84 05 00 00 00 E9 08 00 00 00 B0 04 B9 98 22  ......é....°.¹."
  0000000010206330: 00 00 CC 48 8B 49 40 48 85 C9 0F 84 05 00 00 00  ..?H.I@H.É......
  0000000010206340: E9 08 00 00 00 B0 04 B9 9D 22 00 00 CC 48 8B 49  é....°.¹."..?H.I
  0000000010206350: 18 48 89 48 18 C9 C3 55 48 8B EC 48 83 EC 10 48  .H.H.É?UH.?H.?.H
  0000000010206360: C7 45 F8 00 00 00 00 48 83 EC 20 48 8D 4D F8 BA  ÇEø....H.? H.Møº
  0000000010206370: 05 00 00 00 E8 AD FB FF FF 48 83 C4 20 48 8B 45  ....è­ûÿÿH.Ä H.E
  0000000010206380: F8 48 85 C0 0F 84 05 00 00 00 E9 08 00 00 00 B0  øH.À......é....°
  0000000010206390: 04 B9 0C 23 00 00 CC B9 01 00 00 00 48 89 48 18  .¹.#..?¹....H.H.
  00000000102063A0: 48 8B 45 F8 C9 C3 55 48 8B EC 48 83 EC 10 48 C7  H.EøÉ?UH.?H.?.HÇ
  00000000102063B0: 45 F8 00 00 00 00 48 83 EC 20 48 8D 4D F8 BA 06  Eø....H.? H.Møº.
  00000000102063C0: 00 00 00 E8 5E FB FF FF 48 83 C4 20 48 8B 45 F8  ...è^ûÿÿH.Ä H.Eø
  00000000102063D0: 48 85 C0 0F 84 05 00 00 00 E9 08 00 00 00 B0 04  H.À......é....°.
  00000000102063E0: B9 87 23 00 00 CC 31 C9 48 89 48 58 48 8B 45 F8  ¹.#..?1ÉH.HXH.Eø
  00000000102063F0: C9 C3 55 48 8B EC 48 89 4D 10 48 89 55 18 48 83  É?UH.?H.M.H.U.H.
  0000000010206400: EC 20 48 8B 4D 10 48 8B 55 18 E8 17 FB FF FF 48  ? H.M.H.U.è.ûÿÿH
  0000000010206410: 83 C4 20 48 83 05 A5 E9 FF FF 01 48 8B 45 10 48  .Ä H..¥éÿÿ.H.E.H
  0000000010206420: 8B 00 48 85 C0 0F 84 05 00 00 00 E9 08 00 00 00  ..H.À......é....
  0000000010206430: B0 04 B9 20 24 00 00 CC 48 8B 0D 81 E9 FF FF 48  °.¹ $..?H...éÿÿH
  0000000010206440: 89 48 68 48 8B 05 76 E9 FF FF 48 83 F8 20 0F 83  .HhH..véÿÿH.ø ..
  0000000010206450: 05 00 00 00 E9 08 00 00 00 B0 01 B9 4E 24 00 00  ....é....°.¹N$..
  0000000010206460: CC 48 C1 E0 03 48 8D 0D 4C EA FF FF 48 03 C1 48  ?HÁà.H..LêÿÿH.ÁH
  0000000010206470: 8B 4D 10 48 8B 09 48 89 08 C9 C3 55 48 8B EC 48  .M.H..H..É?UH.?H
  0000000010206480: 83 EC 10 48 C7 45 F8 00 00 00 00 48 83 EC 20 48  .?.HÇEø....H.? H
  0000000010206490: 8B 0D BA C0 DF FF BA 08 00 00 00 41 B8 20 00 00  ..ºÀßÿº....A¸ ..
  00000000102064A0: 00 FF 15 D1 C0 DF FF 48 83 C4 20 48 83 C0 10 48  .ÿ.ÑÀßÿH.Ä H.À.H
  00000000102064B0: 8D 0D 7A BE DF FF 48 89 48 F8 48 89 45 F8 48 8B  ..z¾ßÿH.HøH.EøH.
  00000000102064C0: 45 F8 48 85 C0 0F 84 05 00 00 00 E9 08 00 00 00  EøH.À......é....
  00000000102064D0: B0 04 B9 54 25 00 00 CC 48 8B 0D C1 E9 FF FF 48  °.¹T%..?H..ÁéÿÿH
  00000000102064E0: 89 48 08 48 8B 45 F8 48 89 05 B2 E9 FF FF C9 C3  .H.H.EøH..²éÿÿÉ?
  00000000102064F0: 55 48 8B EC 48 8B 05 A5 E9 FF FF 48 85 C0 0F 84  UH.?H..¥éÿÿH.À..
  0000000010206500: 05 00 00 00 E9 08 00 00 00 B0 04 B9 BB 25 00 00  ....é....°.¹»%..
  0000000010206510: CC 48 8B 40 08 48 89 05 84 E9 FF FF C9 C3 55 48  ?H.@.H...éÿÿÉ?UH
  0000000010206520: 8B EC 48 89 4D 10 48 8B 05 5B E9 FF FF 48 8B 4D  .?H.M.H..[éÿÿH.M
  0000000010206530: 10 48 03 C1 48 89 05 4D E9 FF FF C9 C3 55 48 8B  .H.ÁH..MéÿÿÉ?UH.
  0000000010206540: EC 48 83 EC 10 56 57 48 89 4D 10 48 89 55 18 48  ?H.?.VWH.M.H.U.H
  0000000010206550: C7 45 F8 00 00 00 00 48 83 EC 20 48 8B 0D EE BF  ÇEø....H.? H..î¿
  0000000010206560: DF FF BA 08 00 00 00 41 B8 A8 00 00 00 FF 15 05  ßÿº....A¸¨...ÿ..
  0000000010206570: C0 DF FF 48 83 C4 20 48 83 C0 10 48 8D 0D EE BE  ÀßÿH.Ä H.À.H..î¾
  0000000010206580: DF FF 48 89 48 F8 48 89 45 F8 48 8B 45 F8 48 85  ßÿH.HøH.EøH.EøH.
  0000000010206590: C0 0F 84 05 00 00 00 E9 08 00 00 00 B0 04 B9 76  À......é....°.¹v
  00000000102065A0: 26 00 00 CC 48 8B F8 48 83 C7 02 48 8B 75 18 B9  &..?H.øH.Ç.H.u.¹
  00000000102065B0: 10 00 00 00 F3 48 A5 48 8B 45 F8 48 85 C0 0F 84  ....óH¥H.EøH.À..
  00000000102065C0: 05 00 00 00 E9 08 00 00 00 B0 04 B9 8A 26 00 00  ....é....°.¹.&..
  00000000102065D0: CC 31 C9 88 08 48 8B 45 F8 48 85 C0 0F 84 05 00  ?1É..H.EøH.À....
  00000000102065E0: 00 00 E9 08 00 00 00 B0 04 B9 A3 26 00 00 CC 48  ..é....°.¹£&..?H
  00000000102065F0: 8B 4D 10 48 89 88 88 00 00 00 48 8B 45 10 48 85  .M.H......H.E.H.
  0000000010206600: C0 0F 84 05 00 00 00 E9 08 00 00 00 B0 04 B9 AF  À......é....°.¹¯
  0000000010206610: 26 00 00 CC 48 8B 4D F8 48 89 48 10 48 8B 45 F8  &..?H.MøH.H.H.Eø
  0000000010206620: 48 85 C0 0F 84 05 00 00 00 E9 08 00 00 00 B0 04  H.À......é....°.
  0000000010206630: B9 C7 26 00 00 CC 48 8B 0D 63 E8 FF FF 48 85 C9  ¹Ç&..?H..cèÿÿH.É
  0000000010206640: 0F 84 05 00 00 00 E9 08 00 00 00 B0 04 B9 D8 26  ......é....°.¹Ø&
  0000000010206650: 00 00 CC 48 8B 09 48 89 88 90 00 00 00 48 8B 05  ..?H..H......H..
  0000000010206660: 3C E8 FF FF 48 85 C0 0F 84 05 00 00 00 E9 08 00  <èÿÿH.À......é..
  0000000010206670: 00 00 B0 04 B9 E8 26 00 00 CC 48 8B 4D F8 48 89  ..°.¹è&..?H.MøH.
  0000000010206680: 08 5F 5E C9 C3 55 48 8B EC 48 89 4D 10 48 8B 45  ._^É?UH.?H.M.H.E
  0000000010206690: 10 48 F7 D8 48 83 E8 02 48 81 F8 00 01 00 00 0F  .H÷ØH.è.H.ø.....
  00000000102066A0: 83 05 00 00 00 E9 08 00 00 00 B0 01 B9 09 28 00  .....é....°.¹.(.
  00000000102066B0: 00 CC 48 C1 E0 03 48 8D 0D F3 BE FF FF 48 03 C1  .?HÁà.H..ó¾ÿÿH.Á
  00000000102066C0: 48 8B 00 C9 C3 55 48 8B EC 48 83 EC 10 48 89 4D  H..É?UH.?H.?.H.M
  00000000102066D0: 10 48 C7 45 F8 00 00 00 00 48 83 EC 20 48 8B 0D  .HÇEø....H.? H..
  00000000102066E0: 6C BE DF FF BA 08 00 00 00 41 B8 A8 00 00 00 FF  l¾ßÿº....A¸¨...ÿ
  00000000102066F0: 15 83 BE DF FF 48 83 C4 20 48 83 C0 10 48 8D 0D  ..¾ßÿH.Ä H.À.H..
  0000000010206700: 6C BD DF FF 48 89 48 F8 48 8B 4D 10 48 89 01 48  l½ßÿH.HøH.M.H..H
  0000000010206710: 83 05 A1 E6 FF FF 01 48 8B 05 CA E6 FF FF 48 85  ..¡æÿÿ.H..ÊæÿÿH.
  0000000010206720: C0 0F 85 13 00 00 00 48 8B 45 10 48 8B 00 48 89  À......H.E.H..H.
  0000000010206730: 05 B3 E6 FF FF E9 87 00 00 00 48 8B 05 A7 E6 FF  .³æÿÿé....H..§æÿ
  0000000010206740: FF 48 89 45 F8 48 8B 45 F8 48 85 C0 0F 84 05 00  ÿH.EøH.EøH.À....
  0000000010206750: 00 00 E9 08 00 00 00 B0 04 B9 BB 28 00 00 CC 48  ..é....°.¹»(..?H
  0000000010206760: 8B 80 90 00 00 00 48 85 C0 0F 84 2A 00 00 00 48  ......H.À..*...H
  0000000010206770: 8B 45 F8 48 85 C0 0F 84 05 00 00 00 E9 08 00 00  .EøH.À......é...
  0000000010206780: 00 B0 04 B9 D0 28 00 00 CC 48 8B 80 90 00 00 00  .°.¹?(..?H......
  0000000010206790: 48 89 45 F8 E9 AC FF FF FF 48 8B 45 F8 48 85 C0  H.Eøé¬ÿÿÿH.EøH.À
  00000000102067A0: 0F 84 05 00 00 00 E9 08 00 00 00 B0 04 B9 DF 28  ......é....°.¹ß(
  00000000102067B0: 00 00 CC 48 8B 4D 10 48 8B 09 48 89 88 90 00 00  ..?H.M.H..H.....
  00000000102067C0: 00 C9 C3 55 48 8B EC 48 89 4D 10 48 8B 45 10 48  .É?UH.?H.M.H.E.H
  00000000102067D0: 85 C0 0F 84 C1 01 00 00 48 83 EC 20 48 8D 0D ED  .À..Á...H.? H..í
  00000000102067E0: E5 FF FF 48 8B 55 10 48 85 D2 0F 84 05 00 00 00  åÿÿH.U.H.?......
  00000000102067F0: E9 08 00 00 00 B0 04 B9 5B 29 00 00 CC 48 8B 52  é....°.¹[)..?H.R
  0000000010206800: 30 E8 FA E7 FF FF 48 83 C4 20 48 83 EC 20 48 8D  0èúçÿÿH.Ä H.? H.
  0000000010206810: 0D BB E5 FF FF 48 8B 55 10 48 85 D2 0F 84 05 00  .»åÿÿH.U.H.?....
  0000000010206820: 00 00 E9 08 00 00 00 B0 04 B9 77 29 00 00 CC 48  ..é....°.¹w)..?H
  0000000010206830: 8B 52 68 E8 C8 E7 FF FF 48 83 C4 20 48 8B 45 10  .RhèÈçÿÿH.Ä H.E.
  0000000010206840: 48 85 C0 0F 84 05 00 00 00 E9 08 00 00 00 B0 04  H.À......é....°.
  0000000010206850: B9 87 29 00 00 CC 48 8B 40 30 48 83 F8 FF 0F 8D  ¹.)..?H.@0H.øÿ..
  0000000010206860: 8D 00 00 00 48 83 EC 20 48 8D 0D 61 E5 FF FF 48  ....H.? H..aåÿÿH
  0000000010206870: 8B 55 10 48 85 D2 0F 84 05 00 00 00 E9 08 00 00  .U.H.?......é...
  0000000010206880: 00 B0 04 B9 B8 29 00 00 CC 48 8B 52 30 48 F7 DA  .°.¹¸)..?H.R0H÷Ú
  0000000010206890: 48 83 EA 02 48 81 FA 00 01 00 00 0F 83 05 00 00  H.ê.H.ú.........
  00000000102068A0: 00 E9 08 00 00 00 B0 01 B9 BE 29 00 00 CC 48 C1  .é....°.¹¾)..?HÁ
  00000000102068B0: E2 03 4C 8D 05 F7 BC FF FF 49 03 D0 48 8B 12 48  â.L..÷¼ÿÿI.?H..H
  00000000102068C0: 85 D2 0F 84 05 00 00 00 E9 08 00 00 00 B0 04 B9  .?......é....°.¹
  00000000102068D0: BF 29 00 00 CC 48 81 C2 28 02 00 00 41 B8 40 00  ¿)..?H.Â(...A¸@.
  00000000102068E0: 00 00 FF 15 F8 B6 DF FF 48 83 C4 20 E9 A3 00 00  ..ÿ.ø¶ßÿH.Ä é£..
  00000000102068F0: 00 48 8B 45 10 48 85 C0 0F 84 05 00 00 00 E9 08  .H.E.H.À......é.
  0000000010206900: 00 00 00 B0 04 B9 D2 29 00 00 CC 48 8B 40 30 48  ...°.¹?)..?H.@0H
  0000000010206910: 85 C0 0F 85 47 00 00 00 48 8B 45 10 48 85 C0 0F  .À..G...H.E.H.À.
  0000000010206920: 84 05 00 00 00 E9 08 00 00 00 B0 04 B9 EA 29 00  .....é....°.¹ê).
  0000000010206930: 00 CC 48 8B 40 68 48 85 C0 0F 8D 1B 00 00 00 48  .?H.@hH.À......H
  0000000010206940: 8B 05 52 BC DF FF 50 48 83 EC 28 48 8B 4D 10 48  ..R¼ßÿPH.?(H.M.H
  0000000010206950: 8B 44 24 28 FF D0 48 83 C4 30 E9 35 00 00 00 48  .D$(ÿ?H.Ä0é5...H
  0000000010206960: 8B 45 10 48 85 C0 0F 84 05 00 00 00 E9 08 00 00  .E.H.À......é...
  0000000010206970: 00 B0 04 B9 1F 2A 00 00 CC 48 8B 40 30 48 83 F8  .°.¹.*..?H.@0H.ø
  0000000010206980: FF 0F 85 05 00 00 00 E9 08 00 00 00 B0 03 B9 28  ÿ......é....°.¹(
  0000000010206990: 2A 00 00 CC E9 34 00 00 00 48 83 EC 20 48 8D 0D  *..?é4...H.? H..
  00000000102069A0: 2C E4 FF FF 48 BA FF FF FF FF FF FF FF FF E8 4D  ,äÿÿHºÿÿÿÿÿÿÿÿèM
  00000000102069B0: E6 FF FF 48 83 C4 20 48 83 EC 20 48 8D 0D 0E E4  æÿÿH.Ä H.? H...ä
  00000000102069C0: FF FF 31 D2 E8 37 E6 FF FF 48 83 C4 20 C9 C3 55  ÿÿ1?è7æÿÿH.Ä É?U
  00000000102069D0: 48 8B EC 48 83 EC 10 48 89 4D 10 48 C7 45 F8 00  H.?H.?.H.M.HÇEø.
  00000000102069E0: 00 00 00 48 C7 45 F0 00 00 00 00 48 83 EC 20 48  ...HÇE?....H.? H
  00000000102069F0: 8D 0D DA E3 FF FF 48 8B 55 10 48 85 D2 0F 84 05  ..Ú?ÿÿH.U.H.?...
  0000000010206A00: 00 00 00 E9 08 00 00 00 B0 04 B9 D7 2A 00 00 CC  ...é....°.¹×*..?
  0000000010206A10: 48 8B 52 08 E8 E7 E5 FF FF 48 83 C4 20 48 83 EC  H.R.èçåÿÿH.Ä H.?
  0000000010206A20: 20 48 8D 0D A8 E3 FF FF 48 8B 55 10 48 85 D2 0F   H..¨?ÿÿH.U.H.?.
  0000000010206A30: 84 05 00 00 00 E9 08 00 00 00 B0 04 B9 F4 2A 00  .....é....°.¹ô*.
  0000000010206A40: 00 CC 48 8B 52 10 E8 B5 E5 FF FF 48 83 C4 20 48  .?H.R.èµåÿÿH.Ä H
  0000000010206A50: 83 EC 20 48 8D 0D 76 E3 FF FF 48 8B 55 10 48 85  .? H..v?ÿÿH.U.H.
  0000000010206A60: D2 0F 84 05 00 00 00 E9 08 00 00 00 B0 04 B9 14  ?......é....°.¹.
  0000000010206A70: 2B 00 00 CC 48 8B 52 50 E8 83 E5 FF FF 48 83 C4  +..?H.RPè.åÿÿH.Ä
  0000000010206A80: 20 48 83 EC 20 48 8B 4D 10 48 85 C9 0F 84 05 00   H.? H.M.H.É....
  0000000010206A90: 00 00 E9 08 00 00 00 B0 04 B9 30 2B 00 00 CC 48  ..é....°.¹0+..?H
  0000000010206AA0: 8B 49 40 E8 1B FD FF FF 48 83 C4 20 48 8B 45 10  .I@è.?ÿÿH.Ä H.E.
  0000000010206AB0: 48 85 C0 0F 84 05 00 00 00 E9 08 00 00 00 B0 04  H.À......é....°.
  0000000010206AC0: B9 44 2B 00 00 CC 48 8B 40 48 48 89 45 F8 48 8B  ¹D+..?H.@HH.EøH.
  0000000010206AD0: 45 F8 48 85 C0 0F 84 38 01 00 00 48 8B 45 F8 48  EøH.À..8...H.EøH
  0000000010206AE0: 85 C0 0F 84 05 00 00 00 E9 08 00 00 00 B0 04 B9  .À......é....°.¹
  0000000010206AF0: 6A 2B 00 00 CC 48 8B 80 88 00 00 00 48 8B 48 F8  j+..?H......H.Hø
  0000000010206B00: 48 8D 15 89 B6 DF FF 48 39 51 10 0F 85 05 00 00  H...¶ßÿH9Q......
  0000000010206B10: 00 E9 08 00 00 00 B0 02 B9 72 2B 00 00 CC 48 89  .é....°.¹r+..?H.
  0000000010206B20: 45 F0 48 83 EC 20 48 8D 0D A3 E2 FF FF 48 8B 55  E?H.? H..£âÿÿH.U
  0000000010206B30: F0 48 85 D2 0F 84 05 00 00 00 E9 08 00 00 00 B0  ?H.?......é....°
  0000000010206B40: 04 B9 8B 2B 00 00 CC 48 8B 12 E8 B1 E4 FF FF 48  .¹.+..?H..è±äÿÿH
  0000000010206B50: 83 C4 20 48 83 EC 20 48 8D 0D 72 E2 FF FF 48 8B  .Ä H.? H..râÿÿH.
  0000000010206B60: 55 F8 48 85 D2 0F 84 05 00 00 00 E9 08 00 00 00  UøH.?......é....
  0000000010206B70: B0 04 B9 B0 2B 00 00 CC 48 83 C2 02 41 B8 40 00  °.¹°+..?H.Â.A¸@.
  0000000010206B80: 00 00 FF 15 58 B4 DF FF 48 83 C4 20 48 83 EC 20  ..ÿ.X´ßÿH.Ä H.? 
  0000000010206B90: 48 8D 0D 39 E2 FF FF 48 8B 55 F0 48 85 D2 0F 84  H..9âÿÿH.U?H.?..
  0000000010206BA0: 05 00 00 00 E9 08 00 00 00 B0 04 B9 D2 2B 00 00  ....é....°.¹?+..
  0000000010206BB0: CC 0F B6 52 41 E8 46 E4 FF FF 48 83 C4 20 48 83  ?.¶RAèFäÿÿH.Ä H.
  0000000010206BC0: EC 20 48 8B 4D F0 48 85 C9 0F 84 05 00 00 00 E9  ? H.M?H.É......é
  0000000010206BD0: 08 00 00 00 B0 04 B9 EC 2B 00 00 CC 48 8B 49 08  ....°.¹?+..?H.I.
  0000000010206BE0: E8 DE FB FF FF 48 83 C4 20 48 8B 45 F8 48 85 C0  è?ûÿÿH.Ä H.EøH.À
  0000000010206BF0: 0F 84 05 00 00 00 E9 08 00 00 00 B0 04 B9 01 2C  ......é....°.¹.,
  0000000010206C00: 00 00 CC 48 8B 80 90 00 00 00 48 89 45 F8 E9 BB  ..?H......H.Eøé»
  0000000010206C10: FE FF FF 48 83 EC 20 48 8D 0D B2 E1 FF FF BA 01  ?ÿÿH.? H..²áÿÿº.
  0000000010206C20: 00 00 00 E8 D8 E3 FF FF 48 83 C4 20 C9 C3 55 48  ...èØ?ÿÿH.Ä É?UH
  0000000010206C30: 8B EC 48 81 EC 10 02 00 00 48 89 4D 10 48 C7 45  .?H.?....H.M.HÇE
  0000000010206C40: F8 00 00 00 00 48 C7 45 F0 00 00 00 00 48 8B 05  ø....HÇE?....H..
  0000000010206C50: 74 E1 FF FF 48 81 F8 00 04 00 00 0F 8D 32 00 00  táÿÿH.ø......2..
  0000000010206C60: 00 48 8B 45 10 48 85 C0 0F 84 05 00 00 00 E9 08  .H.E.H.À......é.
  0000000010206C70: 00 00 00 B0 04 B9 AB 2C 00 00 CC 48 8B 0D 46 E1  ...°.¹«,..?H..Fá
  0000000010206C80: FF FF 48 89 48 68 48 83 05 3A E1 FF FF 01 E9 1A  ÿÿH.HhH..:áÿÿ.é.
  0000000010206C90: 00 00 00 48 83 EC 20 48 8D 0D 12 B3 DF FF BA 18  ...H.? H...³ßÿº.
  0000000010206CA0: 00 00 00 FF 15 67 B3 DF FF 48 83 C4 20 48 83 EC  ...ÿ.g³ßÿH.Ä H.?
  0000000010206CB0: 20 48 8D 0D 18 E1 FF FF 48 8B 55 10 48 85 D2 0F   H...áÿÿH.U.H.?.
  0000000010206CC0: 84 05 00 00 00 E9 08 00 00 00 B0 04 B9 0C 2D 00  .....é....°.¹.-.
  0000000010206CD0: 00 CC 48 8B 52 68 E8 25 E3 FF FF 48 83 C4 20 48  .?H.Rhè%?ÿÿH.Ä H
  0000000010206CE0: 8B 45 10 48 85 C0 0F 84 05 00 00 00 E9 08 00 00  .E.H.À......é...
  0000000010206CF0: 00 B0 04 B9 1B 2D 00 00 CC 48 8B 00 48 83 F8 08  .°.¹.-..?H..H.ø.
  0000000010206D00: 0F 85 04 01 00 00 48 83 EC 20 48 8D 4D F0 E8 B2  ......H.? H.M?è²
  0000000010206D10: F9 FF FF 48 83 C4 20 48 8B 45 F0 48 85 C0 0F 84  ùÿÿH.Ä H.E?H.À..
  0000000010206D20: 05 00 00 00 E9 08 00 00 00 B0 04 B9 4C 2D 00 00  ....é....°.¹L-..
  0000000010206D30: CC 50 48 83 EC 28 48 8B 0D 13 B8 DF FF BA 08 00  ?PH.?(H...¸ßÿº..
  0000000010206D40: 00 00 41 B8 38 00 00 00 FF 15 2A B8 DF FF 48 83  ..A¸8...ÿ.*¸ßÿH.
  0000000010206D50: C4 28 48 8B C8 58 48 83 C1 10 48 8D 15 5F B7 DF  Ä(H.ÈXH.Á.H.._·ß
  0000000010206D60: FF 48 89 51 F8 48 89 88 88 00 00 00 48 8B 45 F0  ÿH.QøH......H.E?
  0000000010206D70: 48 85 C0 0F 84 05 00 00 00 E9 08 00 00 00 B0 04  H.À......é....°.
  0000000010206D80: B9 58 2D 00 00 CC 48 8B 80 88 00 00 00 48 85 C0  ¹X-..?H......H.À
  0000000010206D90: 0F 84 05 00 00 00 E9 08 00 00 00 B0 04 B9 5C 2D  ......é....°.¹\-
  0000000010206DA0: 00 00 CC B9 01 00 00 00 48 89 08 48 8B 45 F0 48  ..?¹....H..H.E?H
  0000000010206DB0: 85 C0 0F 84 05 00 00 00 E9 08 00 00 00 B0 04 B9  .À......é....°.¹
  0000000010206DC0: 75 2D 00 00 CC 48 8B 80 88 00 00 00 48 85 C0 0F  u-..?H......H.À.
  0000000010206DD0: 84 05 00 00 00 E9 08 00 00 00 B0 04 B9 79 2D 00  .....é....°.¹y-.
  0000000010206DE0: 00 CC 48 8B 4D 10 48 89 48 08 48 83 EC 20 48 8D  .?H.M.H.H.H.? H.
  0000000010206DF0: 0D DB DF FF FF 48 8B 15 BC DF FF FF E8 FF E1 FF  .ÛßÿÿH..¼ßÿÿèÿáÿ
  0000000010206E00: FF 48 83 C4 20 E9 16 00 00 00 48 83 EC 20 48 8D  ÿH.Ä é....H.? H.
  0000000010206E10: 0D BB DF FF FF 31 D2 E8 E4 E1 FF FF 48 83 C4 20  .»ßÿÿ1?èäáÿÿH.Ä 
  0000000010206E20: 48 83 EC 20 48 8D 0D A5 DF FF FF 48 8B 55 10 48  H.? H..¥ßÿÿH.U.H
  0000000010206E30: 85 D2 0F 84 05 00 00 00 E9 08 00 00 00 B0 04 B9  .?......é....°.¹
  0000000010206E40: DA 2D 00 00 CC 48 8B 12 E8 B3 E1 FF FF 48 83 C4  Ú-..?H..è³áÿÿH.Ä
  0000000010206E50: 20 48 8B 45 10 48 85 C0 0F 84 05 00 00 00 E9 08   H.E.H.À......é.
  0000000010206E60: 00 00 00 B0 04 B9 EA 2D 00 00 CC 48 8B 00 48 83  ...°.¹ê-..?H..H.
  0000000010206E70: F8 08 0F 85 66 02 00 00 48 83 EC 20 48 8D 0D 4D  ø...f...H.? H..M
  0000000010206E80: DF FF FF 48 8B 55 10 48 85 D2 0F 84 05 00 00 00  ßÿÿH.U.H.?......
  0000000010206E90: E9 08 00 00 00 B0 04 B9 14 2E 00 00 CC 48 8B 52  é....°.¹....?H.R
  0000000010206EA0: 08 E8 5A E1 FF FF 48 83 C4 20 48 83 EC 20 48 8D  .èZáÿÿH.Ä H.? H.
  0000000010206EB0: 0D 1B DF FF FF 48 8B 55 10 48 85 D2 0F 84 05 00  ..ßÿÿH.U.H.?....
  0000000010206EC0: 00 00 E9 08 00 00 00 B0 04 B9 31 2E 00 00 CC 48  ..é....°.¹1...?H
  0000000010206ED0: 8B 52 10 E8 28 E1 FF FF 48 83 C4 20 48 83 EC 20  .R.è(áÿÿH.Ä H.? 
  0000000010206EE0: 48 8B 4D 10 48 85 C9 0F 84 05 00 00 00 E9 08 00  H.M.H.É......é..
  0000000010206EF0: 00 00 B0 04 B9 4B 2E 00 00 CC 48 8B 49 40 E8 C0  ..°.¹K...?H.I@èÀ
  0000000010206F00: F8 FF FF 48 83 C4 20 48 8B 45 10 48 85 C0 0F 84  øÿÿH.Ä H.E.H.À..
  0000000010206F10: 05 00 00 00 E9 08 00 00 00 B0 04 B9 5D 2E 00 00  ....é....°.¹]...
  0000000010206F20: CC 48 8B 40 48 48 89 45 F8 48 8B 45 F8 48 85 C0  ?H.@HH.EøH.EøH.À
  0000000010206F30: 0F 84 8A 01 00 00 48 83 EC 20 48 8D 0D 8F DE FF  ......H.? H...?ÿ
  0000000010206F40: FF BA 06 00 00 00 E8 B5 E0 FF FF 48 83 C4 20 48  ÿº....èµàÿÿH.Ä H
  0000000010206F50: 8B 45 F8 48 85 C0 0F 84 05 00 00 00 E9 08 00 00  .EøH.À......é...
  0000000010206F60: 00 B0 04 B9 A6 2E 00 00 CC 0F B6 00 85 C0 0F 85  .°.¹¦...?.¶..À..
  0000000010206F70: 30 00 00 00 31 C0 66 89 85 F0 FD FF FF 48 83 EC  0...1Àf..??ÿÿH.?
  0000000010206F80: 20 48 8D 0D 48 DE FF FF 48 8D 95 F0 FD FF FF 41   H..H?ÿÿH..??ÿÿA
  0000000010206F90: B8 00 01 00 00 FF 15 45 B0 DF FF 48 83 C4 20 E9  ¸....ÿ.E°ßÿH.Ä é
  0000000010206FA0: 39 00 00 00 48 83 EC 20 48 8D 0D 21 DE FF FF 48  9...H.? H..!?ÿÿH
  0000000010206FB0: 8B 55 F8 48 85 D2 0F 84 05 00 00 00 E9 08 00 00  .UøH.?......é...
  0000000010206FC0: 00 B0 04 B9 FA 2E 00 00 CC 48 83 C2 02 41 B8 40  .°.¹ú...?H.Â.A¸@
  0000000010206FD0: 00 00 00 FF 15 07 B0 DF FF 48 83 C4 20 48 83 EC  ...ÿ..°ßÿH.Ä H.?
  0000000010206FE0: 20 48 8B 4D F8 48 85 C9 0F 84 05 00 00 00 E9 08   H.MøH.É......é.
  0000000010206FF0: 00 00 00 B0 04 B9 1C 2F 00 00 CC 48 8B 89 88 00  ...°.¹./..?H....
  0000000010207000: 00 00 48 85 C9 0F 84 05 00 00 00 E9 08 00 00 00  ..H.É......é....
  0000000010207010: B0 04 B9 20 2F 00 00 CC 48 8B 49 08 E8 A2 F7 FF  °.¹ /..?H.I.è¢÷ÿ
  0000000010207020: FF 48 83 C4 20 48 83 EC 20 48 8D 0D A0 DD FF FF  ÿH.Ä H.? H...?ÿÿ
  0000000010207030: 48 8B 55 F8 48 85 D2 0F 84 05 00 00 00 E9 08 00  H.UøH.?......é..
  0000000010207040: 00 00 B0 04 B9 41 2F 00 00 CC 48 8B 92 88 00 00  ..°.¹A/..?H.....
  0000000010207050: 00 4C 8B 42 F8 4C 8D 0D 94 B0 DF FF 4D 39 48 08  .L.BøL...°ßÿM9H.
  0000000010207060: 0F 85 05 00 00 00 E9 08 00 00 00 B0 02 B9 4B 2F  ......é....°.¹K/
  0000000010207070: 00 00 CC 48 85 D2 0F 84 05 00 00 00 E9 08 00 00  ..?H.?......é...
  0000000010207080: 00 B0 04 B9 4C 2F 00 00 CC 48 8B 52 28 E8 6E DF  .°.¹L/..?H.R(ènß
  0000000010207090: FF FF 48 83 C4 20 48 8B 45 F8 48 85 C0 0F 84 05  ÿÿH.Ä H.EøH.À...
  00000000102070A0: 00 00 00 E9 08 00 00 00 B0 04 B9 61 2F 00 00 CC  ...é....°.¹a/..?
  00000000102070B0: 48 8B 80 90 00 00 00 48 89 45 F8 E9 69 FE FF FF  H......H.Eøéi?ÿÿ
  00000000102070C0: 48 83 EC 20 48 8D 0D 05 DD FF FF BA 01 00 00 00  H.? H...?ÿÿº....
  00000000102070D0: E8 2B DF FF FF 48 83 C4 20 E9 E0 01 00 00 48 8B  è+ßÿÿH.Ä éà...H.
  00000000102070E0: 45 10 48 85 C0 0F 84 05 00 00 00 E9 08 00 00 00  E.H.À......é....
  00000000102070F0: B0 04 B9 97 2F 00 00 CC 48 8B 00 48 83 F8 07 0F  °.¹./..?H..H.ø..
  0000000010207100: 85 C6 00 00 00 48 83 EC 20 48 8D 0D C0 DC FF FF  .Æ...H.? H..ÀÜÿÿ
  0000000010207110: 48 8B 55 10 48 85 D2 0F 84 05 00 00 00 E9 08 00  H.U.H.?......é..
  0000000010207120: 00 00 B0 04 B9 C3 2F 00 00 CC 48 8B 52 20 E8 CD  ..°.¹?/..?H.R èÍ
  0000000010207130: DE FF FF 48 83 C4 20 48 83 EC 20 48 8D 0D 8E DC  ?ÿÿH.Ä H.? H...Ü
  0000000010207140: FF FF 48 8B 55 10 48 85 D2 0F 84 05 00 00 00 E9  ÿÿH.U.H.?......é
  0000000010207150: 08 00 00 00 B0 04 B9 E2 2F 00 00 CC 48 8B 52 08  ....°.¹â/..?H.R.
  0000000010207160: E8 9B DE FF FF 48 83 C4 20 48 83 EC 20 48 8D 0D  è.?ÿÿH.Ä H.? H..
  0000000010207170: 5C DC FF FF 48 8B 55 10 48 85 D2 0F 84 05 00 00  \ÜÿÿH.U.H.?.....
  0000000010207180: 00 E9 08 00 00 00 B0 04 B9 FF 2F 00 00 CC 48 8B  .é....°.¹ÿ/..?H.
  0000000010207190: 52 10 E8 69 DE FF FF 48 83 C4 20 48 83 EC 20 48  R.èi?ÿÿH.Ä H.? H
  00000000102071A0: 8B 4D 10 48 85 C9 0F 84 05 00 00 00 E9 08 00 00  .M.H.É......é...
  00000000102071B0: 00 B0 04 B9 1A 30 00 00 CC 48 8B 49 40 E8 01 F6  .°.¹.0..?H.I@è.ö
  00000000102071C0: FF FF 48 83 C4 20 E9 F3 00 00 00 48 8B 45 10 48  ÿÿH.Ä éó...H.E.H
  00000000102071D0: 85 C0 0F 84 05 00 00 00 E9 08 00 00 00 B0 04 B9  .À......é....°.¹
  00000000102071E0: 2C 30 00 00 CC 48 8B 00 48 83 F8 05 0F 85 94 00  ,0..?H..H.ø.....
  00000000102071F0: 00 00 48 83 EC 20 48 8D 0D D3 DB FF FF 48 8B 55  ..H.? H..ÓÛÿÿH.U
  0000000010207200: 10 48 85 D2 0F 84 05 00 00 00 E9 08 00 00 00 B0  .H.?......é....°
  0000000010207210: 04 B9 56 30 00 00 CC 48 8B 52 08 E8 E0 DD FF FF  .¹V0..?H.R.èà?ÿÿ
  0000000010207220: 48 83 C4 20 48 83 EC 20 48 8D 0D A1 DB FF FF 48  H.Ä H.? H..¡ÛÿÿH
  0000000010207230: 8B 55 10 48 85 D2 0F 84 05 00 00 00 E9 08 00 00  .U.H.?......é...
  0000000010207240: 00 B0 04 B9 73 30 00 00 CC 48 8B 52 10 E8 AE DD  .°.¹s0..?H.R.è®?
  0000000010207250: FF FF 48 83 C4 20 48 83 EC 20 48 8B 4D 10 48 85  ÿÿH.Ä H.? H.M.H.
  0000000010207260: C9 0F 84 05 00 00 00 E9 08 00 00 00 B0 04 B9 8D  É......é....°.¹.
  0000000010207270: 30 00 00 CC 48 8B 49 40 E8 46 F5 FF FF 48 83 C4  0..?H.I@èF?ÿÿH.Ä
  0000000010207280: 20 E9 38 00 00 00 48 8B 45 10 48 85 C0 0F 84 05   é8...H.E.H.À...
  0000000010207290: 00 00 00 E9 08 00 00 00 B0 04 B9 9F 30 00 00 CC  ...é....°.¹.0..?
  00000000102072A0: 48 8B 00 48 83 F8 06 0F 85 11 00 00 00 48 83 EC  H..H.ø.......H.?
  00000000102072B0: 20 48 8B 4D 10 E8 15 F7 FF FF 48 83 C4 20 C9 C3   H.M.è.÷ÿÿH.Ä É?
  00000000102072C0: 55 48 8B EC 48 89 4D 10 48 83 EC 20 48 8D 0D FD  UH.?H.M.H.? H..?
  00000000102072D0: DA FF FF 48 8B 55 10 48 8B 12 FF 15 C8 AC DF FF  ÚÿÿH.U.H..ÿ.È¬ßÿ
  00000000102072E0: 48 83 C4 20 48 83 EC 20 48 8D 0D E1 DA FF FF 48  H.Ä H.? H..áÚÿÿH
  00000000102072F0: 8B 55 10 48 8B 52 08 FF 15 AB AC DF FF 48 83 C4  .U.H.R.ÿ.«¬ßÿH.Ä
  0000000010207300: 20 C9 C3 55 48 8B EC 48 81 EC B0 02 00 00 48 C7   É?UH.?H.?°...HÇ
  0000000010207310: 45 F8 00 00 00 00 48 C7 45 F0 00 00 00 00 48 C7  Eø....HÇE?....HÇ
  0000000010207320: 45 C8 00 00 00 00 31 C0 48 89 05 99 DA FF FF 31  EÈ....1ÀH...Úÿÿ1
  0000000010207330: C0 48 89 05 80 DA FF FF 48 83 EC 20 48 8D 0D 8D  ÀH...ÚÿÿH.? H...
  0000000010207340: DA FF FF 48 8D 15 42 AC DF FF 41 B8 0A 00 00 00  ÚÿÿH..B¬ßÿA¸....
  0000000010207350: FF 15 4A AC DF FF 48 83 C4 20 48 83 EC 20 48 8D  ÿ.J¬ßÿH.Ä H.? H.
  0000000010207360: 0D 6B DA FF FF BA 10 00 00 00 FF 15 10 AC DF FF  .kÚÿÿº....ÿ..¬ßÿ
  0000000010207370: 48 83 C4 20 48 83 EC 20 48 8D 0D 51 DA FF FF 48  H.Ä H.? H..QÚÿÿH
  0000000010207380: 8B 15 FA DA FF FF E8 75 DC FF FF 48 83 C4 20 31  ..úÚÿÿèuÜÿÿH.Ä 1
  0000000010207390: C0 48 89 45 E8 48 8B 05 14 DA FF FF 48 83 E8 01  ÀH.EèH...ÚÿÿH.è.
  00000000102073A0: 48 89 85 58 FD FF FF 48 8B 45 E8 48 3B 85 58 FD  H..X?ÿÿH.EèH;.X?
  00000000102073B0: FF FF 0F 8F BD 00 00 00 48 8B 45 E8 48 81 F8 00  ÿÿ..½...H.EèH.ø.
  00000000102073C0: 01 00 00 0F 83 05 00 00 00 E9 08 00 00 00 B0 01  .........é....°.
  00000000102073D0: B9 A8 32 00 00 CC 48 C1 E0 03 48 8D 0D CF B1 FF  ¹¨2..?HÁà.H..Ï±ÿ
  00000000102073E0: FF 48 03 C1 48 8B 00 48 89 45 C8 48 83 EC 20 48  ÿH.ÁH..H.EÈH.? H
  00000000102073F0: 8D 0D DA D9 FF FF 31 D2 E8 03 DC FF FF 48 83 C4  ..ÚÙÿÿ1?è.ÜÿÿH.Ä
  0000000010207400: 20 48 83 EC 20 48 8D 0D C4 D9 FF FF 48 8B 55 C8   H.? H..ÄÙÿÿH.UÈ
  0000000010207410: 48 85 D2 0F 84 05 00 00 00 E9 08 00 00 00 B0 04  H.?......é....°.
  0000000010207420: B9 E6 32 00 00 CC 48 81 C2 28 02 00 00 41 B8 40  ¹æ2..?H.Â(...A¸@
  0000000010207430: 00 00 00 FF 15 A7 AB DF FF 48 83 C4 20 48 83 EC  ...ÿ.§«ßÿH.Ä H.?
  0000000010207440: 20 48 8B 4D C8 48 85 C9 0F 84 05 00 00 00 E9 08   H.MÈH.É......é.
  0000000010207450: 00 00 00 B0 04 B9 00 33 00 00 CC 48 81 C1 A8 02  ...°.¹.3..?H.Á¨.
  0000000010207460: 00 00 E8 59 FE FF FF 48 83 C4 20 48 83 45 E8 01  ..èY?ÿÿH.Ä H.Eè.
  0000000010207470: E9 32 FF FF FF 48 8B 05 1C DA FF FF 48 85 C0 0F  é2ÿÿÿH...ÚÿÿH.À.
  0000000010207480: 84 05 00 00 00 E9 08 00 00 00 B0 04 B9 23 33 00  .....é....°.¹#3.
  0000000010207490: 00 CC 48 8B 00 48 89 45 F8 48 8B 45 F8 48 85 C0  .?H..H.EøH.EøH.À
  00000000102074A0: 0F 84 EC 05 00 00 48 8B 45 F8 48 85 C0 0F 84 05  ..?...H.EøH.À...
  00000000102074B0: 00 00 00 E9 08 00 00 00 B0 04 B9 4D 33 00 00 CC  ...é....°.¹M3..?
  00000000102074C0: 0F B6 00 85 C0 0F 84 9D 05 00 00 48 8B 45 F8 48  .¶..À......H.EøH
  00000000102074D0: 85 C0 0F 84 05 00 00 00 E9 08 00 00 00 B0 04 B9  .À......é....°.¹
  00000000102074E0: 66 33 00 00 CC 48 8B 80 88 00 00 00 48 85 C0 0F  f3..?H......H.À.
  00000000102074F0: 84 05 00 00 00 E9 08 00 00 00 B0 04 B9 6A 33 00  .....é....°.¹j3.
  0000000010207500: 00 CC 48 8B 00 48 83 F8 04 0F 85 10 01 00 00 48  .?H..H.ø.......H
  0000000010207510: 83 EC 20 48 8D 0D B6 D8 FF FF BA 04 00 00 00 E8  .? H..¶Øÿÿº....è
  0000000010207520: DC DA FF FF 48 83 C4 20 48 83 EC 20 48 8D 0D 9D  ÜÚÿÿH.Ä H.? H...
  0000000010207530: D8 FF FF 48 8B 55 F8 48 85 D2 0F 84 05 00 00 00  ØÿÿH.UøH.?......
  0000000010207540: E9 08 00 00 00 B0 04 B9 BF 33 00 00 CC 48 83 C2  é....°.¹¿3..?H.Â
  0000000010207550: 02 41 B8 40 00 00 00 FF 15 83 AA DF FF 48 83 C4  .A¸@...ÿ..ªßÿH.Ä
  0000000010207560: 20 48 83 EC 20 48 8D 0D 64 D8 FF FF 48 8B 55 F8   H.? H..dØÿÿH.Uø
  0000000010207570: 48 85 D2 0F 84 05 00 00 00 E9 08 00 00 00 B0 04  H.?......é....°.
  0000000010207580: B9 E3 33 00 00 CC 48 8B 92 88 00 00 00 4C 8B 42  ¹?3..?H......L.B
  0000000010207590: F8 4C 8D 0D 08 AB DF FF 4D 39 48 08 0F 85 05 00  øL...«ßÿM9H.....
  00000000102075A0: 00 00 E9 08 00 00 00 B0 02 B9 ED 33 00 00 CC 48  ..é....°.¹í3..?H
  00000000102075B0: 85 D2 0F 84 05 00 00 00 E9 08 00 00 00 B0 04 B9  .?......é....°.¹
  00000000102075C0: EE 33 00 00 CC 48 8B 52 28 E8 32 DA FF FF 48 83  î3..?H.R(è2ÚÿÿH.
  00000000102075D0: C4 20 48 83 EC 20 48 8B 4D F8 48 85 C9 0F 84 05  Ä H.? H.MøH.É...
  00000000102075E0: 00 00 00 E9 08 00 00 00 B0 04 B9 0A 34 00 00 CC  ...é....°.¹.4..?
  00000000102075F0: 48 8B 89 88 00 00 00 48 85 C9 0F 84 05 00 00 00  H......H.É......
  0000000010207600: E9 08 00 00 00 B0 04 B9 0E 34 00 00 CC 48 8B 49  é....°.¹.4..?H.I
  0000000010207610: 08 E8 AD F1 FF FF 48 83 C4 20 E9 49 04 00 00 48  .è­ñÿÿH.Ä éI...H
  0000000010207620: 8B 45 F8 48 85 C0 0F 84 05 00 00 00 E9 08 00 00  .EøH.À......é...
  0000000010207630: 00 B0 04 B9 24 34 00 00 CC 48 8B 80 88 00 00 00  .°.¹$4..?H......
  0000000010207640: 48 85 C0 0F 84 05 00 00 00 E9 08 00 00 00 B0 04  H.À......é....°.
  0000000010207650: B9 28 34 00 00 CC 48 8B 00 48 83 F8 01 0F 85 9F  ¹(4..?H..H.ø....
  0000000010207660: 00 00 00 48 83 EC 20 48 8D 0D 62 D7 FF FF BA 01  ...H.? H..b×ÿÿº.
  0000000010207670: 00 00 00 E8 88 D9 FF FF 48 83 C4 20 48 83 EC 20  ...è.ÙÿÿH.Ä H.? 
  0000000010207680: 48 8D 0D 49 D7 FF FF 48 8B 55 F8 48 85 D2 0F 84  H..I×ÿÿH.UøH.?..
  0000000010207690: 05 00 00 00 E9 08 00 00 00 B0 04 B9 7B 34 00 00  ....é....°.¹{4..
  00000000102076A0: CC 48 83 C2 02 41 B8 40 00 00 00 FF 15 2F A9 DF  ?H.Â.A¸@...ÿ./©ß
  00000000102076B0: FF 48 83 C4 20 48 83 EC 20 48 8B 4D F8 48 85 C9  ÿH.Ä H.? H.MøH.É
  00000000102076C0: 0F 84 05 00 00 00 E9 08 00 00 00 B0 04 B9 98 34  ......é....°.¹.4
  00000000102076D0: 00 00 CC 48 8B 89 88 00 00 00 48 85 C9 0F 84 05  ..?H......H.É...
  00000000102076E0: 00 00 00 E9 08 00 00 00 B0 04 B9 9C 34 00 00 CC  ...é....°.¹.4..?
  00000000102076F0: 48 8B 49 08 E8 CA F0 FF FF 48 83 C4 20 E9 66 03  H.I.èÊ?ÿÿH.Ä éf.
  0000000010207700: 00 00 48 8B 45 F8 48 85 C0 0F 84 05 00 00 00 E9  ..H.EøH.À......é
  0000000010207710: 08 00 00 00 B0 04 B9 B2 34 00 00 CC 48 8B 80 88  ....°.¹²4..?H...
  0000000010207720: 00 00 00 48 85 C0 0F 84 05 00 00 00 E9 08 00 00  ...H.À......é...
  0000000010207730: 00 B0 04 B9 B6 34 00 00 CC 48 8B 00 48 83 F8 03  .°.¹¶4..?H..H.ø.
  0000000010207740: 0F 85 C9 01 00 00 48 83 EC 20 48 8D 0D 7F D6 FF  ..É...H.? H...Öÿ
  0000000010207750: FF BA 03 00 00 00 E8 A5 D8 FF FF 48 83 C4 20 48  ÿº....è¥ØÿÿH.Ä H
  0000000010207760: 83 EC 20 48 8D 0D 66 D6 FF FF 48 8B 55 F8 48 85  .? H..fÖÿÿH.UøH.
  0000000010207770: D2 0F 84 05 00 00 00 E9 08 00 00 00 B0 04 B9 07  ?......é....°.¹.
  0000000010207780: 35 00 00 CC 48 83 C2 02 41 B8 40 00 00 00 FF 15  5..?H.Â.A¸@...ÿ.
  0000000010207790: 4C A8 DF FF 48 83 C4 20 48 83 EC 20 48 8D 4D F0  L¨ßÿH.Ä H.? H.M?
  00000000102077A0: E8 20 EF FF FF 48 83 C4 20 48 8B 45 F0 48 85 C0  è ïÿÿH.Ä H.E?H.À
  00000000102077B0: 0F 84 05 00 00 00 E9 08 00 00 00 B0 04 B9 27 35  ......é....°.¹'5
  00000000102077C0: 00 00 CC 48 8B 4D F8 48 85 C9 0F 84 05 00 00 00  ..?H.MøH.É......
  00000000102077D0: E9 08 00 00 00 B0 04 B9 34 35 00 00 CC 48 8B 89  é....°.¹45..?H..
  00000000102077E0: 88 00 00 00 48 89 88 88 00 00 00 48 83 EC 20 48  ....H......H.? H
  00000000102077F0: 8D 0D DA D5 FF FF 48 8B 15 BB D5 FF FF E8 FE D7  ..Ú?ÿÿH..»?ÿÿè?×
  0000000010207800: FF FF 48 83 C4 20 48 83 EC 20 48 8B 4D F8 48 85  ÿÿH.Ä H.? H.MøH.
  0000000010207810: C9 0F 84 05 00 00 00 E9 08 00 00 00 B0 04 B9 6E  É......é....°.¹n
  0000000010207820: 35 00 00 CC 48 8B 89 88 00 00 00 48 85 C9 0F 84  5..?H......H.É..
  0000000010207830: 05 00 00 00 E9 08 00 00 00 B0 04 B9 72 35 00 00  ....é....°.¹r5..
  0000000010207840: CC 48 8B 49 08 E8 79 EF FF FF 48 83 C4 20 48 8B  ?H.I.èyïÿÿH.Ä H.
  0000000010207850: 45 F8 48 85 C0 0F 84 05 00 00 00 E9 08 00 00 00  EøH.À......é....
  0000000010207860: B0 04 B9 87 35 00 00 CC 48 8B 80 88 00 00 00 48  °.¹.5..?H......H
  0000000010207870: 85 C0 0F 84 05 00 00 00 E9 08 00 00 00 B0 04 B9  .À......é....°.¹
  0000000010207880: 8B 35 00 00 CC 48 8B 40 08 48 8B 0D 30 D7 FF FF  .5..?H.@.H..0×ÿÿ
  0000000010207890: 48 3B C1 0F 85 71 00 00 00 48 83 EC 20 48 8D 0D  H;Á..q...H.? H..
  00000000102078A0: 2C D5 FF FF 48 8B 55 F8 48 85 D2 0F 84 05 00 00  ,?ÿÿH.UøH.?.....
  00000000102078B0: 00 E9 08 00 00 00 B0 04 B9 BD 35 00 00 CC 48 8B  .é....°.¹½5..?H.
  00000000102078C0: 92 88 00 00 00 4C 8B 42 F8 4C 8D 0D 68 A9 DF FF  .....L.BøL..h©ßÿ
  00000000102078D0: 4D 39 48 10 0F 85 05 00 00 00 E9 08 00 00 00 B0  M9H.......é....°
  00000000102078E0: 02 B9 C5 35 00 00 CC 48 85 D2 0F 84 05 00 00 00  .¹Å5..?H.?......
  00000000102078F0: E9 08 00 00 00 B0 04 B9 C6 35 00 00 CC 48 8B 52  é....°.¹Æ5..?H.R
  0000000010207900: 50 E8 FA D6 FF FF 48 83 C4 20 E9 59 01 00 00 48  PèúÖÿÿH.Ä éY...H
  0000000010207910: 8B 45 F8 48 85 C0 0F 84 05 00 00 00 E9 08 00 00  .EøH.À......é...
  0000000010207920: 00 B0 04 B9 E4 35 00 00 CC 48 8B 80 88 00 00 00  .°.¹ä5..?H......
  0000000010207930: 48 85 C0 0F 84 05 00 00 00 E9 08 00 00 00 B0 04  H.À......é....°.
  0000000010207940: B9 E8 35 00 00 CC 48 8B 00 48 83 F8 05 0F 85 0D  ¹è5..?H..H.ø....
  0000000010207950: 01 00 00 48 83 EC 20 48 8D 0D 72 D4 FF FF BA 05  ...H.? H..rÔÿÿº.
  0000000010207960: 00 00 00 E8 98 D6 FF FF 48 83 C4 20 48 83 EC 20  ...è.ÖÿÿH.Ä H.? 
  0000000010207970: 48 8D 0D 59 D4 FF FF 48 8B 55 F8 48 85 D2 0F 84  H..YÔÿÿH.UøH.?..
  0000000010207980: 05 00 00 00 E9 08 00 00 00 B0 04 B9 3B 36 00 00  ....é....°.¹;6..
  0000000010207990: CC 48 83 C2 02 41 B8 40 00 00 00 FF 15 3F A6 DF  ?H.Â.A¸@...ÿ.?¦ß
  00000000102079A0: FF 48 83 C4 20 48 83 EC 20 48 8D 4D F0 E8 13 ED  ÿH.Ä H.? H.M?è.í
  00000000102079B0: FF FF 48 83 C4 20 48 8B 45 F0 48 85 C0 0F 84 05  ÿÿH.Ä H.E?H.À...
  00000000102079C0: 00 00 00 E9 08 00 00 00 B0 04 B9 5B 36 00 00 CC  ...é....°.¹[6..?
  00000000102079D0: 48 8B 4D F8 48 85 C9 0F 84 05 00 00 00 E9 08 00  H.MøH.É......é..
  00000000102079E0: 00 00 B0 04 B9 68 36 00 00 CC 48 8B 89 88 00 00  ..°.¹h6..?H.....
  00000000102079F0: 00 48 89 88 88 00 00 00 48 83 EC 20 48 8D 0D CD  .H......H.? H..Í
  0000000010207A00: D3 FF FF 48 8B 15 AE D3 FF FF E8 F1 D5 FF FF 48  ÓÿÿH..®Óÿÿèñ?ÿÿH
  0000000010207A10: 83 C4 20 48 83 EC 20 48 8B 4D F8 48 85 C9 0F 84  .Ä H.? H.MøH.É..
  0000000010207A20: 05 00 00 00 E9 08 00 00 00 B0 04 B9 A2 36 00 00  ....é....°.¹¢6..
  0000000010207A30: CC 48 8B 89 88 00 00 00 48 85 C9 0F 84 05 00 00  ?H......H.É.....
  0000000010207A40: 00 E9 08 00 00 00 B0 04 B9 A6 36 00 00 CC 48 8B  .é....°.¹¦6..?H.
  0000000010207A50: 49 08 E8 78 EF FF FF 48 83 C4 20 E9 08 00 00 00  I.èxïÿÿH.Ä é....
  0000000010207A60: B0 03 B9 C2 36 00 00 CC 48 8B 45 F8 48 85 C0 0F  °.¹Â6..?H.EøH.À.
  0000000010207A70: 84 05 00 00 00 E9 08 00 00 00 B0 04 B9 E5 36 00  .....é....°.¹å6.
  0000000010207A80: 00 CC 48 8B 80 90 00 00 00 48 89 45 F8 E9 07 FA  .?H......H.Eøé.ú
  0000000010207A90: FF FF 48 83 EC 20 48 8D 0D 33 D3 FF FF 48 BA FF  ÿÿH.? H..3ÓÿÿHºÿ
  0000000010207AA0: FF FF FF FF FF FF FF E8 54 D5 FF FF 48 83 C4 20  ÿÿÿÿÿÿÿèT?ÿÿH.Ä 
  0000000010207AB0: 48 83 EC 20 48 8D 0D 15 D3 FF FF FF 15 B7 A4 DF  H.? H...Óÿÿÿ.·¤ß
  0000000010207AC0: FF 48 83 C4 20 48 89 45 D0 48 83 EC 20 48 8D 0D  ÿH.Ä H.E?H.? H..
  0000000010207AD0: FC D2 FF FF 31 D2 FF 15 A4 A4 DF FF 48 83 C4 20  ü?ÿÿ1?ÿ.¤¤ßÿH.Ä 
  0000000010207AE0: 48 83 EC 20 48 8D 4D A0 FF 15 82 A4 DF FF 48 83  H.? H.M.ÿ..¤ßÿH.
  0000000010207AF0: C4 20 31 C0 48 89 45 E8 31 C0 48 89 45 E0 48 83  Ä 1ÀH.Eè1ÀH.EàH.
  0000000010207B00: EC 20 48 8D 0D C7 D2 FF FF 48 8D 55 D8 FF 15 2D  ? H..Ç?ÿÿH.UØÿ.-
  0000000010207B10: A5 DF FF 48 83 C4 20 48 8B 45 E0 48 83 F8 40 0F  ¥ßÿH.Ä H.EàH.ø@.
  0000000010207B20: 83 05 00 00 00 E9 08 00 00 00 B0 01 B9 A3 37 00  .....é....°.¹£7.
  0000000010207B30: 00 CC 48 03 C5 48 8B 4D D8 88 88 60 FF FF FF 48  .?H.ÅH.MØ..`ÿÿÿH
  0000000010207B40: 83 45 E8 01 48 83 45 E0 01 48 8B 45 E8 48 8B 4D  .Eè.H.Eà.H.EèH.M
  0000000010207B50: D0 48 3B C1 0F 84 0E 00 00 00 48 8B 45 E0 48 83  ?H;Á......H.EàH.
  0000000010207B60: F8 40 0F 85 96 FF FF FF 48 83 EC 20 48 8D 4D A0  ø@...ÿÿÿH.? H.M.
  0000000010207B70: 48 8D 95 60 FF FF FF 4C 8B 45 E0 FF 15 E7 A3 DF  H..`ÿÿÿL.Eàÿ.ç£ß
  0000000010207B80: FF 48 83 C4 20 48 8B 45 E8 48 8B 4D D0 48 3B C1  ÿH.Ä H.EèH.M?H;Á
  0000000010207B90: 0F 85 62 FF FF FF 48 83 EC 20 48 8D 0D 2F D2 FF  ..bÿÿÿH.? H../?ÿ
  0000000010207BA0: FF 31 D2 FF 15 D7 A3 DF FF 48 83 C4 20 48 83 EC  ÿ1?ÿ.×£ßÿH.Ä H.?
  0000000010207BB0: 20 48 8D 4D A0 FF 15 A5 A3 DF FF 48 83 C4 20 48   H.M.ÿ.¥£ßÿH.Ä H
  0000000010207BC0: 89 05 2A D2 FF FF 48 83 EC 20 48 8D 4D A0 FF 15  ..*?ÿÿH.? H.M.ÿ.
  0000000010207BD0: 84 A3 DF FF 48 83 C4 20 48 89 05 19 D2 FF FF 48  .£ßÿH.Ä H...?ÿÿH
  0000000010207BE0: 83 EC 20 48 8D 0D 06 D2 FF FF E8 D1 F6 FF FF 48  .? H...?ÿÿèÑöÿÿH
  0000000010207BF0: 83 C4 20 48 83 EC 20 48 8D 0D D2 D1 FF FF FF 15  .Ä H.? H..?Ñÿÿÿ.
  0000000010207C00: 4C A3 DF FF 48 83 C4 20 48 8B 05 39 A3 DF FF 48  L£ßÿH.Ä H..9£ßÿH
  0000000010207C10: 8B 00 48 85 C0 0F 85 9B 00 00 00 31 C0 66 89 85  ..H.À......1Àf..
  0000000010207C20: 60 FD FF FF 48 83 EC 20 48 8D 0D D1 D1 FF FF BA  `?ÿÿH.? H..ÑÑÿÿº
  0000000010207C30: 40 00 00 00 4C 8D 85 60 FD FF FF 41 B9 00 01 00  @...L..`?ÿÿA¹...
  0000000010207C40: 00 E8 BB D5 FF FF 48 83 C4 20 48 83 EC 20 48 8D  .è»?ÿÿH.Ä H.? H.
  0000000010207C50: 0D E9 A2 DF FF BA 05 00 00 00 4C 8D 85 60 FD FF  .é¢ßÿº....L..`?ÿ
  0000000010207C60: FF 41 B9 00 01 00 00 E8 95 D5 FF FF 48 83 C4 20  ÿA¹....è.?ÿÿH.Ä 
  0000000010207C70: 48 83 EC 20 48 8D 8D 60 FD FF FF BA 00 01 00 00  H.? H..`?ÿÿº....
  0000000010207C80: FF 15 AA A2 DF FF 48 83 C4 20 48 83 EC 20 48 8D  ÿ.ª¢ßÿH.Ä H.? H.
  0000000010207C90: 0D 7F A2 DF FF BA 0A 00 00 00 4C 8D 85 60 FD FF  ..¢ßÿº....L..`?ÿ
  0000000010207CA0: FF 41 B9 00 01 00 00 FF 15 7B A2 DF FF 48 83 C4  ÿA¹....ÿ.{¢ßÿH.Ä
  0000000010207CB0: 20 E9 1A 00 00 00 48 83 EC 20 48 8D 0D 3F A2 DF   é....H.? H..?¢ß
  0000000010207CC0: FF BA 0A 00 00 00 FF 15 64 A2 DF FF 48 83 C4 20  ÿº....ÿ.d¢ßÿH.Ä 
  0000000010207CD0: C9 C3 55 48 8B EC 48 83 EC 20 56 57 48 89 4D 10  É?UH.?H.? VWH.M.
  0000000010207CE0: 48 C7 45 F0 00 00 00 00 31 C0 48 89 45 F0 31 C0  HÇE?....1ÀH.E?1À
  0000000010207CF0: 48 89 45 F8 48 8B 05 B5 D0 FF FF 48 83 E8 01 48  H.EøH..µ?ÿÿH.è.H
  0000000010207D00: 89 45 E8 48 8B 45 F8 48 3B 45 E8 0F 8F EA 00 00  .EèH.EøH;Eè..ê..
  0000000010207D10: 00 48 8B 45 F8 48 81 F8 00 01 00 00 0F 83 05 00  .H.EøH.ø........
  0000000010207D20: 00 00 E9 08 00 00 00 B0 01 B9 F2 3A 00 00 CC 48  ..é....°.¹?:..?H
  0000000010207D30: C1 E0 03 48 8D 0D 76 A8 FF FF 48 03 C1 48 8B 00  Áà.H..v¨ÿÿH.ÁH..
  0000000010207D40: 48 85 C0 0F 84 05 00 00 00 E9 08 00 00 00 B0 04  H.À......é....°.
  0000000010207D50: B9 F3 3A 00 00 CC 48 8B F8 48 81 C7 28 02 00 00  ¹ó:..?H.øH.Ç(...
  0000000010207D60: 48 8B 75 10 33 C9 48 83 F9 40 0F 84 3A 00 00 00  H.u.3ÉH.ù@..:...
  0000000010207D70: 66 83 3E 00 0F 84 30 00 00 00 48 83 F9 40 0F 84  f.>...0...H.ù@..
  0000000010207D80: 6D 00 00 00 66 8B 17 66 85 D2 0F 84 61 00 00 00  m...f..f.?..a...
  0000000010207D90: 66 3B 16 0F 85 58 00 00 00 48 83 C7 02 48 83 C6  f;...X...H.Ç.H.Æ
  0000000010207DA0: 02 48 83 C1 01 E9 BC FF FF FF 48 83 F9 40 0F 84  .H.Á.é¼ÿÿÿH.ù@..
  0000000010207DB0: 0A 00 00 00 66 83 3F 00 0F 85 33 00 00 00 48 8B  ....f.?...3...H.
  0000000010207DC0: 45 F8 48 81 F8 00 01 00 00 0F 83 05 00 00 00 E9  EøH.ø..........é
  0000000010207DD0: 08 00 00 00 B0 01 B9 1B 3B 00 00 CC 48 C1 E0 03  ....°.¹.;..?HÁà.
  0000000010207DE0: 48 8D 0D C9 A7 FF FF 48 03 C1 48 8B 00 48 89 45  H..É§ÿÿH.ÁH..H.E
  0000000010207DF0: F0 48 83 45 F8 01 E9 08 FF FF FF 48 8B 45 F0 5F  ?H.Eø.é.ÿÿÿH.E?_
  0000000010207E00: 5E C9 C3 55 48 8B EC 56 57 48 89 4D 10 48 89 55  ^É?UH.?VWH.M.H.U
  0000000010207E10: 18 4C 89 45 20 48 8B 45 10 48 85 C0 0F 84 7F 00  .L.E H.E.H.À....
  0000000010207E20: 00 00 48 8B 45 10 48 85 C0 0F 84 05 00 00 00 E9  ..H.E.H.À......é
  0000000010207E30: 08 00 00 00 B0 04 B9 B9 3B 00 00 CC 50 48 83 EC  ....°.¹¹;..?PH.?
  0000000010207E40: 28 48 8B 0D 08 A7 DF FF BA 08 00 00 00 41 B8 A8  (H...§ßÿº....A¸¨
  0000000010207E50: 00 00 00 FF 15 1F A7 DF FF 48 83 C4 28 48 8B C8  ...ÿ..§ßÿH.Ä(H.È
  0000000010207E60: 58 48 83 C1 10 48 8D 15 04 A6 DF FF 48 89 51 F8  XH.Á.H...¦ßÿH.Qø
  0000000010207E70: 48 89 88 90 00 00 00 48 8B 45 10 48 85 C0 0F 84  H......H.E.H.À..
  0000000010207E80: 05 00 00 00 E9 08 00 00 00 B0 04 B9 CF 3B 00 00  ....é....°.¹Ï;..
  0000000010207E90: CC 48 8B 80 90 00 00 00 48 89 45 10 E9 78 00 00  ?H......H.E.éx..
  0000000010207EA0: 00 48 8B 05 F8 CF FF FF 48 85 C0 0F 84 05 00 00  .H..øÏÿÿH.À.....
  0000000010207EB0: 00 E9 08 00 00 00 B0 04 B9 E8 3B 00 00 CC 50 48  .é....°.¹è;..?PH
  0000000010207EC0: 83 EC 28 48 8B 0D 86 A6 DF FF BA 08 00 00 00 41  .?(H...¦ßÿº....A
  0000000010207ED0: B8 A8 00 00 00 FF 15 9D A6 DF FF 48 83 C4 28 48  ¸¨...ÿ..¦ßÿH.Ä(H
  0000000010207EE0: 8B C8 58 48 83 C1 10 48 8D 15 82 A5 DF FF 48 89  .ÈXH.Á.H...¥ßÿH.
  0000000010207EF0: 51 F8 48 89 08 48 8B 05 A4 CF FF FF 48 85 C0 0F  QøH..H..¤ÏÿÿH.À.
  0000000010207F00: 84 05 00 00 00 E9 08 00 00 00 B0 04 B9 02 3C 00  .....é....°.¹.<.
  0000000010207F10: 00 CC 48 8B 00 48 89 45 10 48 8B 45 10 48 85 C0  .?H..H.E.H.E.H.À
  0000000010207F20: 0F 84 05 00 00 00 E9 08 00 00 00 B0 04 B9 17 3C  ......é....°.¹.<
  0000000010207F30: 00 00 CC 31 C9 88 08 48 8B 45 10 48 85 C0 0F 84  ..?1É..H.E.H.À..
  0000000010207F40: 05 00 00 00 E9 08 00 00 00 B0 04 B9 2E 3C 00 00  ....é....°.¹.<..
  0000000010207F50: CC 48 8B 4D 20 48 89 88 88 00 00 00 48 8B 45 10  ?H.M H......H.E.
  0000000010207F60: 48 85 C0 0F 84 05 00 00 00 E9 08 00 00 00 B0 04  H.À......é....°.
  0000000010207F70: B9 3E 3C 00 00 CC 48 8B F8 48 83 C7 02 48 8B 75  ¹><..?H.øH.Ç.H.u
  0000000010207F80: 18 B9 10 00 00 00 F3 48 A5 48 8B 45 20 48 85 C0  .¹....óH¥H.E H.À
  0000000010207F90: 0F 84 05 00 00 00 E9 08 00 00 00 B0 04 B9 53 3C  ......é....°.¹S<
  0000000010207FA0: 00 00 CC 48 8B 40 10 48 85 C0 0F 85 22 00 00 00  ..?H.@.H.À.."...
  0000000010207FB0: 48 8B 45 20 48 85 C0 0F 84 05 00 00 00 E9 08 00  H.E H.À......é..
  0000000010207FC0: 00 00 B0 04 B9 66 3C 00 00 CC 48 8B 4D 10 48 89  ..°.¹f<..?H.M.H.
  0000000010207FD0: 48 10 48 8B 45 10 5F 5E C9 C3 55 48 8B EC 48 81  H.H.E._^É?UH.?H.
  0000000010207FE0: EC B0 02 00 00 56 57 48 89 4D 10 48 C7 85 60 FD  ?°...VWH.M.HÇ.`?
  0000000010207FF0: FF FF 00 00 00 00 48 C7 85 58 FD FF FF 00 00 00  ÿÿ....HÇ.X?ÿÿ...
  0000000010208000: 00 48 83 EC 20 48 8D 0D C4 CD FF FF 48 8D 55 F8  .H.? H..ÄÍÿÿH.Uø
  0000000010208010: E8 82 D0 FF FF 48 83 C4 20 48 83 EC 20 48 8D 0D  è.?ÿÿH.Ä H.? H..
  0000000010208020: AC CD FF FF 48 8D 55 F0 E8 6A D0 FF FF 48 83 C4  ¬ÍÿÿH.U?èj?ÿÿH.Ä
  0000000010208030: 20 48 8B 45 F8 48 83 F8 FF 0F 85 38 00 00 00 48   H.EøH.øÿ..8...H
  0000000010208040: 8B 45 F0 48 83 F8 20 0F 83 05 00 00 00 E9 08 00  .E?H.ø ......é..
  0000000010208050: 00 00 B0 01 B9 85 3D 00 00 CC 48 C1 E0 03 48 8D  ..°.¹.=..?HÁà.H.
  0000000010208060: 0D 53 CE FF FF 48 03 C1 48 8B 00 48 8B 4D 10 48  .SÎÿÿH.ÁH..H.M.H
  0000000010208070: 89 01 E9 8B 03 00 00 48 8B 45 F8 48 85 C0 0F 85  ..é....H.EøH.À..
  0000000010208080: 42 01 00 00 48 8B 45 F0 48 85 C0 0F 8C 15 01 00  B...H.E?H.À.....
  0000000010208090: 00 48 8B 05 F0 CD FF FF 48 83 C0 02 48 F7 D8 48  .H..?ÍÿÿH.À.H÷ØH
  00000000102080A0: 89 45 E8 48 8B 45 E8 48 81 F8 00 01 00 00 0F 83  .EèH.EèH.ø......
  00000000102080B0: 05 00 00 00 E9 08 00 00 00 B0 01 B9 D4 3D 00 00  ....é....°.¹Ô=..
  00000000102080C0: CC 48 C1 E0 03 48 8D 0D E4 A4 FF FF 48 03 C1 48  ?HÁà.H..ä¤ÿÿH.ÁH
  00000000102080D0: 8B 00 48 85 C0 0F 84 05 00 00 00 E9 08 00 00 00  ..H.À......é....
  00000000102080E0: B0 04 B9 D5 3D 00 00 CC 48 8B 80 D8 02 00 00 48  °.¹?=..?H..Ø...H
  00000000102080F0: 89 85 58 FD FF FF 48 8B 85 58 FD FF FF 48 85 C0  ..X?ÿÿH..X?ÿÿH.À
  0000000010208100: 0F 84 74 00 00 00 48 8B 85 58 FD FF FF 48 85 C0  ..t...H..X?ÿÿH.À
  0000000010208110: 0F 84 05 00 00 00 E9 08 00 00 00 B0 04 B9 F5 3D  ......é....°.¹?=
  0000000010208120: 00 00 CC 48 8B 00 48 85 C0 0F 84 05 00 00 00 E9  ..?H..H.À......é
  0000000010208130: 08 00 00 00 B0 04 B9 FA 3D 00 00 CC 48 8B 40 68  ....°.¹ú=..?H.@h
  0000000010208140: 48 8B 4D F0 48 3B C1 0F 84 2D 00 00 00 48 8B 85  H.M?H;Á..-...H..
  0000000010208150: 58 FD FF FF 48 85 C0 0F 84 05 00 00 00 E9 08 00  X?ÿÿH.À......é..
  0000000010208160: 00 00 B0 04 B9 0F 3E 00 00 CC 48 8B 40 10 48 89  ..°.¹.>..?H.@.H.
  0000000010208170: 85 58 FD FF FF E9 7C FF FF FF 48 8B 85 58 FD FF  .X?ÿÿé|ÿÿÿH..X?ÿ
  0000000010208180: FF 48 85 C0 0F 84 05 00 00 00 E9 08 00 00 00 B0  ÿH.À......é....°
  0000000010208190: 04 B9 26 3E 00 00 CC 48 8B 00 48 8B 4D 10 48 89  .¹&>..?H..H.M.H.
  00000000102081A0: 01 E9 1B 00 00 00 48 8B 05 E3 A3 DF FF 50 48 83  .é....H..?£ßÿPH.
  00000000102081B0: EC 28 48 8B 4D 10 48 8B 44 24 28 FF D0 48 83 C4  ?(H.M.H.D$(ÿ?H.Ä
  00000000102081C0: 30 E9 3C 02 00 00 48 8B 45 F8 48 83 F8 FF 0F 8D  0é<...H.EøH.øÿ..
  00000000102081D0: 26 02 00 00 48 83 EC 20 48 8D 0D F1 CB FF FF 48  &...H.? H..ñËÿÿH
  00000000102081E0: 8D 95 68 FF FF FF 41 B8 40 00 00 00 FF 15 06 9D  ..hÿÿÿA¸@...ÿ...
  00000000102081F0: DF FF 48 83 C4 20 48 83 EC 20 48 8D 8D 68 FF FF  ßÿH.Ä H.? H..hÿÿ
  0000000010208200: FF E8 CC FA FF FF 48 83 C4 20 48 89 85 60 FD FF  ÿè?úÿÿH.Ä H..`?ÿ
  0000000010208210: FF 48 8B 85 60 FD FF FF 48 85 C0 0F 84 DB 00 00  ÿH..`?ÿÿH.À..Û..
  0000000010208220: 00 48 8B 85 60 FD FF FF 48 85 C0 0F 84 05 00 00  .H..`?ÿÿH.À.....
  0000000010208230: 00 E9 08 00 00 00 B0 04 B9 C6 3E 00 00 CC 48 8B  .é....°.¹Æ>..?H.
  0000000010208240: 80 D8 02 00 00 48 89 85 58 FD FF FF 48 8B 85 58  .Ø...H..X?ÿÿH..X
  0000000010208250: FD FF FF 48 85 C0 0F 84 74 00 00 00 48 8B 85 58  ?ÿÿH.À..t...H..X
  0000000010208260: FD FF FF 48 85 C0 0F 84 05 00 00 00 E9 08 00 00  ?ÿÿH.À......é...
  0000000010208270: 00 B0 04 B9 E6 3E 00 00 CC 48 8B 00 48 85 C0 0F  .°.¹æ>..?H..H.À.
  0000000010208280: 84 05 00 00 00 E9 08 00 00 00 B0 04 B9 EB 3E 00  .....é....°.¹ë>.
  0000000010208290: 00 CC 48 8B 40 68 48 8B 4D F0 48 3B C1 0F 84 2D  .?H.@hH.M?H;Á..-
  00000000102082A0: 00 00 00 48 8B 85 58 FD FF FF 48 85 C0 0F 84 05  ...H..X?ÿÿH.À...
  00000000102082B0: 00 00 00 E9 08 00 00 00 B0 04 B9 00 3F 00 00 CC  ...é....°.¹.?..?
  00000000102082C0: 48 8B 40 10 48 89 85 58 FD FF FF E9 7C FF FF FF  H.@.H..X?ÿÿé|ÿÿÿ
  00000000102082D0: 48 8B 85 58 FD FF FF 48 85 C0 0F 84 05 00 00 00  H..X?ÿÿH.À......
  00000000102082E0: E9 08 00 00 00 B0 04 B9 17 3F 00 00 CC 48 8B 00  é....°.¹.?..?H..
  00000000102082F0: 48 8B 4D 10 48 89 01 E9 F9 00 00 00 48 8D BD 68  H.M.H..éù...H.½h
  0000000010208300: FD FF FF 48 8D 35 CE 9B DF FF B9 04 00 00 00 F3  ?ÿÿH.5Î.ßÿ¹....ó
  0000000010208310: 48 A5 48 83 EC 20 48 8D 8D 68 FF FF FF BA 40 00  H¥H.? H..hÿÿÿº@.
  0000000010208320: 00 00 4C 8D 85 68 FD FF FF 41 B9 00 01 00 00 E8  ..L..h?ÿÿA¹....è
  0000000010208330: CD CE FF FF 48 83 C4 20 48 83 EC 20 48 8D 0D 6B  ÍÎÿÿH.Ä H.? H..k
  0000000010208340: 9B DF FF BA 15 00 00 00 4C 8D 85 68 FD FF FF 41  .ßÿº....L..h?ÿÿA
  0000000010208350: B9 00 01 00 00 E8 A7 CE FF FF 48 83 C4 20 48 8B  ¹....è§ÎÿÿH.Ä H.
  0000000010208360: 05 23 CB FF FF 48 83 C0 02 48 F7 D8 48 89 45 E8  .#ËÿÿH.À.H÷ØH.Eè
  0000000010208370: 48 83 EC 20 48 8B 4D E8 48 81 F9 00 01 00 00 0F  H.? H.MèH.ù.....
  0000000010208380: 83 05 00 00 00 E9 08 00 00 00 B0 01 B9 AD 3F 00  .....é....°.¹­?.
  0000000010208390: 00 CC 48 C1 E1 03 48 8D 15 13 A2 FF FF 48 03 CA  .?HÁá.H...¢ÿÿH.Ê
  00000000102083A0: 48 8B 09 48 85 C9 0F 84 05 00 00 00 E9 08 00 00  H..H.É......é...
  00000000102083B0: 00 B0 04 B9 AE 3F 00 00 CC 48 81 C1 28 02 00 00  .°.¹®?..?H.Á(...
  00000000102083C0: BA 40 00 00 00 4C 8D 85 68 FD FF FF 41 B9 00 01  º@...L..h?ÿÿA¹..
  00000000102083D0: 00 00 E8 2A CE FF FF 48 83 C4 20 48 83 EC 20 48  ..è*ÎÿÿH.Ä H.? H
  00000000102083E0: 8D 8D 68 FD FF FF BA 00 01 00 00 FF 15 1F 9C DF  ..h?ÿÿº....ÿ...ß
  00000000102083F0: FF 48 83 C4 20 E9 08 00 00 00 B0 03 B9 E1 3F 00  ÿH.Ä é....°.¹á?.
  0000000010208400: 00 CC 5F 5E C9 C3 55 48 8B EC 48 83 EC 10 48 89  .?_^É?UH.?H.?.H.
  0000000010208410: 4D 10 48 C7 45 F0 00 00 00 00 48 8B 05 67 CA FF  M.HÇE?....H..gÊÿ
  0000000010208420: FF 48 83 C0 02 48 F7 D8 48 89 45 F8 48 8B 45 F8  ÿH.À.H÷ØH.EøH.Eø
  0000000010208430: 48 81 F8 00 01 00 00 0F 83 05 00 00 00 E9 08 00  H.ø..........é..
  0000000010208440: 00 00 B0 01 B9 68 40 00 00 CC 48 C1 E0 03 48 8D  ..°.¹h@..?HÁà.H.
  0000000010208450: 0D 5B A1 FF FF 48 03 C1 48 8B 00 48 85 C0 0F 84  .[¡ÿÿH.ÁH..H.À..
  0000000010208460: 05 00 00 00 E9 08 00 00 00 B0 04 B9 69 40 00 00  ....é....°.¹i@..
  0000000010208470: CC 48 8B 80 D8 02 00 00 48 85 C0 0F 84 38 01 00  ?H..Ø...H.À..8..
  0000000010208480: 00 48 8B 45 F8 48 81 F8 00 01 00 00 0F 83 05 00  .H.EøH.ø........
  0000000010208490: 00 00 E9 08 00 00 00 B0 01 B9 89 40 00 00 CC 48  ..é....°.¹.@..?H
  00000000102084A0: C1 E0 03 48 8D 0D 06 A1 FF FF 48 03 C1 48 8B 00  Áà.H...¡ÿÿH.ÁH..
  00000000102084B0: 48 85 C0 0F 84 05 00 00 00 E9 08 00 00 00 B0 04  H.À......é....°.
  00000000102084C0: B9 8A 40 00 00 CC 48 8B 80 D8 02 00 00 48 89 45  ¹.@..?H..Ø...H.E
  00000000102084D0: F0 48 8B 45 F0 48 85 C0 0F 84 05 00 00 00 E9 08  ?H.E?H.À......é.
  00000000102084E0: 00 00 00 B0 04 B9 9C 40 00 00 CC 48 8B 40 10 48  ...°.¹.@..?H.@.H
  00000000102084F0: 85 C0 0F 84 27 00 00 00 48 8B 45 F0 48 85 C0 0F  .À..'...H.E?H.À.
  0000000010208500: 84 05 00 00 00 E9 08 00 00 00 B0 04 B9 B1 40 00  .....é....°.¹±@.
  0000000010208510: 00 CC 48 8B 40 10 48 89 45 F0 E9 B2 FF FF FF 48  .?H.@.H.E?é²ÿÿÿH
  0000000010208520: 8B 45 F0 48 85 C0 0F 84 05 00 00 00 E9 08 00 00  .E?H.À......é...
  0000000010208530: 00 B0 04 B9 C4 40 00 00 CC 50 48 83 EC 28 48 8B  .°.¹Ä@..?PH.?(H.
  0000000010208540: 0D 0B A0 DF FF BA 08 00 00 00 41 B8 28 00 00 00  ...ßÿº....A¸(...
  0000000010208550: FF 15 22 A0 DF FF 48 83 C4 28 48 8B C8 58 48 83  ÿ.".ßÿH.Ä(H.ÈXH.
  0000000010208560: C1 10 48 8D 15 E7 9A DF FF 48 89 51 F8 48 89 48  Á.H..ç.ßÿH.QøH.H
  0000000010208570: 10 48 8B 45 F0 48 85 C0 0F 84 05 00 00 00 E9 08  .H.E?H.À......é.
  0000000010208580: 00 00 00 B0 04 B9 D2 40 00 00 CC 48 8B 40 10 48  ...°.¹?@..?H.@.H
  0000000010208590: 89 45 F0 48 8B 45 F0 48 85 C0 0F 84 05 00 00 00  .E?H.E?H.À......
  00000000102085A0: E9 08 00 00 00 B0 04 B9 DA 40 00 00 CC 48 8B 4D  é....°.¹Ú@..?H.M
  00000000102085B0: 10 48 89 08 E9 E9 00 00 00 48 8B 45 F8 48 81 F8  .H..éé...H.EøH.ø
  00000000102085C0: 00 01 00 00 0F 83 05 00 00 00 E9 08 00 00 00 B0  ..........é....°
  00000000102085D0: 01 B9 FB 40 00 00 CC 48 C1 E0 03 48 8D 0D CE 9F  .¹û@..?HÁà.H..Î.
  00000000102085E0: FF FF 48 03 C1 48 8B 00 48 85 C0 0F 84 05 00 00  ÿÿH.ÁH..H.À.....
  00000000102085F0: 00 E9 08 00 00 00 B0 04 B9 FC 40 00 00 CC 50 48  .é....°.¹ü@..?PH
  0000000010208600: 83 EC 28 48 8B 0D 46 9F DF FF BA 08 00 00 00 41  .?(H..F.ßÿº....A
  0000000010208610: B8 28 00 00 00 FF 15 5D 9F DF FF 48 83 C4 28 48  ¸(...ÿ.].ßÿH.Ä(H
  0000000010208620: 8B C8 58 48 83 C1 10 48 8D 15 22 9A DF FF 48 89  .ÈXH.Á.H..".ßÿH.
  0000000010208630: 51 F8 48 89 88 D8 02 00 00 48 8B 45 F8 48 81 F8  QøH..Ø...H.EøH.ø
  0000000010208640: 00 01 00 00 0F 83 05 00 00 00 E9 08 00 00 00 B0  ..........é....°
  0000000010208650: 01 B9 0E 41 00 00 CC 48 C1 E0 03 48 8D 0D 4E 9F  .¹.A..?HÁà.H..N.
  0000000010208660: FF FF 48 03 C1 48 8B 00 48 85 C0 0F 84 05 00 00  ÿÿH.ÁH..H.À.....
  0000000010208670: 00 E9 08 00 00 00 B0 04 B9 0F 41 00 00 CC 48 8B  .é....°.¹.A..?H.
  0000000010208680: 80 D8 02 00 00 48 85 C0 0F 84 05 00 00 00 E9 08  .Ø...H.À......é.
  0000000010208690: 00 00 00 B0 04 B9 15 41 00 00 CC 48 8B 4D 10 48  ...°.¹.A..?H.M.H
  00000000102086A0: 89 08 C9 C3 55 48 8B EC 48 81 EC B0 00 00 00 48  ..É?UH.?H.?°...H
  00000000102086B0: 89 4D 10 48 89 55 18 48 C7 45 F8 00 00 00 00 48  .M.H.U.HÇEø....H
  00000000102086C0: C7 45 F0 00 00 00 00 48 C7 45 E8 00 00 00 00 48  ÇE?....HÇEè....H
  00000000102086D0: 83 EC 20 E8 CE DC FF FF 48 83 C4 20 48 8B 4D 10  .? èÎÜÿÿH.Ä H.M.
  00000000102086E0: 48 89 01 48 8B 45 18 48 83 F8 FF 0F 8E 39 00 00  H..H.E.H.øÿ..9..
  00000000102086F0: 00 48 8B 45 10 48 8B 00 48 85 C0 0F 84 05 00 00  .H.E.H..H.À.....
  0000000010208700: 00 E9 08 00 00 00 B0 04 B9 FE 41 00 00 CC 48 8B  .é....°.¹?A..?H.
  0000000010208710: 4D 18 48 89 48 68 48 83 EC 20 48 8B 4D 10 48 8B  M.H.HhH.? H.M.H.
  0000000010208720: 09 E8 E0 FC FF FF 48 83 C4 20 48 83 EC 20 48 8D  .èàüÿÿH.Ä H.? H.
  0000000010208730: 0D 9B C6 FF FF 48 8B 55 10 48 8B 12 48 85 D2 0F  ..ÆÿÿH.U.H..H.?.
  0000000010208740: 84 05 00 00 00 E9 08 00 00 00 B0 04 B9 39 42 00  .....é....°.¹9B.
  0000000010208750: 00 CC 48 83 C2 08 E8 3C C9 FF FF 48 83 C4 20 48  .?H.Â.è<ÉÿÿH.Ä H
  0000000010208760: 83 EC 20 48 8D 0D 66 C6 FF FF 48 8B 55 10 48 8B  .? H..fÆÿÿH.U.H.
  0000000010208770: 12 48 85 D2 0F 84 05 00 00 00 E9 08 00 00 00 B0  .H.?......é....°
  0000000010208780: 04 B9 55 42 00 00 CC 48 83 C2 10 E8 07 C9 FF FF  .¹UB..?H.Â.è.Éÿÿ
  0000000010208790: 48 83 C4 20 48 83 EC 20 48 8D 0D 31 C6 FF FF 48  H.Ä H.? H..1ÆÿÿH
  00000000102087A0: 8B 55 10 48 8B 12 48 85 D2 0F 84 05 00 00 00 E9  .U.H..H.?......é
  00000000102087B0: 08 00 00 00 B0 04 B9 74 42 00 00 CC 48 83 C2 50  ....°.¹tB..?H.ÂP
  00000000102087C0: E8 D2 C8 FF FF 48 83 C4 20 48 83 EC 20 48 8B 4D  è?ÈÿÿH.Ä H.? H.M
  00000000102087D0: 10 48 8B 09 48 85 C9 0F 84 05 00 00 00 E9 08 00  .H..H.É......é..
  00000000102087E0: 00 00 B0 04 B9 91 42 00 00 CC 48 83 C1 40 E8 E7  ..°.¹.B..?H.Á@èç
  00000000102087F0: F7 FF FF 48 83 C4 20 48 83 EC 20 48 8D 0D CE C5  ÷ÿÿH.Ä H.? H..ÎÅ
  0000000010208800: FF FF 48 8D 55 E0 E8 8C C8 FF FF 48 83 C4 20 48  ÿÿH.Uàè.ÈÿÿH.Ä H
  0000000010208810: 83 EC 20 E8 63 DC FF FF 48 83 C4 20 48 8B 45 E0  .? ècÜÿÿH.Ä H.Eà
  0000000010208820: 48 83 F8 01 0F 84 C0 00 00 00 48 83 EC 20 48 8D  H.ø...À...H.? H.
  0000000010208830: 0D 9B C5 FF FF 48 8D 95 58 FF FF FF 41 B8 40 00  ..ÅÿÿH..XÿÿÿA¸@.
  0000000010208840: 00 00 FF 15 B0 96 DF FF 48 83 C4 20 48 83 EC 20  ..ÿ.°.ßÿH.Ä H.? 
  0000000010208850: 48 8D 0D 79 C5 FF FF 48 8D 55 D8 E8 37 C8 FF FF  H..yÅÿÿH.UØè7Èÿÿ
  0000000010208860: 48 83 C4 20 48 8B 45 D8 48 83 F8 01 0F 94 C0 0F  H.Ä H.EØH.ø...À.
  0000000010208870: B6 C0 88 85 57 FF FF FF 48 83 EC 20 48 8D 4D E8  ¶À..WÿÿÿH.? H.Mè
  0000000010208880: E8 55 F7 FF FF 48 83 C4 20 48 83 EC 20 48 8B 4D  èU÷ÿÿH.Ä H.? H.M
  0000000010208890: 10 48 8B 09 48 8B 55 E8 44 0F B6 85 57 FF FF FF  .H..H.UèD.¶.Wÿÿÿ
  00000000102088A0: E8 E2 CE FF FF 48 83 C4 20 48 89 45 F0 48 83 EC  èâÎÿÿH.Ä H.E?H.?
  00000000102088B0: 20 48 8B 4D F8 48 8D 95 58 FF FF FF 4C 8B 45 F0   H.MøH..XÿÿÿL.E?
  00000000102088C0: E8 3E F5 FF FF 48 83 C4 20 48 89 45 F8 48 83 EC  è>?ÿÿH.Ä H.EøH.?
  00000000102088D0: 20 48 8D 0D F8 C4 FF FF 48 8D 55 E0 E8 B6 C7 FF   H..øÄÿÿH.Uàè¶Çÿ
  00000000102088E0: FF 48 83 C4 20 E9 32 FF FF FF 48 8B 45 10 48 8B  ÿH.Ä é2ÿÿÿH.E.H.
  00000000102088F0: 00 48 85 C0 0F 84 05 00 00 00 E9 08 00 00 00 B0  .H.À......é....°
  0000000010208900: 04 B9 A9 43 00 00 CC 48 8B 0D 92 C5 FF FF 48 85  .¹©C..?H...ÅÿÿH.
  0000000010208910: C9 0F 84 05 00 00 00 E9 08 00 00 00 B0 04 B9 BC  É......é....°.¹¼
  0000000010208920: 43 00 00 CC 48 8B 09 48 89 48 48 48 83 EC 20 E8  C..?H..H.HHH.? è
  0000000010208930: BC DB FF FF 48 83 C4 20 C9 C3 55 48 8B EC 48 81  ¼ÛÿÿH.Ä É?UH.?H.
  0000000010208940: EC C0 00 00 00 48 89 4D 10 48 C7 45 F8 00 00 00  ?À...H.M.HÇEø...
  0000000010208950: 00 48 C7 45 F0 00 00 00 00 48 C7 85 68 FF FF FF  .HÇE?....HÇ.hÿÿÿ
  0000000010208960: 00 00 00 00 48 83 EC 20 48 8D 0D 61 C4 FF FF 48  ....H.? H..aÄÿÿH
  0000000010208970: 8D 95 50 FF FF FF E8 1C C7 FF FF 48 83 C4 20 48  ..Pÿÿÿè.ÇÿÿH.Ä H
  0000000010208980: 83 EC 20 48 8D 0D 46 C4 FF FF 48 8D 95 48 FF FF  .? H..FÄÿÿH..Hÿÿ
  0000000010208990: FF E8 01 C7 FF FF 48 83 C4 20 48 83 EC 20 48 8D  ÿè.ÇÿÿH.Ä H.? H.
  00000000102089A0: 0D 2B C4 FF FF 48 8D 95 58 FF FF FF E8 E6 C6 FF  .+ÄÿÿH..XÿÿÿèæÆÿ
  00000000102089B0: FF 48 83 C4 20 48 8B 85 58 FF FF FF 48 83 F8 08  ÿH.Ä H..XÿÿÿH.ø.
  00000000102089C0: 0F 85 BC 02 00 00 48 83 EC 20 E8 A1 D7 FF FF 48  ..¼...H.? è¡×ÿÿH
  00000000102089D0: 83 C4 20 48 8B 4D 10 48 89 01 48 83 EC 20 48 8B  .Ä H.M.H..H.? H.
  00000000102089E0: 4D 10 48 8B 09 E8 1C FA FF FF 48 83 C4 20 48 8B  M.H..è.úÿÿH.Ä H.
  00000000102089F0: 45 10 48 8B 00 48 85 C0 0F 84 05 00 00 00 E9 08  E.H..H.À......é.
  0000000010208A00: 00 00 00 B0 04 B9 FF 44 00 00 CC 48 8B 8D 50 FF  ...°.¹ÿD..?H..Pÿ
  0000000010208A10: FF FF 48 89 48 68 48 8B 45 10 48 8B 00 48 85 C0  ÿÿH.HhH.E.H..H.À
  0000000010208A20: 0F 84 05 00 00 00 E9 08 00 00 00 B0 04 B9 0F 45  ......é....°.¹.E
  0000000010208A30: 00 00 CC 48 8B 8D 48 FF FF FF 48 89 48 38 48 8B  ..?H..HÿÿÿH.H8H.
  0000000010208A40: 45 10 48 8B 00 48 85 C0 0F 84 05 00 00 00 E9 08  E.H..H.À......é.
  0000000010208A50: 00 00 00 B0 04 B9 21 45 00 00 CC 31 C9 48 89 48  ...°.¹!E..?1ÉH.H
  0000000010208A60: 28 48 83 EC 20 48 8D 0D 64 C3 FF FF 48 8B 55 10  (H.? H..d?ÿÿH.U.
  0000000010208A70: 48 8B 12 48 85 D2 0F 84 05 00 00 00 E9 08 00 00  H..H.?......é...
  0000000010208A80: 00 B0 04 B9 43 45 00 00 CC 48 83 C2 08 E8 05 C6  .°.¹CE..?H.Â.è.Æ
  0000000010208A90: FF FF 48 83 C4 20 48 83 EC 20 48 8D 0D 2F C3 FF  ÿÿH.Ä H.? H../?ÿ
  0000000010208AA0: FF 48 8B 55 10 48 8B 12 48 85 D2 0F 84 05 00 00  ÿH.U.H..H.?.....
  0000000010208AB0: 00 E9 08 00 00 00 B0 04 B9 5F 45 00 00 CC 48 83  .é....°.¹_E..?H.
  0000000010208AC0: C2 10 E8 D0 C5 FF FF 48 83 C4 20 48 83 EC 20 48  Â.è?ÅÿÿH.Ä H.? H
  0000000010208AD0: 8B 4D 10 48 8B 09 48 85 C9 0F 84 05 00 00 00 E9  .M.H..H.É......é
  0000000010208AE0: 08 00 00 00 B0 04 B9 7A 45 00 00 CC 48 83 C1 40  ....°.¹zE..?H.Á@
  0000000010208AF0: E8 E5 F4 FF FF 48 83 C4 20 48 83 EC 20 48 8B 4D  èåôÿÿH.Ä H.? H.M
  0000000010208B00: 10 48 8B 09 E8 6D D7 FF FF 48 83 C4 20 48 83 EC  .H..èm×ÿÿH.Ä H.?
  0000000010208B10: 20 48 8D 0D B8 C2 FF FF 48 8D 95 60 FF FF FF E8   H..¸ÂÿÿH..`ÿÿÿè
  0000000010208B20: 73 C5 FF FF 48 83 C4 20 48 83 EC 20 E8 4A D9 FF  sÅÿÿH.Ä H.? èJÙÿ
  0000000010208B30: FF 48 83 C4 20 48 8B 85 60 FF FF FF 48 83 F8 01  ÿH.Ä H..`ÿÿÿH.ø.
  0000000010208B40: 0F 84 E9 00 00 00 48 83 EC 20 48 8D 0D 7F C2 FF  ..é...H.? H...Âÿ
  0000000010208B50: FF 48 8D 95 70 FF FF FF 41 B8 40 00 00 00 FF 15  ÿH..pÿÿÿA¸@...ÿ.
  0000000010208B60: 94 93 DF FF 48 83 C4 20 48 83 EC 20 48 8D 8D 68  ..ßÿH.Ä H.? H..h
  0000000010208B70: FF FF FF E8 62 F4 FF FF 48 83 C4 20 48 83 EC 20  ÿÿÿèbôÿÿH.Ä H.? 
  0000000010208B80: 48 8B 4D 10 48 8B 09 48 8B 95 68 FF FF FF E8 53  H.M.H..H..hÿÿÿèS
  0000000010208B90: CD FF FF 48 83 C4 20 48 89 45 F0 48 83 EC 20 48  ÍÿÿH.Ä H.E?H.? H
  0000000010208BA0: 8D 0D 2A C2 FF FF 48 8B 55 F0 4C 8B 42 F8 4C 8D  ..*ÂÿÿH.U?L.BøL.
  0000000010208BB0: 0D 3B 95 DF FF 4D 39 48 08 0F 85 05 00 00 00 E9  .;.ßÿM9H.......é
  0000000010208BC0: 08 00 00 00 B0 02 B9 47 46 00 00 CC 48 85 D2 0F  ....°.¹GF..?H.?.
  0000000010208BD0: 84 05 00 00 00 E9 08 00 00 00 B0 04 B9 48 46 00  .....é....°.¹HF.
  0000000010208BE0: 00 CC 48 83 C2 28 E8 AC C4 FF FF 48 83 C4 20 48  .?H.Â(è¬ÄÿÿH.Ä H
  0000000010208BF0: 83 EC 20 48 8B 4D F8 48 8D 95 70 FF FF FF 4C 8B  .? H.MøH..pÿÿÿL.
  0000000010208C00: 45 F0 E8 FC F1 FF FF 48 83 C4 20 48 89 45 F8 48  E?èüñÿÿH.Ä H.EøH
  0000000010208C10: 83 EC 20 48 8D 0D B6 C1 FF FF 48 8D 95 60 FF FF  .? H..¶ÁÿÿH..`ÿÿ
  0000000010208C20: FF E8 71 C4 FF FF 48 83 C4 20 E9 06 FF FF FF 48  ÿèqÄÿÿH.Ä é.ÿÿÿH
  0000000010208C30: 8B 45 10 48 8B 00 48 85 C0 0F 84 05 00 00 00 E9  .E.H..H.À......é
  0000000010208C40: 08 00 00 00 B0 04 B9 A0 46 00 00 CC 48 8B 0D 4D  ....°.¹.F..?H..M
  0000000010208C50: C2 FF FF 48 85 C9 0F 84 05 00 00 00 E9 08 00 00  ÂÿÿH.É......é...
  0000000010208C60: 00 B0 04 B9 B3 46 00 00 CC 48 8B 09 48 89 48 48  .°.¹³F..?H..H.HH
  0000000010208C70: 48 83 EC 20 E8 77 D8 FF FF 48 83 C4 20 E9 5B 02  H.? èwØÿÿH.Ä é[.
  0000000010208C80: 00 00 48 8B 85 58 FF FF FF 48 83 F8 07 0F 85 23  ..H..XÿÿÿH.ø...#
  0000000010208C90: 01 00 00 48 83 EC 20 48 8D 0D 32 C1 FF FF 48 8D  ...H.? H..2ÁÿÿH.
  0000000010208CA0: 95 40 FF FF FF E8 ED C3 FF FF 48 83 C4 20 48 83  .@ÿÿÿèí?ÿÿH.Ä H.
  0000000010208CB0: EC 20 48 8B 8D 40 FF FF FF E8 8C D3 FF FF 48 83  ? H..@ÿÿÿè.ÓÿÿH.
  0000000010208CC0: C4 20 48 8B 4D 10 48 89 01 48 8B 45 10 48 8B 00  Ä H.M.H..H.E.H..
  0000000010208CD0: 48 85 C0 0F 84 05 00 00 00 E9 08 00 00 00 B0 04  H.À......é....°.
  0000000010208CE0: B9 18 47 00 00 CC 48 8B 8D 50 FF FF FF 48 89 48  ¹.G..?H..PÿÿÿH.H
  0000000010208CF0: 68 48 83 EC 20 48 8B 4D 10 48 8B 09 E8 05 F7 FF  hH.? H.M.H..è.÷ÿ
  0000000010208D00: FF 48 83 C4 20 48 83 EC 20 48 8D 0D C0 C0 FF FF  ÿH.Ä H.? H..ÀÀÿÿ
  0000000010208D10: 48 8B 55 10 48 8B 12 48 85 D2 0F 84 05 00 00 00  H.U.H..H.?......
  0000000010208D20: E9 08 00 00 00 B0 04 B9 50 47 00 00 CC 48 83 C2  é....°.¹PG..?H.Â
  0000000010208D30: 08 E8 61 C3 FF FF 48 83 C4 20 48 83 EC 20 48 8D  .èa?ÿÿH.Ä H.? H.
  0000000010208D40: 0D 8B C0 FF FF 48 8B 55 10 48 8B 12 48 85 D2 0F  ..ÀÿÿH.U.H..H.?.
  0000000010208D50: 84 05 00 00 00 E9 08 00 00 00 B0 04 B9 6C 47 00  .....é....°.¹lG.
  0000000010208D60: 00 CC 48 83 C2 10 E8 2C C3 FF FF 48 83 C4 20 48  .?H.Â.è,?ÿÿH.Ä H
  0000000010208D70: 83 EC 20 48 8B 4D 10 48 8B 09 48 85 C9 0F 84 05  .? H.M.H..H.É...
  0000000010208D80: 00 00 00 E9 08 00 00 00 B0 04 B9 87 47 00 00 CC  ...é....°.¹.G..?
  0000000010208D90: 48 83 C1 40 E8 41 F2 FF FF 48 83 C4 20 48 83 EC  H.Á@èA?ÿÿH.Ä H.?
  0000000010208DA0: 20 48 8B 4D 10 48 8B 09 E8 EF D2 FF FF 48 83 C4   H.M.H..èï?ÿÿH.Ä
  0000000010208DB0: 20 E9 27 01 00 00 48 8B 85 58 FF FF FF 48 83 F8   é'...H..XÿÿÿH.ø
  0000000010208DC0: 05 0F 85 ED 00 00 00 48 83 EC 20 E8 87 D5 FF FF  ...í...H.? è.?ÿÿ
  0000000010208DD0: 48 83 C4 20 48 8B 4D 10 48 89 01 48 8B 45 10 48  H.Ä H.M.H..H.E.H
  0000000010208DE0: 8B 00 48 85 C0 0F 84 05 00 00 00 E9 08 00 00 00  ..H.À......é....
  0000000010208DF0: B0 04 B9 D6 47 00 00 CC 48 8B 8D 50 FF FF FF 48  °.¹ÖG..?H..PÿÿÿH
  0000000010208E00: 89 48 68 48 83 EC 20 48 8B 4D 10 48 8B 09 E8 F3  .HhH.? H.M.H..èó
  0000000010208E10: F5 FF FF 48 83 C4 20 48 83 EC 20 48 8D 0D AE BF  ?ÿÿH.Ä H.? H..®¿
  0000000010208E20: FF FF 48 8B 55 10 48 8B 12 48 85 D2 0F 84 05 00  ÿÿH.U.H..H.?....
  0000000010208E30: 00 00 E9 08 00 00 00 B0 04 B9 0E 48 00 00 CC 48  ..é....°.¹.H..?H
  0000000010208E40: 83 C2 08 E8 4F C2 FF FF 48 83 C4 20 48 83 EC 20  .Â.èOÂÿÿH.Ä H.? 
  0000000010208E50: 48 8D 0D 79 BF FF FF 48 8B 55 10 48 8B 12 48 85  H..y¿ÿÿH.U.H..H.
  0000000010208E60: D2 0F 84 05 00 00 00 E9 08 00 00 00 B0 04 B9 2A  ?......é....°.¹*
  0000000010208E70: 48 00 00 CC 48 83 C2 10 E8 1A C2 FF FF 48 83 C4  H..?H.Â.è.ÂÿÿH.Ä
  0000000010208E80: 20 48 83 EC 20 48 8B 4D 10 48 8B 09 48 85 C9 0F   H.? H.M.H..H.É.
  0000000010208E90: 84 05 00 00 00 E9 08 00 00 00 B0 04 B9 45 48 00  .....é....°.¹EH.
  0000000010208EA0: 00 CC 48 83 C1 40 E8 2F F1 FF FF 48 83 C4 20 E9  .?H.Á@è/ñÿÿH.Ä é
  0000000010208EB0: 29 00 00 00 48 8B 85 58 FF FF FF 48 83 F8 06 0F  )...H..XÿÿÿH.ø..
  0000000010208EC0: 85 18 00 00 00 48 83 EC 20 48 8B 4D 10 48 8B 95  .....H.? H.M.H..
  0000000010208ED0: 50 FF FF FF E8 CB F7 FF FF 48 83 C4 20 C9 C3 55  PÿÿÿèË÷ÿÿH.Ä É?U
  0000000010208EE0: 48 8B EC 48 89 4D 10 48 83 EC 20 48 8D 0D DE BE  H.?H.M.H.? H..?¾
  0000000010208EF0: FF FF 48 8B 55 10 FF 15 A4 8F DF FF 48 83 C4 20  ÿÿH.U.ÿ.¤.ßÿH.Ä 
  0000000010208F00: 48 83 EC 20 48 8D 0D C5 BE FF FF 48 8B 55 10 48  H.? H..Å¾ÿÿH.U.H
  0000000010208F10: 83 C2 08 FF 15 87 8F DF FF 48 83 C4 20 C9 C3 55  .Â.ÿ...ßÿH.Ä É?U
  0000000010208F20: 48 8B EC 48 81 EC 80 03 00 00 56 57 48 C7 45 F8  H.?H.?....VWHÇEø
  0000000010208F30: 00 00 00 00 48 C7 45 F0 00 00 00 00 48 C7 45 B8  ....HÇE?....HÇE¸
  0000000010208F40: 00 00 00 00 48 C7 45 B0 00 00 00 00 48 C7 85 A8  ....HÇE°....HÇ.¨
  0000000010208F50: FE FF FF 00 00 00 00 31 C0 48 89 45 E0 48 8B 05  ?ÿÿ....1ÀH.EàH..
  0000000010208F60: 4C BE FF FF 48 83 E8 02 48 89 85 90 FC FF FF 48  L¾ÿÿH.è.H...üÿÿH
  0000000010208F70: 8B 45 E0 48 3B 85 90 FC FF FF 0F 8F C9 01 00 00  .EàH;..üÿÿ..É...
  0000000010208F80: 48 8B 45 E0 48 89 45 D0 48 8B 45 E0 48 83 C0 01  H.EàH.E?H.EàH.À.
  0000000010208F90: 48 89 45 D8 48 8B 05 15 BE FF FF 48 83 E8 01 48  H.EØH...¾ÿÿH.è.H
  0000000010208FA0: 89 85 88 FC FF FF 48 8B 45 D8 48 3B 85 88 FC FF  ...üÿÿH.EØH;..üÿ
  0000000010208FB0: FF 0F 8F B3 00 00 00 48 8B 45 D0 48 81 F8 00 01  ÿ..³...H.E?H.ø..
  0000000010208FC0: 00 00 0F 83 05 00 00 00 E9 08 00 00 00 B0 01 B9  ........é....°.¹
  0000000010208FD0: 3F 4A 00 00 CC 48 C1 E0 03 48 8D 0D D0 95 FF FF  ?J..?HÁà.H..?.ÿÿ
  0000000010208FE0: 48 03 C1 48 8B 00 48 85 C0 0F 84 05 00 00 00 E9  H.ÁH..H.À......é
  0000000010208FF0: 08 00 00 00 B0 04 B9 40 4A 00 00 CC 48 8B 80 B8  ....°.¹@J..?H..¸
  0000000010209000: 02 00 00 48 8B 4D D8 48 81 F9 00 01 00 00 0F 83  ...H.MØH.ù......
  0000000010209010: 05 00 00 00 E9 08 00 00 00 B0 01 B9 50 4A 00 00  ....é....°.¹PJ..
  0000000010209020: CC 48 C1 E1 03 48 8D 15 84 95 FF FF 48 03 CA 48  ?HÁá.H....ÿÿH.ÊH
  0000000010209030: 8B 09 48 85 C9 0F 84 05 00 00 00 E9 08 00 00 00  ..H.É......é....
  0000000010209040: B0 04 B9 51 4A 00 00 CC 48 8B 89 B8 02 00 00 48  °.¹QJ..?H..¸...H
  0000000010209050: 3B C1 0F 8E 08 00 00 00 48 8B 45 D8 48 89 45 D0  ;Á......H.EØH.E?
  0000000010209060: 48 83 45 D8 01 E9 3C FF FF FF 48 8B 45 E0 48 8B  H.EØ.é<ÿÿÿH.EàH.
  0000000010209070: 4D D0 48 3B C1 0F 84 C4 00 00 00 48 8B 45 E0 48  M?H;Á..Ä...H.EàH
  0000000010209080: 81 F8 00 01 00 00 0F 83 05 00 00 00 E9 08 00 00  .ø..........é...
  0000000010209090: 00 B0 01 B9 92 4A 00 00 CC 48 C1 E0 03 48 8D 0D  .°.¹.J..?HÁà.H..
  00000000102090A0: 0C 95 FF FF 48 03 C1 48 8B 00 48 89 45 B8 48 8B  ..ÿÿH.ÁH..H.E¸H.
  00000000102090B0: 45 E0 48 81 F8 00 01 00 00 0F 83 05 00 00 00 E9  EàH.ø..........é
  00000000102090C0: 08 00 00 00 B0 01 B9 A2 4A 00 00 CC 48 C1 E0 03  ....°.¹¢J..?HÁà.
  00000000102090D0: 48 8D 0D D9 94 FF FF 48 03 C1 48 8B 4D D0 48 81  H..Ù.ÿÿH.ÁH.M?H.
  00000000102090E0: F9 00 01 00 00 0F 83 05 00 00 00 E9 08 00 00 00  ù..........é....
  00000000102090F0: B0 01 B9 B0 4A 00 00 CC 48 C1 E1 03 48 8D 15 AD  °.¹°J..?HÁá.H..­
  0000000010209100: 94 FF FF 48 03 CA 48 8B 09 48 89 08 48 8B 45 D0  .ÿÿH.ÊH..H..H.E?
  0000000010209110: 48 81 F8 00 01 00 00 0F 83 05 00 00 00 E9 08 00  H.ø..........é..
  0000000010209120: 00 00 B0 01 B9 BC 4A 00 00 CC 48 C1 E0 03 48 8D  ..°.¹¼J..?HÁà.H.
  0000000010209130: 0D 7B 94 FF FF 48 03 C1 48 8B 4D B8 48 89 08 48  .{.ÿÿH.ÁH.M¸H..H
  0000000010209140: 83 45 E0 01 E9 26 FE FF FF 31 C0 48 89 45 E0 48  .Eà.é&?ÿÿ1ÀH.EàH
  0000000010209150: 8B 05 5A BC FF FF 48 83 E8 01 48 89 85 80 FC FF  ..Z¼ÿÿH.è.H...üÿ
  0000000010209160: FF 48 8B 45 E0 48 3B 85 80 FC FF FF 0F 8F C4 07  ÿH.EàH;..üÿÿ..Ä.
  0000000010209170: 00 00 48 8B 45 E0 48 81 F8 00 01 00 00 0F 83 05  ..H.EàH.ø.......
  0000000010209180: 00 00 00 E9 08 00 00 00 B0 01 B9 07 4B 00 00 CC  ...é....°.¹.K..?
  0000000010209190: 48 C1 E0 03 48 8D 0D 15 94 FF FF 48 03 C1 48 8B  HÁà.H....ÿÿH.ÁH.
  00000000102091A0: 00 48 89 45 B8 48 83 EC 20 48 8D 0D 20 BC FF FF  .H.E¸H.? H.. ¼ÿÿ
  00000000102091B0: 48 8B 55 B8 48 85 D2 0F 84 05 00 00 00 E9 08 00  H.U¸H.?......é..
  00000000102091C0: 00 00 B0 04 B9 22 4B 00 00 CC 48 83 C2 28 41 B8  ..°.¹"K..?H.Â(A¸
  00000000102091D0: 00 01 00 00 FF 15 BE 8C DF FF 48 83 C4 20 48 83  ....ÿ.¾.ßÿH.Ä H.
  00000000102091E0: EC 20 48 8B 4D B8 48 85 C9 0F 84 05 00 00 00 E9  ? H.M¸H.É......é
  00000000102091F0: 08 00 00 00 B0 04 B9 3E 4B 00 00 CC 48 81 C1 A8  ....°.¹>K..?H.Á¨
  0000000010209200: 02 00 00 E8 D7 FC FF FF 48 83 C4 20 48 83 EC 20  ...è×üÿÿH.Ä H.? 
  0000000010209210: 48 8D 0D B9 BB FF FF 48 8B 55 B8 48 85 D2 0F 84  H..¹»ÿÿH.U¸H.?..
  0000000010209220: 05 00 00 00 E9 08 00 00 00 B0 04 B9 5C 4B 00 00  ....é....°.¹\K..
  0000000010209230: CC 48 81 C2 B8 02 00 00 E8 5A BE FF FF 48 83 C4  ?H.Â¸...èZ¾ÿÿH.Ä
  0000000010209240: 20 48 83 EC 20 E8 31 D2 FF FF 48 83 C4 20 48 8B   H.? è1?ÿÿH.Ä H.
  0000000010209250: 45 E0 48 83 C0 02 48 F7 D8 48 89 05 28 BC FF FF  EàH.À.H÷ØH..(¼ÿÿ
  0000000010209260: 31 C0 48 89 45 F8 48 83 EC 20 48 8D 0D 5F BB FF  1ÀH.EøH.? H.._»ÿ
  0000000010209270: FF 48 8D 55 E8 E8 1D BE FF FF 48 83 C4 20 48 8B  ÿH.Uèè.¾ÿÿH.Ä H.
  0000000010209280: 45 E8 48 83 F8 FF 0F 84 52 06 00 00 48 8B 45 E8  EèH.øÿ..R...H.Eè
  0000000010209290: 48 83 F8 04 0F 85 8F 00 00 00 48 83 EC 20 48 8D  H.ø.......H.? H.
  00000000102092A0: 0D 2B BB FF FF 48 8D 95 30 FF FF FF 41 B8 40 00  .+»ÿÿH..0ÿÿÿA¸@.
  00000000102092B0: 00 00 FF 15 40 8C DF FF 48 83 C4 20 48 83 EC 20  ..ÿ.@.ßÿH.Ä H.? 
  00000000102092C0: 48 8D 0D 09 BB FF FF 48 8D 55 C8 E8 C7 BD FF FF  H...»ÿÿH.UÈèÇ½ÿÿ
  00000000102092D0: 48 83 C4 20 48 83 EC 20 48 8D 8D A8 FE FF FF E8  H.Ä H.? H..¨?ÿÿè
  00000000102092E0: F6 EC FF FF 48 83 C4 20 48 83 EC 20 48 8B 8D A8  ö?ÿÿH.Ä H.? H..¨
  00000000102092F0: FE FF FF 48 8B 55 C8 E8 D4 C3 FF FF 48 83 C4 20  ?ÿÿH.UÈèÔ?ÿÿH.Ä 
  0000000010209300: 48 89 45 F0 48 83 EC 20 48 8B 4D F8 48 8D 95 30  H.E?H.? H.MøH..0
  0000000010209310: FF FF FF 4C 8B 45 F0 E8 E7 EA FF FF 48 83 C4 20  ÿÿÿL.E?èçêÿÿH.Ä 
  0000000010209320: 48 89 45 F8 E9 98 05 00 00 48 8B 45 E8 48 83 F8  H.Eøé....H.EèH.ø
  0000000010209330: 01 0F 85 73 00 00 00 48 83 EC 20 48 8D 0D 8E BA  ...s...H.? H...º
  0000000010209340: FF FF 48 8D 95 30 FF FF FF 41 B8 40 00 00 00 FF  ÿÿH..0ÿÿÿA¸@...ÿ
  0000000010209350: 15 A3 8B DF FF 48 83 C4 20 48 83 EC 20 48 8D 8D  .£.ßÿH.Ä H.? H..
  0000000010209360: A8 FE FF FF E8 71 EC FF FF 48 83 C4 20 48 83 EC  ¨?ÿÿèq?ÿÿH.Ä H.?
  0000000010209370: 20 48 8B 8D A8 FE FF FF E8 16 CA FF FF 48 83 C4   H..¨?ÿÿè.ÊÿÿH.Ä
  0000000010209380: 20 48 89 45 F0 48 83 EC 20 48 8B 4D F8 48 8D 95   H.E?H.? H.MøH..
  0000000010209390: 30 FF FF FF 4C 8B 45 F0 E8 66 EA FF FF 48 83 C4  0ÿÿÿL.E?èfêÿÿH.Ä
  00000000102093A0: 20 48 89 45 F8 E9 17 05 00 00 48 8B 45 E8 48 83   H.Eøé....H.EèH.
  00000000102093B0: F8 03 0F 85 A5 01 00 00 48 83 EC 20 48 8D 0D 0D  ø...¥...H.? H...
  00000000102093C0: BA FF FF 48 8D 95 30 FF FF FF 41 B8 40 00 00 00  ºÿÿH..0ÿÿÿA¸@...
  00000000102093D0: FF 15 22 8B DF FF 48 83 C4 20 48 83 EC 20 48 8D  ÿ.".ßÿH.Ä H.? H.
  00000000102093E0: 0D EB B9 FF FF 48 8D 55 C8 E8 A9 BC FF FF 48 83  .ë¹ÿÿH.UÈè©¼ÿÿH.
  00000000102093F0: C4 20 48 83 EC 20 48 8D 8D A8 FE FF FF E8 D8 EB  Ä H.? H..¨?ÿÿèØë
  0000000010209400: FF FF 48 83 C4 20 48 8B 85 A8 FE FF FF 48 8B 0D  ÿÿH.Ä H..¨?ÿÿH..
  0000000010209410: AC BB FF FF 48 3B C1 0F 84 61 00 00 00 48 83 EC  ¬»ÿÿH;Á..a...H.?
  0000000010209420: 20 48 8B 8D A8 FE FF FF E8 CE C1 FF FF 48 83 C4   H..¨?ÿÿèÎÁÿÿH.Ä
  0000000010209430: 20 48 89 45 F0 48 8B 45 F0 48 8B 48 F8 48 8D 15   H.E?H.E?H.HøH..
  0000000010209440: FC 8C DF FF 48 39 51 08 0F 85 05 00 00 00 E9 08  ü.ßÿH9Q.......é.
  0000000010209450: 00 00 00 B0 02 B9 A4 4D 00 00 CC 48 85 C0 0F 84  ...°.¹¤M..?H.À..
  0000000010209460: 05 00 00 00 E9 08 00 00 00 B0 04 B9 A5 4D 00 00  ....é....°.¹¥M..
  0000000010209470: CC B9 01 00 00 00 88 48 40 E9 34 00 00 00 48 83  ?¹.....H@é4...H.
  0000000010209480: EC 20 48 8D 0D 47 B9 FF FF 48 8D 55 C0 E8 05 BC  ? H..G¹ÿÿH.UÀè.¼
  0000000010209490: FF FF 48 83 C4 20 48 83 EC 20 48 8D 0D F5 89 DF  ÿÿH.Ä H.? H..?.ß
  00000000102094A0: FF 48 8B 55 C0 E8 2E C5 FF FF 48 83 C4 20 48 89  ÿH.UÀè.ÅÿÿH.Ä H.
  00000000102094B0: 45 F0 48 8B 45 F0 48 8B 48 F8 48 8D 15 7F 8C DF  E?H.E?H.HøH....ß
  00000000102094C0: FF 48 39 51 08 0F 85 05 00 00 00 E9 08 00 00 00  ÿH9Q.......é....
  00000000102094D0: B0 02 B9 00 4E 00 00 CC 48 85 C0 0F 84 05 00 00  °.¹.N..?H.À.....
  00000000102094E0: 00 E9 08 00 00 00 B0 04 B9 01 4E 00 00 CC 48 8B  .é....°.¹.N..?H.
  00000000102094F0: 4D C8 48 89 48 30 48 8B 45 F0 48 8B 48 F8 48 8D  MÈH.H0H.E?H.HøH.
  0000000010209500: 15 3B 8C DF FF 48 39 51 08 0F 85 05 00 00 00 E9  .;.ßÿH9Q.......é
  0000000010209510: 08 00 00 00 B0 02 B9 15 4E 00 00 CC 48 85 C0 0F  ....°.¹.N..?H.À.
  0000000010209520: 84 05 00 00 00 E9 08 00 00 00 B0 04 B9 16 4E 00  .....é....°.¹.N.
  0000000010209530: 00 CC 31 C9 48 89 48 28 48 83 EC 20 48 8B 4D F8  .?1ÉH.H(H.? H.Mø
  0000000010209540: 48 8D 95 30 FF FF FF 4C 8B 45 F0 E8 B3 E8 FF FF  H..0ÿÿÿL.E?è³èÿÿ
  0000000010209550: 48 83 C4 20 48 89 45 F8 E9 64 03 00 00 48 8B 45  H.Ä H.Eøéd...H.E
  0000000010209560: E8 48 83 F8 05 0F 85 23 01 00 00 48 83 EC 20 48  èH.ø...#...H.? H
  0000000010209570: 8D 0D 5A B8 FF FF 48 8D 95 30 FF FF FF 41 B8 40  ..Z¸ÿÿH..0ÿÿÿA¸@
  0000000010209580: 00 00 00 FF 15 6F 89 DF FF 48 83 C4 20 48 83 EC  ...ÿ.o.ßÿH.Ä H.?
  0000000010209590: 20 E8 6D C7 FF FF 48 83 C4 20 48 89 45 F0 48 83   èmÇÿÿH.Ä H.E?H.
  00000000102095A0: EC 20 48 8D 0D 27 B8 FF FF 48 8B 55 F0 4C 8B 42  ? H..'¸ÿÿH.U?L.B
  00000000102095B0: F8 4C 8D 0D 28 8C DF FF 4D 39 48 08 0F 85 05 00  øL..(.ßÿM9H.....
  00000000102095C0: 00 00 E9 08 00 00 00 B0 02 B9 B6 4E 00 00 CC 48  ..é....°.¹¶N..?H
  00000000102095D0: 85 D2 0F 84 05 00 00 00 E9 08 00 00 00 B0 04 B9  .?......é....°.¹
  00000000102095E0: B7 4E 00 00 CC 48 83 C2 30 E8 A9 BA FF FF 48 83  ·N..?H.Â0è©ºÿÿH.
  00000000102095F0: C4 20 48 8B 45 F0 48 8B 48 F8 48 8D 15 DF 8B DF  Ä H.E?H.HøH..ß.ß
  0000000010209600: FF 48 39 51 08 0F 85 05 00 00 00 E9 08 00 00 00  ÿH9Q.......é....
  0000000010209610: B0 02 B9 CB 4E 00 00 CC 48 85 C0 0F 84 05 00 00  °.¹ËN..?H.À.....
  0000000010209620: 00 E9 08 00 00 00 B0 04 B9 CC 4E 00 00 CC 31 C9  .é....°.¹?N..?1É
  0000000010209630: 48 89 48 28 48 83 EC 20 48 8B 4D F0 48 85 C9 0F  H.H(H.? H.M?H.É.
  0000000010209640: 84 05 00 00 00 E9 08 00 00 00 B0 04 B9 E3 4E 00  .....é....°.¹?N.
  0000000010209650: 00 CC 48 83 C1 08 48 BA FF FF FF FF FF FF FF FF  .?H.Á.Hºÿÿÿÿÿÿÿÿ
  0000000010209660: E8 3F F0 FF FF 48 83 C4 20 48 83 EC 20 48 8B 4D  è??ÿÿH.Ä H.? H.M
  0000000010209670: F8 48 8D 95 30 FF FF FF 4C 8B 45 F0 E8 82 E7 FF  øH..0ÿÿÿL.E?è.çÿ
  0000000010209680: FF 48 83 C4 20 48 89 45 F8 E9 33 02 00 00 48 8B  ÿH.Ä H.Eøé3...H.
  0000000010209690: 45 E8 48 85 C0 0F 85 26 02 00 00 48 83 EC 20 48  EèH.À..&...H.? H
  00000000102096A0: 8D 0D 2A B7 FF FF 48 8D 95 30 FF FF FF 41 B8 40  ..*·ÿÿH..0ÿÿÿA¸@
  00000000102096B0: 00 00 00 FF 15 3F 88 DF FF 48 83 C4 20 48 83 EC  ...ÿ.?.ßÿH.Ä H.?
  00000000102096C0: 20 48 8D 8D 98 FE FF FF E8 12 F8 FF FF 48 83 C4   H...?ÿÿè.øÿÿH.Ä
  00000000102096D0: 20 48 83 EC 20 48 8D 8D 30 FF FF FF E8 F1 E5 FF   H.? H..0ÿÿÿèñåÿ
  00000000102096E0: FF 48 83 C4 20 48 89 45 B0 48 8D BD 30 FF FF FF  ÿH.Ä H.E°H.½0ÿÿÿ
  00000000102096F0: 48 8D 35 09 B7 FF FF 33 C0 48 83 F8 40 0F 84 3A  H.5.·ÿÿ3ÀH.ø@..:
  0000000010209700: 00 00 00 66 83 3E 00 0F 84 30 00 00 00 48 83 F8  ...f.>...0...H.ø
  0000000010209710: 40 0F 84 59 00 00 00 66 8B 0F 66 85 C9 0F 84 4D  @..Y...f..f.É..M
  0000000010209720: 00 00 00 66 3B 0E 0F 85 44 00 00 00 48 83 C7 02  ...f;...D...H.Ç.
  0000000010209730: 48 83 C6 02 48 83 C0 01 E9 BC FF FF FF 48 83 F8  H.Æ.H.À.é¼ÿÿÿH.ø
  0000000010209740: 40 0F 84 0A 00 00 00 66 83 3F 00 0F 85 1F 00 00  @......f.?......
  0000000010209750: 00 48 83 EC 20 48 8D 0D 12 87 DF FF BA 14 00 00  .H.? H....ßÿº...
  0000000010209760: 00 FF 15 A9 88 DF FF 48 83 C4 20 E9 51 01 00 00  .ÿ.©.ßÿH.Ä éQ...
  0000000010209770: 48 8B 45 B0 48 85 C0 0F 84 44 01 00 00 48 8B 45  H.E°H.À..D...H.E
  0000000010209780: B0 48 85 C0 0F 84 05 00 00 00 E9 08 00 00 00 B0  °H.À......é....°
  0000000010209790: 04 B9 EB 4F 00 00 CC 48 8B 80 A8 02 00 00 48 8B  .¹ëO..?H..¨...H.
  00000000102097A0: 8D 98 FE FF FF 48 3B C1 0F 85 31 00 00 00 48 8B  ..?ÿÿH;Á..1...H.
  00000000102097B0: 45 B0 48 85 C0 0F 84 05 00 00 00 E9 08 00 00 00  E°H.À......é....
  00000000102097C0: B0 04 B9 07 50 00 00 CC 48 8B 80 B0 02 00 00 48  °.¹.P..?H..°...H
  00000000102097D0: 8B 8D A0 FE FF FF 48 3B C1 0F 84 E2 00 00 00 48  ...?ÿÿH;Á..â...H
  00000000102097E0: 8D BD 98 FC FF FF 48 8D 35 71 86 DF FF B9 02 00  .½.üÿÿH.5q.ßÿ¹..
  00000000102097F0: 00 00 F3 48 A5 48 83 EC 20 48 8D 8D 30 FF FF FF  ..óH¥H.? H..0ÿÿÿ
  0000000010209800: BA 40 00 00 00 4C 8D 85 98 FC FF FF 41 B9 00 01  º@...L...üÿÿA¹..
  0000000010209810: 00 00 E8 EA B9 FF FF 48 83 C4 20 48 83 EC 20 48  ..èê¹ÿÿH.Ä H.? H
  0000000010209820: 8D 0D 14 86 DF FF BA 12 00 00 00 4C 8D 85 98 FC  ....ßÿº....L...ü
  0000000010209830: FF FF 41 B9 00 01 00 00 E8 C4 B9 FF FF 48 83 C4  ÿÿA¹....èÄ¹ÿÿH.Ä
  0000000010209840: 20 48 83 EC 20 48 8B 4D B8 48 85 C9 0F 84 05 00   H.? H.M¸H.É....
  0000000010209850: 00 00 E9 08 00 00 00 B0 04 B9 92 50 00 00 CC 48  ..é....°.¹.P..?H
  0000000010209860: 81 C1 28 02 00 00 BA 40 00 00 00 4C 8D 85 98 FC  .Á(...º@...L...ü
  0000000010209870: FF FF 41 B9 00 01 00 00 E8 84 B9 FF FF 48 83 C4  ÿÿA¹....è.¹ÿÿH.Ä
  0000000010209880: 20 48 83 EC 20 48 8D 0D 82 85 DF FF BA 16 00 00   H.? H....ßÿº...
  0000000010209890: 00 4C 8D 85 98 FC FF FF 41 B9 00 01 00 00 E8 5E  .L...üÿÿA¹....è^
  00000000102098A0: B9 FF FF 48 83 C4 20 48 83 EC 20 48 8D 8D 98 FC  ¹ÿÿH.Ä H.? H...ü
  00000000102098B0: FF FF BA 00 01 00 00 FF 15 53 87 DF FF 48 83 C4  ÿÿº....ÿ.S.ßÿH.Ä
  00000000102098C0: 20 48 83 EC 20 48 8D 0D 04 B5 FF FF 48 8D 55 E8   H.? H...µÿÿH.Uè
  00000000102098D0: E8 C2 B7 FF FF 48 83 C4 20 E9 A0 F9 FF FF 48 8B  èÂ·ÿÿH.Ä é.ùÿÿH.
  00000000102098E0: 45 B8 48 85 C0 0F 84 05 00 00 00 E9 08 00 00 00  E¸H.À......é....
  00000000102098F0: B0 04 B9 22 51 00 00 CC 48 8B 0D A1 B5 FF FF 48  °.¹"Q..?H..¡µÿÿH
  0000000010209900: 85 C9 0F 84 05 00 00 00 E9 08 00 00 00 B0 04 B9  .É......é....°.¹
  0000000010209910: 34 51 00 00 CC 48 8B 09 48 89 88 C8 02 00 00 48  4Q..?H..H..È...H
  0000000010209920: 83 EC 20 E8 C8 CB FF FF 48 83 C4 20 48 83 45 E0  .? èÈËÿÿH.Ä H.Eà
  0000000010209930: 01 E9 2B F8 FF FF 48 83 EC 20 48 8D 0D 8F B4 FF  .é+øÿÿH.? H...´ÿ
  0000000010209940: FF FF 15 09 86 DF FF 48 83 C4 20 31 C0 48 89 05  ÿÿ...ßÿH.Ä 1ÀH..
  0000000010209950: 34 B5 FF FF 5F 5E C9 C3 55 48 8B EC 48 81 EC 10  4µÿÿ_^É?UH.?H.?.
  0000000010209960: 02 00 00 56 57 48 89 4D 10 48 89 55 18 48 C7 85  ...VWH.M.H.U.HÇ.
  0000000010209970: F8 FD FF FF 00 00 00 00 31 C0 66 89 85 00 FE FF  ø?ÿÿ....1Àf...?ÿ
  0000000010209980: FF 48 83 EC 20 48 8B 4D 18 BA 40 00 00 00 4C 8D  ÿH.? H.M.º@...L.
  0000000010209990: 85 00 FE FF FF 41 B9 00 01 00 00 E8 61 B8 FF FF  ..?ÿÿA¹....èa¸ÿÿ
  00000000102099A0: 48 83 C4 20 48 83 EC 20 48 8D 0D 55 84 DF FF BA  H.Ä H.? H..U.ßÿº
  00000000102099B0: 05 00 00 00 4C 8D 85 00 FE FF FF 41 B9 00 01 00  ....L...?ÿÿA¹...
  00000000102099C0: 00 E8 3B B8 FF FF 48 83 C4 20 48 8B 7D 18 48 8D  .è;¸ÿÿH.Ä H.}.H.
  00000000102099D0: 35 21 84 DF FF 33 C0 48 83 F8 07 0F 84 3A 00 00  5!.ßÿ3ÀH.ø...:..
  00000000102099E0: 00 66 83 3E 00 0F 84 30 00 00 00 48 83 F8 40 0F  .f.>...0...H.ø@.
  00000000102099F0: 84 74 01 00 00 66 8B 0F 66 85 C9 0F 84 68 01 00  .t...f..f.É..h..
  0000000010209A00: 00 66 3B 0E 0F 85 5F 01 00 00 48 83 C7 02 48 83  .f;..._...H.Ç.H.
  0000000010209A10: C6 02 48 83 C0 01 E9 BC FF FF FF 48 83 F8 40 0F  Æ.H.À.é¼ÿÿÿH.ø@.
  0000000010209A20: 84 0A 00 00 00 66 83 3F 00 0F 85 3A 01 00 00 48  .....f.?...:...H
  0000000010209A30: 83 EC 20 48 8B 0D 16 8B DF FF BA 08 00 00 00 41  .? H....ßÿº....A
  0000000010209A40: B8 F0 02 00 00 FF 15 2D 8B DF FF 48 83 C4 20 48  ¸?...ÿ.-.ßÿH.Ä H
  0000000010209A50: 83 C0 10 48 8D 0D 2E 88 DF FF 48 89 48 F8 48 89  .À.H....ßÿH.HøH.
  0000000010209A60: 85 F8 FD FF FF 48 8B 85 F8 FD FF FF 48 85 C0 0F  .ø?ÿÿH..ø?ÿÿH.À.
  0000000010209A70: 84 05 00 00 00 E9 08 00 00 00 B0 04 B9 60 52 00  .....é....°.¹`R.
  0000000010209A80: 00 CC 48 8B F8 48 81 C7 28 02 00 00 48 8B 75 18  .?H.øH.Ç(...H.u.
  0000000010209A90: B9 10 00 00 00 F3 48 A5 48 8B 85 F8 FD FF FF 48  ¹....óH¥H..ø?ÿÿH
  0000000010209AA0: 85 C0 0F 84 05 00 00 00 E9 08 00 00 00 B0 04 B9  .À......é....°.¹
  0000000010209AB0: 7B 52 00 00 CC 48 B9 FF FF FF FF FF FF FF FF 48  {R..?H¹ÿÿÿÿÿÿÿÿH
  0000000010209AC0: 89 88 B8 02 00 00 48 8B 85 F8 FD FF FF 48 85 C0  ..¸...H..ø?ÿÿH.À
  0000000010209AD0: 0F 84 05 00 00 00 E9 08 00 00 00 B0 04 B9 8D 52  ......é....°.¹.R
  0000000010209AE0: 00 00 CC 48 8B 0D A6 B3 FF FF 48 85 C9 0F 84 05  ..?H..¦³ÿÿH.É...
  0000000010209AF0: 00 00 00 E9 08 00 00 00 B0 04 B9 A2 52 00 00 CC  ...é....°.¹¢R..?
  0000000010209B00: 48 8B 09 48 89 88 C8 02 00 00 48 8B 45 10 48 85  H..H..È...H.E.H.
  0000000010209B10: C0 0F 84 4D 00 00 00 48 8B 45 10 48 85 C0 0F 84  À..M...H.E.H.À..
  0000000010209B20: 05 00 00 00 E9 08 00 00 00 B0 04 B9 D0 52 00 00  ....é....°.¹?R..
  0000000010209B30: CC 48 8B 8D F8 FD FF FF 48 89 88 88 00 00 00 48  ?H..ø?ÿÿH......H
  0000000010209B40: 8B 85 F8 FD FF FF 48 85 C0 0F 84 05 00 00 00 E9  ..ø?ÿÿH.À......é
  0000000010209B50: 08 00 00 00 B0 04 B9 E6 52 00 00 CC 48 8B 4D 10  ....°.¹æR..?H.M.
  0000000010209B60: 48 89 48 10 E9 F5 02 00 00 48 83 EC 20 48 8D 8D  H.H.é?...H.? H..
  0000000010209B70: 00 FE FF FF BA 00 01 00 00 FF 15 69 82 DF FF 48  .?ÿÿº....ÿ.i.ßÿH
  0000000010209B80: 83 C4 20 85 C0 0F 84 B9 02 00 00 48 83 EC 20 48  .Ä .À..¹...H.? H
  0000000010209B90: 8B 0D BA 89 DF FF BA 08 00 00 00 41 B8 F0 02 00  ..º.ßÿº....A¸?..
  0000000010209BA0: 00 FF 15 D1 89 DF FF 48 83 C4 20 48 83 C0 10 48  .ÿ.Ñ.ßÿH.Ä H.À.H
  0000000010209BB0: 8D 0D D2 86 DF FF 48 89 48 F8 48 89 85 F8 FD FF  ..?.ßÿH.HøH..ø?ÿ
  0000000010209BC0: FF 48 8B 85 F8 FD FF FF 48 85 C0 0F 84 05 00 00  ÿH..ø?ÿÿH.À.....
  0000000010209BD0: 00 E9 08 00 00 00 B0 04 B9 35 53 00 00 CC 48 8B  .é....°.¹5S..?H.
  0000000010209BE0: F8 48 81 C7 28 02 00 00 48 8B 75 18 B9 10 00 00  øH.Ç(...H.u.¹...
  0000000010209BF0: 00 F3 48 A5 48 8B 85 F8 FD FF FF 48 85 C0 0F 84  .óH¥H..ø?ÿÿH.À..
  0000000010209C00: 05 00 00 00 E9 08 00 00 00 B0 04 B9 50 53 00 00  ....é....°.¹PS..
  0000000010209C10: CC 48 8B F8 48 83 C7 28 48 8D B5 00 FE FF FF B9  ?H.øH.Ç(H.µ.?ÿÿ¹
  0000000010209C20: 40 00 00 00 F3 48 A5 48 8B 85 F8 FD FF FF 48 85  @...óH¥H..ø?ÿÿH.
  0000000010209C30: C0 0F 84 05 00 00 00 E9 08 00 00 00 B0 04 B9 65  À......é....°.¹e
  0000000010209C40: 53 00 00 CC 31 C9 48 89 88 B8 02 00 00 48 8B 85  S..?1ÉH..¸...H..
  0000000010209C50: F8 FD FF FF 48 85 C0 0F 84 05 00 00 00 E9 08 00  ø?ÿÿH.À......é..
  0000000010209C60: 00 00 B0 04 B9 76 53 00 00 CC 31 C9 48 89 88 C0  ..°.¹vS..?1ÉH..À
  0000000010209C70: 02 00 00 48 8B 45 10 48 85 C0 0F 84 4D 00 00 00  ...H.E.H.À..M...
  0000000010209C80: 48 8B 45 10 48 85 C0 0F 84 05 00 00 00 E9 08 00  H.E.H.À......é..
  0000000010209C90: 00 00 B0 04 B9 A7 53 00 00 CC 48 8B 8D F8 FD FF  ..°.¹§S..?H..ø?ÿ
  0000000010209CA0: FF 48 89 88 88 00 00 00 48 8B 85 F8 FD FF FF 48  ÿH......H..ø?ÿÿH
  0000000010209CB0: 85 C0 0F 84 05 00 00 00 E9 08 00 00 00 B0 04 B9  .À......é....°.¹
  0000000010209CC0: BD 53 00 00 CC 48 8B 4D 10 48 89 48 10 48 8B 05  ½S..?H.M.H.H.H..
  0000000010209CD0: DC B0 FF FF 48 81 F8 00 01 00 00 0F 83 05 00 00  Ü°ÿÿH.ø.........
  0000000010209CE0: 00 E9 08 00 00 00 B0 01 B9 E8 53 00 00 CC 48 C1  .é....°.¹èS..?HÁ
  0000000010209CF0: E0 03 48 8D 0D B7 88 FF FF 48 03 C1 48 8B 8D F8  à.H..·.ÿÿH.ÁH..ø
  0000000010209D00: FD FF FF 48 89 08 48 83 05 A2 B0 FF FF 01 48 83  ?ÿÿH..H..¢°ÿÿ.H.
  0000000010209D10: EC 20 48 8D 0D B7 B0 FF FF 48 8D 95 00 FE FF FF  ? H..·°ÿÿH...?ÿÿ
  0000000010209D20: 41 B8 00 01 00 00 FF 15 6C 81 DF FF 48 83 C4 20  A¸....ÿ.l.ßÿH.Ä 
  0000000010209D30: 48 83 EC 20 48 8B 8D F8 FD FF FF 48 85 C9 0F 84  H.? H..ø?ÿÿH.É..
  0000000010209D40: 05 00 00 00 E9 08 00 00 00 B0 04 B9 2E 54 00 00  ....é....°.¹.T..
  0000000010209D50: CC 48 81 C1 A8 02 00 00 E8 82 F1 FF FF 48 83 C4  ?H.Á¨...è.ñÿÿH.Ä
  0000000010209D60: 20 48 83 EC 20 48 8D 0D 64 B0 FF FF 48 8B 95 F8   H.? H..d°ÿÿH..ø
  0000000010209D70: FD FF FF 48 85 D2 0F 84 05 00 00 00 E9 08 00 00  ?ÿÿH.?......é...
  0000000010209D80: 00 B0 04 B9 4C 54 00 00 CC 48 81 C2 B8 02 00 00  .°.¹LT..?H.Â¸...
  0000000010209D90: E8 02 B3 FF FF 48 83 C4 20 48 8B 85 F8 FD FF FF  è.³ÿÿH.Ä H..ø?ÿÿ
  0000000010209DA0: 48 85 C0 0F 84 05 00 00 00 E9 08 00 00 00 B0 04  H.À......é....°.
  0000000010209DB0: B9 5F 54 00 00 CC 48 8B 80 B8 02 00 00 48 8B 0D  ¹_T..?H..¸...H..
  0000000010209DC0: BC B0 FF FF 48 3B C1 0F 8C 5D 00 00 00 48 8B 85  ¼°ÿÿH;Á..]...H..
  0000000010209DD0: F8 FD FF FF 48 85 C0 0F 84 05 00 00 00 E9 08 00  ø?ÿÿH.À......é..
  0000000010209DE0: 00 00 B0 04 B9 83 54 00 00 CC 48 8B 80 B8 02 00  ..°.¹.T..?H..¸..
  0000000010209DF0: 00 48 83 C0 01 48 89 05 84 B0 FF FF 48 8B 05 7D  .H.À.H...°ÿÿH..}
  0000000010209E00: B0 FF FF 48 81 F8 FF 00 00 00 0F 8E 1A 00 00 00  °ÿÿH.øÿ.........
  0000000010209E10: 48 83 EC 20 48 8D 0D A1 7F DF FF BA 16 00 00 00  H.? H..¡.ßÿº....
  0000000010209E20: FF 15 EA 81 DF FF 48 83 C4 20 48 83 EC 20 48 8D  ÿ.ê.ßÿH.Ä H.? H.
  0000000010209E30: 0D 9B AF FF FF FF 15 15 81 DF FF 48 83 C4 20 E9  ..¯ÿÿÿ...ßÿH.Ä é
  0000000010209E40: 1A 00 00 00 48 83 EC 20 48 8D 0D 3D 7F DF FF BA  ....H.? H..=.ßÿº
  0000000010209E50: 18 00 00 00 FF 15 B6 81 DF FF 48 83 C4 20 5F 5E  ....ÿ.¶.ßÿH.Ä _^
  0000000010209E60: C9 C3 55 48 8B EC 56 57 48 89 4D 10 48 83 EC 20  É?UH.?VWH.M.H.? 
  0000000010209E70: 48 8B 0D D9 86 DF FF BA 08 00 00 00 41 B8 20 00  H..Ù.ßÿº....A¸ .
  0000000010209E80: 00 00 FF 15 F0 86 DF FF 48 83 C4 20 48 83 C0 10  ..ÿ.?.ßÿH.Ä H.À.
  0000000010209E90: 48 8D 0D 99 84 DF FF 48 89 48 F8 48 89 05 F6 AF  H....ßÿH.HøH..ö¯
  0000000010209EA0: FF FF 48 8B 05 EF AF FF FF 48 89 05 F0 AF FF FF  ÿÿH..ï¯ÿÿH..?¯ÿÿ
  0000000010209EB0: 48 B8 FF FF FF FF FF FF FF FF 48 89 05 C7 AF FF  H¸ÿÿÿÿÿÿÿÿH..Ç¯ÿ
  0000000010209EC0: FF 48 8D 3D 38 AF FF FF 48 8B 75 10 B9 10 00 00  ÿH.=8¯ÿÿH.u.¹...
  0000000010209ED0: 00 F3 48 A5 31 C0 48 89 05 D3 AE FF FF 31 C0 48  .óH¥1ÀH..Ó®ÿÿ1ÀH
  0000000010209EE0: 89 05 C2 86 DF FF 48 83 EC 20 48 83 EC 20 48 8B  ..Â.ßÿH.? H.? H.
  0000000010209EF0: 0D 03 B1 FF FF E8 99 BE FF FF 48 83 C4 20 48 8B  ..±ÿÿè.¾ÿÿH.Ä H.
  0000000010209F00: C8 48 8D 15 74 7E DF FF E8 30 C6 FF FF 48 83 C4  ÈH..t~ßÿè0ÆÿÿH.Ä
  0000000010209F10: 20 48 83 EC 20 48 83 EC 20 48 8B 0D D0 B0 FF FF   H.? H.? H..?°ÿÿ
  0000000010209F20: E8 6E BE FF FF 48 83 C4 20 48 8B C8 48 8D 15 3F  èn¾ÿÿH.Ä H.ÈH..?
  0000000010209F30: 7E DF FF E8 05 C6 FF FF 48 83 C4 20 48 83 EC 20  ~ßÿè.ÆÿÿH.Ä H.? 
  0000000010209F40: 48 83 EC 20 48 8B 0D 9D B0 FF FF E8 43 BE FF FF  H.? H...°ÿÿèC¾ÿÿ
  0000000010209F50: 48 83 C4 20 48 8B C8 48 8D 15 0A 7E DF FF E8 DA  H.Ä H.ÈH...~ßÿèÚ
  0000000010209F60: C5 FF FF 48 83 C4 20 48 83 EC 20 48 83 EC 20 48  ÅÿÿH.Ä H.? H.? H
  0000000010209F70: 8B 0D 62 B0 FF FF E8 18 BE FF FF 48 83 C4 20 48  ..b°ÿÿè.¾ÿÿH.Ä H
  0000000010209F80: 8B C8 48 8D 15 D7 7D DF FF E8 AF C5 FF FF 48 83  .ÈH..×}ßÿè¯ÅÿÿH.
  0000000010209F90: C4 20 48 83 EC 20 48 83 EC 20 48 8B 0D 3F B0 FF  Ä H.? H.? H..?°ÿ
  0000000010209FA0: FF E8 ED BD FF FF 48 83 C4 20 48 8B C8 48 8D 15  ÿèí½ÿÿH.Ä H.ÈH..
  0000000010209FB0: 9C 7D DF FF E8 84 C5 FF FF 48 83 C4 20 48 83 EC  .}ßÿè.ÅÿÿH.Ä H.?
  0000000010209FC0: 20 48 83 EC 20 48 8B 0D 04 B0 FF FF E8 C2 BD FF   H.? H...°ÿÿèÂ½ÿ
  0000000010209FD0: FF 48 83 C4 20 48 8B C8 48 8D 15 67 7D DF FF E8  ÿH.Ä H.ÈH..g}ßÿè
  0000000010209FE0: 59 C5 FF FF 48 83 C4 20 48 83 EC 20 48 83 EC 20  YÅÿÿH.Ä H.? H.? 
  0000000010209FF0: B9 82 00 00 00 BA 07 00 00 00 E8 6E BE FF FF 48  ¹....º....èn¾ÿÿH
  000000001020A000: 83 C4 20 48 8B C8 48 8D 15 31 7D DF FF E8 2B C5  .Ä H.ÈH..1}ßÿè+Å
  000000001020A010: FF FF 48 83 C4 20 48 83 EC 20 48 83 EC 20 B9 83  ÿÿH.Ä H.? H.? ¹.
  000000001020A020: 00 00 00 BA 07 00 00 00 E8 40 BE FF FF 48 83 C4  ...º....è@¾ÿÿH.Ä
  000000001020A030: 20 48 8B C8 48 8D 15 FB 7C DF FF E8 FD C4 FF FF   H.ÈH..û|ßÿè?Äÿÿ
  000000001020A040: 48 83 C4 20 48 83 EC 20 48 83 EC 20 B9 84 00 00  H.Ä H.? H.? ¹...
  000000001020A050: 00 BA 07 00 00 00 E8 12 BE FF FF 48 83 C4 20 48  .º....è.¾ÿÿH.Ä H
  000000001020A060: 8B C8 48 8D 15 C3 7C DF FF E8 CF C4 FF FF 48 83  .ÈH..?|ßÿèÏÄÿÿH.
  000000001020A070: C4 20 48 83 EC 20 48 83 EC 20 B9 85 00 00 00 BA  Ä H.? H.? ¹....º
  000000001020A080: 07 00 00 00 E8 E4 BD FF FF 48 83 C4 20 48 8B C8  ....èä½ÿÿH.Ä H.È
  000000001020A090: 48 8D 15 8B 7C DF FF E8 A1 C4 FF FF 48 83 C4 20  H...|ßÿè¡ÄÿÿH.Ä 
  000000001020A0A0: 48 83 EC 20 48 83 EC 20 B9 04 00 00 00 BA 07 00  H.? H.? ¹....º..
  000000001020A0B0: 00 00 E8 B6 BD FF FF 48 83 C4 20 48 8B C8 48 8D  ..è¶½ÿÿH.Ä H.ÈH.
  000000001020A0C0: 15 55 7C DF FF E8 73 C4 FF FF 48 83 C4 20 48 83  .U|ßÿèsÄÿÿH.Ä H.
  000000001020A0D0: EC 20 48 83 EC 20 B9 05 00 00 00 BA 07 00 00 00  ? H.? ¹....º....
  000000001020A0E0: E8 88 BD FF FF 48 83 C4 20 48 8B C8 48 8D 15 19  è.½ÿÿH.Ä H.ÈH...
  000000001020A0F0: 7C DF FF E8 45 C4 FF FF 48 83 C4 20 48 83 EC 20  |ßÿèEÄÿÿH.Ä H.? 
  000000001020A100: 48 83 EC 20 B9 06 00 00 00 BA 07 00 00 00 E8 5A  H.? ¹....º....èZ
  000000001020A110: BD FF FF 48 83 C4 20 48 8B C8 48 8D 15 E1 7B DF  ½ÿÿH.Ä H.ÈH..á{ß
  000000001020A120: FF E8 17 C4 FF FF 48 83 C4 20 48 83 EC 20 48 83  ÿè.ÄÿÿH.Ä H.? H.
  000000001020A130: EC 20 B9 07 00 00 00 BA 07 00 00 00 E8 2C BD FF  ? ¹....º....è,½ÿ
  000000001020A140: FF 48 83 C4 20 48 8B C8 48 8D 15 A9 7B DF FF E8  ÿH.Ä H.ÈH..©{ßÿè
  000000001020A150: E9 C3 FF FF 48 83 C4 20 48 83 EC 20 48 83 EC 20  é?ÿÿH.Ä H.? H.? 
  000000001020A160: B9 08 00 00 00 BA 08 00 00 00 E8 FE BC FF FF 48  ¹....º....è?¼ÿÿH
  000000001020A170: 83 C4 20 48 8B C8 48 8D 15 73 7B DF FF E8 BB C3  .Ä H.ÈH..s{ßÿè»?
  000000001020A180: FF FF 48 83 C4 20 48 83 EC 20 48 83 EC 20 B9 09  ÿÿH.Ä H.? H.? ¹.
  000000001020A190: 00 00 00 BA 08 00 00 00 E8 D0 BC FF FF 48 83 C4  ...º....è?¼ÿÿH.Ä
  000000001020A1A0: 20 48 8B C8 48 8D 15 3D 7B DF FF E8 8D C3 FF FF   H.ÈH..={ßÿè.?ÿÿ
  000000001020A1B0: 48 83 C4 20 48 83 EC 20 48 83 EC 20 B9 0A 00 00  H.Ä H.? H.? ¹...
  000000001020A1C0: 00 BA 08 00 00 00 E8 A2 BC FF FF 48 83 C4 20 48  .º....è¢¼ÿÿH.Ä H
  000000001020A1D0: 8B C8 48 8D 15 07 7B DF FF E8 5F C3 FF FF 48 83  .ÈH...{ßÿè_?ÿÿH.
  000000001020A1E0: C4 20 48 83 EC 20 48 83 EC 20 B9 71 00 00 00 BA  Ä H.? H.? ¹q...º
  000000001020A1F0: 08 00 00 00 E8 74 BC FF FF 48 83 C4 20 48 8B C8  ....èt¼ÿÿH.Ä H.È
  000000001020A200: 48 8D 15 D1 7A DF FF E8 31 C3 FF FF 48 83 C4 20  H..Ñzßÿè1?ÿÿH.Ä 
  000000001020A210: 48 83 EC 20 48 83 EC 20 B9 72 00 00 00 BA 08 00  H.? H.? ¹r...º..
  000000001020A220: 00 00 E8 46 BC FF FF 48 83 C4 20 48 8B C8 48 8D  ..èF¼ÿÿH.Ä H.ÈH.
  000000001020A230: 15 9B 7A DF FF E8 03 C3 FF FF 48 83 C4 20 48 83  ..zßÿè.?ÿÿH.Ä H.
  000000001020A240: EC 20 48 83 EC 20 B9 73 00 00 00 BA 08 00 00 00  ? H.? ¹s...º....
  000000001020A250: E8 18 BC FF FF 48 83 C4 20 48 8B C8 48 8D 15 65  è.¼ÿÿH.Ä H.ÈH..e
  000000001020A260: 7A DF FF E8 D5 C2 FF FF 48 83 C4 20 48 83 EC 20  zßÿè?ÂÿÿH.Ä H.? 
  000000001020A270: 48 83 EC 20 B9 0E 00 00 00 BA 08 00 00 00 E8 EA  H.? ¹....º....èê
  000000001020A280: BB FF FF 48 83 C4 20 48 8B C8 48 8D 15 2B 7A DF  »ÿÿH.Ä H.ÈH..+zß
  000000001020A290: FF E8 A7 C2 FF FF 48 83 C4 20 48 83 EC 20 48 83  ÿè§ÂÿÿH.Ä H.? H.
  000000001020A2A0: EC 20 B9 0F 00 00 00 BA 08 00 00 00 E8 BC BB FF  ? ¹....º....è¼»ÿ
  000000001020A2B0: FF 48 83 C4 20 48 8B C8 48 8D 15 F5 79 DF FF E8  ÿH.Ä H.ÈH..?yßÿè
  000000001020A2C0: 79 C2 FF FF 48 83 C4 20 48 83 EC 20 48 83 EC 20  yÂÿÿH.Ä H.? H.? 
  000000001020A2D0: B9 10 00 00 00 BA 08 00 00 00 E8 8E BB FF FF 48  ¹....º....è.»ÿÿH
  000000001020A2E0: 83 C4 20 48 8B C8 48 8D 15 BF 79 DF FF E8 4B C2  .Ä H.ÈH..¿yßÿèKÂ
  000000001020A2F0: FF FF 48 83 C4 20 48 83 EC 20 48 83 EC 20 B9 11  ÿÿH.Ä H.? H.? ¹.
  000000001020A300: 00 00 00 BA 08 00 00 00 E8 60 BB FF FF 48 83 C4  ...º....è`»ÿÿH.Ä
  000000001020A310: 20 48 8B C8 48 8D 15 89 79 DF FF E8 1D C2 FF FF   H.ÈH...yßÿè.Âÿÿ
  000000001020A320: 48 83 C4 20 48 83 EC 20 E8 4E C1 FF FF 48 83 C4  H.Ä H.? èNÁÿÿH.Ä
  000000001020A330: 20 48 83 EC 20 48 83 EC 20 B9 12 00 00 00 BA 07   H.? H.? ¹....º.
  000000001020A340: 00 00 00 E8 25 BB FF FF 48 83 C4 20 48 8B C8 48  ...è%»ÿÿH.Ä H.ÈH
  000000001020A350: 8D 15 46 79 DF FF E8 E2 C1 FF FF 48 83 C4 20 48  ..FyßÿèâÁÿÿH.Ä H
  000000001020A360: 83 EC 20 48 83 EC 20 B9 13 00 00 00 BA 07 00 00  .? H.? ¹....º...
  000000001020A370: 00 E8 F7 BA FF FF 48 83 C4 20 48 8B C8 48 8D 15  .è÷ºÿÿH.Ä H.ÈH..
  000000001020A380: 10 79 DF FF E8 B4 C1 FF FF 48 83 C4 20 48 83 EC  .yßÿè´ÁÿÿH.Ä H.?
  000000001020A390: 20 48 83 EC 20 B9 14 00 00 00 BA 07 00 00 00 E8   H.? ¹....º....è
  000000001020A3A0: C9 BA FF FF 48 83 C4 20 48 8B C8 48 8D 15 D8 78  ÉºÿÿH.Ä H.ÈH..Øx
  000000001020A3B0: DF FF E8 86 C1 FF FF 48 83 C4 20 48 83 EC 20 48  ßÿè.ÁÿÿH.Ä H.? H
  000000001020A3C0: 83 EC 20 B9 15 00 00 00 BA 07 00 00 00 E8 9B BA  .? ¹....º....è.º
  000000001020A3D0: FF FF 48 83 C4 20 48 8B C8 48 8D 15 90 78 DF FF  ÿÿH.Ä H.ÈH...xßÿ
  000000001020A3E0: E8 58 C1 FF FF 48 83 C4 20 48 83 EC 20 48 83 EC  èXÁÿÿH.Ä H.? H.?
  000000001020A3F0: 20 B9 16 00 00 00 BA 07 00 00 00 E8 6D BA FF FF   ¹....º....èmºÿÿ
  000000001020A400: 48 83 C4 20 48 8B C8 48 8D 15 44 78 DF FF E8 2A  H.Ä H.ÈH..Dxßÿè*
  000000001020A410: C1 FF FF 48 83 C4 20 48 83 EC 20 48 83 EC 20 B9  ÁÿÿH.Ä H.? H.? ¹
  000000001020A420: 8D 00 00 00 BA 07 00 00 00 E8 3F BA FF FF 48 83  ....º....è?ºÿÿH.
  000000001020A430: C4 20 48 8B C8 48 8D 15 0C 78 DF FF E8 FC C0 FF  Ä H.ÈH...xßÿèüÀÿ
  000000001020A440: FF 48 83 C4 20 48 83 EC 20 48 83 EC 20 B9 17 00  ÿH.Ä H.? H.? ¹..
  000000001020A450: 00 00 BA 08 00 00 00 E8 11 BA FF FF 48 83 C4 20  ..º....è.ºÿÿH.Ä 
  000000001020A460: 48 8B C8 48 8D 15 D6 77 DF FF E8 CE C0 FF FF 48  H.ÈH..ÖwßÿèÎÀÿÿH
  000000001020A470: 83 C4 20 48 83 EC 20 48 83 EC 20 B9 18 00 00 00  .Ä H.? H.? ¹....
  000000001020A480: BA 08 00 00 00 E8 E3 B9 FF FF 48 83 C4 20 48 8B  º....è?¹ÿÿH.Ä H.
  000000001020A490: C8 48 8D 15 9E 77 DF FF E8 A0 C0 FF FF 48 83 C4  ÈH...wßÿè.ÀÿÿH.Ä
  000000001020A4A0: 20 48 83 EC 20 48 83 EC 20 B9 19 00 00 00 BA 08   H.? H.? ¹....º.
  000000001020A4B0: 00 00 00 E8 B5 B9 FF FF 48 83 C4 20 48 8B C8 48  ...èµ¹ÿÿH.Ä H.ÈH
  000000001020A4C0: 8D 15 68 77 DF FF E8 72 C0 FF FF 48 83 C4 20 48  ..hwßÿèrÀÿÿH.Ä H
  000000001020A4D0: 83 EC 20 48 83 EC 20 B9 1A 00 00 00 BA 08 00 00  .? H.? ¹....º...
  000000001020A4E0: 00 E8 87 B9 FF FF 48 83 C4 20 48 8B C8 48 8D 15  .è.¹ÿÿH.Ä H.ÈH..
  000000001020A4F0: 32 77 DF FF E8 44 C0 FF FF 48 83 C4 20 48 83 EC  2wßÿèDÀÿÿH.Ä H.?
  000000001020A500: 20 48 83 EC 20 48 8B 0D E4 AA FF FF E8 82 B8 FF   H.? H..äªÿÿè.¸ÿ
  000000001020A510: FF 48 83 C4 20 48 8B C8 48 8D 15 FD 76 DF FF E8  ÿH.Ä H.ÈH..?vßÿè
  000000001020A520: 19 C0 FF FF 48 83 C4 20 48 8B 05 71 A9 FF FF 48  .ÀÿÿH.Ä H..q©ÿÿH
  000000001020A530: 89 05 5A A9 FF FF 48 83 EC 20 E8 B1 BF FF FF 48  ..Z©ÿÿH.? è±¿ÿÿH
  000000001020A540: 83 C4 20 48 83 EC 20 E8 B7 B7 FF FF 48 83 C4 20  .Ä H.? è··ÿÿH.Ä 
  000000001020A550: 48 89 05 59 A9 FF FF 48 8B 05 52 A9 FF FF 48 85  H..Y©ÿÿH..R©ÿÿH.
  000000001020A560: C0 0F 84 05 00 00 00 E9 08 00 00 00 B0 04 B9 03  À......é....°.¹.
  000000001020A570: 5C 00 00 CC 50 48 83 EC 28 E8 28 BE FF FF 48 83  \..?PH.?(è(¾ÿÿH.
  000000001020A580: C4 28 48 8B C8 58 48 89 48 08 48 83 EC 20 E8 E8  Ä(H.ÈXH.H.H.? èè
  000000001020A590: BE FF FF 48 83 C4 20 48 83 EC 20 48 83 EC 20 48  ¾ÿÿH.Ä H.? H.? H
  000000001020A5A0: 8B 0D 0A A9 FF FF 48 85 C9 0F 84 05 00 00 00 E9  ...©ÿÿH.É......é
  000000001020A5B0: 08 00 00 00 B0 04 B9 41 5C 00 00 CC 48 8B 49 08  ....°.¹A\..?H.I.
  000000001020A5C0: 48 8B 15 F9 A9 FF FF 45 31 C0 E8 B8 B1 FF FF 48  H..ù©ÿÿE1Àè¸±ÿÿH
  000000001020A5D0: 83 C4 20 48 8B C8 48 8D 15 3B 76 DF FF E8 5B BF  .Ä H.ÈH..;vßÿè[¿
  000000001020A5E0: FF FF 48 83 C4 20 48 8B 05 C3 A8 FF FF 48 85 C0  ÿÿH.Ä H..?¨ÿÿH.À
  000000001020A5F0: 0F 84 05 00 00 00 E9 08 00 00 00 B0 04 B9 6D 5C  ......é....°.¹m\
  000000001020A600: 00 00 CC 48 8B 40 08 48 85 C0 0F 84 05 00 00 00  ..?H.@.H.À......
  000000001020A610: E9 08 00 00 00 B0 04 B9 72 5C 00 00 CC 48 8B 0D  é....°.¹r\..?H..
  000000001020A620: 7C A8 FF FF 48 85 C9 0F 84 05 00 00 00 E9 08 00  |¨ÿÿH.É......é..
  000000001020A630: 00 00 B0 04 B9 85 5C 00 00 CC 48 8B 09 48 89 48  ..°.¹.\..?H..H.H
  000000001020A640: 48 48 83 EC 20 E8 A6 BE FF FF 48 83 C4 20 48 8B  HH.? è¦¾ÿÿH.Ä H.
  000000001020A650: 05 5B A8 FF FF 48 85 C0 0F 84 05 00 00 00 E9 08  .[¨ÿÿH.À......é.
  000000001020A660: 00 00 00 B0 04 B9 A7 5C 00 00 CC 48 8B 40 08 48  ...°.¹§\..?H.@.H
  000000001020A670: 85 C0 0F 84 05 00 00 00 E9 08 00 00 00 B0 04 B9  .À......é....°.¹
  000000001020A680: AC 5C 00 00 CC B9 08 00 00 00 48 89 48 50 48 8B  ¬\..?¹....H.HPH.
  000000001020A690: 05 1B A8 FF FF 48 85 C0 0F 84 05 00 00 00 E9 08  ..¨ÿÿH.À......é.
  000000001020A6A0: 00 00 00 B0 04 B9 CC 5C 00 00 CC 48 8B 40 08 48  ...°.¹?\..?H.@.H
  000000001020A6B0: 85 C0 0F 84 05 00 00 00 E9 08 00 00 00 B0 04 B9  .À......é....°.¹
  000000001020A6C0: D1 5C 00 00 CC 48 8B 0D 2C A9 FF FF 48 89 48 40  Ñ\..?H..,©ÿÿH.H@
  000000001020A6D0: 48 8B 05 D9 A7 FF FF 48 85 C0 0F 84 05 00 00 00  H..Ù§ÿÿH.À......
  000000001020A6E0: E9 08 00 00 00 B0 04 B9 F1 5C 00 00 CC 48 B9 D0  é....°.¹ñ\..?H¹?
  000000001020A6F0: FF FF FF FF FF FF FF 48 89 48 28 48 83 EC 20 E8  ÿÿÿÿÿÿÿH.H(H.? è
  000000001020A700: FF B5 FF FF 48 83 C4 20 48 89 05 99 A7 FF FF 48  ÿµÿÿH.Ä H...§ÿÿH
  000000001020A710: 8B 05 92 A7 FF FF 48 85 C0 0F 84 05 00 00 00 E9  ...§ÿÿH.À......é
  000000001020A720: 08 00 00 00 B0 04 B9 2E 5D 00 00 CC 50 48 83 EC  ....°.¹.]..?PH.?
  000000001020A730: 28 E8 70 BC FF FF 48 83 C4 28 48 8B C8 58 48 89  (èp¼ÿÿH.Ä(H.ÈXH.
  000000001020A740: 48 08 48 83 EC 20 E8 30 BD FF FF 48 83 C4 20 48  H.H.? è0½ÿÿH.Ä H
  000000001020A750: 83 EC 20 48 83 EC 20 48 8B 0D 4A A7 FF FF 48 85  .? H.? H..J§ÿÿH.
  000000001020A760: C9 0F 84 05 00 00 00 E9 08 00 00 00 B0 04 B9 6E  É......é....°.¹n
  000000001020A770: 5D 00 00 CC 48 8B 49 08 48 8B 15 79 A8 FF FF 45  ]..?H.I.H..y¨ÿÿE
  000000001020A780: 31 C0 E8 00 B0 FF FF 48 83 C4 20 48 8B C8 48 8D  1Àè.°ÿÿH.Ä H.ÈH.
  000000001020A790: 15 7F 74 DF FF E8 A3 BD FF FF 48 83 C4 20 48 83  ..tßÿè£½ÿÿH.Ä H.
  000000001020A7A0: EC 20 48 83 EC 20 48 8B 0D FB A6 FF FF 48 85 C9  ? H.? H..û¦ÿÿH.É
  000000001020A7B0: 0F 84 05 00 00 00 E9 08 00 00 00 B0 04 B9 A9 5D  ......é....°.¹©]
  000000001020A7C0: 00 00 CC 48 8B 49 08 48 8B 15 2A A8 FF FF 45 31  ..?H.I.H..*¨ÿÿE1
  000000001020A7D0: C0 E8 B1 AF FF FF 48 83 C4 20 48 8B C8 48 8D 15  Àè±¯ÿÿH.Ä H.ÈH..
  000000001020A7E0: 2C 74 DF FF E8 54 BD FF FF 48 83 C4 20 48 8B 05  ,tßÿèT½ÿÿH.Ä H..
  000000001020A7F0: B4 A6 FF FF 48 85 C0 0F 84 05 00 00 00 E9 08 00  ´¦ÿÿH.À......é..
  000000001020A800: 00 00 B0 04 B9 D7 5D 00 00 CC 48 8B 40 08 48 85  ..°.¹×]..?H.@.H.
  000000001020A810: C0 0F 84 05 00 00 00 E9 08 00 00 00 B0 04 B9 DC  À......é....°.¹Ü
  000000001020A820: 5D 00 00 CC 48 8B 0D 75 A6 FF FF 48 85 C9 0F 84  ]..?H..u¦ÿÿH.É..
  000000001020A830: 05 00 00 00 E9 08 00 00 00 B0 04 B9 EF 5D 00 00  ....é....°.¹ï]..
  000000001020A840: CC 48 8B 09 48 89 48 48 48 83 EC 20 E8 9F BC FF  ?H..H.HHH.? è.¼ÿ
  000000001020A850: FF 48 83 C4 20 48 8B 05 4C A6 FF FF 48 85 C0 0F  ÿH.Ä H..L¦ÿÿH.À.
  000000001020A860: 84 05 00 00 00 E9 08 00 00 00 B0 04 B9 13 5E 00  .....é....°.¹.^.
  000000001020A870: 00 CC 48 8B 40 08 48 85 C0 0F 84 05 00 00 00 E9  .?H.@.H.À......é
  000000001020A880: 08 00 00 00 B0 04 B9 18 5E 00 00 CC B9 10 00 00  ....°.¹.^..?¹...
  000000001020A890: 00 48 89 48 50 48 8B 05 0C A6 FF FF 48 85 C0 0F  .H.HPH...¦ÿÿH.À.
  000000001020A8A0: 84 05 00 00 00 E9 08 00 00 00 B0 04 B9 3B 5E 00  .....é....°.¹;^.
  000000001020A8B0: 00 CC 48 8B 40 08 48 85 C0 0F 84 05 00 00 00 E9  .?H.@.H.À......é
  000000001020A8C0: 08 00 00 00 B0 04 B9 40 5E 00 00 CC 48 8B 0D 25  ....°.¹@^..?H..%
  000000001020A8D0: A7 FF FF 48 89 48 40 48 8B 05 CA A5 FF FF 48 85  §ÿÿH.H@H..Ê¥ÿÿH.
  000000001020A8E0: C0 0F 84 05 00 00 00 E9 08 00 00 00 B0 04 B9 62  À......é....°.¹b
  000000001020A8F0: 5E 00 00 CC 48 B9 D8 FF FF FF FF FF FF FF 48 89  ^..?H¹ØÿÿÿÿÿÿÿH.
  000000001020A900: 48 28 31 C0 48 89 05 7D A5 FF FF 5F 5E C9 C3 55  H(1ÀH..}¥ÿÿ_^É?U
  000000001020A910: 48 8B EC 48 8D 05 14 C3 FF FF 48 89 05 77 7C DF  H.?H...?ÿÿH..w|ß
  000000001020A920: FF 48 8D 05 12 E0 FF FF 48 89 05 61 7C DF FF 48  ÿH...àÿÿH..a|ßÿH
  000000001020A930: 83 EC 20 48 8D 0D F0 A9 FF FF FF 15 C8 72 DF FF  .? H..?©ÿÿÿ.Èrßÿ
  000000001020A940: 48 83 C4 20 31 C0 48 89 05 73 A4 FF FF 31 C0 48  H.Ä 1ÀH..s¤ÿÿ1ÀH
  000000001020A950: 89 05 62 A5 FF FF 48 B8 FF FF FF FF FF FF FF FF  ..b¥ÿÿH¸ÿÿÿÿÿÿÿÿ
  000000001020A960: 48 89 05 21 A5 FF FF 48 83 EC 20 48 8D 0D 86 A6  H..!¥ÿÿH.? H...¦
  000000001020A970: FF FF 31 D2 E8 79 BA FF FF 48 83 C4 20 48 83 EC  ÿÿ1?èyºÿÿH.Ä H.?
  000000001020A980: 20 48 8D 0D 68 A6 FF FF 31 D2 E8 63 BA FF FF 48   H..h¦ÿÿ1?ècºÿÿH
  000000001020A990: 83 C4 20 48 83 EC 20 48 8D 0D 42 A6 FF FF BA 01  .Ä H.? H..B¦ÿÿº.
  000000001020A9A0: 00 00 00 E8 4A BA FF FF 48 83 C4 20 48 83 EC 20  ...èJºÿÿH.Ä H.? 
  000000001020A9B0: 48 8D 0D 21 A6 FF FF BA 02 00 00 00 E8 31 BA FF  H..!¦ÿÿº....è1ºÿ
  000000001020A9C0: FF 48 83 C4 20 48 83 EC 20 48 8D 0D 00 A6 FF FF  ÿH.Ä H.? H...¦ÿÿ
  000000001020A9D0: BA 03 00 00 00 E8 18 BA FF FF 48 83 C4 20 48 83  º....è.ºÿÿH.Ä H.
  000000001020A9E0: EC 20 48 8D 0D DF A5 FF FF BA 0A 00 00 00 E8 FF  ? H..ß¥ÿÿº....èÿ
  000000001020A9F0: B9 FF FF 48 83 C4 20 48 83 EC 20 48 8D 0D E6 A5  ¹ÿÿH.Ä H.? H..æ¥
  000000001020AA00: FF FF BA 04 00 00 00 E8 E6 B9 FF FF 48 83 C4 20  ÿÿº....èæ¹ÿÿH.Ä 
  000000001020AA10: 48 83 EC 20 48 8D 0D A5 A5 FF FF BA 09 00 00 00  H.? H..¥¥ÿÿº....
  000000001020AA20: E8 CD B9 FF FF 48 83 C4 20 48 83 EC 20 48 8D 0D  èÍ¹ÿÿH.Ä H.? H..
  000000001020AA30: 84 A5 FF FF BA 1F 00 00 00 E8 B4 B9 FF FF 48 83  .¥ÿÿº....è´¹ÿÿH.
  000000001020AA40: C4 20 C9 C3 83 FA 01 0F 84 01 00 00 00 C3 56 57  Ä É?.ú.......?VW
  000000001020AA50: 48 83 EC 28 FF 15 16 7B DF FF 48 89 05 EF 7A DF  H.?(ÿ..{ßÿH..ïzß
  000000001020AA60: FF 48 8D 0D 86 71 DF FF FF 15 F2 7A DF FF 48 85  ÿH...qßÿÿ.?zßÿH.
  000000001020AA70: C0 0F 84 05 00 00 00 E9 08 00 00 00 B0 05 B9 98  À......é....°.¹.
  000000001020AA80: 60 00 00 CC 48 8B F0 48 B8 52 F3 8D 11 4F 6C F7  `..?H.?H¸Ró..Ol÷
  000000001020AA90: EB 48 3B 86 F0 03 00 00 0F 85 05 00 00 00 E9 08  ëH;.?.........é.
  000000001020AAA0: 00 00 00 B0 05 B9 98 60 00 00 CC 48 B8 37 F3 AE  ...°.¹.`..?H¸7ó®
  000000001020AAB0: 85 BA 57 42 D3 48 3B 86 F8 03 00 00 0F 85 05 00  .ºWBÓH;.ø.......
  000000001020AAC0: 00 00 E9 08 00 00 00 B0 05 B9 98 60 00 00 CC 48  ..é....°.¹.`..?H
  000000001020AAD0: 8B CE BA 0C 00 00 00 FF 15 8B 7A DF FF 48 89 05  .Îº....ÿ..zßÿH..
  000000001020AAE0: 24 71 DF FF 48 8B CE BA 09 00 00 00 FF 15 76 7A  $qßÿH.Îº....ÿ.vz
  000000001020AAF0: DF FF 48 89 05 17 75 DF FF 48 8B CE BA 07 00 00  ßÿH...ußÿH.Îº...
  000000001020AB00: 00 FF 15 61 7A DF FF 48 89 05 3A 74 DF FF 48 8D  .ÿ.azßÿH..:tßÿH.
  000000001020AB10: 0D C5 70 DF FF FF 15 45 7A DF FF 48 85 C0 0F 84  .Åpßÿÿ.EzßÿH.À..
  000000001020AB20: 05 00 00 00 E9 08 00 00 00 B0 05 B9 98 60 00 00  ....é....°.¹.`..
  000000001020AB30: CC 48 8B F0 48 B8 98 A4 49 26 11 E3 C4 E0 48 3B  ?H.?H¸.¤I&.?ÄàH;
  000000001020AB40: 86 F0 03 00 00 0F 85 05 00 00 00 E9 08 00 00 00  .?.........é....
  000000001020AB50: B0 05 B9 98 60 00 00 CC 48 B8 9E F9 C1 72 66 AB  °.¹.`..?H¸.ùÁrf«
  000000001020AB60: 33 BE 48 3B 86 F8 03 00 00 0F 85 05 00 00 00 E9  3¾H;.ø.........é
  000000001020AB70: 08 00 00 00 B0 05 B9 98 60 00 00 CC 48 8B CE BA  ....°.¹.`..?H.Îº
  000000001020AB80: 06 00 00 00 FF 15 DE 79 DF FF 48 89 05 C7 73 DF  ....ÿ.?yßÿH..Çsß
  000000001020AB90: FF 48 8B CE BA 05 00 00 00 FF 15 C9 79 DF FF 48  ÿH.Îº....ÿ.ÉyßÿH
  000000001020ABA0: 89 05 BA 73 DF FF 48 8B CE BA 03 00 00 00 FF 15  ..ºsßÿH.Îº....ÿ.
  000000001020ABB0: B4 79 DF FF 48 89 05 AD 73 DF FF 48 8B CE BA 02  ´yßÿH..­sßÿH.Îº.
  000000001020ABC0: 00 00 00 FF 15 9F 79 DF FF 48 89 05 A0 73 DF FF  ...ÿ..yßÿH...sßÿ
  000000001020ABD0: 48 8D 0D EB 6F DF FF FF 15 83 79 DF FF 48 85 C0  H..ëoßÿÿ..yßÿH.À
  000000001020ABE0: 0F 84 05 00 00 00 E9 08 00 00 00 B0 05 B9 98 60  ......é....°.¹.`
  000000001020ABF0: 00 00 CC 48 8B F0 48 B8 CD 2C 99 AE 8C 5F D9 E4  ..?H.?H¸Í,.®._Ùä
  000000001020AC00: 48 3B 86 F0 03 00 00 0F 85 05 00 00 00 E9 08 00  H;.?.........é..
  000000001020AC10: 00 00 B0 05 B9 98 60 00 00 CC 48 B8 15 0D CA 44  ..°.¹.`..?H¸..ÊD
  000000001020AC20: 27 D4 F2 2E 48 3B 86 F8 03 00 00 0F 85 05 00 00  'Ô?.H;.ø........
  000000001020AC30: 00 E9 08 00 00 00 B0 05 B9 98 60 00 00 CC 48 8B  .é....°.¹.`..?H.
  000000001020AC40: CE BA 19 00 00 00 FF 15 1C 79 DF FF 48 89 05 2D  Îº....ÿ..yßÿH..-
  000000001020AC50: 73 DF FF 48 8B CE BA 18 00 00 00 FF 15 07 79 DF  sßÿH.Îº....ÿ..yß
  000000001020AC60: FF 48 89 05 10 73 DF FF 48 8B CE BA 15 00 00 00  ÿH...sßÿH.Îº....
  000000001020AC70: FF 15 F2 78 DF FF 48 89 05 2B 73 DF FF 48 8B CE  ÿ.?xßÿH..+sßÿH.Î
  000000001020AC80: BA 12 00 00 00 FF 15 DD 78 DF FF 48 89 05 4E 73  º....ÿ.?xßÿH..Ns
  000000001020AC90: DF FF 48 8B CE BA 10 00 00 00 FF 15 C8 78 DF FF  ßÿH.Îº....ÿ.Èxßÿ
  000000001020ACA0: 48 89 05 A1 73 DF FF 48 8B CE BA 0E 00 00 00 FF  H..¡sßÿH.Îº....ÿ
  000000001020ACB0: 15 B3 78 DF FF 48 89 05 E4 71 DF FF 48 8B CE BA  .³xßÿH..äqßÿH.Îº
  000000001020ACC0: 0C 00 00 00 FF 15 9E 78 DF FF 48 89 05 27 72 DF  ....ÿ..xßÿH..'rß
  000000001020ACD0: FF 48 8B CE BA 0A 00 00 00 FF 15 89 78 DF FF 48  ÿH.Îº....ÿ..xßÿH
  000000001020ACE0: 89 05 5A 73 DF FF 48 8B CE BA 09 00 00 00 FF 15  ..ZsßÿH.Îº....ÿ.
  000000001020ACF0: 74 78 DF FF 48 89 05 35 72 DF FF 48 8B CE BA 08  txßÿH..5rßÿH.Îº.
  000000001020AD00: 00 00 00 FF 15 5F 78 DF FF 48 89 05 18 72 DF FF  ...ÿ._xßÿH...rßÿ
  000000001020AD10: 48 8B CE BA 07 00 00 00 FF 15 4A 78 DF FF 48 89  H.Îº....ÿ.JxßÿH.
  000000001020AD20: 05 2B 72 DF FF 48 8B CE BA 06 00 00 00 FF 15 35  .+rßÿH.Îº....ÿ.5
  000000001020AD30: 78 DF FF 48 89 05 66 72 DF FF 48 8B CE BA 05 00  xßÿH..frßÿH.Îº..
  000000001020AD40: 00 00 FF 15 20 78 DF FF 48 89 05 49 71 DF FF 48  ..ÿ. xßÿH..IqßÿH
  000000001020AD50: 8B CE BA 04 00 00 00 FF 15 0B 78 DF FF 48 89 05  .Îº....ÿ..xßÿH..
  000000001020AD60: 84 70 DF FF 48 8D 0D AD 76 DF FF 48 89 0D AE 76  .pßÿH..­vßÿH..®v
  000000001020AD70: DF FF 48 8D 0D 67 75 DF FF 48 89 0D 68 75 DF FF  ßÿH..gußÿH..hußÿ
  000000001020AD80: 48 8D 0D 01 75 DF FF 48 89 0D 02 75 DF FF 48 8D  H...ußÿH...ußÿH.
  000000001020AD90: 0D A3 74 DF FF 48 89 0D AC 74 DF FF 48 8D 0D 9D  .£tßÿH..¬tßÿH...
  000000001020ADA0: 73 DF FF 48 89 0D 96 74 DF FF 48 8D 0D 2F 74 DF  sßÿH...tßÿH../tß
  000000001020ADB0: FF 48 89 0D 30 74 DF FF 48 8D 0D D1 73 DF FF 48  ÿH..0tßÿH..ÑsßÿH
  000000001020ADC0: 89 0D DA 73 DF FF 48 8D 0D 73 73 DF FF 48 89 0D  ..ÚsßÿH..ssßÿH..
  000000001020ADD0: C4 73 DF FF 48 8D 0D 65 73 DF FF 48 89 0D 66 73  ÄsßÿH..esßÿH..fs
  000000001020ADE0: DF FF 48 8D 0D 07 73 DF FF 48 89 0D 08 73 DF FF  ßÿH...sßÿH...sßÿ
  000000001020ADF0: 48 8D 0D A9 72 DF FF 48 89 0D AA 72 DF FF E8 0C  H..©rßÿH..ªrßÿè.
  000000001020AE00: FB FF FF B8 01 00 00 00 48 83 C4 28 5F 5E C3     ûÿÿ¸....H.Ä(_^?

SECTION HEADER #3
  .idata name
     130 virtual size
  20B000 virtual address (000000001020B000 to 000000001020B12F)
     200 size of raw data
    6400 file pointer to raw data (00006400 to 000065FF)
       0 file pointer to relocation table
       0 file pointer to line numbers
       0 number of relocations
       0 number of line numbers
C0000040 flags
         Initialized Data
         Read Write

RAW DATA #3
  000000001020B000: 28 B0 20 00 00 00 00 00 00 00 00 00 60 B0 20 00  (° .........`° .
  000000001020B010: 58 25 00 00 00 00 00 00 00 00 00 00 00 00 00 00  X%..............
  000000001020B020: 00 00 00 00 00 00 00 00 70 B0 20 00 00 00 00 00  ........p° .....
  000000001020B030: 90 B0 20 00 00 00 00 00 B0 B0 20 00 00 00 00 00  .° .....°° .....
  000000001020B040: D0 B0 20 00 00 00 00 00 F0 B0 20 00 00 00 00 00  ?° .....?° .....
  000000001020B050: 10 B1 20 00 00 00 00 00 00 00 00 00 00 00 00 00  .± .............
  000000001020B060: 4B 45 52 4E 45 4C 33 32 2E 44 4C 4C 00 00 00 00  KERNEL32.DLL....
  000000001020B070: 00 00 45 78 69 74 50 72 6F 63 65 73 73 00 00 00  ..ExitProcess...
  000000001020B080: 00 00 00 00 00 00 00 00 00 00 00 00 00 00 00 00  ................
  000000001020B090: 00 00 4C 6F 61 64 4C 69 62 72 61 72 79 57 00 00  ..LoadLibraryW..
  000000001020B0A0: 00 00 00 00 00 00 00 00 00 00 00 00 00 00 00 00  ................
  000000001020B0B0: 00 00 47 65 74 50 72 6F 63 41 64 64 72 65 73 73  ..GetProcAddress
  000000001020B0C0: 00 00 00 00 00 00 00 00 00 00 00 00 00 00 00 00  ................
  000000001020B0D0: 00 00 47 65 74 50 72 6F 63 65 73 73 48 65 61 70  ..GetProcessHeap
  000000001020B0E0: 00 00 00 00 00 00 00 00 00 00 00 00 00 00 00 00  ................
  000000001020B0F0: 00 00 48 65 61 70 41 6C 6C 6F 63 00 00 00 00 00  ..HeapAlloc.....
  000000001020B100: 00 00 00 00 00 00 00 00 00 00 00 00 00 00 00 00  ................
  000000001020B110: 00 00 48 65 61 70 46 72 65 65 00 00 00 00 00 00  ..HeapFree......
  000000001020B120: 00 00 00 00 00 00 00 00 00 00 00 00 00 00 00 00  ................

  Section contains the following imports:

    KERNEL32.DLL
              10002558 Import Address Table
              1020B028 Import Name Table
                     0 time date stamp
                     0 Index of first forwarder reference

                           0 ExitProcess
                           0 LoadLibraryW
                           0 GetProcAddress
                           0 GetProcessHeap
                           0 HeapAlloc
                           0 HeapFree

SECTION HEADER #4
  .reloc name
       C virtual size
  20C000 virtual address (000000001020C000 to 000000001020C00B)
     200 size of raw data
    7C00 file pointer to raw data (00007C00 to 00007DFF)
       0 file pointer to relocation table
       0 file pointer to line numbers
       0 number of relocations
       0 number of line numbers
42000040 flags
         Initialized Data
         Discardable
         Read Only

RAW DATA #4
  000000001020C000: 04 00 00 00 0C 00 00 00 00 00 00 00              ............

BASE RELOCATIONS #4
       4 RVA,        C SizeOfBlock
       0  ABS                        
       0  ABS                        

SECTION HEADER #5
  .edata name
     14E virtual size
  20D000 virtual address (000000001020D000 to 000000001020D14D)
     200 size of raw data
    7E00 file pointer to raw data (00007E00 to 00007FFF)
       0 file pointer to relocation table
       0 file pointer to line numbers
       0 number of relocations
       0 number of line numbers
40000040 flags
         Initialized Data
         Read Only

RAW DATA #5
  000000001020D000: 00 00 00 00 00 00 00 00 00 00 00 00 44 D1 20 00  ............DÑ .
  000000001020D010: 01 00 00 00 47 00 00 00 00 00 00 00 28 D0 20 00  ....G.......(? .
  000000001020D020: 00 00 00 00 00 00 00 00 50 20 00 00 C0 24 00 00  ........P ..À$..
  000000001020D030: A0 20 00 00 F0 20 00 00 40 21 00 00 90 21 00 00  . ..? ..@!...!..
  000000001020D040: E0 21 00 00 38 22 00 00 88 22 00 00 E0 22 00 00  à!..8"..."..à"..
  000000001020D050: 70 24 00 00 30 23 00 00 18 24 00 00 C8 23 00 00  p$..0#...$..È#..
  000000001020D060: F8 4F 20 00 F0 4F 20 00 E8 4F 20 00 E0 4F 20 00  øO .?O .èO .àO .
  000000001020D070: D8 4F 20 00 D0 4F 20 00 C8 4F 20 00 C0 4F 20 00  ØO .?O .ÈO .ÀO .
  000000001020D080: B8 4F 20 00 B0 4E 20 00 A8 4E 20 00 A0 4E 20 00  ¸O .°N .¨N ..N .
  000000001020D090: 98 4E 20 00 88 4E 20 00 80 4E 20 00 00 4E 20 00  .N ..N ..N ..N .
  000000001020D0A0: F0 4D 20 00 E8 4D 20 00 E0 4D 20 00 D8 4D 20 00  ?M .èM .àM .ØM .
  000000001020D0B0: B8 4D 20 00 B0 4D 20 00 B0 25 20 00 B0 25 00 00  ¸M .°M .°% .°%..
  000000001020D0C0: A8 25 00 00 A5 25 00 00 80 23 00 00 00 50 20 00  ¨%..¥%...#...P .
  000000001020D0D0: 97 50 20 00 01 52 20 00 2A 53 20 00 A1 54 20 00  .P ..R .*S .¡T .
  000000001020D0E0: 05 55 20 00 69 55 20 00 FB 55 20 00 D0 56 20 00  .U .iU .ûU .?V .
  000000001020D0F0: 87 57 20 00 E6 58 20 00 D8 59 20 00 03 5D 20 00  .W .æX .ØY ..] .
  000000001020D100: 93 5D 20 00 6D 5E 20 00 26 5F 20 00 4A 60 20 00  .] .m^ .&_ .J` .
  000000001020D110: 9C 60 20 00 70 61 20 00 76 62 20 00 57 63 20 00  .` .pa .vb .Wc .
  000000001020D120: A6 63 20 00 7B 64 20 00 F0 64 20 00 1E 65 20 00  ¦c .{d .?d ..e .
  000000001020D130: 85 66 20 00 03 73 20 00 1F 8F 20 00 58 99 20 00  .f ..s ... .X. .
  000000001020D140: 62 9E 20 00 42 61 73 65 31 2E 64 6C 6C 00        b. .Base1.dll.

  Section contains the following exports for Base1.dll

    00000000 characteristics
           0 time date stamp
        0.00 version
           1 ordinal base
          71 number of functions
           0 number of names

    ordinal hint RVA      name

          1      00002050 [NONAME]
          2      000024C0 [NONAME]
          3      000020A0 [NONAME]
          4      000020F0 [NONAME]
          5      00002140 [NONAME]
          6      00002190 [NONAME]
          7      000021E0 [NONAME]
          8      00002238 [NONAME]
          9      00002288 [NONAME]
         10      000022E0 [NONAME]
         11      00002470 [NONAME]
         12      00002330 [NONAME]
         13      00002418 [NONAME]
         14      000023C8 [NONAME]
         15      00204FF8 [NONAME]
         16      00204FF0 [NONAME]
         17      00204FE8 [NONAME]
         18      00204FE0 [NONAME]
         19      00204FD8 [NONAME]
         20      00204FD0 [NONAME]
         21      00204FC8 [NONAME]
         22      00204FC0 [NONAME]
         23      00204FB8 [NONAME]
         24      00204EB0 [NONAME]
         25      00204EA8 [NONAME]
         26      00204EA0 [NONAME]
         27      00204E98 [NONAME]
         28      00204E88 [NONAME]
         29      00204E80 [NONAME]
         30      00204E00 [NONAME]
         31      00204DF0 [NONAME]
         32      00204DE8 [NONAME]
         33      00204DE0 [NONAME]
         34      00204DD8 [NONAME]
         35      00204DB8 [NONAME]
         36      00204DB0 [NONAME]
         37      002025B0 [NONAME]
         38      000025B0 [NONAME]
         39      000025A8 [NONAME]
         40      000025A5 [NONAME]
         41      00002380 [NONAME]
         42      00205000 [NONAME]
         43      00205097 [NONAME]
         44      00205201 [NONAME]
         45      0020532A [NONAME]
         46      002054A1 [NONAME]
         47      00205505 [NONAME]
         48      00205569 [NONAME]
         49      002055FB [NONAME]
         50      002056D0 [NONAME]
         51      00205787 [NONAME]
         52      002058E6 [NONAME]
         53      002059D8 [NONAME]
         54      00205D03 [NONAME]
         55      00205D93 [NONAME]
         56      00205E6D [NONAME]
         57      00205F26 [NONAME]
         58      0020604A [NONAME]
         59      0020609C [NONAME]
         60      00206170 [NONAME]
         61      00206276 [NONAME]
         62      00206357 [NONAME]
         63      002063A6 [NONAME]
         64      0020647B [NONAME]
         65      002064F0 [NONAME]
         66      0020651E [NONAME]
         67      00206685 [NONAME]
         68      00207303 [NONAME]
         69      00208F1F [NONAME]
         70      00209958 [NONAME]
         71      00209E62 [NONAME]

  Summary

      204000 .data
        1000 .edata
        1000 .idata
        1000 .reloc
        6000 .text
