Microsoft (R) COFF/PE Dumper Version 14.00.24215.1
Copyright (C) Microsoft Corporation.  All rights reserved.


Dump of file BaseSys.dll

PE signature found

File Type: DLL

FILE HEADER VALUES
            8664 machine (x64)
               5 number of sections
               0 time date stamp
               0 file pointer to symbol table
               0 number of symbols
              F0 size of optional header
            2022 characteristics
                   Executable
                   Application can handle large (>2GB) addresses
                   DLL

OPTIONAL HEADER VALUES
             20B magic # (PE32+)
            0.00 linker version
            1E00 size of code
            1600 size of initialized data
               0 size of uninitialized data
            3C96 entry point (0000000010003C96)
            2000 base of code
        10000000 image base (0000000010000000 to 0000000010006FFF)
            1000 section alignment
             200 file alignment
            5.00 operating system version
            0.00 image version
            5.00 subsystem version
               0 Win32 version
            7000 size of image
             400 size of headers
               0 checksum
               2 subsystem (Windows GUI)
             140 DLL characteristics
                   Dynamic base
                   NX compatible
            1000 size of stack reserve
            1000 size of stack commit
           10000 size of heap reserve
               0 size of heap commit
               0 loader flags
              10 number of directories
            6000 [      D0] RVA [size] of Export Directory
            4000 [     130] RVA [size] of Import Directory
               0 [       0] RVA [size] of Resource Directory
               0 [       0] RVA [size] of Exception Directory
               0 [       0] RVA [size] of Certificates Directory
            5000 [       C] RVA [size] of Base Relocation Directory
               0 [       0] RVA [size] of Debug Directory
               0 [       0] RVA [size] of Architecture Directory
               0 [       0] RVA [size] of Global Pointer Directory
               0 [       0] RVA [size] of Thread Storage Directory
               0 [       0] RVA [size] of Load Configuration Directory
               0 [       0] RVA [size] of Bound Import Directory
               0 [       0] RVA [size] of Import Address Table Directory
               0 [       0] RVA [size] of Delay Import Directory
               0 [       0] RVA [size] of COM Descriptor Directory
               0 [       0] RVA [size] of Reserved Directory


SECTION HEADER #1
   .data name
    1000 virtual size
    1000 virtual address (0000000010001000 to 0000000010001FFF)
    1000 size of raw data
    2400 file pointer to raw data (00002400 to 000033FF)
       0 file pointer to relocation table
       0 file pointer to line numbers
       0 number of relocations
       0 number of line numbers
C0000040 flags
         Initialized Data
         Read Write

RAW DATA #1
  0000000010001000: 00 00 00 00 00 00 00 00 00 00 00 00 00 00 00 00  ................
  0000000010001010: 00 00 00 00 00 00 00 00 00 00 00 00 00 00 00 00  ................
  0000000010001020: 00 00 00 00 00 00 00 00 00 00 00 00 00 00 00 00  ................
  0000000010001030: 00 00 00 00 00 00 00 00 00 00 00 00 00 00 00 00  ................
  0000000010001040: 00 00 00 00 00 00 00 00 00 00 00 00 00 00 00 00  ................
  0000000010001050: 00 00 00 00 00 00 00 00 00 00 00 00 00 00 00 00  ................
  0000000010001060: 00 00 00 00 00 00 00 00 00 00 00 00 00 00 00 00  ................
  0000000010001070: 00 00 00 00 00 00 00 00 00 00 00 00 00 00 00 00  ................
  0000000010001080: 00 00 00 00 00 00 00 00 00 00 00 00 00 00 00 00  ................
  0000000010001090: 00 00 00 00 00 00 00 00 00 00 00 00 00 00 00 00  ................
  00000000100010A0: 00 00 00 00 00 00 00 00 00 00 00 00 00 00 00 00  ................
  00000000100010B0: 00 00 00 00 00 00 00 00 00 00 00 00 00 00 00 00  ................
  00000000100010C0: 00 00 00 00 00 00 00 00 00 00 00 00 00 00 00 00  ................
  00000000100010D0: 00 00 00 00 00 00 00 00 00 00 00 00 00 00 00 00  ................
  00000000100010E0: 00 00 00 00 00 00 00 00 00 00 00 00 00 00 00 00  ................
  00000000100010F0: 00 00 00 00 00 00 00 00 00 00 00 00 00 00 00 00  ................
  0000000010001100: 00 00 00 00 00 00 00 00 00 00 00 00 00 00 00 00  ................
  0000000010001110: 00 00 00 00 00 00 00 00 00 00 00 00 00 00 00 00  ................
  0000000010001120: 00 00 00 00 00 00 00 00 00 00 00 00 00 00 00 00  ................
  0000000010001130: 00 00 00 00 00 00 00 00 00 00 00 00 00 00 00 00  ................
  0000000010001140: 00 00 00 00 00 00 00 00 00 00 00 00 00 00 00 00  ................
  0000000010001150: 00 00 00 00 00 00 00 00 00 00 00 00 00 00 00 00  ................
  0000000010001160: 00 00 00 00 00 00 00 00 00 00 00 00 00 00 00 00  ................
  0000000010001170: 00 00 00 00 00 00 00 00 00 00 00 00 00 00 00 00  ................
  0000000010001180: 00 00 00 00 00 00 00 00 00 00 00 00 00 00 00 00  ................
  0000000010001190: 00 00 00 00 00 00 00 00 00 00 00 00 00 00 00 00  ................
  00000000100011A0: 00 00 00 00 00 00 00 00 00 00 00 00 00 00 00 00  ................
  00000000100011B0: 00 00 00 00 00 00 00 00 00 00 00 00 00 00 00 00  ................
  00000000100011C0: 00 00 00 00 00 00 00 00 00 00 00 00 00 00 00 00  ................
  00000000100011D0: 00 00 00 00 00 00 00 00 00 00 00 00 00 00 00 00  ................
  00000000100011E0: 00 00 00 00 00 00 00 00 00 00 00 00 00 00 00 00  ................
  00000000100011F0: 00 00 00 00 00 00 00 00 00 00 00 00 00 00 00 00  ................
  0000000010001200: 00 00 00 00 00 00 00 00 00 00 00 00 00 00 00 00  ................
  0000000010001210: 00 00 00 00 00 00 00 00 00 00 00 00 00 00 00 00  ................
  0000000010001220: 00 00 00 00 00 00 00 00 00 00 00 00 00 00 00 00  ................
  0000000010001230: 00 00 00 00 00 00 00 00 00 00 00 00 00 00 00 00  ................
  0000000010001240: 00 00 00 00 00 00 00 00 00 00 00 00 00 00 00 00  ................
  0000000010001250: 00 00 00 00 00 00 00 00 00 00 00 00 00 00 00 00  ................
  0000000010001260: 00 00 00 00 00 00 00 00 00 00 00 00 00 00 00 00  ................
  0000000010001270: 00 00 00 00 00 00 00 00 00 00 00 00 00 00 00 00  ................
  0000000010001280: 00 00 00 00 00 00 00 00 00 00 00 00 00 00 00 00  ................
  0000000010001290: 00 00 00 00 00 00 00 00 00 00 00 00 00 00 00 00  ................
  00000000100012A0: 00 00 00 00 00 00 00 00 00 00 00 00 00 00 00 00  ................
  00000000100012B0: 00 00 00 00 00 00 00 00 00 00 00 00 00 00 00 00  ................
  00000000100012C0: 00 00 00 00 00 00 00 00 00 00 00 00 00 00 00 00  ................
  00000000100012D0: 00 00 00 00 00 00 00 00 00 00 00 00 00 00 00 00  ................
  00000000100012E0: 00 00 00 00 00 00 00 00 00 00 00 00 00 00 00 00  ................
  00000000100012F0: 00 00 00 00 00 00 00 00 00 00 00 00 00 00 00 00  ................
  0000000010001300: 00 00 00 00 00 00 00 00 00 00 00 00 00 00 00 00  ................
  0000000010001310: 00 00 00 00 00 00 00 00 00 00 00 00 00 00 00 00  ................
  0000000010001320: 00 00 00 00 00 00 00 00 00 00 00 00 00 00 00 00  ................
  0000000010001330: 00 00 00 00 00 00 00 00 00 00 00 00 00 00 00 00  ................
  0000000010001340: 00 00 00 00 00 00 00 00 00 00 00 00 00 00 00 00  ................
  0000000010001350: 00 00 00 00 00 00 00 00 00 00 00 00 00 00 00 00  ................
  0000000010001360: 00 00 00 00 00 00 00 00 00 00 00 00 00 00 00 00  ................
  0000000010001370: 00 00 00 00 00 00 00 00 00 00 00 00 00 00 00 00  ................
  0000000010001380: 00 00 00 00 00 00 00 00 00 00 00 00 00 00 00 00  ................
  0000000010001390: 00 00 00 00 00 00 00 00 00 00 00 00 00 00 00 00  ................
  00000000100013A0: 00 00 00 00 00 00 00 00 00 00 00 00 00 00 00 00  ................
  00000000100013B0: 00 00 00 00 00 00 00 00 00 00 00 00 00 00 00 00  ................
  00000000100013C0: 00 00 00 00 00 00 00 00 00 00 00 00 00 00 00 00  ................
  00000000100013D0: 00 00 00 00 00 00 00 00 00 00 00 00 00 00 00 00  ................
  00000000100013E0: 00 00 00 00 00 00 00 00 00 00 00 00 00 00 00 00  ................
  00000000100013F0: 00 00 00 00 00 00 00 00 00 00 00 00 00 00 00 00  ................
  0000000010001400: 00 00 00 00 00 00 00 00 00 00 00 00 00 00 00 00  ................
  0000000010001410: 00 00 00 00 00 00 00 00 00 00 00 00 00 00 00 00  ................
  0000000010001420: 00 00 00 00 00 00 00 00 00 00 00 00 00 00 00 00  ................
  0000000010001430: 00 00 00 00 00 00 00 00 00 00 00 00 00 00 00 00  ................
  0000000010001440: 00 00 00 00 00 00 00 00 00 00 00 00 00 00 00 00  ................
  0000000010001450: 00 00 00 00 00 00 00 00 00 00 00 00 00 00 00 00  ................
  0000000010001460: 00 00 00 00 00 00 00 00 00 00 00 00 00 00 00 00  ................
  0000000010001470: 00 00 00 00 00 00 00 00 00 00 00 00 00 00 00 00  ................
  0000000010001480: 00 00 00 00 00 00 00 00 00 00 00 00 00 00 00 00  ................
  0000000010001490: 00 00 00 00 00 00 00 00 00 00 00 00 00 00 00 00  ................
  00000000100014A0: 00 00 00 00 00 00 00 00 00 00 00 00 00 00 00 00  ................
  00000000100014B0: 00 00 00 00 00 00 00 00 00 00 00 00 00 00 00 00  ................
  00000000100014C0: 00 00 00 00 00 00 00 00 00 00 00 00 00 00 00 00  ................
  00000000100014D0: 00 00 00 00 00 00 00 00 00 00 00 00 00 00 00 00  ................
  00000000100014E0: 00 00 00 00 00 00 00 00 00 00 00 00 00 00 00 00  ................
  00000000100014F0: 00 00 00 00 00 00 00 00 00 00 00 00 00 00 00 00  ................
  0000000010001500: 00 00 00 00 00 00 00 00 00 00 00 00 00 00 00 00  ................
  0000000010001510: 00 00 00 00 00 00 00 00 00 00 00 00 00 00 00 00  ................
  0000000010001520: 00 00 00 00 00 00 00 00 00 00 00 00 00 00 00 00  ................
  0000000010001530: 00 00 00 00 00 00 00 00 00 00 00 00 00 00 00 00  ................
  0000000010001540: 00 00 00 00 00 00 00 00 00 00 00 00 00 00 00 00  ................
  0000000010001550: 00 00 00 00 00 00 00 00 00 00 00 00 00 00 00 00  ................
  0000000010001560: 00 00 00 00 00 00 00 00 00 00 00 00 00 00 00 00  ................
  0000000010001570: 00 00 00 00 00 00 00 00 00 00 00 00 00 00 00 00  ................
  0000000010001580: 00 00 00 00 00 00 00 00 00 00 00 00 00 00 00 00  ................
  0000000010001590: 00 00 00 00 00 00 00 00 00 00 00 00 00 00 00 00  ................
  00000000100015A0: 00 00 00 00 00 00 00 00 00 00 00 00 00 00 00 00  ................
  00000000100015B0: 00 00 00 00 00 00 00 00 00 00 00 00 00 00 00 00  ................
  00000000100015C0: 00 00 00 00 00 00 00 00 00 00 00 00 00 00 00 00  ................
  00000000100015D0: 00 00 00 00 00 00 00 00 00 00 00 00 00 00 00 00  ................
  00000000100015E0: 00 00 00 00 00 00 00 00 00 00 00 00 00 00 00 00  ................
  00000000100015F0: 00 00 00 00 00 00 00 00 00 00 00 00 00 00 00 00  ................
  0000000010001600: 00 00 00 00 00 00 00 00 00 00 00 00 00 00 00 00  ................
  0000000010001610: 00 00 00 00 00 00 00 00 00 00 00 00 00 00 00 00  ................
  0000000010001620: 00 00 00 00 00 00 00 00 00 00 00 00 00 00 00 00  ................
  0000000010001630: 00 00 00 00 00 00 00 00 00 00 00 00 00 00 00 00  ................
  0000000010001640: 00 00 00 00 00 00 00 00 00 00 00 00 00 00 00 00  ................
  0000000010001650: 00 00 00 00 00 00 00 00 00 00 00 00 00 00 00 00  ................
  0000000010001660: 00 00 00 00 00 00 00 00 00 00 00 00 00 00 00 00  ................
  0000000010001670: 00 00 00 00 00 00 00 00 00 00 00 00 00 00 00 00  ................
  0000000010001680: 00 00 00 00 00 00 00 00 00 00 00 00 00 00 00 00  ................
  0000000010001690: 00 00 00 00 00 00 00 00 00 00 00 00 00 00 00 00  ................
  00000000100016A0: 00 00 00 00 00 00 00 00 00 00 00 00 00 00 00 00  ................
  00000000100016B0: 00 00 00 00 00 00 00 00 00 00 00 00 00 00 00 00  ................
  00000000100016C0: 00 00 00 00 00 00 00 00 00 00 00 00 00 00 00 00  ................
  00000000100016D0: 00 00 00 00 00 00 00 00 00 00 00 00 00 00 00 00  ................
  00000000100016E0: 00 00 00 00 00 00 00 00 00 00 00 00 00 00 00 00  ................
  00000000100016F0: 00 00 00 00 00 00 00 00 00 00 00 00 00 00 00 00  ................
  0000000010001700: 00 00 00 00 00 00 00 00 00 00 00 00 00 00 00 00  ................
  0000000010001710: 00 00 00 00 00 00 00 00 00 00 00 00 00 00 00 00  ................
  0000000010001720: 00 00 00 00 00 00 00 00 00 00 00 00 00 00 00 00  ................
  0000000010001730: 00 00 00 00 00 00 00 00 00 00 00 00 00 00 00 00  ................
  0000000010001740: 00 00 00 00 00 00 00 00 00 00 00 00 00 00 00 00  ................
  0000000010001750: 00 00 00 00 00 00 00 00 00 00 00 00 00 00 00 00  ................
  0000000010001760: 00 00 00 00 00 00 00 00 00 00 00 00 00 00 00 00  ................
  0000000010001770: 00 00 00 00 00 00 00 00 00 00 00 00 00 00 00 00  ................
  0000000010001780: 00 00 00 00 00 00 00 00 00 00 00 00 00 00 00 00  ................
  0000000010001790: 00 00 00 00 00 00 00 00 00 00 00 00 00 00 00 00  ................
  00000000100017A0: 00 00 00 00 00 00 00 00 00 00 00 00 00 00 00 00  ................
  00000000100017B0: 00 00 00 00 00 00 00 00 00 00 00 00 00 00 00 00  ................
  00000000100017C0: 00 00 00 00 00 00 00 00 00 00 00 00 00 00 00 00  ................
  00000000100017D0: 00 00 00 00 00 00 00 00 00 00 00 00 00 00 00 00  ................
  00000000100017E0: 00 00 00 00 00 00 00 00 00 00 00 00 00 00 00 00  ................
  00000000100017F0: 00 00 00 00 00 00 00 00 00 00 00 00 00 00 00 00  ................
  0000000010001800: 00 00 00 00 00 00 00 00 00 00 00 00 00 00 00 00  ................
  0000000010001810: 00 00 00 00 00 00 00 00 00 00 00 00 00 00 00 00  ................
  0000000010001820: 00 00 00 00 00 00 00 00 00 00 00 00 00 00 00 00  ................
  0000000010001830: 00 00 00 00 00 00 00 00 00 00 00 00 00 00 00 00  ................
  0000000010001840: 00 00 00 00 00 00 00 00 00 00 00 00 00 00 00 00  ................
  0000000010001850: 00 00 00 00 00 00 00 00 00 00 00 00 00 00 00 00  ................
  0000000010001860: 00 00 00 00 00 00 00 00 00 00 00 00 00 00 00 00  ................
  0000000010001870: 00 00 00 00 00 00 00 00 00 00 00 00 00 00 00 00  ................
  0000000010001880: 00 00 00 00 00 00 00 00 00 00 00 00 00 00 00 00  ................
  0000000010001890: 00 00 00 00 00 00 00 00 00 00 00 00 00 00 00 00  ................
  00000000100018A0: 00 00 00 00 00 00 00 00 00 00 00 00 00 00 00 00  ................
  00000000100018B0: 00 00 00 00 00 00 00 00 00 00 00 00 00 00 00 00  ................
  00000000100018C0: 00 00 00 00 00 00 00 00 00 00 00 00 00 00 00 00  ................
  00000000100018D0: 00 00 00 00 00 00 00 00 00 00 00 00 00 00 00 00  ................
  00000000100018E0: 00 00 00 00 00 00 00 00 00 00 00 00 00 00 00 00  ................
  00000000100018F0: 00 00 00 00 00 00 00 00 00 00 00 00 00 00 00 00  ................
  0000000010001900: 00 00 00 00 00 00 00 00 00 00 00 00 00 00 00 00  ................
  0000000010001910: 00 00 00 00 00 00 00 00 00 00 00 00 00 00 00 00  ................
  0000000010001920: 00 00 00 00 00 00 00 00 00 00 00 00 00 00 00 00  ................
  0000000010001930: 00 00 00 00 00 00 00 00 00 00 00 00 00 00 00 00  ................
  0000000010001940: 00 00 00 00 00 00 00 00 00 00 00 00 00 00 00 00  ................
  0000000010001950: 00 00 00 00 00 00 00 00 00 00 00 00 00 00 00 00  ................
  0000000010001960: 00 00 00 00 00 00 00 00 00 00 00 00 00 00 00 00  ................
  0000000010001970: 00 00 00 00 00 00 00 00 00 00 00 00 00 00 00 00  ................
  0000000010001980: 00 00 00 00 00 00 00 00 00 00 00 00 00 00 00 00  ................
  0000000010001990: 00 00 00 00 00 00 00 00 00 00 00 00 00 00 00 00  ................
  00000000100019A0: 00 00 00 00 00 00 00 00 00 00 00 00 00 00 00 00  ................
  00000000100019B0: 00 00 00 00 00 00 00 00 00 00 00 00 00 00 00 00  ................
  00000000100019C0: 00 00 00 00 00 00 00 00 00 00 00 00 00 00 00 00  ................
  00000000100019D0: 00 00 00 00 00 00 00 00 00 00 00 00 00 00 00 00  ................
  00000000100019E0: 00 00 00 00 00 00 00 00 00 00 00 00 00 00 00 00  ................
  00000000100019F0: 00 00 00 00 00 00 00 00 00 00 00 00 00 00 00 00  ................
  0000000010001A00: 00 00 00 00 00 00 00 00 00 00 00 00 00 00 00 00  ................
  0000000010001A10: 00 00 00 00 00 00 00 00 00 00 00 00 00 00 00 00  ................
  0000000010001A20: 00 00 00 00 00 00 00 00 00 00 00 00 00 00 00 00  ................
  0000000010001A30: 00 00 00 00 00 00 00 00 00 00 00 00 00 00 00 00  ................
  0000000010001A40: 00 00 00 00 00 00 00 00 00 00 00 00 00 00 00 00  ................
  0000000010001A50: 00 00 00 00 00 00 00 00 00 00 00 00 00 00 00 00  ................
  0000000010001A60: 00 00 00 00 00 00 00 00 00 00 00 00 00 00 00 00  ................
  0000000010001A70: 00 00 00 00 00 00 00 00 00 00 00 00 00 00 00 00  ................
  0000000010001A80: 00 00 00 00 00 00 00 00 00 00 00 00 00 00 00 00  ................
  0000000010001A90: 00 00 00 00 00 00 00 00 00 00 00 00 00 00 00 00  ................
  0000000010001AA0: 00 00 00 00 00 00 00 00 00 00 00 00 00 00 00 00  ................
  0000000010001AB0: 00 00 00 00 00 00 00 00 00 00 00 00 00 00 00 00  ................
  0000000010001AC0: 00 00 00 00 00 00 00 00 00 00 00 00 00 00 00 00  ................
  0000000010001AD0: 00 00 00 00 00 00 00 00 00 00 00 00 00 00 00 00  ................
  0000000010001AE0: 00 00 00 00 00 00 00 00 00 00 00 00 00 00 00 00  ................
  0000000010001AF0: 00 00 00 00 00 00 00 00 00 00 00 00 00 00 00 00  ................
  0000000010001B00: 00 00 00 00 00 00 00 00 00 00 00 00 00 00 00 00  ................
  0000000010001B10: 00 00 00 00 00 00 00 00 00 00 00 00 00 00 00 00  ................
  0000000010001B20: 00 00 00 00 00 00 00 00 00 00 00 00 00 00 00 00  ................
  0000000010001B30: 00 00 00 00 00 00 00 00 00 00 00 00 00 00 00 00  ................
  0000000010001B40: 00 00 00 00 00 00 00 00 00 00 00 00 00 00 00 00  ................
  0000000010001B50: 00 00 00 00 00 00 00 00 00 00 00 00 00 00 00 00  ................
  0000000010001B60: 00 00 00 00 00 00 00 00 00 00 00 00 00 00 00 00  ................
  0000000010001B70: 00 00 00 00 00 00 00 00 00 00 00 00 00 00 00 00  ................
  0000000010001B80: 00 00 00 00 00 00 00 00 00 00 00 00 00 00 00 00  ................
  0000000010001B90: 00 00 00 00 00 00 00 00 00 00 00 00 00 00 00 00  ................
  0000000010001BA0: 00 00 00 00 00 00 00 00 00 00 00 00 00 00 00 00  ................
  0000000010001BB0: 00 00 00 00 00 00 00 00 00 00 00 00 00 00 00 00  ................
  0000000010001BC0: 00 00 00 00 00 00 00 00 00 00 00 00 00 00 00 00  ................
  0000000010001BD0: 00 00 00 00 00 00 00 00 00 00 00 00 00 00 00 00  ................
  0000000010001BE0: 00 00 00 00 00 00 00 00 00 00 00 00 00 00 00 00  ................
  0000000010001BF0: 00 00 00 00 00 00 00 00 00 00 00 00 00 00 00 00  ................
  0000000010001C00: 00 00 00 00 00 00 00 00 00 00 00 00 00 00 00 00  ................
  0000000010001C10: 00 00 00 00 00 00 00 00 00 00 00 00 00 00 00 00  ................
  0000000010001C20: 00 00 00 00 00 00 00 00 00 00 00 00 48 00 65 00  ............H.e.
  0000000010001C30: 61 00 70 00 52 00 65 00 41 00 6C 00 6C 00 6F 00  a.p.R.e.A.l.l.o.
  0000000010001C40: 63 00 00 00 48 00 65 00 61 00 70 00 46 00 72 00  c...H.e.a.p.F.r.
  0000000010001C50: 65 00 65 00 00 00 48 00 65 00 61 00 70 00 41 00  e.e...H.e.a.p.A.
  0000000010001C60: 6C 00 6C 00 6F 00 63 00 00 00 47 00 65 00 74 00  l.l.o.c...G.e.t.
  0000000010001C70: 50 00 72 00 6F 00 63 00 65 00 73 00 73 00 48 00  P.r.o.c.e.s.s.H.
  0000000010001C80: 65 00 61 00 70 00 00 00 47 00 65 00 74 00 53 00  e.a.p...G.e.t.S.
  0000000010001C90: 74 00 64 00 48 00 61 00 6E 00 64 00 6C 00 65 00  t.d.H.a.n.d.l.e.
  0000000010001CA0: 00 00 57 00 69 00 64 00 65 00 43 00 68 00 61 00  ..W.i.d.e.C.h.a.
  0000000010001CB0: 72 00 54 00 6F 00 4D 00 75 00 6C 00 74 00 69 00  r.T.o.M.u.l.t.i.
  0000000010001CC0: 42 00 79 00 74 00 65 00 00 00 47 00 65 00 74 00  B.y.t.e...G.e.t.
  0000000010001CD0: 43 00 6F 00 6D 00 6D 00 61 00 6E 00 64 00 4C 00  C.o.m.m.a.n.d.L.
  0000000010001CE0: 69 00 6E 00 65 00 57 00 00 00 47 00 65 00 74 00  i.n.e.W...G.e.t.
  0000000010001CF0: 54 00 69 00 63 00 6B 00 43 00 6F 00 75 00 6E 00  T.i.c.k.C.o.u.n.
  0000000010001D00: 74 00 00 00 53 00 65 00 74 00 46 00 69 00 6C 00  t...S.e.t.F.i.l.
  0000000010001D10: 65 00 50 00 6F 00 69 00 6E 00 74 00 65 00 72 00  e.P.o.i.n.t.e.r.
  0000000010001D20: 45 00 78 00 00 00 57 00 72 00 69 00 74 00 65 00  E.x...W.r.i.t.e.
  0000000010001D30: 46 00 69 00 6C 00 65 00 00 00 52 00 65 00 61 00  F.i.l.e...R.e.a.
  0000000010001D40: 64 00 46 00 69 00 6C 00 65 00 00 00 44 00 65 00  d.F.i.l.e...D.e.
  0000000010001D50: 6C 00 65 00 74 00 65 00 46 00 69 00 6C 00 65 00  l.e.t.e.F.i.l.e.
  0000000010001D60: 57 00 00 00 4D 00 6F 00 76 00 65 00 46 00 69 00  W...M.o.v.e.F.i.
  0000000010001D70: 6C 00 65 00 57 00 00 00 43 00 6C 00 6F 00 73 00  l.e.W...C.l.o.s.
  0000000010001D80: 65 00 48 00 61 00 6E 00 64 00 6C 00 65 00 00 00  e.H.a.n.d.l.e...
  0000000010001D90: 43 00 72 00 65 00 61 00 74 00 65 00 46 00 69 00  C.r.e.a.t.e.F.i.
  0000000010001DA0: 6C 00 65 00 57 00 00 00 47 00 65 00 74 00 46 00  l.e.W...G.e.t.F.
  0000000010001DB0: 69 00 6C 00 65 00 41 00 74 00 74 00 72 00 69 00  i.l.e.A.t.t.r.i.
  0000000010001DC0: 62 00 75 00 74 00 65 00 73 00 57 00 00 00 20 00  b.u.t.e.s.W... .
  0000000010001DD0: 00 00 20 00 00 00 20 00 00 00 20 00 00 00 2D 00  .. ... ... ...-.
  0000000010001DE0: 39 00 32 00 32 00 33 00 33 00 37 00 32 00 30 00  9.2.2.3.3.7.2.0.
  0000000010001DF0: 33 00 36 00 38 00 35 00 34 00 37 00 37 00 35 00  3.6.8.5.4.7.7.5.
  0000000010001E00: 38 00 30 00 38 00 00 00 2D 00 00 00 30 00 00 00  8.0.8...-...0...
  0000000010001E10: 00 00 00 00 00 00 00 00 00 00 00 00 00 00 00 00  ................
  0000000010001E20: 00 00 00 00 00 00 00 00 00 00 00 00 00 00 00 00  ................
  0000000010001E30: 00 00 00 00 00 00 00 00 00 00 00 00 00 00 00 00  ................
  0000000010001E40: 00 00 00 00 00 00 00 00 00 00 00 00 00 00 00 00  ................
  0000000010001E50: 00 00 00 00 00 00 00 00 00 00 00 00 00 00 00 00  ................
  0000000010001E60: 00 00 00 00 00 00 00 00 00 00 00 00 00 00 00 00  ................
  0000000010001E70: 00 00 00 00 00 00 00 00 00 00 00 00 00 00 00 00  ................
  0000000010001E80: 00 00 00 00 00 00 00 00 00 00 00 00 00 00 00 00  ................
  0000000010001E90: 00 00 00 00 00 00 00 00 00 00 00 00 00 00 00 00  ................
  0000000010001EA0: 00 00 00 00 00 00 00 00 00 00 00 00 00 00 00 00  ................
  0000000010001EB0: 00 00 00 00 00 00 00 00 00 00 00 00 00 00 00 00  ................
  0000000010001EC0: 00 00 00 00 00 00 00 00 00 00 00 00 00 00 00 00  ................
  0000000010001ED0: 00 00 00 00 00 00 00 00 00 00 00 00 00 00 00 00  ................
  0000000010001EE0: 00 00 00 00 00 00 4B 00 65 00 72 00 6E 00 65 00  ......K.e.r.n.e.
  0000000010001EF0: 6C 00 33 00 32 00 2E 00 64 00 6C 00 6C 00 00 00  l.3.2...d.l.l...
  0000000010001F00: 00 00 00 00 00 00 00 00 00 00 00 00 00 00 00 00  ................
  0000000010001F10: 00 00 00 00 00 00 00 00 00 00 00 00 00 00 00 00  ................
  0000000010001F20: 00 00 00 00 00 00 00 00 00 00 00 00 00 00 00 00  ................
  0000000010001F30: 00 00 00 00 00 00 00 00 00 00 00 00 00 00 00 00  ................
  0000000010001F40: 00 00 00 00 00 00 00 00 70 40 00 00 00 00 00 00  ........p@......
  0000000010001F50: 90 40 00 00 00 00 00 00 B0 40 00 00 00 00 00 00  .@......°@......
  0000000010001F60: D0 40 00 00 00 00 00 00 F0 40 00 00 00 00 00 00  ?@......?@......
  0000000010001F70: 10 41 00 00 00 00 00 00 00 00 00 00 00 00 00 00  .A..............
  0000000010001F80: 00 00 00 00 00 00 00 00 00 00 00 00 00 00 00 00  ................
  0000000010001F90: 00 00 00 00 00 00 00 00 00 00 00 00 00 00 00 00  ................
  0000000010001FA0: 00 00 00 00 00 00 00 00 00 00 00 00 00 00 00 00  ................
  0000000010001FB0: 00 00 00 00 00 00 00 00 00 00 00 00 00 00 00 00  ................
  0000000010001FC0: 00 00 00 00 00 00 00 00 00 00 00 00 00 00 00 00  ................
  0000000010001FD0: 00 00 00 00 00 00 00 00 00 00 00 00 00 00 00 00  ................
  0000000010001FE0: 00 00 00 00 00 00 00 00 00 00 00 00 00 00 00 00  ................
  0000000010001FF0: 00 00 00 00 00 00 00 00 00 00 00 00 00 00 00 00  ................

SECTION HEADER #2
   .text name
    1CC4 virtual size
    2000 virtual address (0000000010002000 to 0000000010003CC3)
    1E00 size of raw data
     400 file pointer to raw data (00000400 to 000021FF)
       0 file pointer to relocation table
       0 file pointer to line numbers
       0 number of relocations
       0 number of line numbers
60000020 flags
         Code
         Execute Read

  0000000010002000: 55                 push        rbp
  0000000010002001: 48 8B EC           mov         rbp,rsp
  0000000010002004: 48 81 EC 20 01 00  sub         rsp,120h
                    00
  000000001000200B: 48 89 4D 10        mov         qword ptr [rbp+10h],rcx
  000000001000200F: 48 89 55 18        mov         qword ptr [rbp+18h],rdx
  0000000010002013: 4C 89 45 20        mov         qword ptr [rbp+20h],r8
  0000000010002017: 4C 89 4D 28        mov         qword ptr [rbp+28h],r9
  000000001000201B: 48 83 EC 20        sub         rsp,20h
  000000001000201F: 48 8B 4D 20        mov         rcx,qword ptr [rbp+20h]
  0000000010002023: FF 15 27 FF FF FF  call        qword ptr [0000000010001F50h]
  0000000010002029: 48 83 C4 20        add         rsp,20h
  000000001000202D: 48 89 45 F8        mov         qword ptr [rbp-8],rax
  0000000010002031: 48 8B 45 F8        mov         rax,qword ptr [rbp-8]
  0000000010002035: 48 85 C0           test        rax,rax
  0000000010002038: 0F 84 BE 00 00 00  je          00000000100020FC
  000000001000203E: 48 B8 FF FF FF FF  mov         rax,0FFFFFFFFFFFFFFFFh
                    FF FF FF FF
  0000000010002048: 48 89 45 E8        mov         qword ptr [rbp-18h],rax
  000000001000204C: 48 8B 45 E8        mov         rax,qword ptr [rbp-18h]
  0000000010002050: 48 83 C0 01        add         rax,1
  0000000010002054: 48 89 45 E8        mov         qword ptr [rbp-18h],rax
  0000000010002058: 48 8B 45 E8        mov         rax,qword ptr [rbp-18h]
  000000001000205C: 48 81 F8 00 01 00  cmp         rax,100h
                    00
  0000000010002063: 0F 83 05 00 00 00  jae         000000001000206E
  0000000010002069: E9 08 00 00 00     jmp         0000000010002076
  000000001000206E: B0 01              mov         al,1
  0000000010002070: B9 5B 09 00 00     mov         ecx,95Bh
  0000000010002075: CC                 int         3
  0000000010002076: 48 03 C5           add         rax,rbp
  0000000010002079: 48 8B 4D E8        mov         rcx,qword ptr [rbp-18h]
  000000001000207D: 48 3B 4D 38        cmp         rcx,qword ptr [rbp+38h]
  0000000010002081: 0F 83 05 00 00 00  jae         000000001000208C
  0000000010002087: E9 08 00 00 00     jmp         0000000010002094
  000000001000208C: B0 01              mov         al,1
  000000001000208E: B9 6A 09 00 00     mov         ecx,96Ah
  0000000010002093: CC                 int         3
  0000000010002094: 48 C1 E1 01        shl         rcx,1
  0000000010002098: 48 8B 55 30        mov         rdx,qword ptr [rbp+30h]
  000000001000209C: 48 03 CA           add         rcx,rdx
  000000001000209F: 0F B7 09           movzx       ecx,word ptr [rcx]
  00000000100020A2: 88 88 E8 FE FF FF  mov         byte ptr [rax+FFFFFFFFFFFFFEE8h],cl
  00000000100020A8: 48 8B 45 E8        mov         rax,qword ptr [rbp-18h]
  00000000100020AC: 48 3B 45 38        cmp         rax,qword ptr [rbp+38h]
  00000000100020B0: 0F 83 05 00 00 00  jae         00000000100020BB
  00000000100020B6: E9 08 00 00 00     jmp         00000000100020C3
  00000000100020BB: B0 01              mov         al,1
  00000000100020BD: B9 79 09 00 00     mov         ecx,979h
  00000000100020C2: CC                 int         3
  00000000100020C3: 48 C1 E0 01        shl         rax,1
  00000000100020C7: 48 8B 4D 30        mov         rcx,qword ptr [rbp+30h]
  00000000100020CB: 48 03 C1           add         rax,rcx
  00000000100020CE: 0F B7 00           movzx       eax,word ptr [rax]
  00000000100020D1: 66 85 C0           test        ax,ax
  00000000100020D4: 0F 85 72 FF FF FF  jne         000000001000204C
  00000000100020DA: 48 83 EC 20        sub         rsp,20h
  00000000100020DE: 48 8B 4D F8        mov         rcx,qword ptr [rbp-8]
  00000000100020E2: 48 8D 95 E8 FE FF  lea         rdx,[rbp+FFFFFFFFFFFFFEE8h]
                    FF
  00000000100020E9: FF 15 69 FE FF FF  call        qword ptr [0000000010001F58h]
  00000000100020EF: 48 83 C4 20        add         rsp,20h
  00000000100020F3: 48 89 45 F0        mov         qword ptr [rbp-10h],rax
  00000000100020F7: E9 06 00 00 00     jmp         0000000010002102
  00000000100020FC: 31 C0              xor         eax,eax
  00000000100020FE: 48 89 45 F0        mov         qword ptr [rbp-10h],rax
  0000000010002102: 48 8B 45 10        mov         rax,qword ptr [rbp+10h]
  0000000010002106: 48 8B 4D F0        mov         rcx,qword ptr [rbp-10h]
  000000001000210A: 48 89 08           mov         qword ptr [rax],rcx
  000000001000210D: C9                 leave
  000000001000210E: C3                 ret
  000000001000210F: 55                 push        rbp
  0000000010002110: 48 8B EC           mov         rbp,rsp
  0000000010002113: 48 89 4D 10        mov         qword ptr [rbp+10h],rcx
  0000000010002117: 48 8B 45 10        mov         rax,qword ptr [rbp+10h]
  000000001000211B: B9 FF FF FF FF     mov         ecx,0FFFFFFFFh
  0000000010002120: 48 23 C1           and         rax,rcx
  0000000010002123: C9                 leave
  0000000010002124: C3                 ret
  0000000010002125: 55                 push        rbp
  0000000010002126: 48 8B EC           mov         rbp,rsp
  0000000010002129: 48 89 4D 10        mov         qword ptr [rbp+10h],rcx
  000000001000212D: 48 8B 45 10        mov         rax,qword ptr [rbp+10h]
  0000000010002131: 48 81 E0 FF FF 00  and         rax,0FFFFh
                    00
  0000000010002138: C9                 leave
  0000000010002139: C3                 ret
  000000001000213A: 55                 push        rbp
  000000001000213B: 48 8B EC           mov         rbp,rsp
  000000001000213E: 48 89 4D 10        mov         qword ptr [rbp+10h],rcx
  0000000010002142: 48 8B 45 10        mov         rax,qword ptr [rbp+10h]
  0000000010002146: 48 C1 E0 20        shl         rax,20h
  000000001000214A: 48 C1 F8 20        sar         rax,20h
  000000001000214E: C9                 leave
  000000001000214F: C3                 ret
  0000000010002150: 55                 push        rbp
  0000000010002151: 48 8B EC           mov         rbp,rsp
  0000000010002154: 48 83 EC 10        sub         rsp,10h
  0000000010002158: 48 89 4D 10        mov         qword ptr [rbp+10h],rcx
  000000001000215C: 48 89 55 18        mov         qword ptr [rbp+18h],rdx
  0000000010002160: 48 8B 05 91 FE FF  mov         rax,qword ptr [0000000010001FF8h]
                    FF
  0000000010002167: 50                 push        rax
  0000000010002168: 48 83 EC 28        sub         rsp,28h
  000000001000216C: 48 8B 4D 10        mov         rcx,qword ptr [rbp+10h]
  0000000010002170: 48 8B 44 24 28     mov         rax,qword ptr [rsp+28h]
  0000000010002175: FF D0              call        rax
  0000000010002177: 48 83 C4 30        add         rsp,30h
  000000001000217B: 48 89 45 F8        mov         qword ptr [rbp-8],rax
  000000001000217F: 48 8B 45 F8        mov         rax,qword ptr [rbp-8]
  0000000010002183: B9 FF FF FF FF     mov         ecx,0FFFFFFFFh
  0000000010002188: 48 3B C1           cmp         rax,rcx
  000000001000218B: 0F 95 C0           setne       al
  000000001000218E: 0F B6 C0           movzx       eax,al
  0000000010002191: C9                 leave
  0000000010002192: C3                 ret
  0000000010002193: 55                 push        rbp
  0000000010002194: 48 8B EC           mov         rbp,rsp
  0000000010002197: 48 89 4D 10        mov         qword ptr [rbp+10h],rcx
  000000001000219B: 48 89 55 18        mov         qword ptr [rbp+18h],rdx
  000000001000219F: 4C 89 45 20        mov         qword ptr [rbp+20h],r8
  00000000100021A3: 48 8B 05 36 FE FF  mov         rax,qword ptr [0000000010001FE0h]
                    FF
  00000000100021AA: 50                 push        rax
  00000000100021AB: 48 83 EC 38        sub         rsp,38h
  00000000100021AF: 48 8B 4D 18        mov         rcx,qword ptr [rbp+18h]
  00000000100021B3: BA 00 00 00 C0     mov         edx,0C0000000h
  00000000100021B8: 45 31 C0           xor         r8d,r8d
  00000000100021BB: 45 31 C9           xor         r9d,r9d
  00000000100021BE: B8 03 00 00 00     mov         eax,3
  00000000100021C3: 48 89 44 24 20     mov         qword ptr [rsp+20h],rax
  00000000100021C8: 31 C0              xor         eax,eax
  00000000100021CA: 48 89 44 24 28     mov         qword ptr [rsp+28h],rax
  00000000100021CF: 31 C0              xor         eax,eax
  00000000100021D1: 48 89 44 24 30     mov         qword ptr [rsp+30h],rax
  00000000100021D6: 48 8B 44 24 38     mov         rax,qword ptr [rsp+38h]
  00000000100021DB: FF D0              call        rax
  00000000100021DD: 48 83 C4 40        add         rsp,40h
  00000000100021E1: 48 8B 4D 10        mov         rcx,qword ptr [rbp+10h]
  00000000100021E5: 48 89 01           mov         qword ptr [rcx],rax
  00000000100021E8: C9                 leave
  00000000100021E9: C3                 ret
  00000000100021EA: 55                 push        rbp
  00000000100021EB: 48 8B EC           mov         rbp,rsp
  00000000100021EE: 48 89 4D 10        mov         qword ptr [rbp+10h],rcx
  00000000100021F2: 48 89 55 18        mov         qword ptr [rbp+18h],rdx
  00000000100021F6: 4C 89 45 20        mov         qword ptr [rbp+20h],r8
  00000000100021FA: 48 8B 05 DF FD FF  mov         rax,qword ptr [0000000010001FE0h]
                    FF
  0000000010002201: 50                 push        rax
  0000000010002202: 48 83 EC 38        sub         rsp,38h
  0000000010002206: 48 8B 4D 18        mov         rcx,qword ptr [rbp+18h]
  000000001000220A: BA 00 00 00 C0     mov         edx,0C0000000h
  000000001000220F: 45 31 C0           xor         r8d,r8d
  0000000010002212: 45 31 C9           xor         r9d,r9d
  0000000010002215: B8 02 00 00 00     mov         eax,2
  000000001000221A: 48 89 44 24 20     mov         qword ptr [rsp+20h],rax
  000000001000221F: 31 C0              xor         eax,eax
  0000000010002221: 48 89 44 24 28     mov         qword ptr [rsp+28h],rax
  0000000010002226: 31 C0              xor         eax,eax
  0000000010002228: 48 89 44 24 30     mov         qword ptr [rsp+30h],rax
  000000001000222D: 48 8B 44 24 38     mov         rax,qword ptr [rsp+38h]
  0000000010002232: FF D0              call        rax
  0000000010002234: 48 83 C4 40        add         rsp,40h
  0000000010002238: 48 8B 4D 10        mov         rcx,qword ptr [rbp+10h]
  000000001000223C: 48 89 01           mov         qword ptr [rcx],rax
  000000001000223F: C9                 leave
  0000000010002240: C3                 ret
  0000000010002241: 55                 push        rbp
  0000000010002242: 48 8B EC           mov         rbp,rsp
  0000000010002245: 48 83 EC 10        sub         rsp,10h
  0000000010002249: 48 89 4D 10        mov         qword ptr [rbp+10h],rcx
  000000001000224D: 48 8B 05 84 FD FF  mov         rax,qword ptr [0000000010001FD8h]
                    FF
  0000000010002254: 50                 push        rax
  0000000010002255: 48 83 EC 28        sub         rsp,28h
  0000000010002259: 48 8B 4D 10        mov         rcx,qword ptr [rbp+10h]
  000000001000225D: 48 8B 09           mov         rcx,qword ptr [rcx]
  0000000010002260: 48 8B 44 24 28     mov         rax,qword ptr [rsp+28h]
  0000000010002265: FF D0              call        rax
  0000000010002267: 48 83 C4 30        add         rsp,30h
  000000001000226B: 48 89 45 F8        mov         qword ptr [rbp-8],rax
  000000001000226F: 31 C0              xor         eax,eax
  0000000010002271: 48 8B 4D 10        mov         rcx,qword ptr [rbp+10h]
  0000000010002275: 48 89 01           mov         qword ptr [rcx],rax
  0000000010002278: C9                 leave
  0000000010002279: C3                 ret
  000000001000227A: 55                 push        rbp
  000000001000227B: 48 8B EC           mov         rbp,rsp
  000000001000227E: 48 83 EC 10        sub         rsp,10h
  0000000010002282: 48 89 4D 10        mov         qword ptr [rbp+10h],rcx
  0000000010002286: 48 89 55 18        mov         qword ptr [rbp+18h],rdx
  000000001000228A: 4C 89 45 20        mov         qword ptr [rbp+20h],r8
  000000001000228E: 4C 89 4D 28        mov         qword ptr [rbp+28h],r9
  0000000010002292: 48 8B 05 57 FD FF  mov         rax,qword ptr [0000000010001FF0h]
                    FF
  0000000010002299: 50                 push        rax
  000000001000229A: 48 83 EC 28        sub         rsp,28h
  000000001000229E: 48 8B 4D 10        mov         rcx,qword ptr [rbp+10h]
  00000000100022A2: 48 8B 55 20        mov         rdx,qword ptr [rbp+20h]
  00000000100022A6: 48 8B 44 24 28     mov         rax,qword ptr [rsp+28h]
  00000000100022AB: FF D0              call        rax
  00000000100022AD: 48 83 C4 30        add         rsp,30h
  00000000100022B1: 48 89 45 F8        mov         qword ptr [rbp-8],rax
  00000000100022B5: C9                 leave
  00000000100022B6: C3                 ret
  00000000100022B7: 55                 push        rbp
  00000000100022B8: 48 8B EC           mov         rbp,rsp
  00000000100022BB: 48 83 EC 10        sub         rsp,10h
  00000000100022BF: 48 89 4D 10        mov         qword ptr [rbp+10h],rcx
  00000000100022C3: 48 89 55 18        mov         qword ptr [rbp+18h],rdx
  00000000100022C7: 48 8B 05 1A FD FF  mov         rax,qword ptr [0000000010001FE8h]
                    FF
  00000000100022CE: 50                 push        rax
  00000000100022CF: 48 83 EC 28        sub         rsp,28h
  00000000100022D3: 48 8B 4D 10        mov         rcx,qword ptr [rbp+10h]
  00000000100022D7: 48 8B 44 24 28     mov         rax,qword ptr [rsp+28h]
  00000000100022DC: FF D0              call        rax
  00000000100022DE: 48 83 C4 30        add         rsp,30h
  00000000100022E2: 48 89 45 F8        mov         qword ptr [rbp-8],rax
  00000000100022E6: C9                 leave
  00000000100022E7: C3                 ret
  00000000100022E8: 55                 push        rbp
  00000000100022E9: 48 8B EC           mov         rbp,rsp
  00000000100022EC: 48 83 EC 20        sub         rsp,20h
  00000000100022F0: 48 89 4D 10        mov         qword ptr [rbp+10h],rcx
  00000000100022F4: 48 89 55 18        mov         qword ptr [rbp+18h],rdx
  00000000100022F8: 48 8B 05 D1 FC FF  mov         rax,qword ptr [0000000010001FD0h]
                    FF
  00000000100022FF: 50                 push        rax
  0000000010002300: 48 83 EC 28        sub         rsp,28h
  0000000010002304: 48 8B 4D 10        mov         rcx,qword ptr [rbp+10h]
  0000000010002308: 48 8B 09           mov         rcx,qword ptr [rcx]
  000000001000230B: 48 8D 55 F7        lea         rdx,[rbp-9]
  000000001000230F: 41 B8 01 00 00 00  mov         r8d,1
  0000000010002315: 4C 8D 4D E8        lea         r9,[rbp-18h]
  0000000010002319: 31 C0              xor         eax,eax
  000000001000231B: 48 89 44 24 20     mov         qword ptr [rsp+20h],rax
  0000000010002320: 48 8B 44 24 28     mov         rax,qword ptr [rsp+28h]
  0000000010002325: FF D0              call        rax
  0000000010002327: 48 83 C4 30        add         rsp,30h
  000000001000232B: 48 89 45 F8        mov         qword ptr [rbp-8],rax
  000000001000232F: 48 8B 45 F8        mov         rax,qword ptr [rbp-8]
  0000000010002333: 48 85 C0           test        rax,rax
  0000000010002336: 0F 84 1B 00 00 00  je          0000000010002357
  000000001000233C: 48 83 EC 20        sub         rsp,20h
  0000000010002340: 48 8B 4D E8        mov         rcx,qword ptr [rbp-18h]
  0000000010002344: E8 C6 FD FF FF     call        000000001000210F
  0000000010002349: 48 83 C4 20        add         rsp,20h
  000000001000234D: 48 83 F8 01        cmp         rax,1
  0000000010002351: 0F 84 16 00 00 00  je          000000001000236D
  0000000010002357: 48 B8 FF FF FF FF  mov         rax,0FFFFFFFFFFFFFFFFh
                    FF FF FF FF
  0000000010002361: 48 8B 4D 18        mov         rcx,qword ptr [rbp+18h]
  0000000010002365: 48 89 01           mov         qword ptr [rcx],rax
  0000000010002368: E9 0B 00 00 00     jmp         0000000010002378
  000000001000236D: 0F B6 45 F7        movzx       eax,byte ptr [rbp-9]
  0000000010002371: 48 8B 4D 18        mov         rcx,qword ptr [rbp+18h]
  0000000010002375: 48 89 01           mov         qword ptr [rcx],rax
  0000000010002378: C9                 leave
  0000000010002379: C3                 ret
  000000001000237A: 55                 push        rbp
  000000001000237B: 48 8B EC           mov         rbp,rsp
  000000001000237E: 48 83 EC 20        sub         rsp,20h
  0000000010002382: 48 89 4D 10        mov         qword ptr [rbp+10h],rcx
  0000000010002386: 48 89 55 18        mov         qword ptr [rbp+18h],rdx
  000000001000238A: 48 8B 05 3F FC FF  mov         rax,qword ptr [0000000010001FD0h]
                    FF
  0000000010002391: 50                 push        rax
  0000000010002392: 48 83 EC 28        sub         rsp,28h
  0000000010002396: 48 8B 4D 10        mov         rcx,qword ptr [rbp+10h]
  000000001000239A: 48 8B 09           mov         rcx,qword ptr [rcx]
  000000001000239D: 48 8D 55 F0        lea         rdx,[rbp-10h]
  00000000100023A1: 41 B8 02 00 00 00  mov         r8d,2
  00000000100023A7: 4C 8D 4D E8        lea         r9,[rbp-18h]
  00000000100023AB: 31 C0              xor         eax,eax
  00000000100023AD: 48 89 44 24 20     mov         qword ptr [rsp+20h],rax
  00000000100023B2: 48 8B 44 24 28     mov         rax,qword ptr [rsp+28h]
  00000000100023B7: FF D0              call        rax
  00000000100023B9: 48 83 C4 30        add         rsp,30h
  00000000100023BD: 48 89 45 F8        mov         qword ptr [rbp-8],rax
  00000000100023C1: 48 8B 45 F8        mov         rax,qword ptr [rbp-8]
  00000000100023C5: 48 85 C0           test        rax,rax
  00000000100023C8: 0F 84 1B 00 00 00  je          00000000100023E9
  00000000100023CE: 48 83 EC 20        sub         rsp,20h
  00000000100023D2: 48 8B 4D E8        mov         rcx,qword ptr [rbp-18h]
  00000000100023D6: E8 34 FD FF FF     call        000000001000210F
  00000000100023DB: 48 83 C4 20        add         rsp,20h
  00000000100023DF: 48 83 F8 02        cmp         rax,2
  00000000100023E3: 0F 84 16 00 00 00  je          00000000100023FF
  00000000100023E9: 48 B8 FF FF FF FF  mov         rax,0FFFFFFFFFFFFFFFFh
                    FF FF FF FF
  00000000100023F3: 48 8B 4D 18        mov         rcx,qword ptr [rbp+18h]
  00000000100023F7: 48 89 01           mov         qword ptr [rcx],rax
  00000000100023FA: E9 18 00 00 00     jmp         0000000010002417
  00000000100023FF: 48 83 EC 20        sub         rsp,20h
  0000000010002403: 48 8B 4D F0        mov         rcx,qword ptr [rbp-10h]
  0000000010002407: E8 19 FD FF FF     call        0000000010002125
  000000001000240C: 48 83 C4 20        add         rsp,20h
  0000000010002410: 48 8B 4D 18        mov         rcx,qword ptr [rbp+18h]
  0000000010002414: 48 89 01           mov         qword ptr [rcx],rax
  0000000010002417: C9                 leave
  0000000010002418: C3                 ret
  0000000010002419: 55                 push        rbp
  000000001000241A: 48 8B EC           mov         rbp,rsp
  000000001000241D: 48 83 EC 10        sub         rsp,10h
  0000000010002421: 48 89 4D 10        mov         qword ptr [rbp+10h],rcx
  0000000010002425: 48 89 55 18        mov         qword ptr [rbp+18h],rdx
  0000000010002429: 4C 89 45 20        mov         qword ptr [rbp+20h],r8
  000000001000242D: 48 B8 FF FF FF FF  mov         rax,0FFFFFFFFFFFFFFFFh
                    FF FF FF FF
  0000000010002437: 48 89 45 F8        mov         qword ptr [rbp-8],rax
  000000001000243B: 31 C0              xor         eax,eax
  000000001000243D: 48 89 45 F0        mov         qword ptr [rbp-10h],rax
  0000000010002441: 48 83 45 F8 01     add         qword ptr [rbp-8],1
  0000000010002446: 48 83 EC 20        sub         rsp,20h
  000000001000244A: 48 8B 4D 10        mov         rcx,qword ptr [rbp+10h]
  000000001000244E: 48 8D 55 F0        lea         rdx,[rbp-10h]
  0000000010002452: E8 23 FF FF FF     call        000000001000237A
  0000000010002457: 48 83 C4 20        add         rsp,20h
  000000001000245B: 48 8B 45 F0        mov         rax,qword ptr [rbp-10h]
  000000001000245F: 48 83 F8 FF        cmp         rax,0FFFFFFFFFFFFFFFFh
  0000000010002463: 0F 85 06 00 00 00  jne         000000001000246F
  0000000010002469: 31 C0              xor         eax,eax
  000000001000246B: 48 89 45 F0        mov         qword ptr [rbp-10h],rax
  000000001000246F: 48 8B 45 F8        mov         rax,qword ptr [rbp-8]
  0000000010002473: 48 3B 45 20        cmp         rax,qword ptr [rbp+20h]
  0000000010002477: 0F 83 05 00 00 00  jae         0000000010002482
  000000001000247D: E9 08 00 00 00     jmp         000000001000248A
  0000000010002482: B0 01              mov         al,1
  0000000010002484: B9 5E 13 00 00     mov         ecx,135Eh
  0000000010002489: CC                 int         3
  000000001000248A: 48 C1 E0 01        shl         rax,1
  000000001000248E: 48 8B 4D 18        mov         rcx,qword ptr [rbp+18h]
  0000000010002492: 48 03 C1           add         rax,rcx
  0000000010002495: 0F B7 4D F0        movzx       ecx,word ptr [rbp-10h]
  0000000010002499: 66 89 08           mov         word ptr [rax],cx
  000000001000249C: 48 8B 45 F0        mov         rax,qword ptr [rbp-10h]
  00000000100024A0: 48 85 C0           test        rax,rax
  00000000100024A3: 0F 85 98 FF FF FF  jne         0000000010002441
  00000000100024A9: C9                 leave
  00000000100024AA: C3                 ret
  00000000100024AB: 55                 push        rbp
  00000000100024AC: 48 8B EC           mov         rbp,rsp
  00000000100024AF: 48 83 EC 20        sub         rsp,20h
  00000000100024B3: 48 89 4D 10        mov         qword ptr [rbp+10h],rcx
  00000000100024B7: 48 89 55 18        mov         qword ptr [rbp+18h],rdx
  00000000100024BB: 48 8B 05 0E FB FF  mov         rax,qword ptr [0000000010001FD0h]
                    FF
  00000000100024C2: 50                 push        rax
  00000000100024C3: 48 83 EC 28        sub         rsp,28h
  00000000100024C7: 48 8B 4D 10        mov         rcx,qword ptr [rbp+10h]
  00000000100024CB: 48 8B 09           mov         rcx,qword ptr [rcx]
  00000000100024CE: 48 8D 55 F0        lea         rdx,[rbp-10h]
  00000000100024D2: 41 B8 04 00 00 00  mov         r8d,4
  00000000100024D8: 4C 8D 4D E8        lea         r9,[rbp-18h]
  00000000100024DC: 31 C0              xor         eax,eax
  00000000100024DE: 48 89 44 24 20     mov         qword ptr [rsp+20h],rax
  00000000100024E3: 48 8B 44 24 28     mov         rax,qword ptr [rsp+28h]
  00000000100024E8: FF D0              call        rax
  00000000100024EA: 48 83 C4 30        add         rsp,30h
  00000000100024EE: 48 89 45 F8        mov         qword ptr [rbp-8],rax
  00000000100024F2: 48 8B 45 F8        mov         rax,qword ptr [rbp-8]
  00000000100024F6: 48 85 C0           test        rax,rax
  00000000100024F9: 0F 84 1B 00 00 00  je          000000001000251A
  00000000100024FF: 48 83 EC 20        sub         rsp,20h
  0000000010002503: 48 8B 4D E8        mov         rcx,qword ptr [rbp-18h]
  0000000010002507: E8 03 FC FF FF     call        000000001000210F
  000000001000250C: 48 83 C4 20        add         rsp,20h
  0000000010002510: 48 83 F8 04        cmp         rax,4
  0000000010002514: 0F 84 16 00 00 00  je          0000000010002530
  000000001000251A: 48 B8 FF FF FF FF  mov         rax,0FFFFFFFFFFFFFFFFh
                    FF FF FF FF
  0000000010002524: 48 8B 4D 18        mov         rcx,qword ptr [rbp+18h]
  0000000010002528: 48 89 01           mov         qword ptr [rcx],rax
  000000001000252B: E9 18 00 00 00     jmp         0000000010002548
  0000000010002530: 48 83 EC 20        sub         rsp,20h
  0000000010002534: 48 8B 4D F0        mov         rcx,qword ptr [rbp-10h]
  0000000010002538: E8 D2 FB FF FF     call        000000001000210F
  000000001000253D: 48 83 C4 20        add         rsp,20h
  0000000010002541: 48 8B 4D 18        mov         rcx,qword ptr [rbp+18h]
  0000000010002545: 48 89 01           mov         qword ptr [rcx],rax
  0000000010002548: C9                 leave
  0000000010002549: C3                 ret
  000000001000254A: 55                 push        rbp
  000000001000254B: 48 8B EC           mov         rbp,rsp
  000000001000254E: 48 83 EC 20        sub         rsp,20h
  0000000010002552: 48 89 4D 10        mov         qword ptr [rbp+10h],rcx
  0000000010002556: 48 89 55 18        mov         qword ptr [rbp+18h],rdx
  000000001000255A: 48 8B 05 6F FA FF  mov         rax,qword ptr [0000000010001FD0h]
                    FF
  0000000010002561: 50                 push        rax
  0000000010002562: 48 83 EC 28        sub         rsp,28h
  0000000010002566: 48 8B 4D 10        mov         rcx,qword ptr [rbp+10h]
  000000001000256A: 48 8B 09           mov         rcx,qword ptr [rcx]
  000000001000256D: 48 8D 55 E8        lea         rdx,[rbp-18h]
  0000000010002571: 41 B8 08 00 00 00  mov         r8d,8
  0000000010002577: 4C 8D 4D F0        lea         r9,[rbp-10h]
  000000001000257B: 31 C0              xor         eax,eax
  000000001000257D: 48 89 44 24 20     mov         qword ptr [rsp+20h],rax
  0000000010002582: 48 8B 44 24 28     mov         rax,qword ptr [rsp+28h]
  0000000010002587: FF D0              call        rax
  0000000010002589: 48 83 C4 30        add         rsp,30h
  000000001000258D: 48 89 45 F8        mov         qword ptr [rbp-8],rax
  0000000010002591: 48 8B 45 E8        mov         rax,qword ptr [rbp-18h]
  0000000010002595: 48 8B 4D 18        mov         rcx,qword ptr [rbp+18h]
  0000000010002599: 48 89 01           mov         qword ptr [rcx],rax
  000000001000259C: C9                 leave
  000000001000259D: C3                 ret
  000000001000259E: 55                 push        rbp
  000000001000259F: 48 8B EC           mov         rbp,rsp
  00000000100025A2: 48 83 EC 10        sub         rsp,10h
  00000000100025A6: 48 89 4D 10        mov         qword ptr [rbp+10h],rcx
  00000000100025AA: 48 89 55 18        mov         qword ptr [rbp+18h],rdx
  00000000100025AE: 4C 89 45 20        mov         qword ptr [rbp+20h],r8
  00000000100025B2: 4C 89 4D 28        mov         qword ptr [rbp+28h],r9
  00000000100025B6: 48 8B 05 13 FA FF  mov         rax,qword ptr [0000000010001FD0h]
                    FF
  00000000100025BD: 50                 push        rax
  00000000100025BE: 48 83 EC 28        sub         rsp,28h
  00000000100025C2: 48 8B 4D 10        mov         rcx,qword ptr [rbp+10h]
  00000000100025C6: 48 8B 09           mov         rcx,qword ptr [rcx]
  00000000100025C9: 48 8B 55 18        mov         rdx,qword ptr [rbp+18h]
  00000000100025CD: 4C 8B 45 20        mov         r8,qword ptr [rbp+20h]
  00000000100025D1: 4C 8D 4D F0        lea         r9,[rbp-10h]
  00000000100025D5: 31 C0              xor         eax,eax
  00000000100025D7: 48 89 44 24 20     mov         qword ptr [rsp+20h],rax
  00000000100025DC: 48 8B 44 24 28     mov         rax,qword ptr [rsp+28h]
  00000000100025E1: FF D0              call        rax
  00000000100025E3: 48 83 C4 30        add         rsp,30h
  00000000100025E7: 48 89 45 F8        mov         qword ptr [rbp-8],rax
  00000000100025EB: 48 83 EC 20        sub         rsp,20h
  00000000100025EF: 48 8B 4D F0        mov         rcx,qword ptr [rbp-10h]
  00000000100025F3: E8 17 FB FF FF     call        000000001000210F
  00000000100025F8: 48 83 C4 20        add         rsp,20h
  00000000100025FC: 48 8B 4D 28        mov         rcx,qword ptr [rbp+28h]
  0000000010002600: 48 89 01           mov         qword ptr [rcx],rax
  0000000010002603: C9                 leave
  0000000010002604: C3                 ret
  0000000010002605: 55                 push        rbp
  0000000010002606: 48 8B EC           mov         rbp,rsp
  0000000010002609: 48 83 EC 10        sub         rsp,10h
  000000001000260D: 48 89 4D 10        mov         qword ptr [rbp+10h],rcx
  0000000010002611: 48 89 55 18        mov         qword ptr [rbp+18h],rdx
  0000000010002615: 48 8B 05 AC F9 FF  mov         rax,qword ptr [0000000010001FC8h]
                    FF
  000000001000261C: 50                 push        rax
  000000001000261D: 48 83 EC 28        sub         rsp,28h
  0000000010002621: 48 8B 4D 10        mov         rcx,qword ptr [rbp+10h]
  0000000010002625: 48 8B 09           mov         rcx,qword ptr [rcx]
  0000000010002628: 48 8D 55 18        lea         rdx,[rbp+18h]
  000000001000262C: 41 B8 01 00 00 00  mov         r8d,1
  0000000010002632: 4C 8D 4D F0        lea         r9,[rbp-10h]
  0000000010002636: 31 C0              xor         eax,eax
  0000000010002638: 48 89 44 24 20     mov         qword ptr [rsp+20h],rax
  000000001000263D: 48 8B 44 24 28     mov         rax,qword ptr [rsp+28h]
  0000000010002642: FF D0              call        rax
  0000000010002644: 48 83 C4 30        add         rsp,30h
  0000000010002648: 48 89 45 F8        mov         qword ptr [rbp-8],rax
  000000001000264C: C9                 leave
  000000001000264D: C3                 ret
  000000001000264E: 55                 push        rbp
  000000001000264F: 48 8B EC           mov         rbp,rsp
  0000000010002652: 48 83 EC 10        sub         rsp,10h
  0000000010002656: 48 89 4D 10        mov         qword ptr [rbp+10h],rcx
  000000001000265A: 48 89 55 18        mov         qword ptr [rbp+18h],rdx
  000000001000265E: 48 8B 05 63 F9 FF  mov         rax,qword ptr [0000000010001FC8h]
                    FF
  0000000010002665: 50                 push        rax
  0000000010002666: 48 83 EC 28        sub         rsp,28h
  000000001000266A: 48 8B 4D 10        mov         rcx,qword ptr [rbp+10h]
  000000001000266E: 48 8B 09           mov         rcx,qword ptr [rcx]
  0000000010002671: 48 8D 55 18        lea         rdx,[rbp+18h]
  0000000010002675: 41 B8 02 00 00 00  mov         r8d,2
  000000001000267B: 4C 8D 4D F0        lea         r9,[rbp-10h]
  000000001000267F: 31 C0              xor         eax,eax
  0000000010002681: 48 89 44 24 20     mov         qword ptr [rsp+20h],rax
  0000000010002686: 48 8B 44 24 28     mov         rax,qword ptr [rsp+28h]
  000000001000268B: FF D0              call        rax
  000000001000268D: 48 83 C4 30        add         rsp,30h
  0000000010002691: 48 89 45 F8        mov         qword ptr [rbp-8],rax
  0000000010002695: C9                 leave
  0000000010002696: C3                 ret
  0000000010002697: 55                 push        rbp
  0000000010002698: 48 8B EC           mov         rbp,rsp
  000000001000269B: 48 83 EC 10        sub         rsp,10h
  000000001000269F: 48 89 4D 10        mov         qword ptr [rbp+10h],rcx
  00000000100026A3: 48 89 55 18        mov         qword ptr [rbp+18h],rdx
  00000000100026A7: 4C 89 45 20        mov         qword ptr [rbp+20h],r8
  00000000100026AB: 48 B8 FF FF FF FF  mov         rax,0FFFFFFFFFFFFFFFFh
                    FF FF FF FF
  00000000100026B5: 48 89 45 F8        mov         qword ptr [rbp-8],rax
  00000000100026B9: 31 C0              xor         eax,eax
  00000000100026BB: 48 89 45 F0        mov         qword ptr [rbp-10h],rax
  00000000100026BF: 48 83 45 F8 01     add         qword ptr [rbp-8],1
  00000000100026C4: 48 83 EC 20        sub         rsp,20h
  00000000100026C8: 48 8B 4D 10        mov         rcx,qword ptr [rbp+10h]
  00000000100026CC: 48 8B 55 F8        mov         rdx,qword ptr [rbp-8]
  00000000100026D0: 48 3B 55 20        cmp         rdx,qword ptr [rbp+20h]
  00000000100026D4: 0F 83 05 00 00 00  jae         00000000100026DF
  00000000100026DA: E9 08 00 00 00     jmp         00000000100026E7
  00000000100026DF: B0 01              mov         al,1
  00000000100026E1: B9 06 19 00 00     mov         ecx,1906h
  00000000100026E6: CC                 int         3
  00000000100026E7: 48 C1 E2 01        shl         rdx,1
  00000000100026EB: 4C 8B 45 18        mov         r8,qword ptr [rbp+18h]
  00000000100026EF: 49 03 D0           add         rdx,r8
  00000000100026F2: 0F B7 12           movzx       edx,word ptr [rdx]
  00000000100026F5: E8 54 FF FF FF     call        000000001000264E
  00000000100026FA: 48 83 C4 20        add         rsp,20h
  00000000100026FE: 48 8B 45 F8        mov         rax,qword ptr [rbp-8]
  0000000010002702: 48 3B 45 20        cmp         rax,qword ptr [rbp+20h]
  0000000010002706: 0F 83 05 00 00 00  jae         0000000010002711
  000000001000270C: E9 08 00 00 00     jmp         0000000010002719
  0000000010002711: B0 01              mov         al,1
  0000000010002713: B9 15 19 00 00     mov         ecx,1915h
  0000000010002718: CC                 int         3
  0000000010002719: 48 C1 E0 01        shl         rax,1
  000000001000271D: 48 8B 4D 18        mov         rcx,qword ptr [rbp+18h]
  0000000010002721: 48 03 C1           add         rax,rcx
  0000000010002724: 0F B7 00           movzx       eax,word ptr [rax]
  0000000010002727: 66 85 C0           test        ax,ax
  000000001000272A: 0F 85 8F FF FF FF  jne         00000000100026BF
  0000000010002730: C9                 leave
  0000000010002731: C3                 ret
  0000000010002732: 55                 push        rbp
  0000000010002733: 48 8B EC           mov         rbp,rsp
  0000000010002736: 48 83 EC 10        sub         rsp,10h
  000000001000273A: 48 89 4D 10        mov         qword ptr [rbp+10h],rcx
  000000001000273E: 48 89 55 18        mov         qword ptr [rbp+18h],rdx
  0000000010002742: 4C 89 45 20        mov         qword ptr [rbp+20h],r8
  0000000010002746: 48 B8 FF FF FF FF  mov         rax,0FFFFFFFFFFFFFFFFh
                    FF FF FF FF
  0000000010002750: 48 89 45 F8        mov         qword ptr [rbp-8],rax
  0000000010002754: 31 C0              xor         eax,eax
  0000000010002756: 48 89 45 F0        mov         qword ptr [rbp-10h],rax
  000000001000275A: 48 83 45 F8 01     add         qword ptr [rbp-8],1
  000000001000275F: 48 83 EC 20        sub         rsp,20h
  0000000010002763: 48 8B 4D 10        mov         rcx,qword ptr [rbp+10h]
  0000000010002767: 48 8B 55 F8        mov         rdx,qword ptr [rbp-8]
  000000001000276B: 48 3B 55 20        cmp         rdx,qword ptr [rbp+20h]
  000000001000276F: 0F 83 05 00 00 00  jae         000000001000277A
  0000000010002775: E9 08 00 00 00     jmp         0000000010002782
  000000001000277A: B0 01              mov         al,1
  000000001000277C: B9 BF 19 00 00     mov         ecx,19BFh
  0000000010002781: CC                 int         3
  0000000010002782: 48 C1 E2 01        shl         rdx,1
  0000000010002786: 4C 8B 45 18        mov         r8,qword ptr [rbp+18h]
  000000001000278A: 49 03 D0           add         rdx,r8
  000000001000278D: 0F B7 12           movzx       edx,word ptr [rdx]
  0000000010002790: E8 70 FE FF FF     call        0000000010002605
  0000000010002795: 48 83 C4 20        add         rsp,20h
  0000000010002799: 48 8B 45 F8        mov         rax,qword ptr [rbp-8]
  000000001000279D: 48 3B 45 20        cmp         rax,qword ptr [rbp+20h]
  00000000100027A1: 0F 83 05 00 00 00  jae         00000000100027AC
  00000000100027A7: E9 08 00 00 00     jmp         00000000100027B4
  00000000100027AC: B0 01              mov         al,1
  00000000100027AE: B9 CE 19 00 00     mov         ecx,19CEh
  00000000100027B3: CC                 int         3
  00000000100027B4: 48 C1 E0 01        shl         rax,1
  00000000100027B8: 48 8B 4D 18        mov         rcx,qword ptr [rbp+18h]
  00000000100027BC: 48 03 C1           add         rax,rcx
  00000000100027BF: 0F B7 00           movzx       eax,word ptr [rax]
  00000000100027C2: 66 85 C0           test        ax,ax
  00000000100027C5: 0F 85 8F FF FF FF  jne         000000001000275A
  00000000100027CB: C9                 leave
  00000000100027CC: C3                 ret
  00000000100027CD: 55                 push        rbp
  00000000100027CE: 48 8B EC           mov         rbp,rsp
  00000000100027D1: 48 83 EC 10        sub         rsp,10h
  00000000100027D5: 48 89 4D 10        mov         qword ptr [rbp+10h],rcx
  00000000100027D9: 48 89 55 18        mov         qword ptr [rbp+18h],rdx
  00000000100027DD: 48 8B 05 E4 F7 FF  mov         rax,qword ptr [0000000010001FC8h]
                    FF
  00000000100027E4: 50                 push        rax
  00000000100027E5: 48 83 EC 28        sub         rsp,28h
  00000000100027E9: 48 8B 4D 10        mov         rcx,qword ptr [rbp+10h]
  00000000100027ED: 48 8B 09           mov         rcx,qword ptr [rcx]
  00000000100027F0: 48 8D 55 18        lea         rdx,[rbp+18h]
  00000000100027F4: 41 B8 04 00 00 00  mov         r8d,4
  00000000100027FA: 4C 8D 4D F0        lea         r9,[rbp-10h]
  00000000100027FE: 31 C0              xor         eax,eax
  0000000010002800: 48 89 44 24 20     mov         qword ptr [rsp+20h],rax
  0000000010002805: 48 8B 44 24 28     mov         rax,qword ptr [rsp+28h]
  000000001000280A: FF D0              call        rax
  000000001000280C: 48 83 C4 30        add         rsp,30h
  0000000010002810: 48 89 45 F8        mov         qword ptr [rbp-8],rax
  0000000010002814: C9                 leave
  0000000010002815: C3                 ret
  0000000010002816: 55                 push        rbp
  0000000010002817: 48 8B EC           mov         rbp,rsp
  000000001000281A: 48 83 EC 10        sub         rsp,10h
  000000001000281E: 48 89 4D 10        mov         qword ptr [rbp+10h],rcx
  0000000010002822: 48 89 55 18        mov         qword ptr [rbp+18h],rdx
  0000000010002826: 48 8B 05 9B F7 FF  mov         rax,qword ptr [0000000010001FC8h]
                    FF
  000000001000282D: 50                 push        rax
  000000001000282E: 48 83 EC 28        sub         rsp,28h
  0000000010002832: 48 8B 4D 10        mov         rcx,qword ptr [rbp+10h]
  0000000010002836: 48 8B 09           mov         rcx,qword ptr [rcx]
  0000000010002839: 48 8D 55 18        lea         rdx,[rbp+18h]
  000000001000283D: 41 B8 08 00 00 00  mov         r8d,8
  0000000010002843: 4C 8D 4D F0        lea         r9,[rbp-10h]
  0000000010002847: 31 C0              xor         eax,eax
  0000000010002849: 48 89 44 24 20     mov         qword ptr [rsp+20h],rax
  000000001000284E: 48 8B 44 24 28     mov         rax,qword ptr [rsp+28h]
  0000000010002853: FF D0              call        rax
  0000000010002855: 48 83 C4 30        add         rsp,30h
  0000000010002859: 48 89 45 F8        mov         qword ptr [rbp-8],rax
  000000001000285D: C9                 leave
  000000001000285E: C3                 ret
  000000001000285F: 55                 push        rbp
  0000000010002860: 48 8B EC           mov         rbp,rsp
  0000000010002863: 48 83 EC 10        sub         rsp,10h
  0000000010002867: 48 89 4D 10        mov         qword ptr [rbp+10h],rcx
  000000001000286B: 48 89 55 18        mov         qword ptr [rbp+18h],rdx
  000000001000286F: 4C 89 45 20        mov         qword ptr [rbp+20h],r8
  0000000010002873: 4C 89 4D 28        mov         qword ptr [rbp+28h],r9
  0000000010002877: 48 8B 05 4A F7 FF  mov         rax,qword ptr [0000000010001FC8h]
                    FF
  000000001000287E: 50                 push        rax
  000000001000287F: 48 83 EC 28        sub         rsp,28h
  0000000010002883: 48 8B 4D 10        mov         rcx,qword ptr [rbp+10h]
  0000000010002887: 48 8B 09           mov         rcx,qword ptr [rcx]
  000000001000288A: 48 8B 55 18        mov         rdx,qword ptr [rbp+18h]
  000000001000288E: 4C 8B 45 20        mov         r8,qword ptr [rbp+20h]
  0000000010002892: 4C 8D 4D F0        lea         r9,[rbp-10h]
  0000000010002896: 31 C0              xor         eax,eax
  0000000010002898: 48 89 44 24 20     mov         qword ptr [rsp+20h],rax
  000000001000289D: 48 8B 44 24 28     mov         rax,qword ptr [rsp+28h]
  00000000100028A2: FF D0              call        rax
  00000000100028A4: 48 83 C4 30        add         rsp,30h
  00000000100028A8: 48 89 45 F8        mov         qword ptr [rbp-8],rax
  00000000100028AC: 48 83 EC 20        sub         rsp,20h
  00000000100028B0: 48 8B 4D F0        mov         rcx,qword ptr [rbp-10h]
  00000000100028B4: E8 56 F8 FF FF     call        000000001000210F
  00000000100028B9: 48 83 C4 20        add         rsp,20h
  00000000100028BD: 48 8B 4D 28        mov         rcx,qword ptr [rbp+28h]
  00000000100028C1: 48 89 01           mov         qword ptr [rcx],rax
  00000000100028C4: C9                 leave
  00000000100028C5: C3                 ret
  00000000100028C6: 55                 push        rbp
  00000000100028C7: 48 8B EC           mov         rbp,rsp
  00000000100028CA: 48 83 EC 10        sub         rsp,10h
  00000000100028CE: 48 89 4D 10        mov         qword ptr [rbp+10h],rcx
  00000000100028D2: 48 89 55 18        mov         qword ptr [rbp+18h],rdx
  00000000100028D6: 4C 89 45 20        mov         qword ptr [rbp+20h],r8
  00000000100028DA: 48 8B 05 E7 F6 FF  mov         rax,qword ptr [0000000010001FC8h]
                    FF
  00000000100028E1: 50                 push        rax
  00000000100028E2: 48 83 EC 28        sub         rsp,28h
  00000000100028E6: 48 8B 4D 10        mov         rcx,qword ptr [rbp+10h]
  00000000100028EA: 48 8B 09           mov         rcx,qword ptr [rcx]
  00000000100028ED: 48 8B 55 18        mov         rdx,qword ptr [rbp+18h]
  00000000100028F1: 4C 8B 45 20        mov         r8,qword ptr [rbp+20h]
  00000000100028F5: 4D 8B 00           mov         r8,qword ptr [r8]
  00000000100028F8: 4C 8D 4D F0        lea         r9,[rbp-10h]
  00000000100028FC: 31 C0              xor         eax,eax
  00000000100028FE: 48 89 44 24 20     mov         qword ptr [rsp+20h],rax
  0000000010002903: 48 8B 44 24 28     mov         rax,qword ptr [rsp+28h]
  0000000010002908: FF D0              call        rax
  000000001000290A: 48 83 C4 30        add         rsp,30h
  000000001000290E: 48 89 45 F8        mov         qword ptr [rbp-8],rax
  0000000010002912: 48 83 EC 20        sub         rsp,20h
  0000000010002916: 48 8B 4D F0        mov         rcx,qword ptr [rbp-10h]
  000000001000291A: E8 F0 F7 FF FF     call        000000001000210F
  000000001000291F: 48 83 C4 20        add         rsp,20h
  0000000010002923: 48 8B 4D 20        mov         rcx,qword ptr [rbp+20h]
  0000000010002927: 48 89 01           mov         qword ptr [rcx],rax
  000000001000292A: C9                 leave
  000000001000292B: C3                 ret
  000000001000292C: 55                 push        rbp
  000000001000292D: 48 8B EC           mov         rbp,rsp
  0000000010002930: 48 83 EC 20        sub         rsp,20h
  0000000010002934: 48 89 4D 10        mov         qword ptr [rbp+10h],rcx
  0000000010002938: 31 C0              xor         eax,eax
  000000001000293A: 48 89 45 F0        mov         qword ptr [rbp-10h],rax
  000000001000293E: 48 8B 05 7B F6 FF  mov         rax,qword ptr [0000000010001FC0h]
                    FF
  0000000010002945: 50                 push        rax
  0000000010002946: 48 83 EC 28        sub         rsp,28h
  000000001000294A: 48 8B 4D 10        mov         rcx,qword ptr [rbp+10h]
  000000001000294E: 48 8B 09           mov         rcx,qword ptr [rcx]
  0000000010002951: 48 8B 55 F0        mov         rdx,qword ptr [rbp-10h]
  0000000010002955: 4C 8D 45 E8        lea         r8,[rbp-18h]
  0000000010002959: 41 B9 01 00 00 00  mov         r9d,1
  000000001000295F: 48 8B 44 24 28     mov         rax,qword ptr [rsp+28h]
  0000000010002964: FF D0              call        rax
  0000000010002966: 48 83 C4 30        add         rsp,30h
  000000001000296A: 48 89 45 F8        mov         qword ptr [rbp-8],rax
  000000001000296E: 48 8B 45 E8        mov         rax,qword ptr [rbp-18h]
  0000000010002972: C9                 leave
  0000000010002973: C3                 ret
  0000000010002974: 55                 push        rbp
  0000000010002975: 48 8B EC           mov         rbp,rsp
  0000000010002978: 48 83 EC 20        sub         rsp,20h
  000000001000297C: 48 89 4D 10        mov         qword ptr [rbp+10h],rcx
  0000000010002980: 48 89 55 18        mov         qword ptr [rbp+18h],rdx
  0000000010002984: 48 8B 45 18        mov         rax,qword ptr [rbp+18h]
  0000000010002988: 48 89 45 F0        mov         qword ptr [rbp-10h],rax
  000000001000298C: 48 8B 05 2D F6 FF  mov         rax,qword ptr [0000000010001FC0h]
                    FF
  0000000010002993: 50                 push        rax
  0000000010002994: 48 83 EC 28        sub         rsp,28h
  0000000010002998: 48 8B 4D 10        mov         rcx,qword ptr [rbp+10h]
  000000001000299C: 48 8B 09           mov         rcx,qword ptr [rcx]
  000000001000299F: 48 8B 55 F0        mov         rdx,qword ptr [rbp-10h]
  00000000100029A3: 4C 8D 45 E8        lea         r8,[rbp-18h]
  00000000100029A7: 45 31 C9           xor         r9d,r9d
  00000000100029AA: 48 8B 44 24 28     mov         rax,qword ptr [rsp+28h]
  00000000100029AF: FF D0              call        rax
  00000000100029B1: 48 83 C4 30        add         rsp,30h
  00000000100029B5: 48 89 45 F8        mov         qword ptr [rbp-8],rax
  00000000100029B9: C9                 leave
  00000000100029BA: C3                 ret
  00000000100029BB: 55                 push        rbp
  00000000100029BC: 48 8B EC           mov         rbp,rsp
  00000000100029BF: 48 83 EC 20        sub         rsp,20h
  00000000100029C3: 48 89 4D 10        mov         qword ptr [rbp+10h],rcx
  00000000100029C7: 48 89 55 18        mov         qword ptr [rbp+18h],rdx
  00000000100029CB: 48 8B 45 18        mov         rax,qword ptr [rbp+18h]
  00000000100029CF: 48 89 45 F0        mov         qword ptr [rbp-10h],rax
  00000000100029D3: 48 8B 05 E6 F5 FF  mov         rax,qword ptr [0000000010001FC0h]
                    FF
  00000000100029DA: 50                 push        rax
  00000000100029DB: 48 83 EC 28        sub         rsp,28h
  00000000100029DF: 48 8B 4D 10        mov         rcx,qword ptr [rbp+10h]
  00000000100029E3: 48 8B 09           mov         rcx,qword ptr [rcx]
  00000000100029E6: 48 8B 55 F0        mov         rdx,qword ptr [rbp-10h]
  00000000100029EA: 4C 8D 45 E8        lea         r8,[rbp-18h]
  00000000100029EE: 41 B9 01 00 00 00  mov         r9d,1
  00000000100029F4: 48 8B 44 24 28     mov         rax,qword ptr [rsp+28h]
  00000000100029F9: FF D0              call        rax
  00000000100029FB: 48 83 C4 30        add         rsp,30h
  00000000100029FF: 48 89 45 F8        mov         qword ptr [rbp-8],rax
  0000000010002A03: C9                 leave
  0000000010002A04: C3                 ret
  0000000010002A05: 55                 push        rbp
  0000000010002A06: 48 8B EC           mov         rbp,rsp
  0000000010002A09: 48 83 EC 20        sub         rsp,20h
  0000000010002A0D: 48 89 4D 10        mov         qword ptr [rbp+10h],rcx
  0000000010002A11: 48 8B 05 90 F5 FF  mov         rax,qword ptr [0000000010001FA8h]
                    FF
  0000000010002A18: 50                 push        rax
  0000000010002A19: 48 83 EC 48        sub         rsp,48h
  0000000010002A1D: B9 E9 FD 00 00     mov         ecx,0FDE9h
  0000000010002A22: 31 D2              xor         edx,edx
  0000000010002A24: 4C 8D 45 10        lea         r8,[rbp+10h]
  0000000010002A28: 41 B9 01 00 00 00  mov         r9d,1
  0000000010002A2E: 48 8D 45 F8        lea         rax,[rbp-8]
  0000000010002A32: 48 89 44 24 20     mov         qword ptr [rsp+20h],rax
  0000000010002A37: 31 C0              xor         eax,eax
  0000000010002A39: 48 89 44 24 28     mov         qword ptr [rsp+28h],rax
  0000000010002A3E: 31 C0              xor         eax,eax
  0000000010002A40: 48 89 44 24 30     mov         qword ptr [rsp+30h],rax
  0000000010002A45: 31 C0              xor         eax,eax
  0000000010002A47: 48 89 44 24 38     mov         qword ptr [rsp+38h],rax
  0000000010002A4C: 48 8B 44 24 48     mov         rax,qword ptr [rsp+48h]
  0000000010002A51: FF D0              call        rax
  0000000010002A53: 48 83 C4 50        add         rsp,50h
  0000000010002A57: 48 89 45 F0        mov         qword ptr [rbp-10h],rax
  0000000010002A5B: 48 8B 45 F0        mov         rax,qword ptr [rbp-10h]
  0000000010002A5F: 48 83 F8 08        cmp         rax,8
  0000000010002A63: 0F 8F 9E 00 00 00  jg          0000000010002B07
  0000000010002A69: 48 8B 05 38 F5 FF  mov         rax,qword ptr [0000000010001FA8h]
                    FF
  0000000010002A70: 50                 push        rax
  0000000010002A71: 48 83 EC 48        sub         rsp,48h
  0000000010002A75: B9 E9 FD 00 00     mov         ecx,0FDE9h
  0000000010002A7A: 31 D2              xor         edx,edx
  0000000010002A7C: 4C 8D 45 10        lea         r8,[rbp+10h]
  0000000010002A80: 41 B9 01 00 00 00  mov         r9d,1
  0000000010002A86: 48 8D 45 F8        lea         rax,[rbp-8]
  0000000010002A8A: 48 89 44 24 20     mov         qword ptr [rsp+20h],rax
  0000000010002A8F: 48 8B 45 F0        mov         rax,qword ptr [rbp-10h]
  0000000010002A93: 48 89 44 24 28     mov         qword ptr [rsp+28h],rax
  0000000010002A98: 31 C0              xor         eax,eax
  0000000010002A9A: 48 89 44 24 30     mov         qword ptr [rsp+30h],rax
  0000000010002A9F: 31 C0              xor         eax,eax
  0000000010002AA1: 48 89 44 24 38     mov         qword ptr [rsp+38h],rax
  0000000010002AA6: 48 8B 44 24 48     mov         rax,qword ptr [rsp+48h]
  0000000010002AAB: FF D0              call        rax
  0000000010002AAD: 48 83 C4 50        add         rsp,50h
  0000000010002AB1: 48 89 45 F0        mov         qword ptr [rbp-10h],rax
  0000000010002AB5: 48 8B 05 0C F5 FF  mov         rax,qword ptr [0000000010001FC8h]
                    FF
  0000000010002ABC: 50                 push        rax
  0000000010002ABD: 48 83 EC 28        sub         rsp,28h
  0000000010002AC1: 48 8B 0D D8 F4 FF  mov         rcx,qword ptr [0000000010001FA0h]
                    FF
  0000000010002AC8: 51                 push        rcx
  0000000010002AC9: 48 83 EC 28        sub         rsp,28h
  0000000010002ACD: 48 B9 F5 FF FF FF  mov         rcx,0FFFFFFFFFFFFFFF5h
                    FF FF FF FF
  0000000010002AD7: 48 8B 44 24 28     mov         rax,qword ptr [rsp+28h]
  0000000010002ADC: FF D0              call        rax
  0000000010002ADE: 48 83 C4 30        add         rsp,30h
  0000000010002AE2: 48 8B C8           mov         rcx,rax
  0000000010002AE5: 48 8D 55 F8        lea         rdx,[rbp-8]
  0000000010002AE9: 4C 8B 45 F0        mov         r8,qword ptr [rbp-10h]
  0000000010002AED: 4C 8D 4D E0        lea         r9,[rbp-20h]
  0000000010002AF1: 31 C0              xor         eax,eax
  0000000010002AF3: 48 89 44 24 20     mov         qword ptr [rsp+20h],rax
  0000000010002AF8: 48 8B 44 24 28     mov         rax,qword ptr [rsp+28h]
  0000000010002AFD: FF D0              call        rax
  0000000010002AFF: 48 83 C4 30        add         rsp,30h
  0000000010002B03: 48 89 45 E8        mov         qword ptr [rbp-18h],rax
  0000000010002B07: C9                 leave
  0000000010002B08: C3                 ret
  0000000010002B09: 55                 push        rbp
  0000000010002B0A: 48 8B EC           mov         rbp,rsp
  0000000010002B0D: 48 81 EC 20 01 00  sub         rsp,120h
                    00
  0000000010002B14: 48 89 4D 10        mov         qword ptr [rbp+10h],rcx
  0000000010002B18: 48 89 55 18        mov         qword ptr [rbp+18h],rdx
  0000000010002B1C: 31 C0              xor         eax,eax
  0000000010002B1E: 48 89 85 F8 FE FF  mov         qword ptr [rbp+FFFFFFFFFFFFFEF8h],rax
                    FF
  0000000010002B25: 48 8B 85 F8 FE FF  mov         rax,qword ptr [rbp+FFFFFFFFFFFFFEF8h]
                    FF
  0000000010002B2C: 48 3B 45 18        cmp         rax,qword ptr [rbp+18h]
  0000000010002B30: 0F 83 05 00 00 00  jae         0000000010002B3B
  0000000010002B36: E9 08 00 00 00     jmp         0000000010002B43
  0000000010002B3B: B0 01              mov         al,1
  0000000010002B3D: B9 06 25 00 00     mov         ecx,2506h
  0000000010002B42: CC                 int         3
  0000000010002B43: 48 C1 E0 01        shl         rax,1
  0000000010002B47: 48 8B 4D 10        mov         rcx,qword ptr [rbp+10h]
  0000000010002B4B: 48 03 C1           add         rax,rcx
  0000000010002B4E: 0F B7 00           movzx       eax,word ptr [rax]
  0000000010002B51: 66 85 C0           test        ax,ax
  0000000010002B54: 0F 84 0D 00 00 00  je          0000000010002B67
  0000000010002B5A: 48 83 85 F8 FE FF  add         qword ptr [rbp+FFFFFFFFFFFFFEF8h],1
                    FF 01
  0000000010002B62: E9 BE FF FF FF     jmp         0000000010002B25
  0000000010002B67: 48 8B 05 3A F4 FF  mov         rax,qword ptr [0000000010001FA8h]
                    FF
  0000000010002B6E: 50                 push        rax
  0000000010002B6F: 48 83 EC 48        sub         rsp,48h
  0000000010002B73: B9 E9 FD 00 00     mov         ecx,0FDE9h
  0000000010002B78: 31 D2              xor         edx,edx
  0000000010002B7A: 4C 8B 45 10        mov         r8,qword ptr [rbp+10h]
  0000000010002B7E: 4C 8B 8D F8 FE FF  mov         r9,qword ptr [rbp+FFFFFFFFFFFFFEF8h]
                    FF
  0000000010002B85: 48 8D 85 00 FF FF  lea         rax,[rbp+FFFFFFFFFFFFFF00h]
                    FF
  0000000010002B8C: 48 89 44 24 20     mov         qword ptr [rsp+20h],rax
  0000000010002B91: 31 C0              xor         eax,eax
  0000000010002B93: 48 89 44 24 28     mov         qword ptr [rsp+28h],rax
  0000000010002B98: 31 C0              xor         eax,eax
  0000000010002B9A: 48 89 44 24 30     mov         qword ptr [rsp+30h],rax
  0000000010002B9F: 31 C0              xor         eax,eax
  0000000010002BA1: 48 89 44 24 38     mov         qword ptr [rsp+38h],rax
  0000000010002BA6: 48 8B 44 24 48     mov         rax,qword ptr [rsp+48h]
  0000000010002BAB: FF D0              call        rax
  0000000010002BAD: 48 83 C4 50        add         rsp,50h
  0000000010002BB1: 48 89 85 F0 FE FF  mov         qword ptr [rbp+FFFFFFFFFFFFFEF0h],rax
                    FF
  0000000010002BB8: 48 8B 85 F0 FE FF  mov         rax,qword ptr [rbp+FFFFFFFFFFFFFEF0h]
                    FF
  0000000010002BBF: 48 81 F8 00 01 00  cmp         rax,100h
                    00
  0000000010002BC6: 0F 8F B4 00 00 00  jg          0000000010002C80
  0000000010002BCC: 48 8B 05 D5 F3 FF  mov         rax,qword ptr [0000000010001FA8h]
                    FF
  0000000010002BD3: 50                 push        rax
  0000000010002BD4: 48 83 EC 48        sub         rsp,48h
  0000000010002BD8: B9 E9 FD 00 00     mov         ecx,0FDE9h
  0000000010002BDD: 31 D2              xor         edx,edx
  0000000010002BDF: 4C 8B 45 10        mov         r8,qword ptr [rbp+10h]
  0000000010002BE3: 4C 8B 8D F8 FE FF  mov         r9,qword ptr [rbp+FFFFFFFFFFFFFEF8h]
                    FF
  0000000010002BEA: 48 8D 85 00 FF FF  lea         rax,[rbp+FFFFFFFFFFFFFF00h]
                    FF
  0000000010002BF1: 48 89 44 24 20     mov         qword ptr [rsp+20h],rax
  0000000010002BF6: 48 8B 85 F0 FE FF  mov         rax,qword ptr [rbp+FFFFFFFFFFFFFEF0h]
                    FF
  0000000010002BFD: 48 89 44 24 28     mov         qword ptr [rsp+28h],rax
  0000000010002C02: 31 C0              xor         eax,eax
  0000000010002C04: 48 89 44 24 30     mov         qword ptr [rsp+30h],rax
  0000000010002C09: 31 C0              xor         eax,eax
  0000000010002C0B: 48 89 44 24 38     mov         qword ptr [rsp+38h],rax
  0000000010002C10: 48 8B 44 24 48     mov         rax,qword ptr [rsp+48h]
  0000000010002C15: FF D0              call        rax
  0000000010002C17: 48 83 C4 50        add         rsp,50h
  0000000010002C1B: 48 89 85 F0 FE FF  mov         qword ptr [rbp+FFFFFFFFFFFFFEF0h],rax
                    FF
  0000000010002C22: 48 8B 05 9F F3 FF  mov         rax,qword ptr [0000000010001FC8h]
                    FF
  0000000010002C29: 50                 push        rax
  0000000010002C2A: 48 83 EC 28        sub         rsp,28h
  0000000010002C2E: 48 8B 0D 6B F3 FF  mov         rcx,qword ptr [0000000010001FA0h]
                    FF
  0000000010002C35: 51                 push        rcx
  0000000010002C36: 48 83 EC 28        sub         rsp,28h
  0000000010002C3A: 48 B9 F5 FF FF FF  mov         rcx,0FFFFFFFFFFFFFFF5h
                    FF FF FF FF
  0000000010002C44: 48 8B 44 24 28     mov         rax,qword ptr [rsp+28h]
  0000000010002C49: FF D0              call        rax
  0000000010002C4B: 48 83 C4 30        add         rsp,30h
  0000000010002C4F: 48 8B C8           mov         rcx,rax
  0000000010002C52: 48 8D 95 00 FF FF  lea         rdx,[rbp+FFFFFFFFFFFFFF00h]
                    FF
  0000000010002C59: 4C 8B 85 F0 FE FF  mov         r8,qword ptr [rbp+FFFFFFFFFFFFFEF0h]
                    FF
  0000000010002C60: 4C 8D 8D E0 FE FF  lea         r9,[rbp+FFFFFFFFFFFFFEE0h]
                    FF
  0000000010002C67: 31 C0              xor         eax,eax
  0000000010002C69: 48 89 44 24 20     mov         qword ptr [rsp+20h],rax
  0000000010002C6E: 48 8B 44 24 28     mov         rax,qword ptr [rsp+28h]
  0000000010002C73: FF D0              call        rax
  0000000010002C75: 48 83 C4 30        add         rsp,30h
  0000000010002C79: 48 89 85 E8 FE FF  mov         qword ptr [rbp+FFFFFFFFFFFFFEE8h],rax
                    FF
  0000000010002C80: C9                 leave
  0000000010002C81: C3                 ret
  0000000010002C82: 55                 push        rbp
  0000000010002C83: 48 8B EC           mov         rbp,rsp
  0000000010002C86: 48 83 EC 20        sub         rsp,20h
  0000000010002C8A: B8 0D 00 00 00     mov         eax,0Dh
  0000000010002C8F: 88 45 FE           mov         byte ptr [rbp-2],al
  0000000010002C92: B8 0A 00 00 00     mov         eax,0Ah
  0000000010002C97: 88 45 FF           mov         byte ptr [rbp-1],al
  0000000010002C9A: 48 8B 05 27 F3 FF  mov         rax,qword ptr [0000000010001FC8h]
                    FF
  0000000010002CA1: 50                 push        rax
  0000000010002CA2: 48 83 EC 28        sub         rsp,28h
  0000000010002CA6: 48 8B 0D F3 F2 FF  mov         rcx,qword ptr [0000000010001FA0h]
                    FF
  0000000010002CAD: 51                 push        rcx
  0000000010002CAE: 48 83 EC 28        sub         rsp,28h
  0000000010002CB2: 48 B9 F5 FF FF FF  mov         rcx,0FFFFFFFFFFFFFFF5h
                    FF FF FF FF
  0000000010002CBC: 48 8B 44 24 28     mov         rax,qword ptr [rsp+28h]
  0000000010002CC1: FF D0              call        rax
  0000000010002CC3: 48 83 C4 30        add         rsp,30h
  0000000010002CC7: 48 8B C8           mov         rcx,rax
  0000000010002CCA: 48 8D 55 FE        lea         rdx,[rbp-2]
  0000000010002CCE: 41 B8 02 00 00 00  mov         r8d,2
  0000000010002CD4: 4C 8D 4D E8        lea         r9,[rbp-18h]
  0000000010002CD8: 31 C0              xor         eax,eax
  0000000010002CDA: 48 89 44 24 20     mov         qword ptr [rsp+20h],rax
  0000000010002CDF: 48 8B 44 24 28     mov         rax,qword ptr [rsp+28h]
  0000000010002CE4: FF D0              call        rax
  0000000010002CE6: 48 83 C4 30        add         rsp,30h
  0000000010002CEA: 48 89 45 F0        mov         qword ptr [rbp-10h],rax
  0000000010002CEE: C9                 leave
  0000000010002CEF: C3                 ret
  0000000010002CF0: 55                 push        rbp
  0000000010002CF1: 48 8B EC           mov         rbp,rsp
  0000000010002CF4: 48 81 EC A0 00 00  sub         rsp,0A0h
                    00
  0000000010002CFB: 56                 push        rsi
  0000000010002CFC: 57                 push        rdi
  0000000010002CFD: 48 89 4D 10        mov         qword ptr [rbp+10h],rcx
  0000000010002D01: 48 8B 45 10        mov         rax,qword ptr [rbp+10h]
  0000000010002D05: 48 B9 00 00 00 00  mov         rcx,8000000000000000h
                    00 00 00 80
  0000000010002D0F: 48 3B C1           cmp         rax,rcx
  0000000010002D12: 0F 84 9E 02 00 00  je          0000000010002FB6
  0000000010002D18: 31 C0              xor         eax,eax
  0000000010002D1A: 48 89 85 70 FF FF  mov         qword ptr [rbp+FFFFFFFFFFFFFF70h],rax
                    FF
  0000000010002D21: 31 C0              xor         eax,eax
  0000000010002D23: 48 89 85 68 FF FF  mov         qword ptr [rbp+FFFFFFFFFFFFFF68h],rax
                    FF
  0000000010002D2A: 48 8B 45 10        mov         rax,qword ptr [rbp+10h]
  0000000010002D2E: 48 85 C0           test        rax,rax
  0000000010002D31: 0F 8D 18 00 00 00  jge         0000000010002D4F
  0000000010002D37: B8 01 00 00 00     mov         eax,1
  0000000010002D3C: 88 45 FF           mov         byte ptr [rbp-1],al
  0000000010002D3F: 48 8B 45 10        mov         rax,qword ptr [rbp+10h]
  0000000010002D43: 48 F7 D8           neg         rax
  0000000010002D46: 48 89 45 10        mov         qword ptr [rbp+10h],rax
  0000000010002D4A: E9 05 00 00 00     jmp         0000000010002D54
  0000000010002D4F: 31 C0              xor         eax,eax
  0000000010002D51: 88 45 FF           mov         byte ptr [rbp-1],al
  0000000010002D54: 48 8B 85 70 FF FF  mov         rax,qword ptr [rbp+FFFFFFFFFFFFFF70h]
                    FF
  0000000010002D5B: 48 83 F8 20        cmp         rax,20h
  0000000010002D5F: 0F 83 05 00 00 00  jae         0000000010002D6A
  0000000010002D65: E9 08 00 00 00     jmp         0000000010002D72
  0000000010002D6A: B0 01              mov         al,1
  0000000010002D6C: B9 D4 28 00 00     mov         ecx,28D4h
  0000000010002D71: CC                 int         3
  0000000010002D72: 48 C1 E0 01        shl         rax,1
  0000000010002D76: 48 03 C5           add         rax,rbp
  0000000010002D79: 48 8B 4D 10        mov         rcx,qword ptr [rbp+10h]
  0000000010002D7D: BA 0A 00 00 00     mov         edx,0Ah
  0000000010002D82: 4C 8B C0           mov         r8,rax
  0000000010002D85: 4C 8B CA           mov         r9,rdx
  0000000010002D88: 48 8B C1           mov         rax,rcx
  0000000010002D8B: 48 99              cqo
  0000000010002D8D: 48 85 C0           test        rax,rax
  0000000010002D90: 0F 88 08 00 00 00  js          0000000010002D9E
  0000000010002D96: 49 F7 F9           idiv        rax,r9
  0000000010002D99: E9 0F 00 00 00     jmp         0000000010002DAD
  0000000010002D9E: 49 F7 F9           idiv        rax,r9
  0000000010002DA1: 48 85 D2           test        rdx,rdx
  0000000010002DA4: 0F 84 03 00 00 00  je          0000000010002DAD
  0000000010002DAA: 49 03 D1           add         rdx,r9
  0000000010002DAD: 48 8B CA           mov         rcx,rdx
  0000000010002DB0: 49 8B C0           mov         rax,r8
  0000000010002DB3: 48 83 C1 30        add         rcx,30h
  0000000010002DB7: 66 89 48 BE        mov         word ptr [rax-42h],cx
  0000000010002DBB: 48 83 85 70 FF FF  add         qword ptr [rbp+FFFFFFFFFFFFFF70h],1
                    FF 01
  0000000010002DC3: 48 8B 45 10        mov         rax,qword ptr [rbp+10h]
  0000000010002DC7: B9 0A 00 00 00     mov         ecx,0Ah
  0000000010002DCC: 48 99              cqo
  0000000010002DCE: 48 85 C0           test        rax,rax
  0000000010002DD1: 0F 88 08 00 00 00  js          0000000010002DDF
  0000000010002DD7: 48 F7 F9           idiv        rax,rcx
  0000000010002DDA: E9 10 00 00 00     jmp         0000000010002DEF
  0000000010002DDF: 48 F7 F9           idiv        rax,rcx
  0000000010002DE2: 48 85 D2           test        rdx,rdx
  0000000010002DE5: 0F 84 04 00 00 00  je          0000000010002DEF
  0000000010002DEB: 48 83 E8 01        sub         rax,1
  0000000010002DEF: 48 89 45 10        mov         qword ptr [rbp+10h],rax
  0000000010002DF3: 48 8B 45 10        mov         rax,qword ptr [rbp+10h]
  0000000010002DF7: 48 85 C0           test        rax,rax
  0000000010002DFA: 0F 85 54 FF FF FF  jne         0000000010002D54
  0000000010002E00: 0F B6 45 FF        movzx       eax,byte ptr [rbp-1]
  0000000010002E04: 85 C0              test        eax,eax
  0000000010002E06: 0F 85 CB 00 00 00  jne         0000000010002ED7
  0000000010002E0C: 48 8B 85 68 FF FF  mov         rax,qword ptr [rbp+FFFFFFFFFFFFFF68h]
                    FF
  0000000010002E13: 48 8B 8D 70 FF FF  mov         rcx,qword ptr [rbp+FFFFFFFFFFFFFF70h]
                    FF
  0000000010002E1A: 48 3B C1           cmp         rax,rcx
  0000000010002E1D: 0F 8D 81 00 00 00  jge         0000000010002EA4
  0000000010002E23: 48 8B 85 68 FF FF  mov         rax,qword ptr [rbp+FFFFFFFFFFFFFF68h]
                    FF
  0000000010002E2A: 48 83 F8 20        cmp         rax,20h
  0000000010002E2E: 0F 8D 70 00 00 00  jge         0000000010002EA4
  0000000010002E34: 48 8B 85 68 FF FF  mov         rax,qword ptr [rbp+FFFFFFFFFFFFFF68h]
                    FF
  0000000010002E3B: 48 83 F8 20        cmp         rax,20h
  0000000010002E3F: 0F 83 05 00 00 00  jae         0000000010002E4A
  0000000010002E45: E9 08 00 00 00     jmp         0000000010002E52
  0000000010002E4A: B0 01              mov         al,1
  0000000010002E4C: B9 5B 29 00 00     mov         ecx,295Bh
  0000000010002E51: CC                 int         3
  0000000010002E52: 48 C1 E0 01        shl         rax,1
  0000000010002E56: 48 03 C5           add         rax,rbp
  0000000010002E59: 48 8B 8D 70 FF FF  mov         rcx,qword ptr [rbp+FFFFFFFFFFFFFF70h]
                    FF
  0000000010002E60: 48 83 E9 01        sub         rcx,1
  0000000010002E64: 48 8B 95 68 FF FF  mov         rdx,qword ptr [rbp+FFFFFFFFFFFFFF68h]
                    FF
  0000000010002E6B: 48 2B CA           sub         rcx,rdx
  0000000010002E6E: 48 83 F9 20        cmp         rcx,20h
  0000000010002E72: 0F 83 05 00 00 00  jae         0000000010002E7D
  0000000010002E78: E9 08 00 00 00     jmp         0000000010002E85
  0000000010002E7D: B0 01              mov         al,1
  0000000010002E7F: B9 67 29 00 00     mov         ecx,2967h
  0000000010002E84: CC                 int         3
  0000000010002E85: 48 C1 E1 01        shl         rcx,1
  0000000010002E89: 48 03 CD           add         rcx,rbp
  0000000010002E8C: 0F B7 49 BE        movzx       ecx,word ptr [rcx-42h]
  0000000010002E90: 66 89 88 7E FF FF  mov         word ptr [rax+FFFFFFFFFFFFFF7Eh],cx
                    FF
  0000000010002E97: 48 83 85 68 FF FF  add         qword ptr [rbp+FFFFFFFFFFFFFF68h],1
                    FF 01
  0000000010002E9F: E9 68 FF FF FF     jmp         0000000010002E0C
  0000000010002EA4: 48 8B 85 68 FF FF  mov         rax,qword ptr [rbp+FFFFFFFFFFFFFF68h]
                    FF
  0000000010002EAB: 48 83 F8 20        cmp         rax,20h
  0000000010002EAF: 0F 83 05 00 00 00  jae         0000000010002EBA
  0000000010002EB5: E9 08 00 00 00     jmp         0000000010002EC2
  0000000010002EBA: B0 01              mov         al,1
  0000000010002EBC: B9 83 29 00 00     mov         ecx,2983h
  0000000010002EC1: CC                 int         3
  0000000010002EC2: 48 C1 E0 01        shl         rax,1
  0000000010002EC6: 48 03 C5           add         rax,rbp
  0000000010002EC9: 31 C9              xor         ecx,ecx
  0000000010002ECB: 66 89 88 7E FF FF  mov         word ptr [rax+FFFFFFFFFFFFFF7Eh],cx
                    FF
  0000000010002ED2: E9 DA 00 00 00     jmp         0000000010002FB1
  0000000010002ED7: B8 2D 00 00 00     mov         eax,2Dh
  0000000010002EDC: 66 89 85 7E FF FF  mov         word ptr [rbp+FFFFFFFFFFFFFF7Eh],ax
                    FF
  0000000010002EE3: 48 8B 85 68 FF FF  mov         rax,qword ptr [rbp+FFFFFFFFFFFFFF68h]
                    FF
  0000000010002EEA: 48 8B 8D 70 FF FF  mov         rcx,qword ptr [rbp+FFFFFFFFFFFFFF70h]
                    FF
  0000000010002EF1: 48 3B C1           cmp         rax,rcx
  0000000010002EF4: 0F 8D 85 00 00 00  jge         0000000010002F7F
  0000000010002EFA: 48 8B 85 68 FF FF  mov         rax,qword ptr [rbp+FFFFFFFFFFFFFF68h]
                    FF
  0000000010002F01: 48 83 F8 1F        cmp         rax,1Fh
  0000000010002F05: 0F 8D 74 00 00 00  jge         0000000010002F7F
  0000000010002F0B: 48 8B 85 68 FF FF  mov         rax,qword ptr [rbp+FFFFFFFFFFFFFF68h]
                    FF
  0000000010002F12: 48 83 C0 01        add         rax,1
  0000000010002F16: 48 83 F8 20        cmp         rax,20h
  0000000010002F1A: 0F 83 05 00 00 00  jae         0000000010002F25
  0000000010002F20: E9 08 00 00 00     jmp         0000000010002F2D
  0000000010002F25: B0 01              mov         al,1
  0000000010002F27: B9 D6 29 00 00     mov         ecx,29D6h
  0000000010002F2C: CC                 int         3
  0000000010002F2D: 48 C1 E0 01        shl         rax,1
  0000000010002F31: 48 03 C5           add         rax,rbp
  0000000010002F34: 48 8B 8D 70 FF FF  mov         rcx,qword ptr [rbp+FFFFFFFFFFFFFF70h]
                    FF
  0000000010002F3B: 48 83 E9 01        sub         rcx,1
  0000000010002F3F: 48 8B 95 68 FF FF  mov         rdx,qword ptr [rbp+FFFFFFFFFFFFFF68h]
                    FF
  0000000010002F46: 48 2B CA           sub         rcx,rdx
  0000000010002F49: 48 83 F9 20        cmp         rcx,20h
  0000000010002F4D: 0F 83 05 00 00 00  jae         0000000010002F58
  0000000010002F53: E9 08 00 00 00     jmp         0000000010002F60
  0000000010002F58: B0 01              mov         al,1
  0000000010002F5A: B9 E2 29 00 00     mov         ecx,29E2h
  0000000010002F5F: CC                 int         3
  0000000010002F60: 48 C1 E1 01        shl         rcx,1
  0000000010002F64: 48 03 CD           add         rcx,rbp
  0000000010002F67: 0F B7 49 BE        movzx       ecx,word ptr [rcx-42h]
  0000000010002F6B: 66 89 88 7E FF FF  mov         word ptr [rax+FFFFFFFFFFFFFF7Eh],cx
                    FF
  0000000010002F72: 48 83 85 68 FF FF  add         qword ptr [rbp+FFFFFFFFFFFFFF68h],1
                    FF 01
  0000000010002F7A: E9 64 FF FF FF     jmp         0000000010002EE3
  0000000010002F7F: 48 8B 85 68 FF FF  mov         rax,qword ptr [rbp+FFFFFFFFFFFFFF68h]
                    FF
  0000000010002F86: 48 83 C0 01        add         rax,1
  0000000010002F8A: 48 83 F8 20        cmp         rax,20h
  0000000010002F8E: 0F 83 05 00 00 00  jae         0000000010002F99
  0000000010002F94: E9 08 00 00 00     jmp         0000000010002FA1
  0000000010002F99: B0 01              mov         al,1
  0000000010002F9B: B9 00 2A 00 00     mov         ecx,2A00h
  0000000010002FA0: CC                 int         3
  0000000010002FA1: 48 C1 E0 01        shl         rax,1
  0000000010002FA5: 48 03 C5           add         rax,rbp
  0000000010002FA8: 31 C9              xor         ecx,ecx
  0000000010002FAA: 66 89 88 7E FF FF  mov         word ptr [rax+FFFFFFFFFFFFFF7Eh],cx
                    FF
  0000000010002FB1: E9 15 00 00 00     jmp         0000000010002FCB
  0000000010002FB6: 48 8D BD 7E FF FF  lea         rdi,[rbp+FFFFFFFFFFFFFF7Eh]
                    FF
  0000000010002FBD: 48 8D 35 1A EE FF  lea         rsi,[0000000010001DDEh]
                    FF
  0000000010002FC4: B9 2A 00 00 00     mov         ecx,2Ah
  0000000010002FC9: F3 A4              rep movs    byte ptr [rdi],byte ptr [rsi]
  0000000010002FCB: 48 83 EC 20        sub         rsp,20h
  0000000010002FCF: 48 8D 8D 7E FF FF  lea         rcx,[rbp+FFFFFFFFFFFFFF7Eh]
                    FF
  0000000010002FD6: BA 20 00 00 00     mov         edx,20h
  0000000010002FDB: E8 29 FB FF FF     call        0000000010002B09
  0000000010002FE0: 48 83 C4 20        add         rsp,20h
  0000000010002FE4: 5F                 pop         rdi
  0000000010002FE5: 5E                 pop         rsi
  0000000010002FE6: C9                 leave
  0000000010002FE7: C3                 ret
  0000000010002FE8: 55                 push        rbp
  0000000010002FE9: 48 8B EC           mov         rbp,rsp
  0000000010002FEC: 48 8B 05 C5 EF FF  mov         rax,qword ptr [0000000010001FB8h]
                    FF
  0000000010002FF3: 50                 push        rax
  0000000010002FF4: 48 83 EC 28        sub         rsp,28h
  0000000010002FF8: 48 8B 44 24 28     mov         rax,qword ptr [rsp+28h]
  0000000010002FFD: FF D0              call        rax
  0000000010002FFF: 48 83 C4 30        add         rsp,30h
  0000000010003003: C9                 leave
  0000000010003004: C3                 ret
  0000000010003005: 55                 push        rbp
  0000000010003006: 48 8B EC           mov         rbp,rsp
  0000000010003009: 48 83 EC 20        sub         rsp,20h
  000000001000300D: 48 89 4D 10        mov         qword ptr [rbp+10h],rcx
  0000000010003011: 48 89 55 18        mov         qword ptr [rbp+18h],rdx
  0000000010003015: 4C 89 45 20        mov         qword ptr [rbp+20h],r8
  0000000010003019: 4C 89 4D 28        mov         qword ptr [rbp+28h],r9
  000000001000301D: 48 8B 05 8C EF FF  mov         rax,qword ptr [0000000010001FB0h]
                    FF
  0000000010003024: 50                 push        rax
  0000000010003025: 48 83 EC 28        sub         rsp,28h
  0000000010003029: 48 8B 44 24 28     mov         rax,qword ptr [rsp+28h]
  000000001000302E: FF D0              call        rax
  0000000010003030: 48 83 C4 30        add         rsp,30h
  0000000010003034: 48 89 45 E8        mov         qword ptr [rbp-18h],rax
  0000000010003038: 31 C0              xor         eax,eax
  000000001000303A: 48 89 45 F8        mov         qword ptr [rbp-8],rax
  000000001000303E: 48 8B 45 28        mov         rax,qword ptr [rbp+28h]
  0000000010003042: 48 85 C0           test        rax,rax
  0000000010003045: 0F 8E 9C 00 00 00  jle         00000000100030E7
  000000001000304B: 48 8B 45 E8        mov         rax,qword ptr [rbp-18h]
  000000001000304F: 0F B7 00           movzx       eax,word ptr [rax]
  0000000010003052: 66 89 45 E6        mov         word ptr [rbp-1Ah],ax
  0000000010003056: 0F B7 45 E6        movzx       eax,word ptr [rbp-1Ah]
  000000001000305A: 66 83 F8 20        cmp         ax,20h
  000000001000305E: 0F 84 29 00 00 00  je          000000001000308D
  0000000010003064: 0F B7 45 E6        movzx       eax,word ptr [rbp-1Ah]
  0000000010003068: 66 85 C0           test        ax,ax
  000000001000306B: 0F 84 1C 00 00 00  je          000000001000308D
  0000000010003071: 48 8B 45 E8        mov         rax,qword ptr [rbp-18h]
  0000000010003075: 48 83 C0 02        add         rax,2
  0000000010003079: 48 89 45 E8        mov         qword ptr [rbp-18h],rax
  000000001000307D: 48 8B 45 E8        mov         rax,qword ptr [rbp-18h]
  0000000010003081: 0F B7 00           movzx       eax,word ptr [rax]
  0000000010003084: 66 89 45 E6        mov         word ptr [rbp-1Ah],ax
  0000000010003088: E9 C9 FF FF FF     jmp         0000000010003056
  000000001000308D: 0F B7 45 E6        movzx       eax,word ptr [rbp-1Ah]
  0000000010003091: 66 85 C0           test        ax,ax
  0000000010003094: 0F 85 0B 00 00 00  jne         00000000100030A5
  000000001000309A: 31 C0              xor         eax,eax
  000000001000309C: 48 89 45 28        mov         qword ptr [rbp+28h],rax
  00000000100030A0: E9 3D 00 00 00     jmp         00000000100030E2
  00000000100030A5: 0F B7 45 E6        movzx       eax,word ptr [rbp-1Ah]
  00000000100030A9: 66 83 F8 20        cmp         ax,20h
  00000000100030AD: 0F 85 2F 00 00 00  jne         00000000100030E2
  00000000100030B3: 48 83 45 28 FF     add         qword ptr [rbp+28h],0FFFFFFFFFFFFFFFFh
  00000000100030B8: 0F B7 45 E6        movzx       eax,word ptr [rbp-1Ah]
  00000000100030BC: 66 83 F8 20        cmp         ax,20h
  00000000100030C0: 0F 85 1C 00 00 00  jne         00000000100030E2
  00000000100030C6: 48 8B 45 E8        mov         rax,qword ptr [rbp-18h]
  00000000100030CA: 48 83 C0 02        add         rax,2
  00000000100030CE: 48 89 45 E8        mov         qword ptr [rbp-18h],rax
  00000000100030D2: 48 8B 45 E8        mov         rax,qword ptr [rbp-18h]
  00000000100030D6: 0F B7 00           movzx       eax,word ptr [rax]
  00000000100030D9: 66 89 45 E6        mov         word ptr [rbp-1Ah],ax
  00000000100030DD: E9 D6 FF FF FF     jmp         00000000100030B8
  00000000100030E2: E9 57 FF FF FF     jmp         000000001000303E
  00000000100030E7: 31 C0              xor         eax,eax
  00000000100030E9: 48 89 45 F0        mov         qword ptr [rbp-10h],rax
  00000000100030ED: 31 C0              xor         eax,eax
  00000000100030EF: 48 8B 4D 20        mov         rcx,qword ptr [rbp+20h]
  00000000100030F3: 48 89 01           mov         qword ptr [rcx],rax
  00000000100030F6: 0F B7 45 E6        movzx       eax,word ptr [rbp-1Ah]
  00000000100030FA: 66 83 F8 20        cmp         ax,20h
  00000000100030FE: 0F 84 74 00 00 00  je          0000000010003178
  0000000010003104: 0F B7 45 E6        movzx       eax,word ptr [rbp-1Ah]
  0000000010003108: 66 85 C0           test        ax,ax
  000000001000310B: 0F 84 67 00 00 00  je          0000000010003178
  0000000010003111: 48 8B 45 F0        mov         rax,qword ptr [rbp-10h]
  0000000010003115: 48 8B 4D 18        mov         rcx,qword ptr [rbp+18h]
  0000000010003119: 48 3B C1           cmp         rax,rcx
  000000001000311C: 0F 8D 2D 00 00 00  jge         000000001000314F
  0000000010003122: 48 8B 45 F0        mov         rax,qword ptr [rbp-10h]
  0000000010003126: 48 3B 45 18        cmp         rax,qword ptr [rbp+18h]
  000000001000312A: 0F 83 05 00 00 00  jae         0000000010003135
  0000000010003130: E9 08 00 00 00     jmp         000000001000313D
  0000000010003135: B0 01              mov         al,1
  0000000010003137: B9 81 2D 00 00     mov         ecx,2D81h
  000000001000313C: CC                 int         3
  000000001000313D: 48 C1 E0 01        shl         rax,1
  0000000010003141: 48 8B 4D 10        mov         rcx,qword ptr [rbp+10h]
  0000000010003145: 48 03 C1           add         rax,rcx
  0000000010003148: 0F B7 4D E6        movzx       ecx,word ptr [rbp-1Ah]
  000000001000314C: 66 89 08           mov         word ptr [rax],cx
  000000001000314F: 48 83 45 F0 01     add         qword ptr [rbp-10h],1
  0000000010003154: 48 8B 45 20        mov         rax,qword ptr [rbp+20h]
  0000000010003158: 48 83 00 01        add         qword ptr [rax],1
  000000001000315C: 48 8B 45 E8        mov         rax,qword ptr [rbp-18h]
  0000000010003160: 48 83 C0 02        add         rax,2
  0000000010003164: 48 89 45 E8        mov         qword ptr [rbp-18h],rax
  0000000010003168: 48 8B 45 E8        mov         rax,qword ptr [rbp-18h]
  000000001000316C: 0F B7 00           movzx       eax,word ptr [rax]
  000000001000316F: 66 89 45 E6        mov         word ptr [rbp-1Ah],ax
  0000000010003173: E9 7E FF FF FF     jmp         00000000100030F6
  0000000010003178: 48 8B 45 F0        mov         rax,qword ptr [rbp-10h]
  000000001000317C: 48 8B 4D 18        mov         rcx,qword ptr [rbp+18h]
  0000000010003180: 48 3B C1           cmp         rax,rcx
  0000000010003183: 0F 8D 2B 00 00 00  jge         00000000100031B4
  0000000010003189: 48 8B 45 F0        mov         rax,qword ptr [rbp-10h]
  000000001000318D: 48 3B 45 18        cmp         rax,qword ptr [rbp+18h]
  0000000010003191: 0F 83 05 00 00 00  jae         000000001000319C
  0000000010003197: E9 08 00 00 00     jmp         00000000100031A4
  000000001000319C: B0 01              mov         al,1
  000000001000319E: B9 F4 2D 00 00     mov         ecx,2DF4h
  00000000100031A3: CC                 int         3
  00000000100031A4: 48 C1 E0 01        shl         rax,1
  00000000100031A8: 48 8B 4D 10        mov         rcx,qword ptr [rbp+10h]
  00000000100031AC: 48 03 C1           add         rax,rcx
  00000000100031AF: 31 C9              xor         ecx,ecx
  00000000100031B1: 66 89 08           mov         word ptr [rax],cx
  00000000100031B4: C9                 leave
  00000000100031B5: C3                 ret
  00000000100031B6: 55                 push        rbp
  00000000100031B7: 48 8B EC           mov         rbp,rsp
  00000000100031BA: 48 83 EC 10        sub         rsp,10h
  00000000100031BE: 48 89 4D 10        mov         qword ptr [rbp+10h],rcx
  00000000100031C2: 48 83 EC 20        sub         rsp,20h
  00000000100031C6: 48 8B 0D 73 ED FF  mov         rcx,qword ptr [0000000010001F40h]
                    FF
  00000000100031CD: BA 08 00 00 00     mov         edx,8
  00000000100031D2: 41 B8 28 00 00 00  mov         r8d,28h
  00000000100031D8: FF 15 8A ED FF FF  call        qword ptr [0000000010001F68h]
  00000000100031DE: 48 83 C4 20        add         rsp,20h
  00000000100031E2: 48 83 C0 10        add         rax,10h
  00000000100031E6: 48 8D 0D 23 EC FF  lea         rcx,[0000000010001E10h]
                    FF
  00000000100031ED: 48 89 48 F8        mov         qword ptr [rax-8],rcx
  00000000100031F1: 48 8B 4D 10        mov         rcx,qword ptr [rbp+10h]
  00000000100031F5: 48 89 01           mov         qword ptr [rcx],rax
  00000000100031F8: 48 8B 05 99 ED FF  mov         rax,qword ptr [0000000010001F98h]
                    FF
  00000000100031FF: 50                 push        rax
  0000000010003200: 48 83 EC 28        sub         rsp,28h
  0000000010003204: 48 8B 44 24 28     mov         rax,qword ptr [rsp+28h]
  0000000010003209: FF D0              call        rax
  000000001000320B: 48 83 C4 30        add         rsp,30h
  000000001000320F: 48 89 45 F8        mov         qword ptr [rbp-8],rax
  0000000010003213: 48 8B 45 10        mov         rax,qword ptr [rbp+10h]
  0000000010003217: 48 8B 00           mov         rax,qword ptr [rax]
  000000001000321A: 48 85 C0           test        rax,rax
  000000001000321D: 0F 84 05 00 00 00  je          0000000010003228
  0000000010003223: E9 08 00 00 00     jmp         0000000010003230
  0000000010003228: B0 04              mov         al,4
  000000001000322A: B9 2E 2F 00 00     mov         ecx,2F2Eh
  000000001000322F: CC                 int         3
  0000000010003230: 48 8B 0D 59 ED FF  mov         rcx,qword ptr [0000000010001F90h]
                    FF
  0000000010003237: 50                 push        rax
  0000000010003238: 51                 push        rcx
  0000000010003239: 48 83 EC 20        sub         rsp,20h
  000000001000323D: 48 8B 4D F8        mov         rcx,qword ptr [rbp-8]
  0000000010003241: 31 D2              xor         edx,edx
  0000000010003243: 41 B8 80 00 00 00  mov         r8d,80h
  0000000010003249: 48 8B 44 24 20     mov         rax,qword ptr [rsp+20h]
  000000001000324E: FF D0              call        rax
  0000000010003250: 48 83 C4 28        add         rsp,28h
  0000000010003254: 48 8B C8           mov         rcx,rax
  0000000010003257: 58                 pop         rax
  0000000010003258: 48 89 08           mov         qword ptr [rax],rcx
  000000001000325B: 48 8B 45 10        mov         rax,qword ptr [rbp+10h]
  000000001000325F: 48 8B 00           mov         rax,qword ptr [rax]
  0000000010003262: 48 85 C0           test        rax,rax
  0000000010003265: 0F 84 05 00 00 00  je          0000000010003270
  000000001000326B: E9 08 00 00 00     jmp         0000000010003278
  0000000010003270: B0 04              mov         al,4
  0000000010003272: B9 5A 2F 00 00     mov         ecx,2F5Ah
  0000000010003277: CC                 int         3
  0000000010003278: B9 80 00 00 00     mov         ecx,80h
  000000001000327D: 48 89 48 10        mov         qword ptr [rax+10h],rcx
  0000000010003281: 48 8B 45 10        mov         rax,qword ptr [rbp+10h]
  0000000010003285: 48 8B 00           mov         rax,qword ptr [rax]
  0000000010003288: 48 85 C0           test        rax,rax
  000000001000328B: 0F 84 05 00 00 00  je          0000000010003296
  0000000010003291: E9 08 00 00 00     jmp         000000001000329E
  0000000010003296: B0 04              mov         al,4
  0000000010003298: B9 72 2F 00 00     mov         ecx,2F72h
  000000001000329D: CC                 int         3
  000000001000329E: 31 C9              xor         ecx,ecx
  00000000100032A0: 48 89 48 08        mov         qword ptr [rax+8],rcx
  00000000100032A4: C9                 leave
  00000000100032A5: C3                 ret
  00000000100032A6: 55                 push        rbp
  00000000100032A7: 48 8B EC           mov         rbp,rsp
  00000000100032AA: 48 83 EC 10        sub         rsp,10h
  00000000100032AE: 48 89 4D 10        mov         qword ptr [rbp+10h],rcx
  00000000100032B2: 48 8B 05 DF EC FF  mov         rax,qword ptr [0000000010001F98h]
                    FF
  00000000100032B9: 50                 push        rax
  00000000100032BA: 48 83 EC 28        sub         rsp,28h
  00000000100032BE: 48 8B 44 24 28     mov         rax,qword ptr [rsp+28h]
  00000000100032C3: FF D0              call        rax
  00000000100032C5: 48 83 C4 30        add         rsp,30h
  00000000100032C9: 48 89 45 F8        mov         qword ptr [rbp-8],rax
  00000000100032CD: 48 8B 05 B4 EC FF  mov         rax,qword ptr [0000000010001F88h]
                    FF
  00000000100032D4: 50                 push        rax
  00000000100032D5: 48 83 EC 28        sub         rsp,28h
  00000000100032D9: 48 8B 4D F8        mov         rcx,qword ptr [rbp-8]
  00000000100032DD: 31 D2              xor         edx,edx
  00000000100032DF: 4C 8B 45 10        mov         r8,qword ptr [rbp+10h]
  00000000100032E3: 4D 85 C0           test        r8,r8
  00000000100032E6: 0F 84 05 00 00 00  je          00000000100032F1
  00000000100032EC: E9 08 00 00 00     jmp         00000000100032F9
  00000000100032F1: B0 04              mov         al,4
  00000000100032F3: B9 15 30 00 00     mov         ecx,3015h
  00000000100032F8: CC                 int         3
  00000000100032F9: 4D 8B 00           mov         r8,qword ptr [r8]
  00000000100032FC: 48 8B 44 24 28     mov         rax,qword ptr [rsp+28h]
  0000000010003301: FF D0              call        rax
  0000000010003303: 48 83 C4 30        add         rsp,30h
  0000000010003307: 48 89 45 F0        mov         qword ptr [rbp-10h],rax
  000000001000330B: 48 8B 45 10        mov         rax,qword ptr [rbp+10h]
  000000001000330F: 48 85 C0           test        rax,rax
  0000000010003312: 0F 84 05 00 00 00  je          000000001000331D
  0000000010003318: E9 08 00 00 00     jmp         0000000010003325
  000000001000331D: B0 04              mov         al,4
  000000001000331F: B9 1F 30 00 00     mov         ecx,301Fh
  0000000010003324: CC                 int         3
  0000000010003325: 31 C9              xor         ecx,ecx
  0000000010003327: 48 89 08           mov         qword ptr [rax],rcx
  000000001000332A: 48 8B 45 10        mov         rax,qword ptr [rbp+10h]
  000000001000332E: 48 85 C0           test        rax,rax
  0000000010003331: 0F 84 05 00 00 00  je          000000001000333C
  0000000010003337: E9 08 00 00 00     jmp         0000000010003344
  000000001000333C: B0 04              mov         al,4
  000000001000333E: B9 2B 30 00 00     mov         ecx,302Bh
  0000000010003343: CC                 int         3
  0000000010003344: 31 C9              xor         ecx,ecx
  0000000010003346: 48 89 48 10        mov         qword ptr [rax+10h],rcx
  000000001000334A: 48 8B 45 10        mov         rax,qword ptr [rbp+10h]
  000000001000334E: 48 85 C0           test        rax,rax
  0000000010003351: 0F 84 05 00 00 00  je          000000001000335C
  0000000010003357: E9 08 00 00 00     jmp         0000000010003364
  000000001000335C: B0 04              mov         al,4
  000000001000335E: B9 3A 30 00 00     mov         ecx,303Ah
  0000000010003363: CC                 int         3
  0000000010003364: 31 C9              xor         ecx,ecx
  0000000010003366: 48 89 48 08        mov         qword ptr [rax+8],rcx
  000000001000336A: C9                 leave
  000000001000336B: C3                 ret
  000000001000336C: 55                 push        rbp
  000000001000336D: 48 8B EC           mov         rbp,rsp
  0000000010003370: 48 83 EC 10        sub         rsp,10h
  0000000010003374: 48 89 4D 10        mov         qword ptr [rbp+10h],rcx
  0000000010003378: 48 89 55 18        mov         qword ptr [rbp+18h],rdx
  000000001000337C: 48 8B 45 18        mov         rax,qword ptr [rbp+18h]
  0000000010003380: 48 8B 4D 18        mov         rcx,qword ptr [rbp+18h]
  0000000010003384: 48 F7 D9           neg         rcx
  0000000010003387: 48 83 E1 7F        and         rcx,7Fh
  000000001000338B: 48 03 C1           add         rax,rcx
  000000001000338E: 48 89 45 18        mov         qword ptr [rbp+18h],rax
  0000000010003392: 48 8B 05 FF EB FF  mov         rax,qword ptr [0000000010001F98h]
                    FF
  0000000010003399: 50                 push        rax
  000000001000339A: 48 83 EC 28        sub         rsp,28h
  000000001000339E: 48 8B 44 24 28     mov         rax,qword ptr [rsp+28h]
  00000000100033A3: FF D0              call        rax
  00000000100033A5: 48 83 C4 30        add         rsp,30h
  00000000100033A9: 48 89 45 F8        mov         qword ptr [rbp-8],rax
  00000000100033AD: 48 8B 45 10        mov         rax,qword ptr [rbp+10h]
  00000000100033B1: 48 85 C0           test        rax,rax
  00000000100033B4: 0F 84 05 00 00 00  je          00000000100033BF
  00000000100033BA: E9 08 00 00 00     jmp         00000000100033C7
  00000000100033BF: B0 04              mov         al,4
  00000000100033C1: B9 FC 30 00 00     mov         ecx,30FCh
  00000000100033C6: CC                 int         3
  00000000100033C7: 48 8B 48 10        mov         rcx,qword ptr [rax+10h]
  00000000100033CB: 48 8B 55 18        mov         rdx,qword ptr [rbp+18h]
  00000000100033CF: 48 03 CA           add         rcx,rdx
  00000000100033D2: 48 89 48 10        mov         qword ptr [rax+10h],rcx
  00000000100033D6: 48 8B 45 10        mov         rax,qword ptr [rbp+10h]
  00000000100033DA: 48 85 C0           test        rax,rax
  00000000100033DD: 0F 84 05 00 00 00  je          00000000100033E8
  00000000100033E3: E9 08 00 00 00     jmp         00000000100033F0
  00000000100033E8: B0 04              mov         al,4
  00000000100033EA: B9 11 31 00 00     mov         ecx,3111h
  00000000100033EF: CC                 int         3
  00000000100033F0: 48 8B 0D 89 EB FF  mov         rcx,qword ptr [0000000010001F80h]
                    FF
  00000000100033F7: 50                 push        rax
  00000000100033F8: 51                 push        rcx
  00000000100033F9: 48 83 EC 20        sub         rsp,20h
  00000000100033FD: 48 8B 4D F8        mov         rcx,qword ptr [rbp-8]
  0000000010003401: 31 D2              xor         edx,edx
  0000000010003403: 4C 8B 45 10        mov         r8,qword ptr [rbp+10h]
  0000000010003407: 4D 85 C0           test        r8,r8
  000000001000340A: 0F 84 05 00 00 00  je          0000000010003415
  0000000010003410: E9 08 00 00 00     jmp         000000001000341D
  0000000010003415: B0 04              mov         al,4
  0000000010003417: B9 30 31 00 00     mov         ecx,3130h
  000000001000341C: CC                 int         3
  000000001000341D: 4D 8B 00           mov         r8,qword ptr [r8]
  0000000010003420: 4C 8B 4D 10        mov         r9,qword ptr [rbp+10h]
  0000000010003424: 4D 85 C9           test        r9,r9
  0000000010003427: 0F 84 05 00 00 00  je          0000000010003432
  000000001000342D: E9 08 00 00 00     jmp         000000001000343A
  0000000010003432: B0 04              mov         al,4
  0000000010003434: B9 37 31 00 00     mov         ecx,3137h
  0000000010003439: CC                 int         3
  000000001000343A: 4D 8B 49 10        mov         r9,qword ptr [r9+10h]
  000000001000343E: 48 8B 44 24 20     mov         rax,qword ptr [rsp+20h]
  0000000010003443: FF D0              call        rax
  0000000010003445: 48 83 C4 28        add         rsp,28h
  0000000010003449: 48 8B C8           mov         rcx,rax
  000000001000344C: 58                 pop         rax
  000000001000344D: 48 89 08           mov         qword ptr [rax],rcx
  0000000010003450: C9                 leave
  0000000010003451: C3                 ret
  0000000010003452: 55                 push        rbp
  0000000010003453: 48 8B EC           mov         rbp,rsp
  0000000010003456: 48 83 EC 10        sub         rsp,10h
  000000001000345A: 56                 push        rsi
  000000001000345B: 57                 push        rdi
  000000001000345C: 48 89 4D 10        mov         qword ptr [rbp+10h],rcx
  0000000010003460: 48 89 55 18        mov         qword ptr [rbp+18h],rdx
  0000000010003464: 48 8B 45 10        mov         rax,qword ptr [rbp+10h]
  0000000010003468: 48 85 C0           test        rax,rax
  000000001000346B: 0F 84 05 00 00 00  je          0000000010003476
  0000000010003471: E9 08 00 00 00     jmp         000000001000347E
  0000000010003476: B0 04              mov         al,4
  0000000010003478: B9 A6 31 00 00     mov         ecx,31A6h
  000000001000347D: CC                 int         3
  000000001000347E: 48 8B 40 10        mov         rax,qword ptr [rax+10h]
  0000000010003482: 48 8B 4D 10        mov         rcx,qword ptr [rbp+10h]
  0000000010003486: 48 85 C9           test        rcx,rcx
  0000000010003489: 0F 84 05 00 00 00  je          0000000010003494
  000000001000348F: E9 08 00 00 00     jmp         000000001000349C
  0000000010003494: B0 04              mov         al,4
  0000000010003496: B9 B2 31 00 00     mov         ecx,31B2h
  000000001000349B: CC                 int         3
  000000001000349C: 48 8B 49 08        mov         rcx,qword ptr [rcx+8]
  00000000100034A0: 48 8B 55 18        mov         rdx,qword ptr [rbp+18h]
  00000000100034A4: 48 85 D2           test        rdx,rdx
  00000000100034A7: 0F 84 05 00 00 00  je          00000000100034B2
  00000000100034AD: E9 08 00 00 00     jmp         00000000100034BA
  00000000100034B2: B0 04              mov         al,4
  00000000100034B4: B9 BB 31 00 00     mov         ecx,31BBh
  00000000100034B9: CC                 int         3
  00000000100034BA: 48 8B 52 08        mov         rdx,qword ptr [rdx+8]
  00000000100034BE: 48 03 CA           add         rcx,rdx
  00000000100034C1: 48 3B C1           cmp         rax,rcx
  00000000100034C4: 0F 8D 8F 00 00 00  jge         0000000010003559
  00000000100034CA: 48 8B 45 10        mov         rax,qword ptr [rbp+10h]
  00000000100034CE: 48 85 C0           test        rax,rax
  00000000100034D1: 0F 84 05 00 00 00  je          00000000100034DC
  00000000100034D7: E9 08 00 00 00     jmp         00000000100034E4
  00000000100034DC: B0 04              mov         al,4
  00000000100034DE: B9 D4 31 00 00     mov         ecx,31D4h
  00000000100034E3: CC                 int         3
  00000000100034E4: 48 8B 40 08        mov         rax,qword ptr [rax+8]
  00000000100034E8: 48 8B 4D 18        mov         rcx,qword ptr [rbp+18h]
  00000000100034EC: 48 85 C9           test        rcx,rcx
  00000000100034EF: 0F 84 05 00 00 00  je          00000000100034FA
  00000000100034F5: E9 08 00 00 00     jmp         0000000010003502
  00000000100034FA: B0 04              mov         al,4
  00000000100034FC: B9 DD 31 00 00     mov         ecx,31DDh
  0000000010003501: CC                 int         3
  0000000010003502: 48 8B 49 08        mov         rcx,qword ptr [rcx+8]
  0000000010003506: 48 03 C1           add         rax,rcx
  0000000010003509: 48 89 45 F8        mov         qword ptr [rbp-8],rax
  000000001000350D: 48 8B 45 F8        mov         rax,qword ptr [rbp-8]
  0000000010003511: 48 8B 4D F8        mov         rcx,qword ptr [rbp-8]
  0000000010003515: 48 F7 D9           neg         rcx
  0000000010003518: 48 83 E1 7F        and         rcx,7Fh
  000000001000351C: 48 03 C1           add         rax,rcx
  000000001000351F: 48 89 45 F8        mov         qword ptr [rbp-8],rax
  0000000010003523: 48 83 EC 20        sub         rsp,20h
  0000000010003527: 48 8B 4D 10        mov         rcx,qword ptr [rbp+10h]
  000000001000352B: 48 8B 55 F8        mov         rdx,qword ptr [rbp-8]
  000000001000352F: 4C 8B 45 10        mov         r8,qword ptr [rbp+10h]
  0000000010003533: 4D 85 C0           test        r8,r8
  0000000010003536: 0F 84 05 00 00 00  je          0000000010003541
  000000001000353C: E9 08 00 00 00     jmp         0000000010003549
  0000000010003541: B0 04              mov         al,4
  0000000010003543: B9 30 32 00 00     mov         ecx,3230h
  0000000010003548: CC                 int         3
  0000000010003549: 4D 8B 40 10        mov         r8,qword ptr [r8+10h]
  000000001000354D: 49 2B D0           sub         rdx,r8
  0000000010003550: E8 17 FE FF FF     call        000000001000336C
  0000000010003555: 48 83 C4 20        add         rsp,20h
  0000000010003559: 48 8B 45 18        mov         rax,qword ptr [rbp+18h]
  000000001000355D: 48 85 C0           test        rax,rax
  0000000010003560: 0F 84 05 00 00 00  je          000000001000356B
  0000000010003566: E9 08 00 00 00     jmp         0000000010003573
  000000001000356B: B0 04              mov         al,4
  000000001000356D: B9 50 32 00 00     mov         ecx,3250h
  0000000010003572: CC                 int         3
  0000000010003573: 48 8B 00           mov         rax,qword ptr [rax]
  0000000010003576: 48 8B 4D 10        mov         rcx,qword ptr [rbp+10h]
  000000001000357A: 48 85 C9           test        rcx,rcx
  000000001000357D: 0F 84 05 00 00 00  je          0000000010003588
  0000000010003583: E9 08 00 00 00     jmp         0000000010003590
  0000000010003588: B0 04              mov         al,4
  000000001000358A: B9 58 32 00 00     mov         ecx,3258h
  000000001000358F: CC                 int         3
  0000000010003590: 48 8B 09           mov         rcx,qword ptr [rcx]
  0000000010003593: 48 8B 55 10        mov         rdx,qword ptr [rbp+10h]
  0000000010003597: 48 85 D2           test        rdx,rdx
  000000001000359A: 0F 84 05 00 00 00  je          00000000100035A5
  00000000100035A0: E9 08 00 00 00     jmp         00000000100035AD
  00000000100035A5: B0 04              mov         al,4
  00000000100035A7: B9 61 32 00 00     mov         ecx,3261h
  00000000100035AC: CC                 int         3
  00000000100035AD: 48 8B 52 08        mov         rdx,qword ptr [rdx+8]
  00000000100035B1: 48 03 CA           add         rcx,rdx
  00000000100035B4: 48 8B 55 18        mov         rdx,qword ptr [rbp+18h]
  00000000100035B8: 48 85 D2           test        rdx,rdx
  00000000100035BB: 0F 84 05 00 00 00  je          00000000100035C6
  00000000100035C1: E9 08 00 00 00     jmp         00000000100035CE
  00000000100035C6: B0 04              mov         al,4
  00000000100035C8: B9 69 32 00 00     mov         ecx,3269h
  00000000100035CD: CC                 int         3
  00000000100035CE: 48 8B 52 08        mov         rdx,qword ptr [rdx+8]
  00000000100035D2: 48 8B F0           mov         rsi,rax
  00000000100035D5: 48 8B F9           mov         rdi,rcx
  00000000100035D8: 48 8B CA           mov         rcx,rdx
  00000000100035DB: F3 A4              rep movs    byte ptr [rdi],byte ptr [rsi]
  00000000100035DD: 48 8B 45 10        mov         rax,qword ptr [rbp+10h]
  00000000100035E1: 48 85 C0           test        rax,rax
  00000000100035E4: 0F 84 05 00 00 00  je          00000000100035EF
  00000000100035EA: E9 08 00 00 00     jmp         00000000100035F7
  00000000100035EF: B0 04              mov         al,4
  00000000100035F1: B9 78 32 00 00     mov         ecx,3278h
  00000000100035F6: CC                 int         3
  00000000100035F7: 48 8B 48 08        mov         rcx,qword ptr [rax+8]
  00000000100035FB: 48 8B 55 18        mov         rdx,qword ptr [rbp+18h]
  00000000100035FF: 48 85 D2           test        rdx,rdx
  0000000010003602: 0F 84 05 00 00 00  je          000000001000360D
  0000000010003608: E9 08 00 00 00     jmp         0000000010003615
  000000001000360D: B0 04              mov         al,4
  000000001000360F: B9 80 32 00 00     mov         ecx,3280h
  0000000010003614: CC                 int         3
  0000000010003615: 48 8B 52 08        mov         rdx,qword ptr [rdx+8]
  0000000010003619: 48 03 CA           add         rcx,rdx
  000000001000361C: 48 89 48 08        mov         qword ptr [rax+8],rcx
  0000000010003620: 48 83 EC 20        sub         rsp,20h
  0000000010003624: 48 8B 4D 18        mov         rcx,qword ptr [rbp+18h]
  0000000010003628: E8 79 FC FF FF     call        00000000100032A6
  000000001000362D: 48 83 C4 20        add         rsp,20h
  0000000010003631: 5F                 pop         rdi
  0000000010003632: 5E                 pop         rsi
  0000000010003633: C9                 leave
  0000000010003634: C3                 ret
  0000000010003635: 55                 push        rbp
  0000000010003636: 48 8B EC           mov         rbp,rsp
  0000000010003639: 48 89 4D 10        mov         qword ptr [rbp+10h],rcx
  000000001000363D: 48 8B 45 10        mov         rax,qword ptr [rbp+10h]
  0000000010003641: 48 85 C0           test        rax,rax
  0000000010003644: 0F 84 05 00 00 00  je          000000001000364F
  000000001000364A: E9 08 00 00 00     jmp         0000000010003657
  000000001000364F: B0 04              mov         al,4
  0000000010003651: B9 EF 32 00 00     mov         ecx,32EFh
  0000000010003656: CC                 int         3
  0000000010003657: 48 8B 40 08        mov         rax,qword ptr [rax+8]
  000000001000365B: C9                 leave
  000000001000365C: C3                 ret
  000000001000365D: 55                 push        rbp
  000000001000365E: 48 8B EC           mov         rbp,rsp
  0000000010003661: 48 89 4D 10        mov         qword ptr [rbp+10h],rcx
  0000000010003665: 48 89 55 18        mov         qword ptr [rbp+18h],rdx
  0000000010003669: 4C 89 45 20        mov         qword ptr [rbp+20h],r8
  000000001000366D: 48 8B 45 18        mov         rax,qword ptr [rbp+18h]
  0000000010003671: 48 8B 4D 10        mov         rcx,qword ptr [rbp+10h]
  0000000010003675: 48 89 01           mov         qword ptr [rcx],rax
  0000000010003678: 31 C0              xor         eax,eax
  000000001000367A: 48 8B 4D 10        mov         rcx,qword ptr [rbp+10h]
  000000001000367E: 88 41 10           mov         byte ptr [rcx+10h],al
  0000000010003681: 48 8B 45 20        mov         rax,qword ptr [rbp+20h]
  0000000010003685: 48 85 C0           test        rax,rax
  0000000010003688: 0F 8C 67 00 00 00  jl          00000000100036F5
  000000001000368E: 48 8B 45 20        mov         rax,qword ptr [rbp+20h]
  0000000010003692: 48 8B 4D 18        mov         rcx,qword ptr [rbp+18h]
  0000000010003696: 48 85 C9           test        rcx,rcx
  0000000010003699: 0F 84 05 00 00 00  je          00000000100036A4
  000000001000369F: E9 08 00 00 00     jmp         00000000100036AC
  00000000100036A4: B0 04              mov         al,4
  00000000100036A6: B9 93 33 00 00     mov         ecx,3393h
  00000000100036AB: CC                 int         3
  00000000100036AC: 48 8B 49 08        mov         rcx,qword ptr [rcx+8]
  00000000100036B0: 48 3B C1           cmp         rax,rcx
  00000000100036B3: 0F 8F 11 00 00 00  jg          00000000100036CA
  00000000100036B9: 48 8B 45 20        mov         rax,qword ptr [rbp+20h]
  00000000100036BD: 48 8B 4D 10        mov         rcx,qword ptr [rbp+10h]
  00000000100036C1: 48 89 41 08        mov         qword ptr [rcx+8],rax
  00000000100036C5: E9 26 00 00 00     jmp         00000000100036F0
  00000000100036CA: 48 8B 45 18        mov         rax,qword ptr [rbp+18h]
  00000000100036CE: 48 85 C0           test        rax,rax
  00000000100036D1: 0F 84 05 00 00 00  je          00000000100036DC
  00000000100036D7: E9 08 00 00 00     jmp         00000000100036E4
  00000000100036DC: B0 04              mov         al,4
  00000000100036DE: B9 B9 33 00 00     mov         ecx,33B9h
  00000000100036E3: CC                 int         3
  00000000100036E4: 48 8B 40 08        mov         rax,qword ptr [rax+8]
  00000000100036E8: 48 8B 4D 10        mov         rcx,qword ptr [rbp+10h]
  00000000100036EC: 48 89 41 08        mov         qword ptr [rcx+8],rax
  00000000100036F0: E9 0A 00 00 00     jmp         00000000100036FF
  00000000100036F5: 31 C0              xor         eax,eax
  00000000100036F7: 48 8B 4D 10        mov         rcx,qword ptr [rbp+10h]
  00000000100036FB: 48 89 41 08        mov         qword ptr [rcx+8],rax
  00000000100036FF: C9                 leave
  0000000010003700: C3                 ret
  0000000010003701: 55                 push        rbp
  0000000010003702: 48 8B EC           mov         rbp,rsp
  0000000010003705: 48 89 4D 10        mov         qword ptr [rbp+10h],rcx
  0000000010003709: 48 89 55 18        mov         qword ptr [rbp+18h],rdx
  000000001000370D: 48 8B 45 10        mov         rax,qword ptr [rbp+10h]
  0000000010003711: 48 8B 40 08        mov         rax,qword ptr [rax+8]
  0000000010003715: 48 8B 4D 10        mov         rcx,qword ptr [rbp+10h]
  0000000010003719: 48 8B 09           mov         rcx,qword ptr [rcx]
  000000001000371C: 48 85 C9           test        rcx,rcx
  000000001000371F: 0F 84 05 00 00 00  je          000000001000372A
  0000000010003725: E9 08 00 00 00     jmp         0000000010003732
  000000001000372A: B0 04              mov         al,4
  000000001000372C: B9 3D 34 00 00     mov         ecx,343Dh
  0000000010003731: CC                 int         3
  0000000010003732: 48 8B 49 08        mov         rcx,qword ptr [rcx+8]
  0000000010003736: 48 3B C1           cmp         rax,rcx
  0000000010003739: 0F 8F E2 00 00 00  jg          0000000010003821
  000000001000373F: 48 8B 45 10        mov         rax,qword ptr [rbp+10h]
  0000000010003743: 48 8B 40 08        mov         rax,qword ptr [rax+8]
  0000000010003747: 48 83 C0 01        add         rax,1
  000000001000374B: 48 8B 4D 10        mov         rcx,qword ptr [rbp+10h]
  000000001000374F: 48 8B 09           mov         rcx,qword ptr [rcx]
  0000000010003752: 48 85 C9           test        rcx,rcx
  0000000010003755: 0F 84 05 00 00 00  je          0000000010003760
  000000001000375B: E9 08 00 00 00     jmp         0000000010003768
  0000000010003760: B0 04              mov         al,4
  0000000010003762: B9 5A 34 00 00     mov         ecx,345Ah
  0000000010003767: CC                 int         3
  0000000010003768: 48 8B 49 10        mov         rcx,qword ptr [rcx+10h]
  000000001000376C: 48 3B C1           cmp         rax,rcx
  000000001000376F: 0F 8E 19 00 00 00  jle         000000001000378E
  0000000010003775: 48 83 EC 20        sub         rsp,20h
  0000000010003779: 48 8B 4D 10        mov         rcx,qword ptr [rbp+10h]
  000000001000377D: 48 8B 09           mov         rcx,qword ptr [rcx]
  0000000010003780: BA 80 00 00 00     mov         edx,80h
  0000000010003785: E8 E2 FB FF FF     call        000000001000336C
  000000001000378A: 48 83 C4 20        add         rsp,20h
  000000001000378E: 48 8B 45 10        mov         rax,qword ptr [rbp+10h]
  0000000010003792: 48 8B 00           mov         rax,qword ptr [rax]
  0000000010003795: 48 85 C0           test        rax,rax
  0000000010003798: 0F 84 05 00 00 00  je          00000000100037A3
  000000001000379E: E9 08 00 00 00     jmp         00000000100037AB
  00000000100037A3: B0 04              mov         al,4
  00000000100037A5: B9 9C 34 00 00     mov         ecx,349Ch
  00000000100037AA: CC                 int         3
  00000000100037AB: 48 8B 00           mov         rax,qword ptr [rax]
  00000000100037AE: 48 8B 4D 10        mov         rcx,qword ptr [rbp+10h]
  00000000100037B2: 48 8B 49 08        mov         rcx,qword ptr [rcx+8]
  00000000100037B6: 48 03 C1           add         rax,rcx
  00000000100037B9: 0F B6 4D 18        movzx       ecx,byte ptr [rbp+18h]
  00000000100037BD: 88 08              mov         byte ptr [rax],cl
  00000000100037BF: 48 8B 45 10        mov         rax,qword ptr [rbp+10h]
  00000000100037C3: 48 83 40 08 01     add         qword ptr [rax+8],1
  00000000100037C8: 48 8B 45 10        mov         rax,qword ptr [rbp+10h]
  00000000100037CC: 48 8B 40 08        mov         rax,qword ptr [rax+8]
  00000000100037D0: 48 8B 4D 10        mov         rcx,qword ptr [rbp+10h]
  00000000100037D4: 48 8B 09           mov         rcx,qword ptr [rcx]
  00000000100037D7: 48 85 C9           test        rcx,rcx
  00000000100037DA: 0F 84 05 00 00 00  je          00000000100037E5
  00000000100037E0: E9 08 00 00 00     jmp         00000000100037ED
  00000000100037E5: B0 04              mov         al,4
  00000000100037E7: B9 CB 34 00 00     mov         ecx,34CBh
  00000000100037EC: CC                 int         3
  00000000100037ED: 48 8B 49 08        mov         rcx,qword ptr [rcx+8]
  00000000100037F1: 48 3B C1           cmp         rax,rcx
  00000000100037F4: 0F 8E 22 00 00 00  jle         000000001000381C
  00000000100037FA: 48 8B 45 10        mov         rax,qword ptr [rbp+10h]
  00000000100037FE: 48 8B 00           mov         rax,qword ptr [rax]
  0000000010003801: 48 85 C0           test        rax,rax
  0000000010003804: 0F 84 05 00 00 00  je          000000001000380F
  000000001000380A: E9 08 00 00 00     jmp         0000000010003817
  000000001000380F: B0 04              mov         al,4
  0000000010003811: B9 DC 34 00 00     mov         ecx,34DCh
  0000000010003816: CC                 int         3
  0000000010003817: 48 83 40 08 01     add         qword ptr [rax+8],1
  000000001000381C: E9 0C 00 00 00     jmp         000000001000382D
  0000000010003821: B8 01 00 00 00     mov         eax,1
  0000000010003826: 48 8B 4D 10        mov         rcx,qword ptr [rbp+10h]
  000000001000382A: 88 41 10           mov         byte ptr [rcx+10h],al
  000000001000382D: C9                 leave
  000000001000382E: C3                 ret
  000000001000382F: 55                 push        rbp
  0000000010003830: 48 8B EC           mov         rbp,rsp
  0000000010003833: 48 89 4D 10        mov         qword ptr [rbp+10h],rcx
  0000000010003837: 48 89 55 18        mov         qword ptr [rbp+18h],rdx
  000000001000383B: 48 8B 45 10        mov         rax,qword ptr [rbp+10h]
  000000001000383F: 48 8B 40 08        mov         rax,qword ptr [rax+8]
  0000000010003843: 48 8B 4D 10        mov         rcx,qword ptr [rbp+10h]
  0000000010003847: 48 8B 09           mov         rcx,qword ptr [rcx]
  000000001000384A: 48 85 C9           test        rcx,rcx
  000000001000384D: 0F 84 05 00 00 00  je          0000000010003858
  0000000010003853: E9 08 00 00 00     jmp         0000000010003860
  0000000010003858: B0 04              mov         al,4
  000000001000385A: B9 68 35 00 00     mov         ecx,3568h
  000000001000385F: CC                 int         3
  0000000010003860: 48 8B 49 08        mov         rcx,qword ptr [rcx+8]
  0000000010003864: 48 3B C1           cmp         rax,rcx
  0000000010003867: 0F 8D 42 00 00 00  jge         00000000100038AF
  000000001000386D: 48 8B 45 10        mov         rax,qword ptr [rbp+10h]
  0000000010003871: 48 8B 00           mov         rax,qword ptr [rax]
  0000000010003874: 48 85 C0           test        rax,rax
  0000000010003877: 0F 84 05 00 00 00  je          0000000010003882
  000000001000387D: E9 08 00 00 00     jmp         000000001000388A
  0000000010003882: B0 04              mov         al,4
  0000000010003884: B9 80 35 00 00     mov         ecx,3580h
  0000000010003889: CC                 int         3
  000000001000388A: 48 8B 00           mov         rax,qword ptr [rax]
  000000001000388D: 48 8B 4D 10        mov         rcx,qword ptr [rbp+10h]
  0000000010003891: 48 8B 49 08        mov         rcx,qword ptr [rcx+8]
  0000000010003895: 48 03 C1           add         rax,rcx
  0000000010003898: 0F B6 00           movzx       eax,byte ptr [rax]
  000000001000389B: 48 8B 4D 18        mov         rcx,qword ptr [rbp+18h]
  000000001000389F: 88 01              mov         byte ptr [rcx],al
  00000000100038A1: 48 8B 45 10        mov         rax,qword ptr [rbp+10h]
  00000000100038A5: 48 83 40 08 01     add         qword ptr [rax+8],1
  00000000100038AA: E9 0C 00 00 00     jmp         00000000100038BB
  00000000100038AF: B8 01 00 00 00     mov         eax,1
  00000000100038B4: 48 8B 4D 10        mov         rcx,qword ptr [rbp+10h]
  00000000100038B8: 88 41 10           mov         byte ptr [rcx+10h],al
  00000000100038BB: C9                 leave
  00000000100038BC: C3                 ret
  00000000100038BD: 55                 push        rbp
  00000000100038BE: 48 8B EC           mov         rbp,rsp
  00000000100038C1: 48 83 EC 30        sub         rsp,30h
  00000000100038C5: 48 8D 0D 2C E7 FF  lea         rcx,[0000000010001FF8h]
                    FF
  00000000100038CC: BA 08 00 00 00     mov         edx,8
  00000000100038D1: 4C 8D 05 0E E6 FF  lea         r8,[0000000010001EE6h]
                    FF
  00000000100038D8: 41 B9 0D 00 00 00  mov         r9d,0Dh
  00000000100038DE: 48 8D 05 C3 E4 FF  lea         rax,[0000000010001DA8h]
                    FF
  00000000100038E5: 48 89 44 24 20     mov         qword ptr [rsp+20h],rax
  00000000100038EA: B8 13 00 00 00     mov         eax,13h
  00000000100038EF: 48 89 44 24 28     mov         qword ptr [rsp+28h],rax
  00000000100038F4: E8 07 E7 FF FF     call        0000000010002000
  00000000100038F9: 48 83 C4 30        add         rsp,30h
  00000000100038FD: 48 83 EC 30        sub         rsp,30h
  0000000010003901: 48 8D 0D D8 E6 FF  lea         rcx,[0000000010001FE0h]
                    FF
  0000000010003908: BA 08 00 00 00     mov         edx,8
  000000001000390D: 4C 8D 05 D2 E5 FF  lea         r8,[0000000010001EE6h]
                    FF
  0000000010003914: 41 B9 0D 00 00 00  mov         r9d,0Dh
  000000001000391A: 48 8D 05 6F E4 FF  lea         rax,[0000000010001D90h]
                    FF
  0000000010003921: 48 89 44 24 20     mov         qword ptr [rsp+20h],rax
  0000000010003926: B8 0C 00 00 00     mov         eax,0Ch
  000000001000392B: 48 89 44 24 28     mov         qword ptr [rsp+28h],rax
  0000000010003930: E8 CB E6 FF FF     call        0000000010002000
  0000000010003935: 48 83 C4 30        add         rsp,30h
  0000000010003939: 48 83 EC 30        sub         rsp,30h
  000000001000393D: 48 8D 0D 94 E6 FF  lea         rcx,[0000000010001FD8h]
                    FF
  0000000010003944: BA 08 00 00 00     mov         edx,8
  0000000010003949: 4C 8D 05 96 E5 FF  lea         r8,[0000000010001EE6h]
                    FF
  0000000010003950: 41 B9 0D 00 00 00  mov         r9d,0Dh
  0000000010003956: 48 8D 05 1B E4 FF  lea         rax,[0000000010001D78h]
                    FF
  000000001000395D: 48 89 44 24 20     mov         qword ptr [rsp+20h],rax
  0000000010003962: B8 0C 00 00 00     mov         eax,0Ch
  0000000010003967: 48 89 44 24 28     mov         qword ptr [rsp+28h],rax
  000000001000396C: E8 8F E6 FF FF     call        0000000010002000
  0000000010003971: 48 83 C4 30        add         rsp,30h
  0000000010003975: 48 83 EC 30        sub         rsp,30h
  0000000010003979: 48 8D 0D 70 E6 FF  lea         rcx,[0000000010001FF0h]
                    FF
  0000000010003980: BA 08 00 00 00     mov         edx,8
  0000000010003985: 4C 8D 05 5A E5 FF  lea         r8,[0000000010001EE6h]
                    FF
  000000001000398C: 41 B9 0D 00 00 00  mov         r9d,0Dh
  0000000010003992: 48 8D 05 CB E3 FF  lea         rax,[0000000010001D64h]
                    FF
  0000000010003999: 48 89 44 24 20     mov         qword ptr [rsp+20h],rax
  000000001000399E: B8 0A 00 00 00     mov         eax,0Ah
  00000000100039A3: 48 89 44 24 28     mov         qword ptr [rsp+28h],rax
  00000000100039A8: E8 53 E6 FF FF     call        0000000010002000
  00000000100039AD: 48 83 C4 30        add         rsp,30h
  00000000100039B1: 48 83 EC 30        sub         rsp,30h
  00000000100039B5: 48 8D 0D 2C E6 FF  lea         rcx,[0000000010001FE8h]
                    FF
  00000000100039BC: BA 08 00 00 00     mov         edx,8
  00000000100039C1: 4C 8D 05 1E E5 FF  lea         r8,[0000000010001EE6h]
                    FF
  00000000100039C8: 41 B9 0D 00 00 00  mov         r9d,0Dh
  00000000100039CE: 48 8D 05 77 E3 FF  lea         rax,[0000000010001D4Ch]
                    FF
  00000000100039D5: 48 89 44 24 20     mov         qword ptr [rsp+20h],rax
  00000000100039DA: B8 0C 00 00 00     mov         eax,0Ch
  00000000100039DF: 48 89 44 24 28     mov         qword ptr [rsp+28h],rax
  00000000100039E4: E8 17 E6 FF FF     call        0000000010002000
  00000000100039E9: 48 83 C4 30        add         rsp,30h
  00000000100039ED: 48 83 EC 30        sub         rsp,30h
  00000000100039F1: 48 8D 0D D8 E5 FF  lea         rcx,[0000000010001FD0h]
                    FF
  00000000100039F8: BA 08 00 00 00     mov         edx,8
  00000000100039FD: 4C 8D 05 E2 E4 FF  lea         r8,[0000000010001EE6h]
                    FF
  0000000010003A04: 41 B9 0D 00 00 00  mov         r9d,0Dh
  0000000010003A0A: 48 8D 05 29 E3 FF  lea         rax,[0000000010001D3Ah]
                    FF
  0000000010003A11: 48 89 44 24 20     mov         qword ptr [rsp+20h],rax
  0000000010003A16: B8 09 00 00 00     mov         eax,9
  0000000010003A1B: 48 89 44 24 28     mov         qword ptr [rsp+28h],rax
  0000000010003A20: E8 DB E5 FF FF     call        0000000010002000
  0000000010003A25: 48 83 C4 30        add         rsp,30h
  0000000010003A29: 48 83 EC 30        sub         rsp,30h
  0000000010003A2D: 48 8D 0D 94 E5 FF  lea         rcx,[0000000010001FC8h]
                    FF
  0000000010003A34: BA 08 00 00 00     mov         edx,8
  0000000010003A39: 4C 8D 05 A6 E4 FF  lea         r8,[0000000010001EE6h]
                    FF
  0000000010003A40: 41 B9 0D 00 00 00  mov         r9d,0Dh
  0000000010003A46: 48 8D 05 D9 E2 FF  lea         rax,[0000000010001D26h]
                    FF
  0000000010003A4D: 48 89 44 24 20     mov         qword ptr [rsp+20h],rax
  0000000010003A52: B8 0A 00 00 00     mov         eax,0Ah
  0000000010003A57: 48 89 44 24 28     mov         qword ptr [rsp+28h],rax
  0000000010003A5C: E8 9F E5 FF FF     call        0000000010002000
  0000000010003A61: 48 83 C4 30        add         rsp,30h
  0000000010003A65: 48 83 EC 30        sub         rsp,30h
  0000000010003A69: 48 8D 0D 50 E5 FF  lea         rcx,[0000000010001FC0h]
                    FF
  0000000010003A70: BA 08 00 00 00     mov         edx,8
  0000000010003A75: 4C 8D 05 6A E4 FF  lea         r8,[0000000010001EE6h]
                    FF
  0000000010003A7C: 41 B9 0D 00 00 00  mov         r9d,0Dh
  0000000010003A82: 48 8D 05 7B E2 FF  lea         rax,[0000000010001D04h]
                    FF
  0000000010003A89: 48 89 44 24 20     mov         qword ptr [rsp+20h],rax
  0000000010003A8E: B8 11 00 00 00     mov         eax,11h
  0000000010003A93: 48 89 44 24 28     mov         qword ptr [rsp+28h],rax
  0000000010003A98: E8 63 E5 FF FF     call        0000000010002000
  0000000010003A9D: 48 83 C4 30        add         rsp,30h
  0000000010003AA1: 48 83 EC 30        sub         rsp,30h
  0000000010003AA5: 48 8D 0D 0C E5 FF  lea         rcx,[0000000010001FB8h]
                    FF
  0000000010003AAC: BA 08 00 00 00     mov         edx,8
  0000000010003AB1: 4C 8D 05 2E E4 FF  lea         r8,[0000000010001EE6h]
                    FF
  0000000010003AB8: 41 B9 0D 00 00 00  mov         r9d,0Dh
  0000000010003ABE: 48 8D 05 25 E2 FF  lea         rax,[0000000010001CEAh]
                    FF
  0000000010003AC5: 48 89 44 24 20     mov         qword ptr [rsp+20h],rax
  0000000010003ACA: B8 0D 00 00 00     mov         eax,0Dh
  0000000010003ACF: 48 89 44 24 28     mov         qword ptr [rsp+28h],rax
  0000000010003AD4: E8 27 E5 FF FF     call        0000000010002000
  0000000010003AD9: 48 83 C4 30        add         rsp,30h
  0000000010003ADD: 48 83 EC 30        sub         rsp,30h
  0000000010003AE1: 48 8D 0D C8 E4 FF  lea         rcx,[0000000010001FB0h]
                    FF
  0000000010003AE8: BA 08 00 00 00     mov         edx,8
  0000000010003AED: 4C 8D 05 F2 E3 FF  lea         r8,[0000000010001EE6h]
                    FF
  0000000010003AF4: 41 B9 0D 00 00 00  mov         r9d,0Dh
  0000000010003AFA: 48 8D 05 C9 E1 FF  lea         rax,[0000000010001CCAh]
                    FF
  0000000010003B01: 48 89 44 24 20     mov         qword ptr [rsp+20h],rax
  0000000010003B06: B8 10 00 00 00     mov         eax,10h
  0000000010003B0B: 48 89 44 24 28     mov         qword ptr [rsp+28h],rax
  0000000010003B10: E8 EB E4 FF FF     call        0000000010002000
  0000000010003B15: 48 83 C4 30        add         rsp,30h
  0000000010003B19: 48 83 EC 30        sub         rsp,30h
  0000000010003B1D: 48 8D 0D 84 E4 FF  lea         rcx,[0000000010001FA8h]
                    FF
  0000000010003B24: BA 08 00 00 00     mov         edx,8
  0000000010003B29: 4C 8D 05 B6 E3 FF  lea         r8,[0000000010001EE6h]
                    FF
  0000000010003B30: 41 B9 0D 00 00 00  mov         r9d,0Dh
  0000000010003B36: 48 8D 05 65 E1 FF  lea         rax,[0000000010001CA2h]
                    FF
  0000000010003B3D: 48 89 44 24 20     mov         qword ptr [rsp+20h],rax
  0000000010003B42: B8 14 00 00 00     mov         eax,14h
  0000000010003B47: 48 89 44 24 28     mov         qword ptr [rsp+28h],rax
  0000000010003B4C: E8 AF E4 FF FF     call        0000000010002000
  0000000010003B51: 48 83 C4 30        add         rsp,30h
  0000000010003B55: 48 83 EC 30        sub         rsp,30h
  0000000010003B59: 48 8D 0D 40 E4 FF  lea         rcx,[0000000010001FA0h]
                    FF
  0000000010003B60: BA 08 00 00 00     mov         edx,8
  0000000010003B65: 4C 8D 05 7A E3 FF  lea         r8,[0000000010001EE6h]
                    FF
  0000000010003B6C: 41 B9 0D 00 00 00  mov         r9d,0Dh
  0000000010003B72: 48 8D 05 0F E1 FF  lea         rax,[0000000010001C88h]
                    FF
  0000000010003B79: 48 89 44 24 20     mov         qword ptr [rsp+20h],rax
  0000000010003B7E: B8 0D 00 00 00     mov         eax,0Dh
  0000000010003B83: 48 89 44 24 28     mov         qword ptr [rsp+28h],rax
  0000000010003B88: E8 73 E4 FF FF     call        0000000010002000
  0000000010003B8D: 48 83 C4 30        add         rsp,30h
  0000000010003B91: 48 83 EC 30        sub         rsp,30h
  0000000010003B95: 48 8D 0D FC E3 FF  lea         rcx,[0000000010001F98h]
                    FF
  0000000010003B9C: BA 08 00 00 00     mov         edx,8
  0000000010003BA1: 4C 8D 05 3E E3 FF  lea         r8,[0000000010001EE6h]
                    FF
  0000000010003BA8: 41 B9 0D 00 00 00  mov         r9d,0Dh
  0000000010003BAE: 48 8D 05 B5 E0 FF  lea         rax,[0000000010001C6Ah]
                    FF
  0000000010003BB5: 48 89 44 24 20     mov         qword ptr [rsp+20h],rax
  0000000010003BBA: B8 0F 00 00 00     mov         eax,0Fh
  0000000010003BBF: 48 89 44 24 28     mov         qword ptr [rsp+28h],rax
  0000000010003BC4: E8 37 E4 FF FF     call        0000000010002000
  0000000010003BC9: 48 83 C4 30        add         rsp,30h
  0000000010003BCD: 48 83 EC 30        sub         rsp,30h
  0000000010003BD1: 48 8D 0D B8 E3 FF  lea         rcx,[0000000010001F90h]
                    FF
  0000000010003BD8: BA 08 00 00 00     mov         edx,8
  0000000010003BDD: 4C 8D 05 02 E3 FF  lea         r8,[0000000010001EE6h]
                    FF
  0000000010003BE4: 41 B9 0D 00 00 00  mov         r9d,0Dh
  0000000010003BEA: 48 8D 05 65 E0 FF  lea         rax,[0000000010001C56h]
                    FF
  0000000010003BF1: 48 89 44 24 20     mov         qword ptr [rsp+20h],rax
  0000000010003BF6: B8 0A 00 00 00     mov         eax,0Ah
  0000000010003BFB: 48 89 44 24 28     mov         qword ptr [rsp+28h],rax
  0000000010003C00: E8 FB E3 FF FF     call        0000000010002000
  0000000010003C05: 48 83 C4 30        add         rsp,30h
  0000000010003C09: 48 83 EC 30        sub         rsp,30h
  0000000010003C0D: 48 8D 0D 74 E3 FF  lea         rcx,[0000000010001F88h]
                    FF
  0000000010003C14: BA 08 00 00 00     mov         edx,8
  0000000010003C19: 4C 8D 05 C6 E2 FF  lea         r8,[0000000010001EE6h]
                    FF
  0000000010003C20: 41 B9 0D 00 00 00  mov         r9d,0Dh
  0000000010003C26: 48 8D 05 17 E0 FF  lea         rax,[0000000010001C44h]
                    FF
  0000000010003C2D: 48 89 44 24 20     mov         qword ptr [rsp+20h],rax
  0000000010003C32: B8 09 00 00 00     mov         eax,9
  0000000010003C37: 48 89 44 24 28     mov         qword ptr [rsp+28h],rax
  0000000010003C3C: E8 BF E3 FF FF     call        0000000010002000
  0000000010003C41: 48 83 C4 30        add         rsp,30h
  0000000010003C45: 48 83 EC 30        sub         rsp,30h
  0000000010003C49: 48 8D 0D 30 E3 FF  lea         rcx,[0000000010001F80h]
                    FF
  0000000010003C50: BA 08 00 00 00     mov         edx,8
  0000000010003C55: 4C 8D 05 8A E2 FF  lea         r8,[0000000010001EE6h]
                    FF
  0000000010003C5C: 41 B9 0D 00 00 00  mov         r9d,0Dh
  0000000010003C62: 48 8D 05 C3 DF FF  lea         rax,[0000000010001C2Ch]
                    FF
  0000000010003C69: 48 89 44 24 20     mov         qword ptr [rsp+20h],rax
  0000000010003C6E: B8 0C 00 00 00     mov         eax,0Ch
  0000000010003C73: 48 89 44 24 28     mov         qword ptr [rsp+28h],rax
  0000000010003C78: E8 83 E3 FF FF     call        0000000010002000
  0000000010003C7D: 48 83 C4 30        add         rsp,30h
  0000000010003C81: C9                 leave
  0000000010003C82: C3                 ret
  0000000010003C83: 55                 push        rbp
  0000000010003C84: 48 8B EC           mov         rbp,rsp
  0000000010003C87: 48 83 EC 20        sub         rsp,20h
  0000000010003C8B: E8 2D FC FF FF     call        00000000100038BD
  0000000010003C90: 48 83 C4 20        add         rsp,20h
  0000000010003C94: C9                 leave
  0000000010003C95: C3                 ret
  0000000010003C96: 83 FA 01           cmp         edx,1
  0000000010003C99: 0F 84 01 00 00 00  je          0000000010003CA0
  0000000010003C9F: C3                 ret
  0000000010003CA0: 56                 push        rsi
  0000000010003CA1: 57                 push        rdi
  0000000010003CA2: 48 83 EC 28        sub         rsp,28h
  0000000010003CA6: FF 15 B4 E2 FF FF  call        qword ptr [0000000010001F60h]
  0000000010003CAC: 48 89 05 8D E2 FF  mov         qword ptr [0000000010001F40h],rax
                    FF
  0000000010003CB3: E8 CB FF FF FF     call        0000000010003C83
  0000000010003CB8: B8 01 00 00 00     mov         eax,1
  0000000010003CBD: 48 83 C4 28        add         rsp,28h
  0000000010003CC1: 5F                 pop         rdi
  0000000010003CC2: 5E                 pop         rsi
  0000000010003CC3: C3                 ret

RAW DATA #2
  0000000010002000: 55 48 8B EC 48 81 EC 20 01 00 00 48 89 4D 10 48  UH.?H.? ...H.M.H
  0000000010002010: 89 55 18 4C 89 45 20 4C 89 4D 28 48 83 EC 20 48  .U.L.E L.M(H.? H
  0000000010002020: 8B 4D 20 FF 15 27 FF FF FF 48 83 C4 20 48 89 45  .M ÿ.'ÿÿÿH.Ä H.E
  0000000010002030: F8 48 8B 45 F8 48 85 C0 0F 84 BE 00 00 00 48 B8  øH.EøH.À..¾...H¸
  0000000010002040: FF FF FF FF FF FF FF FF 48 89 45 E8 48 8B 45 E8  ÿÿÿÿÿÿÿÿH.EèH.Eè
  0000000010002050: 48 83 C0 01 48 89 45 E8 48 8B 45 E8 48 81 F8 00  H.À.H.EèH.EèH.ø.
  0000000010002060: 01 00 00 0F 83 05 00 00 00 E9 08 00 00 00 B0 01  .........é....°.
  0000000010002070: B9 5B 09 00 00 CC 48 03 C5 48 8B 4D E8 48 3B 4D  ¹[...?H.ÅH.MèH;M
  0000000010002080: 38 0F 83 05 00 00 00 E9 08 00 00 00 B0 01 B9 6A  8......é....°.¹j
  0000000010002090: 09 00 00 CC 48 C1 E1 01 48 8B 55 30 48 03 CA 0F  ...?HÁá.H.U0H.Ê.
  00000000100020A0: B7 09 88 88 E8 FE FF FF 48 8B 45 E8 48 3B 45 38  ·...è?ÿÿH.EèH;E8
  00000000100020B0: 0F 83 05 00 00 00 E9 08 00 00 00 B0 01 B9 79 09  ......é....°.¹y.
  00000000100020C0: 00 00 CC 48 C1 E0 01 48 8B 4D 30 48 03 C1 0F B7  ..?HÁà.H.M0H.Á.·
  00000000100020D0: 00 66 85 C0 0F 85 72 FF FF FF 48 83 EC 20 48 8B  .f.À..rÿÿÿH.? H.
  00000000100020E0: 4D F8 48 8D 95 E8 FE FF FF FF 15 69 FE FF FF 48  MøH..è?ÿÿÿ.i?ÿÿH
  00000000100020F0: 83 C4 20 48 89 45 F0 E9 06 00 00 00 31 C0 48 89  .Ä H.E?é....1ÀH.
  0000000010002100: 45 F0 48 8B 45 10 48 8B 4D F0 48 89 08 C9 C3 55  E?H.E.H.M?H..É?U
  0000000010002110: 48 8B EC 48 89 4D 10 48 8B 45 10 B9 FF FF FF FF  H.?H.M.H.E.¹ÿÿÿÿ
  0000000010002120: 48 23 C1 C9 C3 55 48 8B EC 48 89 4D 10 48 8B 45  H#ÁÉ?UH.?H.M.H.E
  0000000010002130: 10 48 81 E0 FF FF 00 00 C9 C3 55 48 8B EC 48 89  .H.àÿÿ..É?UH.?H.
  0000000010002140: 4D 10 48 8B 45 10 48 C1 E0 20 48 C1 F8 20 C9 C3  M.H.E.HÁà HÁø É?
  0000000010002150: 55 48 8B EC 48 83 EC 10 48 89 4D 10 48 89 55 18  UH.?H.?.H.M.H.U.
  0000000010002160: 48 8B 05 91 FE FF FF 50 48 83 EC 28 48 8B 4D 10  H...?ÿÿPH.?(H.M.
  0000000010002170: 48 8B 44 24 28 FF D0 48 83 C4 30 48 89 45 F8 48  H.D$(ÿ?H.Ä0H.EøH
  0000000010002180: 8B 45 F8 B9 FF FF FF FF 48 3B C1 0F 95 C0 0F B6  .Eø¹ÿÿÿÿH;Á..À.¶
  0000000010002190: C0 C9 C3 55 48 8B EC 48 89 4D 10 48 89 55 18 4C  ÀÉ?UH.?H.M.H.U.L
  00000000100021A0: 89 45 20 48 8B 05 36 FE FF FF 50 48 83 EC 38 48  .E H..6?ÿÿPH.?8H
  00000000100021B0: 8B 4D 18 BA 00 00 00 C0 45 31 C0 45 31 C9 B8 03  .M.º...ÀE1ÀE1É¸.
  00000000100021C0: 00 00 00 48 89 44 24 20 31 C0 48 89 44 24 28 31  ...H.D$ 1ÀH.D$(1
  00000000100021D0: C0 48 89 44 24 30 48 8B 44 24 38 FF D0 48 83 C4  ÀH.D$0H.D$8ÿ?H.Ä
  00000000100021E0: 40 48 8B 4D 10 48 89 01 C9 C3 55 48 8B EC 48 89  @H.M.H..É?UH.?H.
  00000000100021F0: 4D 10 48 89 55 18 4C 89 45 20 48 8B 05 DF FD FF  M.H.U.L.E H..ß?ÿ
  0000000010002200: FF 50 48 83 EC 38 48 8B 4D 18 BA 00 00 00 C0 45  ÿPH.?8H.M.º...ÀE
  0000000010002210: 31 C0 45 31 C9 B8 02 00 00 00 48 89 44 24 20 31  1ÀE1É¸....H.D$ 1
  0000000010002220: C0 48 89 44 24 28 31 C0 48 89 44 24 30 48 8B 44  ÀH.D$(1ÀH.D$0H.D
  0000000010002230: 24 38 FF D0 48 83 C4 40 48 8B 4D 10 48 89 01 C9  $8ÿ?H.Ä@H.M.H..É
  0000000010002240: C3 55 48 8B EC 48 83 EC 10 48 89 4D 10 48 8B 05  ?UH.?H.?.H.M.H..
  0000000010002250: 84 FD FF FF 50 48 83 EC 28 48 8B 4D 10 48 8B 09  .?ÿÿPH.?(H.M.H..
  0000000010002260: 48 8B 44 24 28 FF D0 48 83 C4 30 48 89 45 F8 31  H.D$(ÿ?H.Ä0H.Eø1
  0000000010002270: C0 48 8B 4D 10 48 89 01 C9 C3 55 48 8B EC 48 83  ÀH.M.H..É?UH.?H.
  0000000010002280: EC 10 48 89 4D 10 48 89 55 18 4C 89 45 20 4C 89  ?.H.M.H.U.L.E L.
  0000000010002290: 4D 28 48 8B 05 57 FD FF FF 50 48 83 EC 28 48 8B  M(H..W?ÿÿPH.?(H.
  00000000100022A0: 4D 10 48 8B 55 20 48 8B 44 24 28 FF D0 48 83 C4  M.H.U H.D$(ÿ?H.Ä
  00000000100022B0: 30 48 89 45 F8 C9 C3 55 48 8B EC 48 83 EC 10 48  0H.EøÉ?UH.?H.?.H
  00000000100022C0: 89 4D 10 48 89 55 18 48 8B 05 1A FD FF FF 50 48  .M.H.U.H...?ÿÿPH
  00000000100022D0: 83 EC 28 48 8B 4D 10 48 8B 44 24 28 FF D0 48 83  .?(H.M.H.D$(ÿ?H.
  00000000100022E0: C4 30 48 89 45 F8 C9 C3 55 48 8B EC 48 83 EC 20  Ä0H.EøÉ?UH.?H.? 
  00000000100022F0: 48 89 4D 10 48 89 55 18 48 8B 05 D1 FC FF FF 50  H.M.H.U.H..ÑüÿÿP
  0000000010002300: 48 83 EC 28 48 8B 4D 10 48 8B 09 48 8D 55 F7 41  H.?(H.M.H..H.U÷A
  0000000010002310: B8 01 00 00 00 4C 8D 4D E8 31 C0 48 89 44 24 20  ¸....L.Mè1ÀH.D$ 
  0000000010002320: 48 8B 44 24 28 FF D0 48 83 C4 30 48 89 45 F8 48  H.D$(ÿ?H.Ä0H.EøH
  0000000010002330: 8B 45 F8 48 85 C0 0F 84 1B 00 00 00 48 83 EC 20  .EøH.À......H.? 
  0000000010002340: 48 8B 4D E8 E8 C6 FD FF FF 48 83 C4 20 48 83 F8  H.MèèÆ?ÿÿH.Ä H.ø
  0000000010002350: 01 0F 84 16 00 00 00 48 B8 FF FF FF FF FF FF FF  .......H¸ÿÿÿÿÿÿÿ
  0000000010002360: FF 48 8B 4D 18 48 89 01 E9 0B 00 00 00 0F B6 45  ÿH.M.H..é.....¶E
  0000000010002370: F7 48 8B 4D 18 48 89 01 C9 C3 55 48 8B EC 48 83  ÷H.M.H..É?UH.?H.
  0000000010002380: EC 20 48 89 4D 10 48 89 55 18 48 8B 05 3F FC FF  ? H.M.H.U.H..?üÿ
  0000000010002390: FF 50 48 83 EC 28 48 8B 4D 10 48 8B 09 48 8D 55  ÿPH.?(H.M.H..H.U
  00000000100023A0: F0 41 B8 02 00 00 00 4C 8D 4D E8 31 C0 48 89 44  ?A¸....L.Mè1ÀH.D
  00000000100023B0: 24 20 48 8B 44 24 28 FF D0 48 83 C4 30 48 89 45  $ H.D$(ÿ?H.Ä0H.E
  00000000100023C0: F8 48 8B 45 F8 48 85 C0 0F 84 1B 00 00 00 48 83  øH.EøH.À......H.
  00000000100023D0: EC 20 48 8B 4D E8 E8 34 FD FF FF 48 83 C4 20 48  ? H.Mèè4?ÿÿH.Ä H
  00000000100023E0: 83 F8 02 0F 84 16 00 00 00 48 B8 FF FF FF FF FF  .ø.......H¸ÿÿÿÿÿ
  00000000100023F0: FF FF FF 48 8B 4D 18 48 89 01 E9 18 00 00 00 48  ÿÿÿH.M.H..é....H
  0000000010002400: 83 EC 20 48 8B 4D F0 E8 19 FD FF FF 48 83 C4 20  .? H.M?è.?ÿÿH.Ä 
  0000000010002410: 48 8B 4D 18 48 89 01 C9 C3 55 48 8B EC 48 83 EC  H.M.H..É?UH.?H.?
  0000000010002420: 10 48 89 4D 10 48 89 55 18 4C 89 45 20 48 B8 FF  .H.M.H.U.L.E H¸ÿ
  0000000010002430: FF FF FF FF FF FF FF 48 89 45 F8 31 C0 48 89 45  ÿÿÿÿÿÿÿH.Eø1ÀH.E
  0000000010002440: F0 48 83 45 F8 01 48 83 EC 20 48 8B 4D 10 48 8D  ?H.Eø.H.? H.M.H.
  0000000010002450: 55 F0 E8 23 FF FF FF 48 83 C4 20 48 8B 45 F0 48  U?è#ÿÿÿH.Ä H.E?H
  0000000010002460: 83 F8 FF 0F 85 06 00 00 00 31 C0 48 89 45 F0 48  .øÿ......1ÀH.E?H
  0000000010002470: 8B 45 F8 48 3B 45 20 0F 83 05 00 00 00 E9 08 00  .EøH;E ......é..
  0000000010002480: 00 00 B0 01 B9 5E 13 00 00 CC 48 C1 E0 01 48 8B  ..°.¹^...?HÁà.H.
  0000000010002490: 4D 18 48 03 C1 0F B7 4D F0 66 89 08 48 8B 45 F0  M.H.Á.·M?f..H.E?
  00000000100024A0: 48 85 C0 0F 85 98 FF FF FF C9 C3 55 48 8B EC 48  H.À...ÿÿÿÉ?UH.?H
  00000000100024B0: 83 EC 20 48 89 4D 10 48 89 55 18 48 8B 05 0E FB  .? H.M.H.U.H...û
  00000000100024C0: FF FF 50 48 83 EC 28 48 8B 4D 10 48 8B 09 48 8D  ÿÿPH.?(H.M.H..H.
  00000000100024D0: 55 F0 41 B8 04 00 00 00 4C 8D 4D E8 31 C0 48 89  U?A¸....L.Mè1ÀH.
  00000000100024E0: 44 24 20 48 8B 44 24 28 FF D0 48 83 C4 30 48 89  D$ H.D$(ÿ?H.Ä0H.
  00000000100024F0: 45 F8 48 8B 45 F8 48 85 C0 0F 84 1B 00 00 00 48  EøH.EøH.À......H
  0000000010002500: 83 EC 20 48 8B 4D E8 E8 03 FC FF FF 48 83 C4 20  .? H.Mèè.üÿÿH.Ä 
  0000000010002510: 48 83 F8 04 0F 84 16 00 00 00 48 B8 FF FF FF FF  H.ø.......H¸ÿÿÿÿ
  0000000010002520: FF FF FF FF 48 8B 4D 18 48 89 01 E9 18 00 00 00  ÿÿÿÿH.M.H..é....
  0000000010002530: 48 83 EC 20 48 8B 4D F0 E8 D2 FB FF FF 48 83 C4  H.? H.M?è?ûÿÿH.Ä
  0000000010002540: 20 48 8B 4D 18 48 89 01 C9 C3 55 48 8B EC 48 83   H.M.H..É?UH.?H.
  0000000010002550: EC 20 48 89 4D 10 48 89 55 18 48 8B 05 6F FA FF  ? H.M.H.U.H..oúÿ
  0000000010002560: FF 50 48 83 EC 28 48 8B 4D 10 48 8B 09 48 8D 55  ÿPH.?(H.M.H..H.U
  0000000010002570: E8 41 B8 08 00 00 00 4C 8D 4D F0 31 C0 48 89 44  èA¸....L.M?1ÀH.D
  0000000010002580: 24 20 48 8B 44 24 28 FF D0 48 83 C4 30 48 89 45  $ H.D$(ÿ?H.Ä0H.E
  0000000010002590: F8 48 8B 45 E8 48 8B 4D 18 48 89 01 C9 C3 55 48  øH.EèH.M.H..É?UH
  00000000100025A0: 8B EC 48 83 EC 10 48 89 4D 10 48 89 55 18 4C 89  .?H.?.H.M.H.U.L.
  00000000100025B0: 45 20 4C 89 4D 28 48 8B 05 13 FA FF FF 50 48 83  E L.M(H...úÿÿPH.
  00000000100025C0: EC 28 48 8B 4D 10 48 8B 09 48 8B 55 18 4C 8B 45  ?(H.M.H..H.U.L.E
  00000000100025D0: 20 4C 8D 4D F0 31 C0 48 89 44 24 20 48 8B 44 24   L.M?1ÀH.D$ H.D$
  00000000100025E0: 28 FF D0 48 83 C4 30 48 89 45 F8 48 83 EC 20 48  (ÿ?H.Ä0H.EøH.? H
  00000000100025F0: 8B 4D F0 E8 17 FB FF FF 48 83 C4 20 48 8B 4D 28  .M?è.ûÿÿH.Ä H.M(
  0000000010002600: 48 89 01 C9 C3 55 48 8B EC 48 83 EC 10 48 89 4D  H..É?UH.?H.?.H.M
  0000000010002610: 10 48 89 55 18 48 8B 05 AC F9 FF FF 50 48 83 EC  .H.U.H..¬ùÿÿPH.?
  0000000010002620: 28 48 8B 4D 10 48 8B 09 48 8D 55 18 41 B8 01 00  (H.M.H..H.U.A¸..
  0000000010002630: 00 00 4C 8D 4D F0 31 C0 48 89 44 24 20 48 8B 44  ..L.M?1ÀH.D$ H.D
  0000000010002640: 24 28 FF D0 48 83 C4 30 48 89 45 F8 C9 C3 55 48  $(ÿ?H.Ä0H.EøÉ?UH
  0000000010002650: 8B EC 48 83 EC 10 48 89 4D 10 48 89 55 18 48 8B  .?H.?.H.M.H.U.H.
  0000000010002660: 05 63 F9 FF FF 50 48 83 EC 28 48 8B 4D 10 48 8B  .cùÿÿPH.?(H.M.H.
  0000000010002670: 09 48 8D 55 18 41 B8 02 00 00 00 4C 8D 4D F0 31  .H.U.A¸....L.M?1
  0000000010002680: C0 48 89 44 24 20 48 8B 44 24 28 FF D0 48 83 C4  ÀH.D$ H.D$(ÿ?H.Ä
  0000000010002690: 30 48 89 45 F8 C9 C3 55 48 8B EC 48 83 EC 10 48  0H.EøÉ?UH.?H.?.H
  00000000100026A0: 89 4D 10 48 89 55 18 4C 89 45 20 48 B8 FF FF FF  .M.H.U.L.E H¸ÿÿÿ
  00000000100026B0: FF FF FF FF FF 48 89 45 F8 31 C0 48 89 45 F0 48  ÿÿÿÿÿH.Eø1ÀH.E?H
  00000000100026C0: 83 45 F8 01 48 83 EC 20 48 8B 4D 10 48 8B 55 F8  .Eø.H.? H.M.H.Uø
  00000000100026D0: 48 3B 55 20 0F 83 05 00 00 00 E9 08 00 00 00 B0  H;U ......é....°
  00000000100026E0: 01 B9 06 19 00 00 CC 48 C1 E2 01 4C 8B 45 18 49  .¹....?HÁâ.L.E.I
  00000000100026F0: 03 D0 0F B7 12 E8 54 FF FF FF 48 83 C4 20 48 8B  .?.·.èTÿÿÿH.Ä H.
  0000000010002700: 45 F8 48 3B 45 20 0F 83 05 00 00 00 E9 08 00 00  EøH;E ......é...
  0000000010002710: 00 B0 01 B9 15 19 00 00 CC 48 C1 E0 01 48 8B 4D  .°.¹....?HÁà.H.M
  0000000010002720: 18 48 03 C1 0F B7 00 66 85 C0 0F 85 8F FF FF FF  .H.Á.·.f.À...ÿÿÿ
  0000000010002730: C9 C3 55 48 8B EC 48 83 EC 10 48 89 4D 10 48 89  É?UH.?H.?.H.M.H.
  0000000010002740: 55 18 4C 89 45 20 48 B8 FF FF FF FF FF FF FF FF  U.L.E H¸ÿÿÿÿÿÿÿÿ
  0000000010002750: 48 89 45 F8 31 C0 48 89 45 F0 48 83 45 F8 01 48  H.Eø1ÀH.E?H.Eø.H
  0000000010002760: 83 EC 20 48 8B 4D 10 48 8B 55 F8 48 3B 55 20 0F  .? H.M.H.UøH;U .
  0000000010002770: 83 05 00 00 00 E9 08 00 00 00 B0 01 B9 BF 19 00  .....é....°.¹¿..
  0000000010002780: 00 CC 48 C1 E2 01 4C 8B 45 18 49 03 D0 0F B7 12  .?HÁâ.L.E.I.?.·.
  0000000010002790: E8 70 FE FF FF 48 83 C4 20 48 8B 45 F8 48 3B 45  èp?ÿÿH.Ä H.EøH;E
  00000000100027A0: 20 0F 83 05 00 00 00 E9 08 00 00 00 B0 01 B9 CE   ......é....°.¹Î
  00000000100027B0: 19 00 00 CC 48 C1 E0 01 48 8B 4D 18 48 03 C1 0F  ...?HÁà.H.M.H.Á.
  00000000100027C0: B7 00 66 85 C0 0F 85 8F FF FF FF C9 C3 55 48 8B  ·.f.À...ÿÿÿÉ?UH.
  00000000100027D0: EC 48 83 EC 10 48 89 4D 10 48 89 55 18 48 8B 05  ?H.?.H.M.H.U.H..
  00000000100027E0: E4 F7 FF FF 50 48 83 EC 28 48 8B 4D 10 48 8B 09  ä÷ÿÿPH.?(H.M.H..
  00000000100027F0: 48 8D 55 18 41 B8 04 00 00 00 4C 8D 4D F0 31 C0  H.U.A¸....L.M?1À
  0000000010002800: 48 89 44 24 20 48 8B 44 24 28 FF D0 48 83 C4 30  H.D$ H.D$(ÿ?H.Ä0
  0000000010002810: 48 89 45 F8 C9 C3 55 48 8B EC 48 83 EC 10 48 89  H.EøÉ?UH.?H.?.H.
  0000000010002820: 4D 10 48 89 55 18 48 8B 05 9B F7 FF FF 50 48 83  M.H.U.H...÷ÿÿPH.
  0000000010002830: EC 28 48 8B 4D 10 48 8B 09 48 8D 55 18 41 B8 08  ?(H.M.H..H.U.A¸.
  0000000010002840: 00 00 00 4C 8D 4D F0 31 C0 48 89 44 24 20 48 8B  ...L.M?1ÀH.D$ H.
  0000000010002850: 44 24 28 FF D0 48 83 C4 30 48 89 45 F8 C9 C3 55  D$(ÿ?H.Ä0H.EøÉ?U
  0000000010002860: 48 8B EC 48 83 EC 10 48 89 4D 10 48 89 55 18 4C  H.?H.?.H.M.H.U.L
  0000000010002870: 89 45 20 4C 89 4D 28 48 8B 05 4A F7 FF FF 50 48  .E L.M(H..J÷ÿÿPH
  0000000010002880: 83 EC 28 48 8B 4D 10 48 8B 09 48 8B 55 18 4C 8B  .?(H.M.H..H.U.L.
  0000000010002890: 45 20 4C 8D 4D F0 31 C0 48 89 44 24 20 48 8B 44  E L.M?1ÀH.D$ H.D
  00000000100028A0: 24 28 FF D0 48 83 C4 30 48 89 45 F8 48 83 EC 20  $(ÿ?H.Ä0H.EøH.? 
  00000000100028B0: 48 8B 4D F0 E8 56 F8 FF FF 48 83 C4 20 48 8B 4D  H.M?èVøÿÿH.Ä H.M
  00000000100028C0: 28 48 89 01 C9 C3 55 48 8B EC 48 83 EC 10 48 89  (H..É?UH.?H.?.H.
  00000000100028D0: 4D 10 48 89 55 18 4C 89 45 20 48 8B 05 E7 F6 FF  M.H.U.L.E H..çöÿ
  00000000100028E0: FF 50 48 83 EC 28 48 8B 4D 10 48 8B 09 48 8B 55  ÿPH.?(H.M.H..H.U
  00000000100028F0: 18 4C 8B 45 20 4D 8B 00 4C 8D 4D F0 31 C0 48 89  .L.E M..L.M?1ÀH.
  0000000010002900: 44 24 20 48 8B 44 24 28 FF D0 48 83 C4 30 48 89  D$ H.D$(ÿ?H.Ä0H.
  0000000010002910: 45 F8 48 83 EC 20 48 8B 4D F0 E8 F0 F7 FF FF 48  EøH.? H.M?è?÷ÿÿH
  0000000010002920: 83 C4 20 48 8B 4D 20 48 89 01 C9 C3 55 48 8B EC  .Ä H.M H..É?UH.?
  0000000010002930: 48 83 EC 20 48 89 4D 10 31 C0 48 89 45 F0 48 8B  H.? H.M.1ÀH.E?H.
  0000000010002940: 05 7B F6 FF FF 50 48 83 EC 28 48 8B 4D 10 48 8B  .{öÿÿPH.?(H.M.H.
  0000000010002950: 09 48 8B 55 F0 4C 8D 45 E8 41 B9 01 00 00 00 48  .H.U?L.EèA¹....H
  0000000010002960: 8B 44 24 28 FF D0 48 83 C4 30 48 89 45 F8 48 8B  .D$(ÿ?H.Ä0H.EøH.
  0000000010002970: 45 E8 C9 C3 55 48 8B EC 48 83 EC 20 48 89 4D 10  EèÉ?UH.?H.? H.M.
  0000000010002980: 48 89 55 18 48 8B 45 18 48 89 45 F0 48 8B 05 2D  H.U.H.E.H.E?H..-
  0000000010002990: F6 FF FF 50 48 83 EC 28 48 8B 4D 10 48 8B 09 48  öÿÿPH.?(H.M.H..H
  00000000100029A0: 8B 55 F0 4C 8D 45 E8 45 31 C9 48 8B 44 24 28 FF  .U?L.EèE1ÉH.D$(ÿ
  00000000100029B0: D0 48 83 C4 30 48 89 45 F8 C9 C3 55 48 8B EC 48  ?H.Ä0H.EøÉ?UH.?H
  00000000100029C0: 83 EC 20 48 89 4D 10 48 89 55 18 48 8B 45 18 48  .? H.M.H.U.H.E.H
  00000000100029D0: 89 45 F0 48 8B 05 E6 F5 FF FF 50 48 83 EC 28 48  .E?H..æ?ÿÿPH.?(H
  00000000100029E0: 8B 4D 10 48 8B 09 48 8B 55 F0 4C 8D 45 E8 41 B9  .M.H..H.U?L.EèA¹
  00000000100029F0: 01 00 00 00 48 8B 44 24 28 FF D0 48 83 C4 30 48  ....H.D$(ÿ?H.Ä0H
  0000000010002A00: 89 45 F8 C9 C3 55 48 8B EC 48 83 EC 20 48 89 4D  .EøÉ?UH.?H.? H.M
  0000000010002A10: 10 48 8B 05 90 F5 FF FF 50 48 83 EC 48 B9 E9 FD  .H...?ÿÿPH.?H¹é?
  0000000010002A20: 00 00 31 D2 4C 8D 45 10 41 B9 01 00 00 00 48 8D  ..1?L.E.A¹....H.
  0000000010002A30: 45 F8 48 89 44 24 20 31 C0 48 89 44 24 28 31 C0  EøH.D$ 1ÀH.D$(1À
  0000000010002A40: 48 89 44 24 30 31 C0 48 89 44 24 38 48 8B 44 24  H.D$01ÀH.D$8H.D$
  0000000010002A50: 48 FF D0 48 83 C4 50 48 89 45 F0 48 8B 45 F0 48  Hÿ?H.ÄPH.E?H.E?H
  0000000010002A60: 83 F8 08 0F 8F 9E 00 00 00 48 8B 05 38 F5 FF FF  .ø.......H..8?ÿÿ
  0000000010002A70: 50 48 83 EC 48 B9 E9 FD 00 00 31 D2 4C 8D 45 10  PH.?H¹é?..1?L.E.
  0000000010002A80: 41 B9 01 00 00 00 48 8D 45 F8 48 89 44 24 20 48  A¹....H.EøH.D$ H
  0000000010002A90: 8B 45 F0 48 89 44 24 28 31 C0 48 89 44 24 30 31  .E?H.D$(1ÀH.D$01
  0000000010002AA0: C0 48 89 44 24 38 48 8B 44 24 48 FF D0 48 83 C4  ÀH.D$8H.D$Hÿ?H.Ä
  0000000010002AB0: 50 48 89 45 F0 48 8B 05 0C F5 FF FF 50 48 83 EC  PH.E?H...?ÿÿPH.?
  0000000010002AC0: 28 48 8B 0D D8 F4 FF FF 51 48 83 EC 28 48 B9 F5  (H..ØôÿÿQH.?(H¹?
  0000000010002AD0: FF FF FF FF FF FF FF 48 8B 44 24 28 FF D0 48 83  ÿÿÿÿÿÿÿH.D$(ÿ?H.
  0000000010002AE0: C4 30 48 8B C8 48 8D 55 F8 4C 8B 45 F0 4C 8D 4D  Ä0H.ÈH.UøL.E?L.M
  0000000010002AF0: E0 31 C0 48 89 44 24 20 48 8B 44 24 28 FF D0 48  à1ÀH.D$ H.D$(ÿ?H
  0000000010002B00: 83 C4 30 48 89 45 E8 C9 C3 55 48 8B EC 48 81 EC  .Ä0H.EèÉ?UH.?H.?
  0000000010002B10: 20 01 00 00 48 89 4D 10 48 89 55 18 31 C0 48 89   ...H.M.H.U.1ÀH.
  0000000010002B20: 85 F8 FE FF FF 48 8B 85 F8 FE FF FF 48 3B 45 18  .ø?ÿÿH..ø?ÿÿH;E.
  0000000010002B30: 0F 83 05 00 00 00 E9 08 00 00 00 B0 01 B9 06 25  ......é....°.¹.%
  0000000010002B40: 00 00 CC 48 C1 E0 01 48 8B 4D 10 48 03 C1 0F B7  ..?HÁà.H.M.H.Á.·
  0000000010002B50: 00 66 85 C0 0F 84 0D 00 00 00 48 83 85 F8 FE FF  .f.À......H..ø?ÿ
  0000000010002B60: FF 01 E9 BE FF FF FF 48 8B 05 3A F4 FF FF 50 48  ÿ.é¾ÿÿÿH..:ôÿÿPH
  0000000010002B70: 83 EC 48 B9 E9 FD 00 00 31 D2 4C 8B 45 10 4C 8B  .?H¹é?..1?L.E.L.
  0000000010002B80: 8D F8 FE FF FF 48 8D 85 00 FF FF FF 48 89 44 24  .ø?ÿÿH...ÿÿÿH.D$
  0000000010002B90: 20 31 C0 48 89 44 24 28 31 C0 48 89 44 24 30 31   1ÀH.D$(1ÀH.D$01
  0000000010002BA0: C0 48 89 44 24 38 48 8B 44 24 48 FF D0 48 83 C4  ÀH.D$8H.D$Hÿ?H.Ä
  0000000010002BB0: 50 48 89 85 F0 FE FF FF 48 8B 85 F0 FE FF FF 48  PH..??ÿÿH..??ÿÿH
  0000000010002BC0: 81 F8 00 01 00 00 0F 8F B4 00 00 00 48 8B 05 D5  .ø......´...H..?
  0000000010002BD0: F3 FF FF 50 48 83 EC 48 B9 E9 FD 00 00 31 D2 4C  óÿÿPH.?H¹é?..1?L
  0000000010002BE0: 8B 45 10 4C 8B 8D F8 FE FF FF 48 8D 85 00 FF FF  .E.L..ø?ÿÿH...ÿÿ
  0000000010002BF0: FF 48 89 44 24 20 48 8B 85 F0 FE FF FF 48 89 44  ÿH.D$ H..??ÿÿH.D
  0000000010002C00: 24 28 31 C0 48 89 44 24 30 31 C0 48 89 44 24 38  $(1ÀH.D$01ÀH.D$8
  0000000010002C10: 48 8B 44 24 48 FF D0 48 83 C4 50 48 89 85 F0 FE  H.D$Hÿ?H.ÄPH..??
  0000000010002C20: FF FF 48 8B 05 9F F3 FF FF 50 48 83 EC 28 48 8B  ÿÿH...óÿÿPH.?(H.
  0000000010002C30: 0D 6B F3 FF FF 51 48 83 EC 28 48 B9 F5 FF FF FF  .kóÿÿQH.?(H¹?ÿÿÿ
  0000000010002C40: FF FF FF FF 48 8B 44 24 28 FF D0 48 83 C4 30 48  ÿÿÿÿH.D$(ÿ?H.Ä0H
  0000000010002C50: 8B C8 48 8D 95 00 FF FF FF 4C 8B 85 F0 FE FF FF  .ÈH...ÿÿÿL..??ÿÿ
  0000000010002C60: 4C 8D 8D E0 FE FF FF 31 C0 48 89 44 24 20 48 8B  L..à?ÿÿ1ÀH.D$ H.
  0000000010002C70: 44 24 28 FF D0 48 83 C4 30 48 89 85 E8 FE FF FF  D$(ÿ?H.Ä0H..è?ÿÿ
  0000000010002C80: C9 C3 55 48 8B EC 48 83 EC 20 B8 0D 00 00 00 88  É?UH.?H.? ¸.....
  0000000010002C90: 45 FE B8 0A 00 00 00 88 45 FF 48 8B 05 27 F3 FF  E?¸.....EÿH..'óÿ
  0000000010002CA0: FF 50 48 83 EC 28 48 8B 0D F3 F2 FF FF 51 48 83  ÿPH.?(H..ó?ÿÿQH.
  0000000010002CB0: EC 28 48 B9 F5 FF FF FF FF FF FF FF 48 8B 44 24  ?(H¹?ÿÿÿÿÿÿÿH.D$
  0000000010002CC0: 28 FF D0 48 83 C4 30 48 8B C8 48 8D 55 FE 41 B8  (ÿ?H.Ä0H.ÈH.U?A¸
  0000000010002CD0: 02 00 00 00 4C 8D 4D E8 31 C0 48 89 44 24 20 48  ....L.Mè1ÀH.D$ H
  0000000010002CE0: 8B 44 24 28 FF D0 48 83 C4 30 48 89 45 F0 C9 C3  .D$(ÿ?H.Ä0H.E?É?
  0000000010002CF0: 55 48 8B EC 48 81 EC A0 00 00 00 56 57 48 89 4D  UH.?H.?....VWH.M
  0000000010002D00: 10 48 8B 45 10 48 B9 00 00 00 00 00 00 00 80 48  .H.E.H¹........H
  0000000010002D10: 3B C1 0F 84 9E 02 00 00 31 C0 48 89 85 70 FF FF  ;Á......1ÀH..pÿÿ
  0000000010002D20: FF 31 C0 48 89 85 68 FF FF FF 48 8B 45 10 48 85  ÿ1ÀH..hÿÿÿH.E.H.
  0000000010002D30: C0 0F 8D 18 00 00 00 B8 01 00 00 00 88 45 FF 48  À......¸.....EÿH
  0000000010002D40: 8B 45 10 48 F7 D8 48 89 45 10 E9 05 00 00 00 31  .E.H÷ØH.E.é....1
  0000000010002D50: C0 88 45 FF 48 8B 85 70 FF FF FF 48 83 F8 20 0F  À.EÿH..pÿÿÿH.ø .
  0000000010002D60: 83 05 00 00 00 E9 08 00 00 00 B0 01 B9 D4 28 00  .....é....°.¹Ô(.
  0000000010002D70: 00 CC 48 C1 E0 01 48 03 C5 48 8B 4D 10 BA 0A 00  .?HÁà.H.ÅH.M.º..
  0000000010002D80: 00 00 4C 8B C0 4C 8B CA 48 8B C1 48 99 48 85 C0  ..L.ÀL.ÊH.ÁH.H.À
  0000000010002D90: 0F 88 08 00 00 00 49 F7 F9 E9 0F 00 00 00 49 F7  ......I÷ùé....I÷
  0000000010002DA0: F9 48 85 D2 0F 84 03 00 00 00 49 03 D1 48 8B CA  ùH.?......I.ÑH.Ê
  0000000010002DB0: 49 8B C0 48 83 C1 30 66 89 48 BE 48 83 85 70 FF  I.ÀH.Á0f.H¾H..pÿ
  0000000010002DC0: FF FF 01 48 8B 45 10 B9 0A 00 00 00 48 99 48 85  ÿÿ.H.E.¹....H.H.
  0000000010002DD0: C0 0F 88 08 00 00 00 48 F7 F9 E9 10 00 00 00 48  À......H÷ùé....H
  0000000010002DE0: F7 F9 48 85 D2 0F 84 04 00 00 00 48 83 E8 01 48  ÷ùH.?......H.è.H
  0000000010002DF0: 89 45 10 48 8B 45 10 48 85 C0 0F 85 54 FF FF FF  .E.H.E.H.À..Tÿÿÿ
  0000000010002E00: 0F B6 45 FF 85 C0 0F 85 CB 00 00 00 48 8B 85 68  .¶Eÿ.À..Ë...H..h
  0000000010002E10: FF FF FF 48 8B 8D 70 FF FF FF 48 3B C1 0F 8D 81  ÿÿÿH..pÿÿÿH;Á...
  0000000010002E20: 00 00 00 48 8B 85 68 FF FF FF 48 83 F8 20 0F 8D  ...H..hÿÿÿH.ø ..
  0000000010002E30: 70 00 00 00 48 8B 85 68 FF FF FF 48 83 F8 20 0F  p...H..hÿÿÿH.ø .
  0000000010002E40: 83 05 00 00 00 E9 08 00 00 00 B0 01 B9 5B 29 00  .....é....°.¹[).
  0000000010002E50: 00 CC 48 C1 E0 01 48 03 C5 48 8B 8D 70 FF FF FF  .?HÁà.H.ÅH..pÿÿÿ
  0000000010002E60: 48 83 E9 01 48 8B 95 68 FF FF FF 48 2B CA 48 83  H.é.H..hÿÿÿH+ÊH.
  0000000010002E70: F9 20 0F 83 05 00 00 00 E9 08 00 00 00 B0 01 B9  ù ......é....°.¹
  0000000010002E80: 67 29 00 00 CC 48 C1 E1 01 48 03 CD 0F B7 49 BE  g)..?HÁá.H.Í.·I¾
  0000000010002E90: 66 89 88 7E FF FF FF 48 83 85 68 FF FF FF 01 E9  f..~ÿÿÿH..hÿÿÿ.é
  0000000010002EA0: 68 FF FF FF 48 8B 85 68 FF FF FF 48 83 F8 20 0F  hÿÿÿH..hÿÿÿH.ø .
  0000000010002EB0: 83 05 00 00 00 E9 08 00 00 00 B0 01 B9 83 29 00  .....é....°.¹.).
  0000000010002EC0: 00 CC 48 C1 E0 01 48 03 C5 31 C9 66 89 88 7E FF  .?HÁà.H.Å1Éf..~ÿ
  0000000010002ED0: FF FF E9 DA 00 00 00 B8 2D 00 00 00 66 89 85 7E  ÿÿéÚ...¸-...f..~
  0000000010002EE0: FF FF FF 48 8B 85 68 FF FF FF 48 8B 8D 70 FF FF  ÿÿÿH..hÿÿÿH..pÿÿ
  0000000010002EF0: FF 48 3B C1 0F 8D 85 00 00 00 48 8B 85 68 FF FF  ÿH;Á......H..hÿÿ
  0000000010002F00: FF 48 83 F8 1F 0F 8D 74 00 00 00 48 8B 85 68 FF  ÿH.ø...t...H..hÿ
  0000000010002F10: FF FF 48 83 C0 01 48 83 F8 20 0F 83 05 00 00 00  ÿÿH.À.H.ø ......
  0000000010002F20: E9 08 00 00 00 B0 01 B9 D6 29 00 00 CC 48 C1 E0  é....°.¹Ö)..?HÁà
  0000000010002F30: 01 48 03 C5 48 8B 8D 70 FF FF FF 48 83 E9 01 48  .H.ÅH..pÿÿÿH.é.H
  0000000010002F40: 8B 95 68 FF FF FF 48 2B CA 48 83 F9 20 0F 83 05  ..hÿÿÿH+ÊH.ù ...
  0000000010002F50: 00 00 00 E9 08 00 00 00 B0 01 B9 E2 29 00 00 CC  ...é....°.¹â)..?
  0000000010002F60: 48 C1 E1 01 48 03 CD 0F B7 49 BE 66 89 88 7E FF  HÁá.H.Í.·I¾f..~ÿ
  0000000010002F70: FF FF 48 83 85 68 FF FF FF 01 E9 64 FF FF FF 48  ÿÿH..hÿÿÿ.édÿÿÿH
  0000000010002F80: 8B 85 68 FF FF FF 48 83 C0 01 48 83 F8 20 0F 83  ..hÿÿÿH.À.H.ø ..
  0000000010002F90: 05 00 00 00 E9 08 00 00 00 B0 01 B9 00 2A 00 00  ....é....°.¹.*..
  0000000010002FA0: CC 48 C1 E0 01 48 03 C5 31 C9 66 89 88 7E FF FF  ?HÁà.H.Å1Éf..~ÿÿ
  0000000010002FB0: FF E9 15 00 00 00 48 8D BD 7E FF FF FF 48 8D 35  ÿé....H.½~ÿÿÿH.5
  0000000010002FC0: 1A EE FF FF B9 2A 00 00 00 F3 A4 48 83 EC 20 48  .îÿÿ¹*...ó¤H.? H
  0000000010002FD0: 8D 8D 7E FF FF FF BA 20 00 00 00 E8 29 FB FF FF  ..~ÿÿÿº ...è)ûÿÿ
  0000000010002FE0: 48 83 C4 20 5F 5E C9 C3 55 48 8B EC 48 8B 05 C5  H.Ä _^É?UH.?H..Å
  0000000010002FF0: EF FF FF 50 48 83 EC 28 48 8B 44 24 28 FF D0 48  ïÿÿPH.?(H.D$(ÿ?H
  0000000010003000: 83 C4 30 C9 C3 55 48 8B EC 48 83 EC 20 48 89 4D  .Ä0É?UH.?H.? H.M
  0000000010003010: 10 48 89 55 18 4C 89 45 20 4C 89 4D 28 48 8B 05  .H.U.L.E L.M(H..
  0000000010003020: 8C EF FF FF 50 48 83 EC 28 48 8B 44 24 28 FF D0  .ïÿÿPH.?(H.D$(ÿ?
  0000000010003030: 48 83 C4 30 48 89 45 E8 31 C0 48 89 45 F8 48 8B  H.Ä0H.Eè1ÀH.EøH.
  0000000010003040: 45 28 48 85 C0 0F 8E 9C 00 00 00 48 8B 45 E8 0F  E(H.À......H.Eè.
  0000000010003050: B7 00 66 89 45 E6 0F B7 45 E6 66 83 F8 20 0F 84  ·.f.Eæ.·Eæf.ø ..
  0000000010003060: 29 00 00 00 0F B7 45 E6 66 85 C0 0F 84 1C 00 00  )....·Eæf.À.....
  0000000010003070: 00 48 8B 45 E8 48 83 C0 02 48 89 45 E8 48 8B 45  .H.EèH.À.H.EèH.E
  0000000010003080: E8 0F B7 00 66 89 45 E6 E9 C9 FF FF FF 0F B7 45  è.·.f.EæéÉÿÿÿ.·E
  0000000010003090: E6 66 85 C0 0F 85 0B 00 00 00 31 C0 48 89 45 28  æf.À......1ÀH.E(
  00000000100030A0: E9 3D 00 00 00 0F B7 45 E6 66 83 F8 20 0F 85 2F  é=....·Eæf.ø ../
  00000000100030B0: 00 00 00 48 83 45 28 FF 0F B7 45 E6 66 83 F8 20  ...H.E(ÿ.·Eæf.ø 
  00000000100030C0: 0F 85 1C 00 00 00 48 8B 45 E8 48 83 C0 02 48 89  ......H.EèH.À.H.
  00000000100030D0: 45 E8 48 8B 45 E8 0F B7 00 66 89 45 E6 E9 D6 FF  EèH.Eè.·.f.EæéÖÿ
  00000000100030E0: FF FF E9 57 FF FF FF 31 C0 48 89 45 F0 31 C0 48  ÿÿéWÿÿÿ1ÀH.E?1ÀH
  00000000100030F0: 8B 4D 20 48 89 01 0F B7 45 E6 66 83 F8 20 0F 84  .M H...·Eæf.ø ..
  0000000010003100: 74 00 00 00 0F B7 45 E6 66 85 C0 0F 84 67 00 00  t....·Eæf.À..g..
  0000000010003110: 00 48 8B 45 F0 48 8B 4D 18 48 3B C1 0F 8D 2D 00  .H.E?H.M.H;Á..-.
  0000000010003120: 00 00 48 8B 45 F0 48 3B 45 18 0F 83 05 00 00 00  ..H.E?H;E.......
  0000000010003130: E9 08 00 00 00 B0 01 B9 81 2D 00 00 CC 48 C1 E0  é....°.¹.-..?HÁà
  0000000010003140: 01 48 8B 4D 10 48 03 C1 0F B7 4D E6 66 89 08 48  .H.M.H.Á.·Mæf..H
  0000000010003150: 83 45 F0 01 48 8B 45 20 48 83 00 01 48 8B 45 E8  .E?.H.E H...H.Eè
  0000000010003160: 48 83 C0 02 48 89 45 E8 48 8B 45 E8 0F B7 00 66  H.À.H.EèH.Eè.·.f
  0000000010003170: 89 45 E6 E9 7E FF FF FF 48 8B 45 F0 48 8B 4D 18  .Eæé~ÿÿÿH.E?H.M.
  0000000010003180: 48 3B C1 0F 8D 2B 00 00 00 48 8B 45 F0 48 3B 45  H;Á..+...H.E?H;E
  0000000010003190: 18 0F 83 05 00 00 00 E9 08 00 00 00 B0 01 B9 F4  .......é....°.¹ô
  00000000100031A0: 2D 00 00 CC 48 C1 E0 01 48 8B 4D 10 48 03 C1 31  -..?HÁà.H.M.H.Á1
  00000000100031B0: C9 66 89 08 C9 C3 55 48 8B EC 48 83 EC 10 48 89  Éf..É?UH.?H.?.H.
  00000000100031C0: 4D 10 48 83 EC 20 48 8B 0D 73 ED FF FF BA 08 00  M.H.? H..síÿÿº..
  00000000100031D0: 00 00 41 B8 28 00 00 00 FF 15 8A ED FF FF 48 83  ..A¸(...ÿ..íÿÿH.
  00000000100031E0: C4 20 48 83 C0 10 48 8D 0D 23 EC FF FF 48 89 48  Ä H.À.H..#?ÿÿH.H
  00000000100031F0: F8 48 8B 4D 10 48 89 01 48 8B 05 99 ED FF FF 50  øH.M.H..H...íÿÿP
  0000000010003200: 48 83 EC 28 48 8B 44 24 28 FF D0 48 83 C4 30 48  H.?(H.D$(ÿ?H.Ä0H
  0000000010003210: 89 45 F8 48 8B 45 10 48 8B 00 48 85 C0 0F 84 05  .EøH.E.H..H.À...
  0000000010003220: 00 00 00 E9 08 00 00 00 B0 04 B9 2E 2F 00 00 CC  ...é....°.¹./..?
  0000000010003230: 48 8B 0D 59 ED FF FF 50 51 48 83 EC 20 48 8B 4D  H..YíÿÿPQH.? H.M
  0000000010003240: F8 31 D2 41 B8 80 00 00 00 48 8B 44 24 20 FF D0  ø1?A¸....H.D$ ÿ?
  0000000010003250: 48 83 C4 28 48 8B C8 58 48 89 08 48 8B 45 10 48  H.Ä(H.ÈXH..H.E.H
  0000000010003260: 8B 00 48 85 C0 0F 84 05 00 00 00 E9 08 00 00 00  ..H.À......é....
  0000000010003270: B0 04 B9 5A 2F 00 00 CC B9 80 00 00 00 48 89 48  °.¹Z/..?¹....H.H
  0000000010003280: 10 48 8B 45 10 48 8B 00 48 85 C0 0F 84 05 00 00  .H.E.H..H.À.....
  0000000010003290: 00 E9 08 00 00 00 B0 04 B9 72 2F 00 00 CC 31 C9  .é....°.¹r/..?1É
  00000000100032A0: 48 89 48 08 C9 C3 55 48 8B EC 48 83 EC 10 48 89  H.H.É?UH.?H.?.H.
  00000000100032B0: 4D 10 48 8B 05 DF EC FF FF 50 48 83 EC 28 48 8B  M.H..ß?ÿÿPH.?(H.
  00000000100032C0: 44 24 28 FF D0 48 83 C4 30 48 89 45 F8 48 8B 05  D$(ÿ?H.Ä0H.EøH..
  00000000100032D0: B4 EC FF FF 50 48 83 EC 28 48 8B 4D F8 31 D2 4C  ´?ÿÿPH.?(H.Mø1?L
  00000000100032E0: 8B 45 10 4D 85 C0 0F 84 05 00 00 00 E9 08 00 00  .E.M.À......é...
  00000000100032F0: 00 B0 04 B9 15 30 00 00 CC 4D 8B 00 48 8B 44 24  .°.¹.0..?M..H.D$
  0000000010003300: 28 FF D0 48 83 C4 30 48 89 45 F0 48 8B 45 10 48  (ÿ?H.Ä0H.E?H.E.H
  0000000010003310: 85 C0 0F 84 05 00 00 00 E9 08 00 00 00 B0 04 B9  .À......é....°.¹
  0000000010003320: 1F 30 00 00 CC 31 C9 48 89 08 48 8B 45 10 48 85  .0..?1ÉH..H.E.H.
  0000000010003330: C0 0F 84 05 00 00 00 E9 08 00 00 00 B0 04 B9 2B  À......é....°.¹+
  0000000010003340: 30 00 00 CC 31 C9 48 89 48 10 48 8B 45 10 48 85  0..?1ÉH.H.H.E.H.
  0000000010003350: C0 0F 84 05 00 00 00 E9 08 00 00 00 B0 04 B9 3A  À......é....°.¹:
  0000000010003360: 30 00 00 CC 31 C9 48 89 48 08 C9 C3 55 48 8B EC  0..?1ÉH.H.É?UH.?
  0000000010003370: 48 83 EC 10 48 89 4D 10 48 89 55 18 48 8B 45 18  H.?.H.M.H.U.H.E.
  0000000010003380: 48 8B 4D 18 48 F7 D9 48 83 E1 7F 48 03 C1 48 89  H.M.H÷ÙH.á.H.ÁH.
  0000000010003390: 45 18 48 8B 05 FF EB FF FF 50 48 83 EC 28 48 8B  E.H..ÿëÿÿPH.?(H.
  00000000100033A0: 44 24 28 FF D0 48 83 C4 30 48 89 45 F8 48 8B 45  D$(ÿ?H.Ä0H.EøH.E
  00000000100033B0: 10 48 85 C0 0F 84 05 00 00 00 E9 08 00 00 00 B0  .H.À......é....°
  00000000100033C0: 04 B9 FC 30 00 00 CC 48 8B 48 10 48 8B 55 18 48  .¹ü0..?H.H.H.U.H
  00000000100033D0: 03 CA 48 89 48 10 48 8B 45 10 48 85 C0 0F 84 05  .ÊH.H.H.E.H.À...
  00000000100033E0: 00 00 00 E9 08 00 00 00 B0 04 B9 11 31 00 00 CC  ...é....°.¹.1..?
  00000000100033F0: 48 8B 0D 89 EB FF FF 50 51 48 83 EC 20 48 8B 4D  H...ëÿÿPQH.? H.M
  0000000010003400: F8 31 D2 4C 8B 45 10 4D 85 C0 0F 84 05 00 00 00  ø1?L.E.M.À......
  0000000010003410: E9 08 00 00 00 B0 04 B9 30 31 00 00 CC 4D 8B 00  é....°.¹01..?M..
  0000000010003420: 4C 8B 4D 10 4D 85 C9 0F 84 05 00 00 00 E9 08 00  L.M.M.É......é..
  0000000010003430: 00 00 B0 04 B9 37 31 00 00 CC 4D 8B 49 10 48 8B  ..°.¹71..?M.I.H.
  0000000010003440: 44 24 20 FF D0 48 83 C4 28 48 8B C8 58 48 89 08  D$ ÿ?H.Ä(H.ÈXH..
  0000000010003450: C9 C3 55 48 8B EC 48 83 EC 10 56 57 48 89 4D 10  É?UH.?H.?.VWH.M.
  0000000010003460: 48 89 55 18 48 8B 45 10 48 85 C0 0F 84 05 00 00  H.U.H.E.H.À.....
  0000000010003470: 00 E9 08 00 00 00 B0 04 B9 A6 31 00 00 CC 48 8B  .é....°.¹¦1..?H.
  0000000010003480: 40 10 48 8B 4D 10 48 85 C9 0F 84 05 00 00 00 E9  @.H.M.H.É......é
  0000000010003490: 08 00 00 00 B0 04 B9 B2 31 00 00 CC 48 8B 49 08  ....°.¹²1..?H.I.
  00000000100034A0: 48 8B 55 18 48 85 D2 0F 84 05 00 00 00 E9 08 00  H.U.H.?......é..
  00000000100034B0: 00 00 B0 04 B9 BB 31 00 00 CC 48 8B 52 08 48 03  ..°.¹»1..?H.R.H.
  00000000100034C0: CA 48 3B C1 0F 8D 8F 00 00 00 48 8B 45 10 48 85  ÊH;Á......H.E.H.
  00000000100034D0: C0 0F 84 05 00 00 00 E9 08 00 00 00 B0 04 B9 D4  À......é....°.¹Ô
  00000000100034E0: 31 00 00 CC 48 8B 40 08 48 8B 4D 18 48 85 C9 0F  1..?H.@.H.M.H.É.
  00000000100034F0: 84 05 00 00 00 E9 08 00 00 00 B0 04 B9 DD 31 00  .....é....°.¹?1.
  0000000010003500: 00 CC 48 8B 49 08 48 03 C1 48 89 45 F8 48 8B 45  .?H.I.H.ÁH.EøH.E
  0000000010003510: F8 48 8B 4D F8 48 F7 D9 48 83 E1 7F 48 03 C1 48  øH.MøH÷ÙH.á.H.ÁH
  0000000010003520: 89 45 F8 48 83 EC 20 48 8B 4D 10 48 8B 55 F8 4C  .EøH.? H.M.H.UøL
  0000000010003530: 8B 45 10 4D 85 C0 0F 84 05 00 00 00 E9 08 00 00  .E.M.À......é...
  0000000010003540: 00 B0 04 B9 30 32 00 00 CC 4D 8B 40 10 49 2B D0  .°.¹02..?M.@.I+?
  0000000010003550: E8 17 FE FF FF 48 83 C4 20 48 8B 45 18 48 85 C0  è.?ÿÿH.Ä H.E.H.À
  0000000010003560: 0F 84 05 00 00 00 E9 08 00 00 00 B0 04 B9 50 32  ......é....°.¹P2
  0000000010003570: 00 00 CC 48 8B 00 48 8B 4D 10 48 85 C9 0F 84 05  ..?H..H.M.H.É...
  0000000010003580: 00 00 00 E9 08 00 00 00 B0 04 B9 58 32 00 00 CC  ...é....°.¹X2..?
  0000000010003590: 48 8B 09 48 8B 55 10 48 85 D2 0F 84 05 00 00 00  H..H.U.H.?......
  00000000100035A0: E9 08 00 00 00 B0 04 B9 61 32 00 00 CC 48 8B 52  é....°.¹a2..?H.R
  00000000100035B0: 08 48 03 CA 48 8B 55 18 48 85 D2 0F 84 05 00 00  .H.ÊH.U.H.?.....
  00000000100035C0: 00 E9 08 00 00 00 B0 04 B9 69 32 00 00 CC 48 8B  .é....°.¹i2..?H.
  00000000100035D0: 52 08 48 8B F0 48 8B F9 48 8B CA F3 A4 48 8B 45  R.H.?H.ùH.Êó¤H.E
  00000000100035E0: 10 48 85 C0 0F 84 05 00 00 00 E9 08 00 00 00 B0  .H.À......é....°
  00000000100035F0: 04 B9 78 32 00 00 CC 48 8B 48 08 48 8B 55 18 48  .¹x2..?H.H.H.U.H
  0000000010003600: 85 D2 0F 84 05 00 00 00 E9 08 00 00 00 B0 04 B9  .?......é....°.¹
  0000000010003610: 80 32 00 00 CC 48 8B 52 08 48 03 CA 48 89 48 08  .2..?H.R.H.ÊH.H.
  0000000010003620: 48 83 EC 20 48 8B 4D 18 E8 79 FC FF FF 48 83 C4  H.? H.M.èyüÿÿH.Ä
  0000000010003630: 20 5F 5E C9 C3 55 48 8B EC 48 89 4D 10 48 8B 45   _^É?UH.?H.M.H.E
  0000000010003640: 10 48 85 C0 0F 84 05 00 00 00 E9 08 00 00 00 B0  .H.À......é....°
  0000000010003650: 04 B9 EF 32 00 00 CC 48 8B 40 08 C9 C3 55 48 8B  .¹ï2..?H.@.É?UH.
  0000000010003660: EC 48 89 4D 10 48 89 55 18 4C 89 45 20 48 8B 45  ?H.M.H.U.L.E H.E
  0000000010003670: 18 48 8B 4D 10 48 89 01 31 C0 48 8B 4D 10 88 41  .H.M.H..1ÀH.M..A
  0000000010003680: 10 48 8B 45 20 48 85 C0 0F 8C 67 00 00 00 48 8B  .H.E H.À..g...H.
  0000000010003690: 45 20 48 8B 4D 18 48 85 C9 0F 84 05 00 00 00 E9  E H.M.H.É......é
  00000000100036A0: 08 00 00 00 B0 04 B9 93 33 00 00 CC 48 8B 49 08  ....°.¹.3..?H.I.
  00000000100036B0: 48 3B C1 0F 8F 11 00 00 00 48 8B 45 20 48 8B 4D  H;Á......H.E H.M
  00000000100036C0: 10 48 89 41 08 E9 26 00 00 00 48 8B 45 18 48 85  .H.A.é&...H.E.H.
  00000000100036D0: C0 0F 84 05 00 00 00 E9 08 00 00 00 B0 04 B9 B9  À......é....°.¹¹
  00000000100036E0: 33 00 00 CC 48 8B 40 08 48 8B 4D 10 48 89 41 08  3..?H.@.H.M.H.A.
  00000000100036F0: E9 0A 00 00 00 31 C0 48 8B 4D 10 48 89 41 08 C9  é....1ÀH.M.H.A.É
  0000000010003700: C3 55 48 8B EC 48 89 4D 10 48 89 55 18 48 8B 45  ?UH.?H.M.H.U.H.E
  0000000010003710: 10 48 8B 40 08 48 8B 4D 10 48 8B 09 48 85 C9 0F  .H.@.H.M.H..H.É.
  0000000010003720: 84 05 00 00 00 E9 08 00 00 00 B0 04 B9 3D 34 00  .....é....°.¹=4.
  0000000010003730: 00 CC 48 8B 49 08 48 3B C1 0F 8F E2 00 00 00 48  .?H.I.H;Á..â...H
  0000000010003740: 8B 45 10 48 8B 40 08 48 83 C0 01 48 8B 4D 10 48  .E.H.@.H.À.H.M.H
  0000000010003750: 8B 09 48 85 C9 0F 84 05 00 00 00 E9 08 00 00 00  ..H.É......é....
  0000000010003760: B0 04 B9 5A 34 00 00 CC 48 8B 49 10 48 3B C1 0F  °.¹Z4..?H.I.H;Á.
  0000000010003770: 8E 19 00 00 00 48 83 EC 20 48 8B 4D 10 48 8B 09  .....H.? H.M.H..
  0000000010003780: BA 80 00 00 00 E8 E2 FB FF FF 48 83 C4 20 48 8B  º....èâûÿÿH.Ä H.
  0000000010003790: 45 10 48 8B 00 48 85 C0 0F 84 05 00 00 00 E9 08  E.H..H.À......é.
  00000000100037A0: 00 00 00 B0 04 B9 9C 34 00 00 CC 48 8B 00 48 8B  ...°.¹.4..?H..H.
  00000000100037B0: 4D 10 48 8B 49 08 48 03 C1 0F B6 4D 18 88 08 48  M.H.I.H.Á.¶M...H
  00000000100037C0: 8B 45 10 48 83 40 08 01 48 8B 45 10 48 8B 40 08  .E.H.@..H.E.H.@.
  00000000100037D0: 48 8B 4D 10 48 8B 09 48 85 C9 0F 84 05 00 00 00  H.M.H..H.É......
  00000000100037E0: E9 08 00 00 00 B0 04 B9 CB 34 00 00 CC 48 8B 49  é....°.¹Ë4..?H.I
  00000000100037F0: 08 48 3B C1 0F 8E 22 00 00 00 48 8B 45 10 48 8B  .H;Á.."...H.E.H.
  0000000010003800: 00 48 85 C0 0F 84 05 00 00 00 E9 08 00 00 00 B0  .H.À......é....°
  0000000010003810: 04 B9 DC 34 00 00 CC 48 83 40 08 01 E9 0C 00 00  .¹Ü4..?H.@..é...
  0000000010003820: 00 B8 01 00 00 00 48 8B 4D 10 88 41 10 C9 C3 55  .¸....H.M..A.É?U
  0000000010003830: 48 8B EC 48 89 4D 10 48 89 55 18 48 8B 45 10 48  H.?H.M.H.U.H.E.H
  0000000010003840: 8B 40 08 48 8B 4D 10 48 8B 09 48 85 C9 0F 84 05  .@.H.M.H..H.É...
  0000000010003850: 00 00 00 E9 08 00 00 00 B0 04 B9 68 35 00 00 CC  ...é....°.¹h5..?
  0000000010003860: 48 8B 49 08 48 3B C1 0F 8D 42 00 00 00 48 8B 45  H.I.H;Á..B...H.E
  0000000010003870: 10 48 8B 00 48 85 C0 0F 84 05 00 00 00 E9 08 00  .H..H.À......é..
  0000000010003880: 00 00 B0 04 B9 80 35 00 00 CC 48 8B 00 48 8B 4D  ..°.¹.5..?H..H.M
  0000000010003890: 10 48 8B 49 08 48 03 C1 0F B6 00 48 8B 4D 18 88  .H.I.H.Á.¶.H.M..
  00000000100038A0: 01 48 8B 45 10 48 83 40 08 01 E9 0C 00 00 00 B8  .H.E.H.@..é....¸
  00000000100038B0: 01 00 00 00 48 8B 4D 10 88 41 10 C9 C3 55 48 8B  ....H.M..A.É?UH.
  00000000100038C0: EC 48 83 EC 30 48 8D 0D 2C E7 FF FF BA 08 00 00  ?H.?0H..,çÿÿº...
  00000000100038D0: 00 4C 8D 05 0E E6 FF FF 41 B9 0D 00 00 00 48 8D  .L...æÿÿA¹....H.
  00000000100038E0: 05 C3 E4 FF FF 48 89 44 24 20 B8 13 00 00 00 48  .?äÿÿH.D$ ¸....H
  00000000100038F0: 89 44 24 28 E8 07 E7 FF FF 48 83 C4 30 48 83 EC  .D$(è.çÿÿH.Ä0H.?
  0000000010003900: 30 48 8D 0D D8 E6 FF FF BA 08 00 00 00 4C 8D 05  0H..Øæÿÿº....L..
  0000000010003910: D2 E5 FF FF 41 B9 0D 00 00 00 48 8D 05 6F E4 FF  ?åÿÿA¹....H..oäÿ
  0000000010003920: FF 48 89 44 24 20 B8 0C 00 00 00 48 89 44 24 28  ÿH.D$ ¸....H.D$(
  0000000010003930: E8 CB E6 FF FF 48 83 C4 30 48 83 EC 30 48 8D 0D  èËæÿÿH.Ä0H.?0H..
  0000000010003940: 94 E6 FF FF BA 08 00 00 00 4C 8D 05 96 E5 FF FF  .æÿÿº....L...åÿÿ
  0000000010003950: 41 B9 0D 00 00 00 48 8D 05 1B E4 FF FF 48 89 44  A¹....H...äÿÿH.D
  0000000010003960: 24 20 B8 0C 00 00 00 48 89 44 24 28 E8 8F E6 FF  $ ¸....H.D$(è.æÿ
  0000000010003970: FF 48 83 C4 30 48 83 EC 30 48 8D 0D 70 E6 FF FF  ÿH.Ä0H.?0H..pæÿÿ
  0000000010003980: BA 08 00 00 00 4C 8D 05 5A E5 FF FF 41 B9 0D 00  º....L..ZåÿÿA¹..
  0000000010003990: 00 00 48 8D 05 CB E3 FF FF 48 89 44 24 20 B8 0A  ..H..Ë?ÿÿH.D$ ¸.
  00000000100039A0: 00 00 00 48 89 44 24 28 E8 53 E6 FF FF 48 83 C4  ...H.D$(èSæÿÿH.Ä
  00000000100039B0: 30 48 83 EC 30 48 8D 0D 2C E6 FF FF BA 08 00 00  0H.?0H..,æÿÿº...
  00000000100039C0: 00 4C 8D 05 1E E5 FF FF 41 B9 0D 00 00 00 48 8D  .L...åÿÿA¹....H.
  00000000100039D0: 05 77 E3 FF FF 48 89 44 24 20 B8 0C 00 00 00 48  .w?ÿÿH.D$ ¸....H
  00000000100039E0: 89 44 24 28 E8 17 E6 FF FF 48 83 C4 30 48 83 EC  .D$(è.æÿÿH.Ä0H.?
  00000000100039F0: 30 48 8D 0D D8 E5 FF FF BA 08 00 00 00 4C 8D 05  0H..Øåÿÿº....L..
  0000000010003A00: E2 E4 FF FF 41 B9 0D 00 00 00 48 8D 05 29 E3 FF  âäÿÿA¹....H..)?ÿ
  0000000010003A10: FF 48 89 44 24 20 B8 09 00 00 00 48 89 44 24 28  ÿH.D$ ¸....H.D$(
  0000000010003A20: E8 DB E5 FF FF 48 83 C4 30 48 83 EC 30 48 8D 0D  èÛåÿÿH.Ä0H.?0H..
  0000000010003A30: 94 E5 FF FF BA 08 00 00 00 4C 8D 05 A6 E4 FF FF  .åÿÿº....L..¦äÿÿ
  0000000010003A40: 41 B9 0D 00 00 00 48 8D 05 D9 E2 FF FF 48 89 44  A¹....H..ÙâÿÿH.D
  0000000010003A50: 24 20 B8 0A 00 00 00 48 89 44 24 28 E8 9F E5 FF  $ ¸....H.D$(è.åÿ
  0000000010003A60: FF 48 83 C4 30 48 83 EC 30 48 8D 0D 50 E5 FF FF  ÿH.Ä0H.?0H..Påÿÿ
  0000000010003A70: BA 08 00 00 00 4C 8D 05 6A E4 FF FF 41 B9 0D 00  º....L..jäÿÿA¹..
  0000000010003A80: 00 00 48 8D 05 7B E2 FF FF 48 89 44 24 20 B8 11  ..H..{âÿÿH.D$ ¸.
  0000000010003A90: 00 00 00 48 89 44 24 28 E8 63 E5 FF FF 48 83 C4  ...H.D$(ècåÿÿH.Ä
  0000000010003AA0: 30 48 83 EC 30 48 8D 0D 0C E5 FF FF BA 08 00 00  0H.?0H...åÿÿº...
  0000000010003AB0: 00 4C 8D 05 2E E4 FF FF 41 B9 0D 00 00 00 48 8D  .L...äÿÿA¹....H.
  0000000010003AC0: 05 25 E2 FF FF 48 89 44 24 20 B8 0D 00 00 00 48  .%âÿÿH.D$ ¸....H
  0000000010003AD0: 89 44 24 28 E8 27 E5 FF FF 48 83 C4 30 48 83 EC  .D$(è'åÿÿH.Ä0H.?
  0000000010003AE0: 30 48 8D 0D C8 E4 FF FF BA 08 00 00 00 4C 8D 05  0H..Èäÿÿº....L..
  0000000010003AF0: F2 E3 FF FF 41 B9 0D 00 00 00 48 8D 05 C9 E1 FF  ??ÿÿA¹....H..Éáÿ
  0000000010003B00: FF 48 89 44 24 20 B8 10 00 00 00 48 89 44 24 28  ÿH.D$ ¸....H.D$(
  0000000010003B10: E8 EB E4 FF FF 48 83 C4 30 48 83 EC 30 48 8D 0D  èëäÿÿH.Ä0H.?0H..
  0000000010003B20: 84 E4 FF FF BA 08 00 00 00 4C 8D 05 B6 E3 FF FF  .äÿÿº....L..¶?ÿÿ
  0000000010003B30: 41 B9 0D 00 00 00 48 8D 05 65 E1 FF FF 48 89 44  A¹....H..eáÿÿH.D
  0000000010003B40: 24 20 B8 14 00 00 00 48 89 44 24 28 E8 AF E4 FF  $ ¸....H.D$(è¯äÿ
  0000000010003B50: FF 48 83 C4 30 48 83 EC 30 48 8D 0D 40 E4 FF FF  ÿH.Ä0H.?0H..@äÿÿ
  0000000010003B60: BA 08 00 00 00 4C 8D 05 7A E3 FF FF 41 B9 0D 00  º....L..z?ÿÿA¹..
  0000000010003B70: 00 00 48 8D 05 0F E1 FF FF 48 89 44 24 20 B8 0D  ..H...áÿÿH.D$ ¸.
  0000000010003B80: 00 00 00 48 89 44 24 28 E8 73 E4 FF FF 48 83 C4  ...H.D$(èsäÿÿH.Ä
  0000000010003B90: 30 48 83 EC 30 48 8D 0D FC E3 FF FF BA 08 00 00  0H.?0H..ü?ÿÿº...
  0000000010003BA0: 00 4C 8D 05 3E E3 FF FF 41 B9 0D 00 00 00 48 8D  .L..>?ÿÿA¹....H.
  0000000010003BB0: 05 B5 E0 FF FF 48 89 44 24 20 B8 0F 00 00 00 48  .µàÿÿH.D$ ¸....H
  0000000010003BC0: 89 44 24 28 E8 37 E4 FF FF 48 83 C4 30 48 83 EC  .D$(è7äÿÿH.Ä0H.?
  0000000010003BD0: 30 48 8D 0D B8 E3 FF FF BA 08 00 00 00 4C 8D 05  0H..¸?ÿÿº....L..
  0000000010003BE0: 02 E3 FF FF 41 B9 0D 00 00 00 48 8D 05 65 E0 FF  .?ÿÿA¹....H..eàÿ
  0000000010003BF0: FF 48 89 44 24 20 B8 0A 00 00 00 48 89 44 24 28  ÿH.D$ ¸....H.D$(
  0000000010003C00: E8 FB E3 FF FF 48 83 C4 30 48 83 EC 30 48 8D 0D  èû?ÿÿH.Ä0H.?0H..
  0000000010003C10: 74 E3 FF FF BA 08 00 00 00 4C 8D 05 C6 E2 FF FF  t?ÿÿº....L..Æâÿÿ
  0000000010003C20: 41 B9 0D 00 00 00 48 8D 05 17 E0 FF FF 48 89 44  A¹....H...àÿÿH.D
  0000000010003C30: 24 20 B8 09 00 00 00 48 89 44 24 28 E8 BF E3 FF  $ ¸....H.D$(è¿?ÿ
  0000000010003C40: FF 48 83 C4 30 48 83 EC 30 48 8D 0D 30 E3 FF FF  ÿH.Ä0H.?0H..0?ÿÿ
  0000000010003C50: BA 08 00 00 00 4C 8D 05 8A E2 FF FF 41 B9 0D 00  º....L...âÿÿA¹..
  0000000010003C60: 00 00 48 8D 05 C3 DF FF FF 48 89 44 24 20 B8 0C  ..H..?ßÿÿH.D$ ¸.
  0000000010003C70: 00 00 00 48 89 44 24 28 E8 83 E3 FF FF 48 83 C4  ...H.D$(è.?ÿÿH.Ä
  0000000010003C80: 30 C9 C3 55 48 8B EC 48 83 EC 20 E8 2D FC FF FF  0É?UH.?H.? è-üÿÿ
  0000000010003C90: 48 83 C4 20 C9 C3 83 FA 01 0F 84 01 00 00 00 C3  H.Ä É?.ú.......?
  0000000010003CA0: 56 57 48 83 EC 28 FF 15 B4 E2 FF FF 48 89 05 8D  VWH.?(ÿ.´âÿÿH...
  0000000010003CB0: E2 FF FF E8 CB FF FF FF B8 01 00 00 00 48 83 C4  âÿÿèËÿÿÿ¸....H.Ä
  0000000010003CC0: 28 5F 5E C3                                      (_^?

SECTION HEADER #3
  .idata name
     130 virtual size
    4000 virtual address (0000000010004000 to 000000001000412F)
     200 size of raw data
    2200 file pointer to raw data (00002200 to 000023FF)
       0 file pointer to relocation table
       0 file pointer to line numbers
       0 number of relocations
       0 number of line numbers
C0000040 flags
         Initialized Data
         Read Write

RAW DATA #3
  0000000010004000: 28 40 00 00 00 00 00 00 00 00 00 00 60 40 00 00  (@..........`@..
  0000000010004010: 48 1F 00 00 00 00 00 00 00 00 00 00 00 00 00 00  H...............
  0000000010004020: 00 00 00 00 00 00 00 00 70 40 00 00 00 00 00 00  ........p@......
  0000000010004030: 90 40 00 00 00 00 00 00 B0 40 00 00 00 00 00 00  .@......°@......
  0000000010004040: D0 40 00 00 00 00 00 00 F0 40 00 00 00 00 00 00  ?@......?@......
  0000000010004050: 10 41 00 00 00 00 00 00 00 00 00 00 00 00 00 00  .A..............
  0000000010004060: 4B 45 52 4E 45 4C 33 32 2E 44 4C 4C 00 00 00 00  KERNEL32.DLL....
  0000000010004070: 00 00 45 78 69 74 50 72 6F 63 65 73 73 00 00 00  ..ExitProcess...
  0000000010004080: 00 00 00 00 00 00 00 00 00 00 00 00 00 00 00 00  ................
  0000000010004090: 00 00 4C 6F 61 64 4C 69 62 72 61 72 79 57 00 00  ..LoadLibraryW..
  00000000100040A0: 00 00 00 00 00 00 00 00 00 00 00 00 00 00 00 00  ................
  00000000100040B0: 00 00 47 65 74 50 72 6F 63 41 64 64 72 65 73 73  ..GetProcAddress
  00000000100040C0: 00 00 00 00 00 00 00 00 00 00 00 00 00 00 00 00  ................
  00000000100040D0: 00 00 47 65 74 50 72 6F 63 65 73 73 48 65 61 70  ..GetProcessHeap
  00000000100040E0: 00 00 00 00 00 00 00 00 00 00 00 00 00 00 00 00  ................
  00000000100040F0: 00 00 48 65 61 70 41 6C 6C 6F 63 00 00 00 00 00  ..HeapAlloc.....
  0000000010004100: 00 00 00 00 00 00 00 00 00 00 00 00 00 00 00 00  ................
  0000000010004110: 00 00 48 65 61 70 46 72 65 65 00 00 00 00 00 00  ..HeapFree......
  0000000010004120: 00 00 00 00 00 00 00 00 00 00 00 00 00 00 00 00  ................

  Section contains the following imports:

    KERNEL32.DLL
              10001F48 Import Address Table
              10004028 Import Name Table
                     0 time date stamp
                     0 Index of first forwarder reference

                           0 ExitProcess
                           0 LoadLibraryW
                           0 GetProcAddress
                           0 GetProcessHeap
                           0 HeapAlloc
                           0 HeapFree

SECTION HEADER #4
  .reloc name
       C virtual size
    5000 virtual address (0000000010005000 to 000000001000500B)
     200 size of raw data
    3400 file pointer to raw data (00003400 to 000035FF)
       0 file pointer to relocation table
       0 file pointer to line numbers
       0 number of relocations
       0 number of line numbers
42000040 flags
         Initialized Data
         Discardable
         Read Only

RAW DATA #4
  0000000010005000: 04 00 00 00 0C 00 00 00 00 00 00 00              ............

BASE RELOCATIONS #4
       4 RVA,        C SizeOfBlock
       0  ABS                        
       0  ABS                        

SECTION HEADER #5
  .edata name
      D0 virtual size
    6000 virtual address (0000000010006000 to 00000000100060CF)
     200 size of raw data
    3600 file pointer to raw data (00003600 to 000037FF)
       0 file pointer to relocation table
       0 file pointer to line numbers
       0 number of relocations
       0 number of line numbers
40000040 flags
         Initialized Data
         Read Only

RAW DATA #5
  0000000010006000: 00 00 00 00 00 00 00 00 00 00 00 00 C4 60 00 00  ............Ä`..
  0000000010006010: 01 00 00 00 27 00 00 00 00 00 00 00 28 60 00 00  ....'.......(`..
  0000000010006020: 00 00 00 00 00 00 00 00 A0 1E 00 00 10 1E 00 00  ................
  0000000010006030: 58 1E 00 00 50 21 00 00 93 21 00 00 EA 21 00 00  X...P!...!..ê!..
  0000000010006040: 41 22 00 00 7A 22 00 00 B7 22 00 00 E8 22 00 00  A"..z"..·"..è"..
  0000000010006050: 7A 23 00 00 19 24 00 00 AB 24 00 00 4A 25 00 00  z#...$..«$..J%..
  0000000010006060: 9E 25 00 00 05 26 00 00 4E 26 00 00 97 26 00 00  .%...&..N&...&..
  0000000010006070: 32 27 00 00 CD 27 00 00 16 28 00 00 5F 28 00 00  2'..Í'...(.._(..
  0000000010006080: C6 28 00 00 2C 29 00 00 74 29 00 00 BB 29 00 00  Æ(..,)..t)..»)..
  0000000010006090: 05 2A 00 00 09 2B 00 00 82 2C 00 00 F0 2C 00 00  .*...+...,..?,..
  00000000100060A0: E8 2F 00 00 05 30 00 00 B6 31 00 00 A6 32 00 00  è/...0..¶1..¦2..
  00000000100060B0: 52 34 00 00 35 36 00 00 5D 36 00 00 01 37 00 00  R4..56..]6...7..
  00000000100060C0: 2F 38 00 00 42 61 73 65 53 79 73 2E 64 6C 6C 00  /8..BaseSys.dll.

  Section contains the following exports for BaseSys.dll

    00000000 characteristics
           0 time date stamp
        0.00 version
           1 ordinal base
          39 number of functions
           0 number of names

    ordinal hint RVA      name

          1      00001EA0 [NONAME]
          2      00001E10 [NONAME]
          3      00001E58 [NONAME]
          4      00002150 [NONAME]
          5      00002193 [NONAME]
          6      000021EA [NONAME]
          7      00002241 [NONAME]
          8      0000227A [NONAME]
          9      000022B7 [NONAME]
         10      000022E8 [NONAME]
         11      0000237A [NONAME]
         12      00002419 [NONAME]
         13      000024AB [NONAME]
         14      0000254A [NONAME]
         15      0000259E [NONAME]
         16      00002605 [NONAME]
         17      0000264E [NONAME]
         18      00002697 [NONAME]
         19      00002732 [NONAME]
         20      000027CD [NONAME]
         21      00002816 [NONAME]
         22      0000285F [NONAME]
         23      000028C6 [NONAME]
         24      0000292C [NONAME]
         25      00002974 [NONAME]
         26      000029BB [NONAME]
         27      00002A05 [NONAME]
         28      00002B09 [NONAME]
         29      00002C82 [NONAME]
         30      00002CF0 [NONAME]
         31      00002FE8 [NONAME]
         32      00003005 [NONAME]
         33      000031B6 [NONAME]
         34      000032A6 [NONAME]
         35      00003452 [NONAME]
         36      00003635 [NONAME]
         37      0000365D [NONAME]
         38      00003701 [NONAME]
         39      0000382F [NONAME]

  Summary

        1000 .data
        1000 .edata
        1000 .idata
        1000 .reloc
        2000 .text
