Microsoft (R) COFF/PE Dumper Version 14.00.24215.1
Copyright (C) Microsoft Corporation.  All rights reserved.


Dump of file Crypt.dll

PE signature found

File Type: DLL

FILE HEADER VALUES
            8664 machine (x64)
               5 number of sections
               0 time date stamp
               0 file pointer to symbol table
               0 number of symbols
              F0 size of optional header
            2022 characteristics
                   Executable
                   Application can handle large (>2GB) addresses
                   DLL

OPTIONAL HEADER VALUES
             20B magic # (PE32+)
            0.00 linker version
            1000 size of code
            1200 size of initialized data
               0 size of uninitialized data
            2E6B entry point (0000000010002E6B)
            2000 base of code
        10000000 image base (0000000010000000 to 0000000010005FFF)
            1000 section alignment
             200 file alignment
            5.00 operating system version
            0.00 image version
            5.00 subsystem version
               0 Win32 version
            6000 size of image
             400 size of headers
               0 checksum
               2 subsystem (Windows GUI)
             140 DLL characteristics
                   Dynamic base
                   NX compatible
            1000 size of stack reserve
            1000 size of stack commit
           10000 size of heap reserve
               0 size of heap commit
               0 loader flags
              10 number of directories
            5000 [      4A] RVA [size] of Export Directory
            3000 [     130] RVA [size] of Import Directory
               0 [       0] RVA [size] of Resource Directory
               0 [       0] RVA [size] of Exception Directory
               0 [       0] RVA [size] of Certificates Directory
            4000 [       C] RVA [size] of Base Relocation Directory
               0 [       0] RVA [size] of Debug Directory
               0 [       0] RVA [size] of Architecture Directory
               0 [       0] RVA [size] of Global Pointer Directory
               0 [       0] RVA [size] of Thread Storage Directory
               0 [       0] RVA [size] of Load Configuration Directory
               0 [       0] RVA [size] of Bound Import Directory
               0 [       0] RVA [size] of Import Address Table Directory
               0 [       0] RVA [size] of Delay Import Directory
               0 [       0] RVA [size] of COM Descriptor Directory
               0 [       0] RVA [size] of Reserved Directory


SECTION HEADER #1
   .data name
    1000 virtual size
    1000 virtual address (0000000010001000 to 0000000010001FFF)
     C00 size of raw data
    1600 file pointer to raw data (00001600 to 000021FF)
       0 file pointer to relocation table
       0 file pointer to line numbers
       0 number of relocations
       0 number of line numbers
C0000040 flags
         Initialized Data
         Read Write

RAW DATA #1
  0000000010001000: 00 00 00 00 00 00 00 00 00 00 00 00 00 00 00 00  ................
  0000000010001010: 00 00 00 00 00 00 00 00 00 00 00 00 00 00 00 00  ................
  0000000010001020: 00 00 00 00 00 00 00 00 00 00 00 00 00 00 00 00  ................
  0000000010001030: 00 00 00 00 00 00 00 00 00 00 00 00 00 00 00 00  ................
  0000000010001040: 00 00 00 00 00 00 00 00 00 00 00 00 00 00 00 00  ................
  0000000010001050: 00 00 00 00 00 00 00 00 00 00 00 00 00 00 00 00  ................
  0000000010001060: 00 00 00 00 00 00 00 00 00 00 00 00 00 00 00 00  ................
  0000000010001070: 00 00 00 00 00 00 00 00 00 00 00 00 00 00 00 00  ................
  0000000010001080: 00 00 00 00 00 00 00 00 00 00 00 00 00 00 00 00  ................
  0000000010001090: 00 00 00 00 00 00 00 00 00 00 00 00 00 00 00 00  ................
  00000000100010A0: 00 00 00 00 00 00 00 00 00 00 00 00 00 00 00 00  ................
  00000000100010B0: 00 00 00 00 00 00 00 00 00 00 00 00 00 00 00 00  ................
  00000000100010C0: 00 00 00 00 00 00 00 00 00 00 00 00 00 00 00 00  ................
  00000000100010D0: 00 00 00 00 00 00 00 00 00 00 00 00 00 00 00 00  ................
  00000000100010E0: 00 00 00 00 00 00 00 00 00 00 00 00 00 00 00 00  ................
  00000000100010F0: 00 00 00 00 00 00 00 00 00 00 00 00 00 00 00 00  ................
  0000000010001100: 00 00 00 00 00 00 00 00 00 00 00 00 00 00 00 00  ................
  0000000010001110: 00 00 00 00 00 00 00 00 00 00 00 00 00 00 00 00  ................
  0000000010001120: 00 00 00 00 00 00 00 00 00 00 00 00 00 00 00 00  ................
  0000000010001130: 00 00 00 00 00 00 00 00 00 00 00 00 00 00 00 00  ................
  0000000010001140: 00 00 00 00 00 00 00 00 00 00 00 00 00 00 00 00  ................
  0000000010001150: 00 00 00 00 00 00 00 00 00 00 00 00 00 00 00 00  ................
  0000000010001160: 00 00 00 00 00 00 00 00 00 00 00 00 00 00 00 00  ................
  0000000010001170: 00 00 00 00 00 00 00 00 00 00 00 00 00 00 00 00  ................
  0000000010001180: 00 00 00 00 00 00 00 00 00 00 00 00 00 00 00 00  ................
  0000000010001190: 00 00 00 00 00 00 00 00 00 00 00 00 00 00 00 00  ................
  00000000100011A0: 00 00 00 00 00 00 00 00 00 00 00 00 00 00 00 00  ................
  00000000100011B0: 00 00 00 00 00 00 00 00 00 00 00 00 00 00 00 00  ................
  00000000100011C0: 00 00 00 00 00 00 00 00 00 00 00 00 00 00 00 00  ................
  00000000100011D0: 00 00 00 00 00 00 00 00 00 00 00 00 00 00 00 00  ................
  00000000100011E0: 00 00 00 00 00 00 00 00 00 00 00 00 00 00 00 00  ................
  00000000100011F0: 00 00 00 00 00 00 00 00 00 00 00 00 00 00 00 00  ................
  0000000010001200: 00 00 00 00 00 00 00 00 00 00 00 00 00 00 00 00  ................
  0000000010001210: 00 00 00 00 00 00 00 00 00 00 00 00 00 00 00 00  ................
  0000000010001220: 00 00 00 00 00 00 00 00 00 00 00 00 00 00 00 00  ................
  0000000010001230: 00 00 00 00 00 00 00 00 00 00 00 00 00 00 00 00  ................
  0000000010001240: 00 00 00 00 00 00 00 00 00 00 00 00 00 00 00 00  ................
  0000000010001250: 00 00 00 00 00 00 00 00 00 00 00 00 00 00 00 00  ................
  0000000010001260: 00 00 00 00 00 00 00 00 00 00 00 00 00 00 00 00  ................
  0000000010001270: 00 00 00 00 00 00 00 00 00 00 00 00 00 00 00 00  ................
  0000000010001280: 00 00 00 00 00 00 00 00 00 00 00 00 00 00 00 00  ................
  0000000010001290: 00 00 00 00 00 00 00 00 00 00 00 00 00 00 00 00  ................
  00000000100012A0: 00 00 00 00 00 00 00 00 00 00 00 00 00 00 00 00  ................
  00000000100012B0: 00 00 00 00 00 00 00 00 00 00 00 00 00 00 00 00  ................
  00000000100012C0: 00 00 00 00 00 00 00 00 00 00 00 00 00 00 00 00  ................
  00000000100012D0: 00 00 00 00 00 00 00 00 00 00 00 00 00 00 00 00  ................
  00000000100012E0: 00 00 00 00 00 00 00 00 00 00 00 00 00 00 00 00  ................
  00000000100012F0: 00 00 00 00 00 00 00 00 00 00 00 00 00 00 00 00  ................
  0000000010001300: 00 00 00 00 00 00 00 00 00 00 00 00 00 00 00 00  ................
  0000000010001310: 00 00 00 00 00 00 00 00 00 00 00 00 00 00 00 00  ................
  0000000010001320: 00 00 00 00 00 00 00 00 00 00 00 00 00 00 00 00  ................
  0000000010001330: 00 00 00 00 00 00 00 00 00 00 00 00 00 00 00 00  ................
  0000000010001340: 00 00 00 00 00 00 00 00 00 00 00 00 00 00 00 00  ................
  0000000010001350: 00 00 00 00 00 00 00 00 00 00 00 00 00 00 00 00  ................
  0000000010001360: 00 00 00 00 00 00 00 00 00 00 00 00 00 00 00 00  ................
  0000000010001370: 00 00 00 00 00 00 00 00 00 00 00 00 00 00 00 00  ................
  0000000010001380: 00 00 00 00 00 00 00 00 00 00 00 00 00 00 00 00  ................
  0000000010001390: 00 00 00 00 00 00 00 00 00 00 00 00 00 00 00 00  ................
  00000000100013A0: 00 00 00 00 00 00 00 00 00 00 00 00 00 00 00 00  ................
  00000000100013B0: 00 00 00 00 00 00 00 00 00 00 00 00 00 00 00 00  ................
  00000000100013C0: 00 00 00 00 00 00 00 00 00 00 00 00 00 00 00 00  ................
  00000000100013D0: 00 00 00 00 00 00 00 00 00 00 00 00 00 00 00 00  ................
  00000000100013E0: 00 00 00 00 00 00 00 00 00 00 00 00 00 00 00 00  ................
  00000000100013F0: 00 00 00 00 00 00 00 00 00 00 00 00 00 00 00 00  ................
  0000000010001400: 00 00 00 00 00 00 00 00 00 00 00 00 00 00 00 00  ................
  0000000010001410: 00 00 00 00 00 00 00 00 00 00 00 00 00 00 00 00  ................
  0000000010001420: 00 00 00 00 00 00 00 00 00 00 00 00 00 00 00 00  ................
  0000000010001430: 00 00 00 00 00 00 00 00 00 00 00 00 00 00 00 00  ................
  0000000010001440: 00 00 00 00 00 00 00 00 00 00 00 00 00 00 00 00  ................
  0000000010001450: 00 00 00 00 00 00 00 00 00 00 00 00 00 00 00 00  ................
  0000000010001460: 00 00 00 00 00 00 00 00 00 00 00 00 00 00 00 00  ................
  0000000010001470: 00 00 00 00 00 00 00 00 00 00 00 00 00 00 00 00  ................
  0000000010001480: 00 00 00 00 00 00 00 00 00 00 00 00 00 00 00 00  ................
  0000000010001490: 00 00 00 00 00 00 00 00 00 00 00 00 00 00 00 00  ................
  00000000100014A0: 00 00 00 00 00 00 00 00 00 00 00 00 00 00 00 00  ................
  00000000100014B0: 00 00 00 00 00 00 00 00 00 00 00 00 00 00 00 00  ................
  00000000100014C0: 00 00 00 00 00 00 00 00 00 00 00 00 00 00 00 00  ................
  00000000100014D0: 00 00 00 00 00 00 00 00 00 00 00 00 00 00 00 00  ................
  00000000100014E0: 00 00 00 00 00 00 00 00 00 00 00 00 00 00 00 00  ................
  00000000100014F0: 00 00 00 00 00 00 00 00 00 00 00 00 00 00 00 00  ................
  0000000010001500: 00 00 00 00 00 00 00 00 00 00 00 00 00 00 00 00  ................
  0000000010001510: 00 00 00 00 00 00 00 00 00 00 00 00 00 00 00 00  ................
  0000000010001520: 00 00 00 00 00 00 00 00 00 00 00 00 00 00 00 00  ................
  0000000010001530: 00 00 00 00 00 00 00 00 00 00 00 00 00 00 00 00  ................
  0000000010001540: 00 00 00 00 00 00 00 00 00 00 00 00 00 00 00 00  ................
  0000000010001550: 00 00 00 00 00 00 00 00 00 00 00 00 00 00 00 00  ................
  0000000010001560: 00 00 00 00 00 00 00 00 00 00 00 00 00 00 00 00  ................
  0000000010001570: 00 00 00 00 00 00 00 00 00 00 00 00 00 00 00 00  ................
  0000000010001580: 00 00 00 00 00 00 00 00 00 00 00 00 00 00 00 00  ................
  0000000010001590: 00 00 00 00 00 00 00 00 00 00 00 00 00 00 00 00  ................
  00000000100015A0: 00 00 00 00 00 00 00 00 00 00 00 00 00 00 00 00  ................
  00000000100015B0: 00 00 00 00 00 00 00 00 00 00 00 00 00 00 00 00  ................
  00000000100015C0: 00 00 00 00 00 00 00 00 00 00 00 00 00 00 00 00  ................
  00000000100015D0: 00 00 00 00 00 00 00 00 00 00 00 00 00 00 00 00  ................
  00000000100015E0: 00 00 00 00 00 00 00 00 00 00 00 00 00 00 00 00  ................
  00000000100015F0: 00 00 00 00 00 00 00 00 00 00 00 00 00 00 00 00  ................
  0000000010001600: 00 00 00 00 00 00 00 00 00 00 00 00 00 00 00 00  ................
  0000000010001610: 00 00 00 00 00 00 00 00 00 00 00 00 00 00 00 00  ................
  0000000010001620: 00 00 00 00 00 00 00 00 00 00 00 00 00 00 00 00  ................
  0000000010001630: 00 00 00 00 00 00 00 00 00 00 00 00 00 00 00 00  ................
  0000000010001640: 00 00 00 00 00 00 00 00 00 00 00 00 00 00 00 00  ................
  0000000010001650: 00 00 00 00 00 00 00 00 00 00 00 00 00 00 00 00  ................
  0000000010001660: 00 00 00 00 00 00 00 00 00 00 00 00 00 00 00 00  ................
  0000000010001670: 00 00 00 00 00 00 00 00 00 00 00 00 00 00 00 00  ................
  0000000010001680: 00 00 00 00 00 00 00 00 00 00 00 00 00 00 00 00  ................
  0000000010001690: 00 00 00 00 00 00 00 00 00 00 00 00 00 00 00 00  ................
  00000000100016A0: 00 00 00 00 00 00 00 00 00 00 00 00 00 00 00 00  ................
  00000000100016B0: 00 00 00 00 00 00 00 00 00 00 00 00 00 00 00 00  ................
  00000000100016C0: 00 00 00 00 00 00 00 00 00 00 00 00 00 00 00 00  ................
  00000000100016D0: 00 00 00 00 00 00 00 00 00 00 00 00 00 00 00 00  ................
  00000000100016E0: 00 00 00 00 00 00 00 00 00 00 00 00 00 00 00 00  ................
  00000000100016F0: 00 00 00 00 00 00 00 00 00 00 00 00 00 00 00 00  ................
  0000000010001700: 00 00 00 00 00 00 00 00 00 00 00 00 00 00 00 00  ................
  0000000010001710: 00 00 00 00 00 00 00 00 00 00 00 00 00 00 00 00  ................
  0000000010001720: 00 00 00 00 00 00 00 00 00 00 00 00 00 00 00 00  ................
  0000000010001730: 00 00 00 00 00 00 00 00 00 00 00 00 00 00 00 00  ................
  0000000010001740: 00 00 00 00 00 00 00 00 00 00 00 00 00 00 00 00  ................
  0000000010001750: 00 00 00 00 00 00 00 00 00 00 00 00 00 00 00 00  ................
  0000000010001760: 00 00 00 00 00 00 00 00 00 00 00 00 00 00 00 00  ................
  0000000010001770: 00 00 00 00 00 00 00 00 00 00 00 00 00 00 00 00  ................
  0000000010001780: 00 00 00 00 00 00 00 00 00 00 00 00 00 00 00 00  ................
  0000000010001790: 00 00 00 00 00 00 00 00 00 00 00 00 00 00 00 00  ................
  00000000100017A0: 00 00 00 00 00 00 00 00 00 00 00 00 00 00 00 00  ................
  00000000100017B0: 00 00 00 00 00 00 00 00 00 00 00 00 00 00 00 00  ................
  00000000100017C0: 00 00 00 00 00 00 00 00 00 00 00 00 00 00 00 00  ................
  00000000100017D0: 00 00 00 00 00 00 00 00 00 00 00 00 00 00 00 00  ................
  00000000100017E0: 00 00 00 00 00 00 00 00 00 00 00 00 00 00 00 00  ................
  00000000100017F0: 00 00 00 00 00 00 00 00 00 00 00 00 00 00 00 00  ................
  0000000010001800: 00 00 00 00 00 00 00 00 00 00 00 00 00 00 00 00  ................
  0000000010001810: 00 00 00 00 00 00 00 00 00 00 00 00 00 00 00 00  ................
  0000000010001820: 00 00 00 00 00 00 00 00 00 00 00 00 00 00 00 00  ................
  0000000010001830: 00 00 00 00 00 00 00 00 00 00 00 00 00 00 00 00  ................
  0000000010001840: 00 00 00 00 00 00 00 00 00 00 00 00 00 00 00 00  ................
  0000000010001850: 00 00 00 00 00 00 00 00 00 00 00 00 00 00 00 00  ................
  0000000010001860: 00 00 00 00 00 00 00 00 00 00 00 00 00 00 00 00  ................
  0000000010001870: 00 00 00 00 00 00 00 00 00 00 00 00 00 00 00 00  ................
  0000000010001880: 00 00 00 00 00 00 00 00 00 00 00 00 00 00 00 00  ................
  0000000010001890: 00 00 00 00 00 00 00 00 00 00 00 00 00 00 00 00  ................
  00000000100018A0: 00 00 00 00 00 00 00 00 00 00 00 00 00 00 00 00  ................
  00000000100018B0: 00 00 00 00 00 00 00 00 00 00 00 00 00 00 00 00  ................
  00000000100018C0: 00 00 00 00 00 00 00 00 00 00 00 00 00 00 00 00  ................
  00000000100018D0: 00 00 00 00 00 00 00 00 00 00 00 00 00 00 00 00  ................
  00000000100018E0: 00 00 00 00 00 00 00 00 00 00 00 00 00 00 00 00  ................
  00000000100018F0: 00 00 00 00 00 00 00 00 00 00 00 00 00 00 00 00  ................
  0000000010001900: 00 00 00 00 00 00 00 00 00 00 00 00 00 00 00 00  ................
  0000000010001910: 00 00 00 00 00 00 00 00 00 00 00 00 00 00 00 00  ................
  0000000010001920: 00 00 00 00 00 00 00 00 00 00 00 00 00 00 00 00  ................
  0000000010001930: 00 00 00 00 00 00 00 00 00 00 00 00 00 00 00 00  ................
  0000000010001940: 00 00 00 00 00 00 00 00 00 00 00 00 00 00 00 00  ................
  0000000010001950: 00 00 00 00 00 00 00 00 00 00 00 00 00 00 00 00  ................
  0000000010001960: 00 00 00 00 00 00 00 00 00 00 00 00 00 00 00 00  ................
  0000000010001970: 00 00 00 00 00 00 00 00 00 00 00 00 00 00 00 00  ................
  0000000010001980: 00 00 00 00 00 00 00 00 00 00 00 00 00 00 00 00  ................
  0000000010001990: 00 00 00 00 00 00 00 00 00 00 00 00 00 00 00 00  ................
  00000000100019A0: 00 00 00 00 00 00 00 00 00 00 00 00 00 00 00 00  ................
  00000000100019B0: 00 00 00 00 00 00 00 00 00 00 00 00 00 00 00 00  ................
  00000000100019C0: 00 00 00 00 00 00 00 00 00 00 00 00 00 00 00 00  ................
  00000000100019D0: 00 00 00 00 00 00 00 00 00 00 00 00 00 00 00 00  ................
  00000000100019E0: 00 00 00 00 00 00 00 00 00 00 00 00 00 00 00 00  ................
  00000000100019F0: 00 00 00 00 00 00 00 00 00 00 00 00 00 00 00 00  ................
  0000000010001A00: 00 00 00 00 00 00 00 00 00 00 00 00 00 00 00 00  ................
  0000000010001A10: 00 00 00 00 00 00 00 00 00 00 00 00 00 00 00 00  ................
  0000000010001A20: 00 00 00 00 00 00 00 00 00 00 00 00 00 00 00 00  ................
  0000000010001A30: 00 00 00 00 00 00 00 00 00 00 00 00 00 00 00 00  ................
  0000000010001A40: 00 00 00 00 00 00 00 00 00 00 00 00 00 00 00 00  ................
  0000000010001A50: 00 00 00 00 00 00 00 00 00 00 00 00 00 00 00 00  ................
  0000000010001A60: 00 00 00 00 00 00 00 00 00 00 00 00 00 00 00 00  ................
  0000000010001A70: 00 00 00 00 00 00 00 00 00 00 00 00 00 00 00 00  ................
  0000000010001A80: 00 00 00 00 00 00 00 00 00 00 00 00 00 00 00 00  ................
  0000000010001A90: 00 00 00 00 00 00 00 00 00 00 00 00 00 00 00 00  ................
  0000000010001AA0: 00 00 00 00 00 00 00 00 00 00 00 00 00 00 00 00  ................
  0000000010001AB0: 00 00 00 00 00 00 00 00 00 00 00 00 00 00 00 00  ................
  0000000010001AC0: 00 00 00 00 00 00 00 00 00 00 00 00 00 00 00 00  ................
  0000000010001AD0: 00 00 00 00 00 00 00 00 00 00 00 00 00 00 00 00  ................
  0000000010001AE0: 00 00 00 00 00 00 00 00 00 00 00 00 00 00 00 00  ................
  0000000010001AF0: 00 00 00 00 00 00 00 00 00 00 00 00 00 00 00 00  ................
  0000000010001B00: 00 00 00 00 00 00 00 00 00 00 00 00 00 00 00 00  ................
  0000000010001B10: 00 00 00 00 00 00 00 00 00 00 00 00 00 00 00 00  ................
  0000000010001B20: 00 00 00 00 00 00 00 00 00 00 00 00 00 00 00 00  ................
  0000000010001B30: 00 00 00 00 00 00 00 00 00 00 00 00 00 00 00 00  ................
  0000000010001B40: 00 00 00 00 00 00 00 00 00 00 00 00 00 00 00 00  ................
  0000000010001B50: 00 00 00 00 00 00 00 00 00 00 00 00 00 00 00 00  ................
  0000000010001B60: 00 00 00 00 00 00 00 00 00 00 00 00 00 00 00 00  ................
  0000000010001B70: 00 00 00 00 00 00 00 00 00 00 00 00 00 00 00 00  ................
  0000000010001B80: 00 00 00 00 00 00 00 00 00 00 00 00 00 00 00 00  ................
  0000000010001B90: 00 00 00 00 00 00 00 00 00 00 00 00 00 00 00 00  ................
  0000000010001BA0: 00 00 00 00 00 00 00 00 00 00 00 00 00 00 00 00  ................
  0000000010001BB0: 00 00 00 00 00 00 00 00 00 00 00 00 00 00 00 00  ................
  0000000010001BC0: 00 00 00 00 00 00 00 00 70 30 00 00 00 00 00 00  ........p0......
  0000000010001BD0: 90 30 00 00 00 00 00 00 B0 30 00 00 00 00 00 00  .0......°0......
  0000000010001BE0: D0 30 00 00 00 00 00 00 F0 30 00 00 00 00 00 00  ?0......?0......
  0000000010001BF0: 10 31 00 00 00 00 00 00 00 00 00 00 00 00 00 00  .1..............

SECTION HEADER #2
   .text name
     E99 virtual size
    2000 virtual address (0000000010002000 to 0000000010002E98)
    1000 size of raw data
     400 file pointer to raw data (00000400 to 000013FF)
       0 file pointer to relocation table
       0 file pointer to line numbers
       0 number of relocations
       0 number of line numbers
60000020 flags
         Code
         Execute Read

  0000000010002000: 55                 push        rbp
  0000000010002001: 48 8B EC           mov         rbp,rsp
  0000000010002004: 48 89 4D 10        mov         qword ptr [rbp+10h],rcx
  0000000010002008: B8 01 23 45 67     mov         eax,67452301h
  000000001000200D: 48 8B 4D 10        mov         rcx,qword ptr [rbp+10h]
  0000000010002011: 48 89 01           mov         qword ptr [rcx],rax
  0000000010002014: B8 89 AB CD EF     mov         eax,0EFCDAB89h
  0000000010002019: 48 8B 4D 10        mov         rcx,qword ptr [rbp+10h]
  000000001000201D: 48 89 41 08        mov         qword ptr [rcx+8],rax
  0000000010002021: B8 FE DC BA 98     mov         eax,98BADCFEh
  0000000010002026: 48 8B 4D 10        mov         rcx,qword ptr [rbp+10h]
  000000001000202A: 48 89 41 10        mov         qword ptr [rcx+10h],rax
  000000001000202E: B8 76 54 32 10     mov         eax,10325476h
  0000000010002033: 48 8B 4D 10        mov         rcx,qword ptr [rbp+10h]
  0000000010002037: 48 89 41 18        mov         qword ptr [rcx+18h],rax
  000000001000203B: 31 C0              xor         eax,eax
  000000001000203D: 48 8B 4D 10        mov         rcx,qword ptr [rbp+10h]
  0000000010002041: 48 89 41 20        mov         qword ptr [rcx+20h],rax
  0000000010002045: C9                 leave
  0000000010002046: C3                 ret
  0000000010002047: 55                 push        rbp
  0000000010002048: 48 8B EC           mov         rbp,rsp
  000000001000204B: 48 89 4D 10        mov         qword ptr [rbp+10h],rcx
  000000001000204F: 48 89 55 18        mov         qword ptr [rbp+18h],rdx
  0000000010002053: 48 8B 45 18        mov         rax,qword ptr [rbp+18h]
  0000000010002057: 48 83 E0 1F        and         rax,1Fh
  000000001000205B: 48 89 45 18        mov         qword ptr [rbp+18h],rax
  000000001000205F: 48 8B 45 10        mov         rax,qword ptr [rbp+10h]
  0000000010002063: B9 FF FF FF FF     mov         ecx,0FFFFFFFFh
  0000000010002068: 48 23 C1           and         rax,rcx
  000000001000206B: 48 89 45 10        mov         qword ptr [rbp+10h],rax
  000000001000206F: 48 8B 45 10        mov         rax,qword ptr [rbp+10h]
  0000000010002073: 48 8B 4D 18        mov         rcx,qword ptr [rbp+18h]
  0000000010002077: 48 D3 E0           shl         rax,cl
  000000001000207A: 48 8B 4D 10        mov         rcx,qword ptr [rbp+10h]
  000000001000207E: BA 20 00 00 00     mov         edx,20h
  0000000010002083: 4C 8B 45 18        mov         r8,qword ptr [rbp+18h]
  0000000010002087: 49 2B D0           sub         rdx,r8
  000000001000208A: 48 87 CA           xchg        rcx,rdx
  000000001000208D: 48 D3 FA           sar         rdx,cl
  0000000010002090: 48 8B CA           mov         rcx,rdx
  0000000010002093: 48 03 C1           add         rax,rcx
  0000000010002096: B9 FF FF FF FF     mov         ecx,0FFFFFFFFh
  000000001000209B: 48 23 C1           and         rax,rcx
  000000001000209E: C9                 leave
  000000001000209F: C3                 ret
  00000000100020A0: 55                 push        rbp
  00000000100020A1: 48 8B EC           mov         rbp,rsp
  00000000100020A4: 48 83 EC 50        sub         rsp,50h
  00000000100020A8: 48 89 4D 10        mov         qword ptr [rbp+10h],rcx
  00000000100020AC: 48 89 55 18        mov         qword ptr [rbp+18h],rdx
  00000000100020B0: 48 8B 45 10        mov         rax,qword ptr [rbp+10h]
  00000000100020B4: 48 8B 00           mov         rax,qword ptr [rax]
  00000000100020B7: 48 89 45 F8        mov         qword ptr [rbp-8],rax
  00000000100020BB: 48 8B 45 10        mov         rax,qword ptr [rbp+10h]
  00000000100020BF: 48 8B 40 08        mov         rax,qword ptr [rax+8]
  00000000100020C3: 48 89 45 F0        mov         qword ptr [rbp-10h],rax
  00000000100020C7: 48 8B 45 10        mov         rax,qword ptr [rbp+10h]
  00000000100020CB: 48 8B 40 10        mov         rax,qword ptr [rax+10h]
  00000000100020CF: 48 89 45 E8        mov         qword ptr [rbp-18h],rax
  00000000100020D3: 48 8B 45 10        mov         rax,qword ptr [rbp+10h]
  00000000100020D7: 48 8B 40 18        mov         rax,qword ptr [rax+18h]
  00000000100020DB: 48 89 45 E0        mov         qword ptr [rbp-20h],rax
  00000000100020DF: 31 C0              xor         eax,eax
  00000000100020E1: 48 89 45 C8        mov         qword ptr [rbp-38h],rax
  00000000100020E5: B8 3F 00 00 00     mov         eax,3Fh
  00000000100020EA: 48 89 45 B0        mov         qword ptr [rbp-50h],rax
  00000000100020EE: 48 8B 45 C8        mov         rax,qword ptr [rbp-38h]
  00000000100020F2: 48 3B 45 B0        cmp         rax,qword ptr [rbp-50h]
  00000000100020F6: 0F 8F BE 02 00 00  jg          00000000100023BA
  00000000100020FC: 48 8B 45 C8        mov         rax,qword ptr [rbp-38h]
  0000000010002100: 48 85 C0           test        rax,rax
  0000000010002103: 0F 8C 3B 00 00 00  jl          0000000010002144
  0000000010002109: 48 8B 45 C8        mov         rax,qword ptr [rbp-38h]
  000000001000210D: 48 83 F8 0F        cmp         rax,0Fh
  0000000010002111: 0F 8F 2D 00 00 00  jg          0000000010002144
  0000000010002117: 48 8B 45 F0        mov         rax,qword ptr [rbp-10h]
  000000001000211B: 48 8B 4D E8        mov         rcx,qword ptr [rbp-18h]
  000000001000211F: 48 23 C1           and         rax,rcx
  0000000010002122: 48 8B 4D F0        mov         rcx,qword ptr [rbp-10h]
  0000000010002126: 48 F7 D1           not         rcx
  0000000010002129: 48 8B 55 E0        mov         rdx,qword ptr [rbp-20h]
  000000001000212D: 48 23 CA           and         rcx,rdx
  0000000010002130: 48 0B C1           or          rax,rcx
  0000000010002133: 48 89 45 D0        mov         qword ptr [rbp-30h],rax
  0000000010002137: 48 8B 45 C8        mov         rax,qword ptr [rbp-38h]
  000000001000213B: 48 89 45 C0        mov         qword ptr [rbp-40h],rax
  000000001000213F: E9 EE 00 00 00     jmp         0000000010002232
  0000000010002144: 48 8B 45 C8        mov         rax,qword ptr [rbp-38h]
  0000000010002148: 48 83 F8 10        cmp         rax,10h
  000000001000214C: 0F 8C 4A 00 00 00  jl          000000001000219C
  0000000010002152: 48 8B 45 C8        mov         rax,qword ptr [rbp-38h]
  0000000010002156: 48 83 F8 1F        cmp         rax,1Fh
  000000001000215A: 0F 8F 3C 00 00 00  jg          000000001000219C
  0000000010002160: 48 8B 45 E0        mov         rax,qword ptr [rbp-20h]
  0000000010002164: 48 8B 4D F0        mov         rcx,qword ptr [rbp-10h]
  0000000010002168: 48 23 C1           and         rax,rcx
  000000001000216B: 48 8B 4D E0        mov         rcx,qword ptr [rbp-20h]
  000000001000216F: 48 F7 D1           not         rcx
  0000000010002172: 48 8B 55 E8        mov         rdx,qword ptr [rbp-18h]
  0000000010002176: 48 23 CA           and         rcx,rdx
  0000000010002179: 48 0B C1           or          rax,rcx
  000000001000217C: 48 89 45 D0        mov         qword ptr [rbp-30h],rax
  0000000010002180: 48 8B 45 C8        mov         rax,qword ptr [rbp-38h]
  0000000010002184: 48 69 C0 05 00 00  imul        rax,rax,5
                    00
  000000001000218B: 48 83 C0 01        add         rax,1
  000000001000218F: 48 83 E0 0F        and         rax,0Fh
  0000000010002193: 48 89 45 C0        mov         qword ptr [rbp-40h],rax
  0000000010002197: E9 96 00 00 00     jmp         0000000010002232
  000000001000219C: 48 8B 45 C8        mov         rax,qword ptr [rbp-38h]
  00000000100021A0: 48 83 F8 20        cmp         rax,20h
  00000000100021A4: 0F 8C 40 00 00 00  jl          00000000100021EA
  00000000100021AA: 48 8B 45 C8        mov         rax,qword ptr [rbp-38h]
  00000000100021AE: 48 83 F8 2F        cmp         rax,2Fh
  00000000100021B2: 0F 8F 32 00 00 00  jg          00000000100021EA
  00000000100021B8: 48 8B 45 F0        mov         rax,qword ptr [rbp-10h]
  00000000100021BC: 48 8B 4D E8        mov         rcx,qword ptr [rbp-18h]
  00000000100021C0: 48 33 C1           xor         rax,rcx
  00000000100021C3: 48 8B 4D E0        mov         rcx,qword ptr [rbp-20h]
  00000000100021C7: 48 33 C1           xor         rax,rcx
  00000000100021CA: 48 89 45 D0        mov         qword ptr [rbp-30h],rax
  00000000100021CE: 48 8B 45 C8        mov         rax,qword ptr [rbp-38h]
  00000000100021D2: 48 69 C0 03 00 00  imul        rax,rax,3
                    00
  00000000100021D9: 48 83 C0 05        add         rax,5
  00000000100021DD: 48 83 E0 0F        and         rax,0Fh
  00000000100021E1: 48 89 45 C0        mov         qword ptr [rbp-40h],rax
  00000000100021E5: E9 48 00 00 00     jmp         0000000010002232
  00000000100021EA: 48 8B 45 C8        mov         rax,qword ptr [rbp-38h]
  00000000100021EE: 48 83 F8 30        cmp         rax,30h
  00000000100021F2: 0F 8C 3A 00 00 00  jl          0000000010002232
  00000000100021F8: 48 8B 45 C8        mov         rax,qword ptr [rbp-38h]
  00000000100021FC: 48 83 F8 3F        cmp         rax,3Fh
  0000000010002200: 0F 8F 2C 00 00 00  jg          0000000010002232
  0000000010002206: 48 8B 45 E8        mov         rax,qword ptr [rbp-18h]
  000000001000220A: 48 8B 4D F0        mov         rcx,qword ptr [rbp-10h]
  000000001000220E: 48 8B 55 E0        mov         rdx,qword ptr [rbp-20h]
  0000000010002212: 48 F7 D2           not         rdx
  0000000010002215: 48 0B CA           or          rcx,rdx
  0000000010002218: 48 33 C1           xor         rax,rcx
  000000001000221B: 48 89 45 D0        mov         qword ptr [rbp-30h],rax
  000000001000221F: 48 8B 45 C8        mov         rax,qword ptr [rbp-38h]
  0000000010002223: 48 69 C0 07 00 00  imul        rax,rax,7
                    00
  000000001000222A: 48 83 E0 0F        and         rax,0Fh
  000000001000222E: 48 89 45 C0        mov         qword ptr [rbp-40h],rax
  0000000010002232: 48 8B 45 E0        mov         rax,qword ptr [rbp-20h]
  0000000010002236: 48 89 45 D8        mov         qword ptr [rbp-28h],rax
  000000001000223A: 48 8B 45 E8        mov         rax,qword ptr [rbp-18h]
  000000001000223E: 48 89 45 E0        mov         qword ptr [rbp-20h],rax
  0000000010002242: 48 8B 45 F0        mov         rax,qword ptr [rbp-10h]
  0000000010002246: 48 89 45 E8        mov         qword ptr [rbp-18h],rax
  000000001000224A: 48 8B 45 C0        mov         rax,qword ptr [rbp-40h]
  000000001000224E: 48 C1 E0 02        shl         rax,2
  0000000010002252: 48 83 F8 40        cmp         rax,40h
  0000000010002256: 0F 83 05 00 00 00  jae         0000000010002261
  000000001000225C: E9 08 00 00 00     jmp         0000000010002269
  0000000010002261: B0 01              mov         al,1
  0000000010002263: B9 A2 05 00 00     mov         ecx,5A2h
  0000000010002268: CC                 int         3
  0000000010002269: 48 8B 4D 18        mov         rcx,qword ptr [rbp+18h]
  000000001000226D: 48 03 C1           add         rax,rcx
  0000000010002270: 0F B6 00           movzx       eax,byte ptr [rax]
  0000000010002273: 48 8B 4D C0        mov         rcx,qword ptr [rbp-40h]
  0000000010002277: 48 C1 E1 02        shl         rcx,2
  000000001000227B: 48 83 C1 01        add         rcx,1
  000000001000227F: 48 83 F9 40        cmp         rcx,40h
  0000000010002283: 0F 83 05 00 00 00  jae         000000001000228E
  0000000010002289: E9 08 00 00 00     jmp         0000000010002296
  000000001000228E: B0 01              mov         al,1
  0000000010002290: B9 AD 05 00 00     mov         ecx,5ADh
  0000000010002295: CC                 int         3
  0000000010002296: 48 8B 55 18        mov         rdx,qword ptr [rbp+18h]
  000000001000229A: 48 03 CA           add         rcx,rdx
  000000001000229D: 0F B6 09           movzx       ecx,byte ptr [rcx]
  00000000100022A0: 48 C1 E1 08        shl         rcx,8
  00000000100022A4: 48 03 C1           add         rax,rcx
  00000000100022A7: 48 8B 4D C0        mov         rcx,qword ptr [rbp-40h]
  00000000100022AB: 48 C1 E1 02        shl         rcx,2
  00000000100022AF: 48 83 C1 02        add         rcx,2
  00000000100022B3: 48 83 F9 40        cmp         rcx,40h
  00000000100022B7: 0F 83 05 00 00 00  jae         00000000100022C2
  00000000100022BD: E9 08 00 00 00     jmp         00000000100022CA
  00000000100022C2: B0 01              mov         al,1
  00000000100022C4: B9 BD 05 00 00     mov         ecx,5BDh
  00000000100022C9: CC                 int         3
  00000000100022CA: 48 8B 55 18        mov         rdx,qword ptr [rbp+18h]
  00000000100022CE: 48 03 CA           add         rcx,rdx
  00000000100022D1: 0F B6 09           movzx       ecx,byte ptr [rcx]
  00000000100022D4: 48 C1 E1 10        shl         rcx,10h
  00000000100022D8: 48 03 C1           add         rax,rcx
  00000000100022DB: 48 8B 4D C0        mov         rcx,qword ptr [rbp-40h]
  00000000100022DF: 48 C1 E1 02        shl         rcx,2
  00000000100022E3: 48 83 C1 03        add         rcx,3
  00000000100022E7: 48 83 F9 40        cmp         rcx,40h
  00000000100022EB: 0F 83 05 00 00 00  jae         00000000100022F6
  00000000100022F1: E9 08 00 00 00     jmp         00000000100022FE
  00000000100022F6: B0 01              mov         al,1
  00000000100022F8: B9 CF 05 00 00     mov         ecx,5CFh
  00000000100022FD: CC                 int         3
  00000000100022FE: 48 8B 55 18        mov         rdx,qword ptr [rbp+18h]
  0000000010002302: 48 03 CA           add         rcx,rdx
  0000000010002305: 0F B6 09           movzx       ecx,byte ptr [rcx]
  0000000010002308: 48 C1 E1 18        shl         rcx,18h
  000000001000230C: 48 03 C1           add         rax,rcx
  000000001000230F: 48 89 45 B8        mov         qword ptr [rbp-48h],rax
  0000000010002313: 48 83 EC 20        sub         rsp,20h
  0000000010002317: 48 8B 4D F8        mov         rcx,qword ptr [rbp-8]
  000000001000231B: 48 8B 55 D0        mov         rdx,qword ptr [rbp-30h]
  000000001000231F: 48 03 CA           add         rcx,rdx
  0000000010002322: 48 8B 55 C8        mov         rdx,qword ptr [rbp-38h]
  0000000010002326: 48 83 FA 40        cmp         rdx,40h
  000000001000232A: 0F 83 05 00 00 00  jae         0000000010002335
  0000000010002330: E9 08 00 00 00     jmp         000000001000233D
  0000000010002335: B0 01              mov         al,1
  0000000010002337: B9 06 06 00 00     mov         ecx,606h
  000000001000233C: CC                 int         3
  000000001000233D: 48 C1 E2 03        shl         rdx,3
  0000000010002341: 4C 8D 05 B8 FA FF  lea         r8,[0000000010001E00h]
                    FF
  0000000010002348: 49 03 D0           add         rdx,r8
  000000001000234B: 48 8B 12           mov         rdx,qword ptr [rdx]
  000000001000234E: 48 03 CA           add         rcx,rdx
  0000000010002351: 48 8B 55 B8        mov         rdx,qword ptr [rbp-48h]
  0000000010002355: 48 03 CA           add         rcx,rdx
  0000000010002358: 48 8B 55 C8        mov         rdx,qword ptr [rbp-38h]
  000000001000235C: 48 83 FA 40        cmp         rdx,40h
  0000000010002360: 0F 83 05 00 00 00  jae         000000001000236B
  0000000010002366: E9 08 00 00 00     jmp         0000000010002373
  000000001000236B: B0 01              mov         al,1
  000000001000236D: B9 19 06 00 00     mov         ecx,619h
  0000000010002372: CC                 int         3
  0000000010002373: 48 C1 E2 03        shl         rdx,3
  0000000010002377: 4C 8D 05 82 F8 FF  lea         r8,[0000000010001C00h]
                    FF
  000000001000237E: 49 03 D0           add         rdx,r8
  0000000010002381: 48 8B 12           mov         rdx,qword ptr [rdx]
  0000000010002384: E8 BE FC FF FF     call        0000000010002047
  0000000010002389: 48 83 C4 20        add         rsp,20h
  000000001000238D: 48 89 45 B8        mov         qword ptr [rbp-48h],rax
  0000000010002391: 48 8B 45 F0        mov         rax,qword ptr [rbp-10h]
  0000000010002395: 48 8B 4D B8        mov         rcx,qword ptr [rbp-48h]
  0000000010002399: 48 03 C1           add         rax,rcx
  000000001000239C: B9 FF FF FF FF     mov         ecx,0FFFFFFFFh
  00000000100023A1: 48 23 C1           and         rax,rcx
  00000000100023A4: 48 89 45 F0        mov         qword ptr [rbp-10h],rax
  00000000100023A8: 48 8B 45 D8        mov         rax,qword ptr [rbp-28h]
  00000000100023AC: 48 89 45 F8        mov         qword ptr [rbp-8],rax
  00000000100023B0: 48 83 45 C8 01     add         qword ptr [rbp-38h],1
  00000000100023B5: E9 34 FD FF FF     jmp         00000000100020EE
  00000000100023BA: 48 8B 45 10        mov         rax,qword ptr [rbp+10h]
  00000000100023BE: 48 8B 00           mov         rax,qword ptr [rax]
  00000000100023C1: 48 8B 4D F8        mov         rcx,qword ptr [rbp-8]
  00000000100023C5: 48 03 C1           add         rax,rcx
  00000000100023C8: B9 FF FF FF FF     mov         ecx,0FFFFFFFFh
  00000000100023CD: 48 23 C1           and         rax,rcx
  00000000100023D0: 48 8B 4D 10        mov         rcx,qword ptr [rbp+10h]
  00000000100023D4: 48 89 01           mov         qword ptr [rcx],rax
  00000000100023D7: 48 8B 45 10        mov         rax,qword ptr [rbp+10h]
  00000000100023DB: 48 8B 40 08        mov         rax,qword ptr [rax+8]
  00000000100023DF: 48 8B 4D F0        mov         rcx,qword ptr [rbp-10h]
  00000000100023E3: 48 03 C1           add         rax,rcx
  00000000100023E6: B9 FF FF FF FF     mov         ecx,0FFFFFFFFh
  00000000100023EB: 48 23 C1           and         rax,rcx
  00000000100023EE: 48 8B 4D 10        mov         rcx,qword ptr [rbp+10h]
  00000000100023F2: 48 89 41 08        mov         qword ptr [rcx+8],rax
  00000000100023F6: 48 8B 45 10        mov         rax,qword ptr [rbp+10h]
  00000000100023FA: 48 8B 40 10        mov         rax,qword ptr [rax+10h]
  00000000100023FE: 48 8B 4D E8        mov         rcx,qword ptr [rbp-18h]
  0000000010002402: 48 03 C1           add         rax,rcx
  0000000010002405: B9 FF FF FF FF     mov         ecx,0FFFFFFFFh
  000000001000240A: 48 23 C1           and         rax,rcx
  000000001000240D: 48 8B 4D 10        mov         rcx,qword ptr [rbp+10h]
  0000000010002411: 48 89 41 10        mov         qword ptr [rcx+10h],rax
  0000000010002415: 48 8B 45 10        mov         rax,qword ptr [rbp+10h]
  0000000010002419: 48 8B 40 18        mov         rax,qword ptr [rax+18h]
  000000001000241D: 48 8B 4D E0        mov         rcx,qword ptr [rbp-20h]
  0000000010002421: 48 03 C1           add         rax,rcx
  0000000010002424: B9 FF FF FF FF     mov         ecx,0FFFFFFFFh
  0000000010002429: 48 23 C1           and         rax,rcx
  000000001000242C: 48 8B 4D 10        mov         rcx,qword ptr [rbp+10h]
  0000000010002430: 48 89 41 18        mov         qword ptr [rcx+18h],rax
  0000000010002434: C9                 leave
  0000000010002435: C3                 ret
  0000000010002436: 55                 push        rbp
  0000000010002437: 48 8B EC           mov         rbp,rsp
  000000001000243A: 48 83 EC 70        sub         rsp,70h
  000000001000243E: 56                 push        rsi
  000000001000243F: 57                 push        rdi
  0000000010002440: 48 89 4D 10        mov         qword ptr [rbp+10h],rcx
  0000000010002444: 48 89 55 18        mov         qword ptr [rbp+18h],rdx
  0000000010002448: 4C 89 45 20        mov         qword ptr [rbp+20h],r8
  000000001000244C: 48 8B 45 20        mov         rax,qword ptr [rbp+20h]
  0000000010002450: 48 83 F8 40        cmp         rax,40h
  0000000010002454: 0F 8F 05 00 00 00  jg          000000001000245F
  000000001000245A: E9 08 00 00 00     jmp         0000000010002467
  000000001000245F: B0 03              mov         al,3
  0000000010002461: B9 CB 07 00 00     mov         ecx,7CBh
  0000000010002466: CC                 int         3
  0000000010002467: 48 8B 45 18        mov         rax,qword ptr [rbp+18h]
  000000001000246B: 48 8D 4D 98        lea         rcx,[rbp-68h]
  000000001000246F: 48 8B 55 20        mov         rdx,qword ptr [rbp+20h]
  0000000010002473: 48 8B F0           mov         rsi,rax
  0000000010002476: 48 8B F9           mov         rdi,rcx
  0000000010002479: 48 8B CA           mov         rcx,rdx
  000000001000247C: F3 A4              rep movs    byte ptr [rdi],byte ptr [rsi]
  000000001000247E: 48 8B 45 10        mov         rax,qword ptr [rbp+10h]
  0000000010002482: 48 8B 40 20        mov         rax,qword ptr [rax+20h]
  0000000010002486: 48 8B 4D 20        mov         rcx,qword ptr [rbp+20h]
  000000001000248A: 48 C1 E1 03        shl         rcx,3
  000000001000248E: 48 03 C1           add         rax,rcx
  0000000010002491: 48 8B 4D 10        mov         rcx,qword ptr [rbp+10h]
  0000000010002495: 48 89 41 20        mov         qword ptr [rcx+20h],rax
  0000000010002499: 48 8B 45 20        mov         rax,qword ptr [rbp+20h]
  000000001000249D: 48 83 F8 40        cmp         rax,40h
  00000000100024A1: 0F 85 1A 00 00 00  jne         00000000100024C1
  00000000100024A7: 48 83 EC 20        sub         rsp,20h
  00000000100024AB: 48 8B 4D 10        mov         rcx,qword ptr [rbp+10h]
  00000000100024AF: 48 8D 55 98        lea         rdx,[rbp-68h]
  00000000100024B3: E8 E8 FB FF FF     call        00000000100020A0
  00000000100024B8: 48 83 C4 20        add         rsp,20h
  00000000100024BC: E9 8B 01 00 00     jmp         000000001000264C
  00000000100024C1: 48 8B 45 20        mov         rax,qword ptr [rbp+20h]
  00000000100024C5: 48 83 F8 38        cmp         rax,38h
  00000000100024C9: 0F 8D 96 00 00 00  jge         0000000010002565
  00000000100024CF: 48 8B 45 20        mov         rax,qword ptr [rbp+20h]
  00000000100024D3: 48 83 F8 40        cmp         rax,40h
  00000000100024D7: 0F 83 05 00 00 00  jae         00000000100024E2
  00000000100024DD: E9 08 00 00 00     jmp         00000000100024EA
  00000000100024E2: B0 01              mov         al,1
  00000000100024E4: B9 7C 08 00 00     mov         ecx,87Ch
  00000000100024E9: CC                 int         3
  00000000100024EA: 48 03 C5           add         rax,rbp
  00000000100024ED: B9 80 00 00 00     mov         ecx,80h
  00000000100024F2: 88 48 98           mov         byte ptr [rax-68h],cl
  00000000100024F5: 48 8B 45 20        mov         rax,qword ptr [rbp+20h]
  00000000100024F9: 48 83 C0 01        add         rax,1
  00000000100024FD: 48 89 45 F8        mov         qword ptr [rbp-8],rax
  0000000010002501: 48 8B 45 F8        mov         rax,qword ptr [rbp-8]
  0000000010002505: 48 83 F8 38        cmp         rax,38h
  0000000010002509: 0F 8D 2D 00 00 00  jge         000000001000253C
  000000001000250F: 48 8B 45 F8        mov         rax,qword ptr [rbp-8]
  0000000010002513: 48 83 F8 40        cmp         rax,40h
  0000000010002517: 0F 83 05 00 00 00  jae         0000000010002522
  000000001000251D: E9 08 00 00 00     jmp         000000001000252A
  0000000010002522: B0 01              mov         al,1
  0000000010002524: B9 AF 08 00 00     mov         ecx,8AFh
  0000000010002529: CC                 int         3
  000000001000252A: 48 03 C5           add         rax,rbp
  000000001000252D: 31 C9              xor         ecx,ecx
  000000001000252F: 88 48 98           mov         byte ptr [rax-68h],cl
  0000000010002532: 48 83 45 F8 01     add         qword ptr [rbp-8],1
  0000000010002537: E9 C5 FF FF FF     jmp         0000000010002501
  000000001000253C: 48 8D 45 D0        lea         rax,[rbp-30h]
  0000000010002540: 48 8B 4D 10        mov         rcx,qword ptr [rbp+10h]
  0000000010002544: 48 8B 49 20        mov         rcx,qword ptr [rcx+20h]
  0000000010002548: 48 89 08           mov         qword ptr [rax],rcx
  000000001000254B: 48 83 EC 20        sub         rsp,20h
  000000001000254F: 48 8B 4D 10        mov         rcx,qword ptr [rbp+10h]
  0000000010002553: 48 8D 55 98        lea         rdx,[rbp-68h]
  0000000010002557: E8 44 FB FF FF     call        00000000100020A0
  000000001000255C: 48 83 C4 20        add         rsp,20h
  0000000010002560: E9 E7 00 00 00     jmp         000000001000264C
  0000000010002565: 48 8B 45 20        mov         rax,qword ptr [rbp+20h]
  0000000010002569: 48 83 F8 40        cmp         rax,40h
  000000001000256D: 0F 83 05 00 00 00  jae         0000000010002578
  0000000010002573: E9 08 00 00 00     jmp         0000000010002580
  0000000010002578: B0 01              mov         al,1
  000000001000257A: B9 1A 09 00 00     mov         ecx,91Ah
  000000001000257F: CC                 int         3
  0000000010002580: 48 03 C5           add         rax,rbp
  0000000010002583: B9 80 00 00 00     mov         ecx,80h
  0000000010002588: 88 48 98           mov         byte ptr [rax-68h],cl
  000000001000258B: 48 8B 45 20        mov         rax,qword ptr [rbp+20h]
  000000001000258F: 48 83 C0 01        add         rax,1
  0000000010002593: 48 89 45 F8        mov         qword ptr [rbp-8],rax
  0000000010002597: 48 8B 45 F8        mov         rax,qword ptr [rbp-8]
  000000001000259B: 48 83 F8 40        cmp         rax,40h
  000000001000259F: 0F 8D 2D 00 00 00  jge         00000000100025D2
  00000000100025A5: 48 8B 45 F8        mov         rax,qword ptr [rbp-8]
  00000000100025A9: 48 83 F8 40        cmp         rax,40h
  00000000100025AD: 0F 83 05 00 00 00  jae         00000000100025B8
  00000000100025B3: E9 08 00 00 00     jmp         00000000100025C0
  00000000100025B8: B0 01              mov         al,1
  00000000100025BA: B9 4D 09 00 00     mov         ecx,94Dh
  00000000100025BF: CC                 int         3
  00000000100025C0: 48 03 C5           add         rax,rbp
  00000000100025C3: 31 C9              xor         ecx,ecx
  00000000100025C5: 88 48 98           mov         byte ptr [rax-68h],cl
  00000000100025C8: 48 83 45 F8 01     add         qword ptr [rbp-8],1
  00000000100025CD: E9 C5 FF FF FF     jmp         0000000010002597
  00000000100025D2: 48 83 EC 20        sub         rsp,20h
  00000000100025D6: 48 8B 4D 10        mov         rcx,qword ptr [rbp+10h]
  00000000100025DA: 48 8D 55 98        lea         rdx,[rbp-68h]
  00000000100025DE: E8 BD FA FF FF     call        00000000100020A0
  00000000100025E3: 48 83 C4 20        add         rsp,20h
  00000000100025E7: 31 C0              xor         eax,eax
  00000000100025E9: 48 89 45 F8        mov         qword ptr [rbp-8],rax
  00000000100025ED: 48 8B 45 F8        mov         rax,qword ptr [rbp-8]
  00000000100025F1: 48 83 F8 38        cmp         rax,38h
  00000000100025F5: 0F 8D 2D 00 00 00  jge         0000000010002628
  00000000100025FB: 48 8B 45 F8        mov         rax,qword ptr [rbp-8]
  00000000100025FF: 48 83 F8 40        cmp         rax,40h
  0000000010002603: 0F 83 05 00 00 00  jae         000000001000260E
  0000000010002609: E9 08 00 00 00     jmp         0000000010002616
  000000001000260E: B0 01              mov         al,1
  0000000010002610: B9 94 09 00 00     mov         ecx,994h
  0000000010002615: CC                 int         3
  0000000010002616: 48 03 C5           add         rax,rbp
  0000000010002619: 31 C9              xor         ecx,ecx
  000000001000261B: 88 48 98           mov         byte ptr [rax-68h],cl
  000000001000261E: 48 83 45 F8 01     add         qword ptr [rbp-8],1
  0000000010002623: E9 C5 FF FF FF     jmp         00000000100025ED
  0000000010002628: 48 8D 45 D0        lea         rax,[rbp-30h]
  000000001000262C: 48 8B 4D 10        mov         rcx,qword ptr [rbp+10h]
  0000000010002630: 48 8B 49 20        mov         rcx,qword ptr [rcx+20h]
  0000000010002634: 48 89 08           mov         qword ptr [rax],rcx
  0000000010002637: 48 83 EC 20        sub         rsp,20h
  000000001000263B: 48 8B 4D 10        mov         rcx,qword ptr [rbp+10h]
  000000001000263F: 48 8D 55 98        lea         rdx,[rbp-68h]
  0000000010002643: E8 58 FA FF FF     call        00000000100020A0
  0000000010002648: 48 83 C4 20        add         rsp,20h
  000000001000264C: 5F                 pop         rdi
  000000001000264D: 5E                 pop         rsi
  000000001000264E: C9                 leave
  000000001000264F: C3                 ret
  0000000010002650: 55                 push        rbp
  0000000010002651: 48 8B EC           mov         rbp,rsp
  0000000010002654: 48 83 EC 10        sub         rsp,10h
  0000000010002658: 48 89 4D 10        mov         qword ptr [rbp+10h],rcx
  000000001000265C: 48 89 55 18        mov         qword ptr [rbp+18h],rdx
  0000000010002660: 4C 89 45 20        mov         qword ptr [rbp+20h],r8
  0000000010002664: 4C 89 4D 28        mov         qword ptr [rbp+28h],r9
  0000000010002668: 48 8B 45 20        mov         rax,qword ptr [rbp+20h]
  000000001000266C: 48 8B 4D 28        mov         rcx,qword ptr [rbp+28h]
  0000000010002670: 48 3B C1           cmp         rax,rcx
  0000000010002673: 0F 8C 05 00 00 00  jl          000000001000267E
  0000000010002679: E9 08 00 00 00     jmp         0000000010002686
  000000001000267E: B0 03              mov         al,3
  0000000010002680: B9 AA 0A 00 00     mov         ecx,0AAAh
  0000000010002685: CC                 int         3
  0000000010002686: 48 8B 45 18        mov         rax,qword ptr [rbp+18h]
  000000001000268A: 48 89 45 F8        mov         qword ptr [rbp-8],rax
  000000001000268E: 48 8B 45 28        mov         rax,qword ptr [rbp+28h]
  0000000010002692: 48 83 F8 40        cmp         rax,40h
  0000000010002696: 0F 8C 38 00 00 00  jl          00000000100026D4
  000000001000269C: 48 83 EC 20        sub         rsp,20h
  00000000100026A0: 48 8B 4D 10        mov         rcx,qword ptr [rbp+10h]
  00000000100026A4: 48 8B 55 F8        mov         rdx,qword ptr [rbp-8]
  00000000100026A8: 41 B8 40 00 00 00  mov         r8d,40h
  00000000100026AE: E8 83 FD FF FF     call        0000000010002436
  00000000100026B3: 48 83 C4 20        add         rsp,20h
  00000000100026B7: 48 8B 45 28        mov         rax,qword ptr [rbp+28h]
  00000000100026BB: 48 83 E8 40        sub         rax,40h
  00000000100026BF: 48 89 45 28        mov         qword ptr [rbp+28h],rax
  00000000100026C3: 48 8B 45 F8        mov         rax,qword ptr [rbp-8]
  00000000100026C7: 48 83 C0 40        add         rax,40h
  00000000100026CB: 48 89 45 F8        mov         qword ptr [rbp-8],rax
  00000000100026CF: E9 BA FF FF FF     jmp         000000001000268E
  00000000100026D4: 48 83 EC 20        sub         rsp,20h
  00000000100026D8: 48 8B 4D 10        mov         rcx,qword ptr [rbp+10h]
  00000000100026DC: 48 8B 55 F8        mov         rdx,qword ptr [rbp-8]
  00000000100026E0: 4C 8B 45 28        mov         r8,qword ptr [rbp+28h]
  00000000100026E4: E8 4D FD FF FF     call        0000000010002436
  00000000100026E9: 48 83 C4 20        add         rsp,20h
  00000000100026ED: C9                 leave
  00000000100026EE: C3                 ret
  00000000100026EF: 55                 push        rbp
  00000000100026F0: 48 8B EC           mov         rbp,rsp
  00000000100026F3: 48 89 4D 10        mov         qword ptr [rbp+10h],rcx
  00000000100026F7: 48 8B 45 10        mov         rax,qword ptr [rbp+10h]
  00000000100026FB: 48 8B 00           mov         rax,qword ptr [rax]
  00000000100026FE: 48 8B 4D 10        mov         rcx,qword ptr [rbp+10h]
  0000000010002702: 48 8B 49 08        mov         rcx,qword ptr [rcx+8]
  0000000010002706: 48 C1 E1 20        shl         rcx,20h
  000000001000270A: 48 03 C1           add         rax,rcx
  000000001000270D: C9                 leave
  000000001000270E: C3                 ret
  000000001000270F: 55                 push        rbp
  0000000010002710: 48 8B EC           mov         rbp,rsp
  0000000010002713: 48 89 4D 10        mov         qword ptr [rbp+10h],rcx
  0000000010002717: 48 8B 45 10        mov         rax,qword ptr [rbp+10h]
  000000001000271B: 48 8B 40 10        mov         rax,qword ptr [rax+10h]
  000000001000271F: 48 8B 4D 10        mov         rcx,qword ptr [rbp+10h]
  0000000010002723: 48 8B 49 18        mov         rcx,qword ptr [rcx+18h]
  0000000010002727: 48 C1 E1 20        shl         rcx,20h
  000000001000272B: 48 03 C1           add         rax,rcx
  000000001000272E: C9                 leave
  000000001000272F: C3                 ret
  0000000010002730: 55                 push        rbp
  0000000010002731: 48 8B EC           mov         rbp,rsp
  0000000010002734: 48 83 EC 30        sub         rsp,30h
  0000000010002738: 31 C0              xor         eax,eax
  000000001000273A: 48 89 45 F0        mov         qword ptr [rbp-10h],rax
  000000001000273E: B8 01 00 00 00     mov         eax,1
  0000000010002743: 48 89 45 F8        mov         qword ptr [rbp-8],rax
  0000000010002747: B8 04 00 00 00     mov         eax,4
  000000001000274C: 48 89 45 E8        mov         qword ptr [rbp-18h],rax
  0000000010002750: 48 8B 45 F8        mov         rax,qword ptr [rbp-8]
  0000000010002754: 48 3B 45 E8        cmp         rax,qword ptr [rbp-18h]
  0000000010002758: 0F 8F E6 00 00 00  jg          0000000010002844
  000000001000275E: 48 8B 45 F0        mov         rax,qword ptr [rbp-10h]
  0000000010002762: 48 83 F8 40        cmp         rax,40h
  0000000010002766: 0F 83 05 00 00 00  jae         0000000010002771
  000000001000276C: E9 08 00 00 00     jmp         0000000010002779
  0000000010002771: B0 01              mov         al,1
  0000000010002773: B9 80 0D 00 00     mov         ecx,0D80h
  0000000010002778: CC                 int         3
  0000000010002779: 48 C1 E0 03        shl         rax,3
  000000001000277D: 48 8D 0D 7C F4 FF  lea         rcx,[0000000010001C00h]
                    FF
  0000000010002784: 48 03 C1           add         rax,rcx
  0000000010002787: B9 07 00 00 00     mov         ecx,7
  000000001000278C: 48 89 08           mov         qword ptr [rax],rcx
  000000001000278F: 48 8B 45 F0        mov         rax,qword ptr [rbp-10h]
  0000000010002793: 48 83 C0 01        add         rax,1
  0000000010002797: 48 83 F8 40        cmp         rax,40h
  000000001000279B: 0F 83 05 00 00 00  jae         00000000100027A6
  00000000100027A1: E9 08 00 00 00     jmp         00000000100027AE
  00000000100027A6: B0 01              mov         al,1
  00000000100027A8: B9 9B 0D 00 00     mov         ecx,0D9Bh
  00000000100027AD: CC                 int         3
  00000000100027AE: 48 C1 E0 03        shl         rax,3
  00000000100027B2: 48 8D 0D 47 F4 FF  lea         rcx,[0000000010001C00h]
                    FF
  00000000100027B9: 48 03 C1           add         rax,rcx
  00000000100027BC: B9 0C 00 00 00     mov         ecx,0Ch
  00000000100027C1: 48 89 08           mov         qword ptr [rax],rcx
  00000000100027C4: 48 8B 45 F0        mov         rax,qword ptr [rbp-10h]
  00000000100027C8: 48 83 C0 02        add         rax,2
  00000000100027CC: 48 83 F8 40        cmp         rax,40h
  00000000100027D0: 0F 83 05 00 00 00  jae         00000000100027DB
  00000000100027D6: E9 08 00 00 00     jmp         00000000100027E3
  00000000100027DB: B0 01              mov         al,1
  00000000100027DD: B9 B7 0D 00 00     mov         ecx,0DB7h
  00000000100027E2: CC                 int         3
  00000000100027E3: 48 C1 E0 03        shl         rax,3
  00000000100027E7: 48 8D 0D 12 F4 FF  lea         rcx,[0000000010001C00h]
                    FF
  00000000100027EE: 48 03 C1           add         rax,rcx
  00000000100027F1: B9 11 00 00 00     mov         ecx,11h
  00000000100027F6: 48 89 08           mov         qword ptr [rax],rcx
  00000000100027F9: 48 8B 45 F0        mov         rax,qword ptr [rbp-10h]
  00000000100027FD: 48 83 C0 03        add         rax,3
  0000000010002801: 48 83 F8 40        cmp         rax,40h
  0000000010002805: 0F 83 05 00 00 00  jae         0000000010002810
  000000001000280B: E9 08 00 00 00     jmp         0000000010002818
  0000000010002810: B0 01              mov         al,1
  0000000010002812: B9 D3 0D 00 00     mov         ecx,0DD3h
  0000000010002817: CC                 int         3
  0000000010002818: 48 C1 E0 03        shl         rax,3
  000000001000281C: 48 8D 0D DD F3 FF  lea         rcx,[0000000010001C00h]
                    FF
  0000000010002823: 48 03 C1           add         rax,rcx
  0000000010002826: B9 16 00 00 00     mov         ecx,16h
  000000001000282B: 48 89 08           mov         qword ptr [rax],rcx
  000000001000282E: 48 8B 45 F0        mov         rax,qword ptr [rbp-10h]
  0000000010002832: 48 83 C0 04        add         rax,4
  0000000010002836: 48 89 45 F0        mov         qword ptr [rbp-10h],rax
  000000001000283A: 48 83 45 F8 01     add         qword ptr [rbp-8],1
  000000001000283F: E9 0C FF FF FF     jmp         0000000010002750
  0000000010002844: B8 01 00 00 00     mov         eax,1
  0000000010002849: 48 89 45 F8        mov         qword ptr [rbp-8],rax
  000000001000284D: B8 04 00 00 00     mov         eax,4
  0000000010002852: 48 89 45 E0        mov         qword ptr [rbp-20h],rax
  0000000010002856: 48 8B 45 F8        mov         rax,qword ptr [rbp-8]
  000000001000285A: 48 3B 45 E0        cmp         rax,qword ptr [rbp-20h]
  000000001000285E: 0F 8F E6 00 00 00  jg          000000001000294A
  0000000010002864: 48 8B 45 F0        mov         rax,qword ptr [rbp-10h]
  0000000010002868: 48 83 F8 40        cmp         rax,40h
  000000001000286C: 0F 83 05 00 00 00  jae         0000000010002877
  0000000010002872: E9 08 00 00 00     jmp         000000001000287F
  0000000010002877: B0 01              mov         al,1
  0000000010002879: B9 15 0E 00 00     mov         ecx,0E15h
  000000001000287E: CC                 int         3
  000000001000287F: 48 C1 E0 03        shl         rax,3
  0000000010002883: 48 8D 0D 76 F3 FF  lea         rcx,[0000000010001C00h]
                    FF
  000000001000288A: 48 03 C1           add         rax,rcx
  000000001000288D: B9 05 00 00 00     mov         ecx,5
  0000000010002892: 48 89 08           mov         qword ptr [rax],rcx
  0000000010002895: 48 8B 45 F0        mov         rax,qword ptr [rbp-10h]
  0000000010002899: 48 83 C0 01        add         rax,1
  000000001000289D: 48 83 F8 40        cmp         rax,40h
  00000000100028A1: 0F 83 05 00 00 00  jae         00000000100028AC
  00000000100028A7: E9 08 00 00 00     jmp         00000000100028B4
  00000000100028AC: B0 01              mov         al,1
  00000000100028AE: B9 30 0E 00 00     mov         ecx,0E30h
  00000000100028B3: CC                 int         3
  00000000100028B4: 48 C1 E0 03        shl         rax,3
  00000000100028B8: 48 8D 0D 41 F3 FF  lea         rcx,[0000000010001C00h]
                    FF
  00000000100028BF: 48 03 C1           add         rax,rcx
  00000000100028C2: B9 09 00 00 00     mov         ecx,9
  00000000100028C7: 48 89 08           mov         qword ptr [rax],rcx
  00000000100028CA: 48 8B 45 F0        mov         rax,qword ptr [rbp-10h]
  00000000100028CE: 48 83 C0 02        add         rax,2
  00000000100028D2: 48 83 F8 40        cmp         rax,40h
  00000000100028D6: 0F 83 05 00 00 00  jae         00000000100028E1
  00000000100028DC: E9 08 00 00 00     jmp         00000000100028E9
  00000000100028E1: B0 01              mov         al,1
  00000000100028E3: B9 4B 0E 00 00     mov         ecx,0E4Bh
  00000000100028E8: CC                 int         3
  00000000100028E9: 48 C1 E0 03        shl         rax,3
  00000000100028ED: 48 8D 0D 0C F3 FF  lea         rcx,[0000000010001C00h]
                    FF
  00000000100028F4: 48 03 C1           add         rax,rcx
  00000000100028F7: B9 0E 00 00 00     mov         ecx,0Eh
  00000000100028FC: 48 89 08           mov         qword ptr [rax],rcx
  00000000100028FF: 48 8B 45 F0        mov         rax,qword ptr [rbp-10h]
  0000000010002903: 48 83 C0 03        add         rax,3
  0000000010002907: 48 83 F8 40        cmp         rax,40h
  000000001000290B: 0F 83 05 00 00 00  jae         0000000010002916
  0000000010002911: E9 08 00 00 00     jmp         000000001000291E
  0000000010002916: B0 01              mov         al,1
  0000000010002918: B9 67 0E 00 00     mov         ecx,0E67h
  000000001000291D: CC                 int         3
  000000001000291E: 48 C1 E0 03        shl         rax,3
  0000000010002922: 48 8D 0D D7 F2 FF  lea         rcx,[0000000010001C00h]
                    FF
  0000000010002929: 48 03 C1           add         rax,rcx
  000000001000292C: B9 14 00 00 00     mov         ecx,14h
  0000000010002931: 48 89 08           mov         qword ptr [rax],rcx
  0000000010002934: 48 8B 45 F0        mov         rax,qword ptr [rbp-10h]
  0000000010002938: 48 83 C0 04        add         rax,4
  000000001000293C: 48 89 45 F0        mov         qword ptr [rbp-10h],rax
  0000000010002940: 48 83 45 F8 01     add         qword ptr [rbp-8],1
  0000000010002945: E9 0C FF FF FF     jmp         0000000010002856
  000000001000294A: B8 01 00 00 00     mov         eax,1
  000000001000294F: 48 89 45 F8        mov         qword ptr [rbp-8],rax
  0000000010002953: B8 04 00 00 00     mov         eax,4
  0000000010002958: 48 89 45 D8        mov         qword ptr [rbp-28h],rax
  000000001000295C: 48 8B 45 F8        mov         rax,qword ptr [rbp-8]
  0000000010002960: 48 3B 45 D8        cmp         rax,qword ptr [rbp-28h]
  0000000010002964: 0F 8F E6 00 00 00  jg          0000000010002A50
  000000001000296A: 48 8B 45 F0        mov         rax,qword ptr [rbp-10h]
  000000001000296E: 48 83 F8 40        cmp         rax,40h
  0000000010002972: 0F 83 05 00 00 00  jae         000000001000297D
  0000000010002978: E9 08 00 00 00     jmp         0000000010002985
  000000001000297D: B0 01              mov         al,1
  000000001000297F: B9 A9 0E 00 00     mov         ecx,0EA9h
  0000000010002984: CC                 int         3
  0000000010002985: 48 C1 E0 03        shl         rax,3
  0000000010002989: 48 8D 0D 70 F2 FF  lea         rcx,[0000000010001C00h]
                    FF
  0000000010002990: 48 03 C1           add         rax,rcx
  0000000010002993: B9 04 00 00 00     mov         ecx,4
  0000000010002998: 48 89 08           mov         qword ptr [rax],rcx
  000000001000299B: 48 8B 45 F0        mov         rax,qword ptr [rbp-10h]
  000000001000299F: 48 83 C0 01        add         rax,1
  00000000100029A3: 48 83 F8 40        cmp         rax,40h
  00000000100029A7: 0F 83 05 00 00 00  jae         00000000100029B2
  00000000100029AD: E9 08 00 00 00     jmp         00000000100029BA
  00000000100029B2: B0 01              mov         al,1
  00000000100029B4: B9 C4 0E 00 00     mov         ecx,0EC4h
  00000000100029B9: CC                 int         3
  00000000100029BA: 48 C1 E0 03        shl         rax,3
  00000000100029BE: 48 8D 0D 3B F2 FF  lea         rcx,[0000000010001C00h]
                    FF
  00000000100029C5: 48 03 C1           add         rax,rcx
  00000000100029C8: B9 0B 00 00 00     mov         ecx,0Bh
  00000000100029CD: 48 89 08           mov         qword ptr [rax],rcx
  00000000100029D0: 48 8B 45 F0        mov         rax,qword ptr [rbp-10h]
  00000000100029D4: 48 83 C0 02        add         rax,2
  00000000100029D8: 48 83 F8 40        cmp         rax,40h
  00000000100029DC: 0F 83 05 00 00 00  jae         00000000100029E7
  00000000100029E2: E9 08 00 00 00     jmp         00000000100029EF
  00000000100029E7: B0 01              mov         al,1
  00000000100029E9: B9 E0 0E 00 00     mov         ecx,0EE0h
  00000000100029EE: CC                 int         3
  00000000100029EF: 48 C1 E0 03        shl         rax,3
  00000000100029F3: 48 8D 0D 06 F2 FF  lea         rcx,[0000000010001C00h]
                    FF
  00000000100029FA: 48 03 C1           add         rax,rcx
  00000000100029FD: B9 10 00 00 00     mov         ecx,10h
  0000000010002A02: 48 89 08           mov         qword ptr [rax],rcx
  0000000010002A05: 48 8B 45 F0        mov         rax,qword ptr [rbp-10h]
  0000000010002A09: 48 83 C0 03        add         rax,3
  0000000010002A0D: 48 83 F8 40        cmp         rax,40h
  0000000010002A11: 0F 83 05 00 00 00  jae         0000000010002A1C
  0000000010002A17: E9 08 00 00 00     jmp         0000000010002A24
  0000000010002A1C: B0 01              mov         al,1
  0000000010002A1E: B9 FC 0E 00 00     mov         ecx,0EFCh
  0000000010002A23: CC                 int         3
  0000000010002A24: 48 C1 E0 03        shl         rax,3
  0000000010002A28: 48 8D 0D D1 F1 FF  lea         rcx,[0000000010001C00h]
                    FF
  0000000010002A2F: 48 03 C1           add         rax,rcx
  0000000010002A32: B9 17 00 00 00     mov         ecx,17h
  0000000010002A37: 48 89 08           mov         qword ptr [rax],rcx
  0000000010002A3A: 48 8B 45 F0        mov         rax,qword ptr [rbp-10h]
  0000000010002A3E: 48 83 C0 04        add         rax,4
  0000000010002A42: 48 89 45 F0        mov         qword ptr [rbp-10h],rax
  0000000010002A46: 48 83 45 F8 01     add         qword ptr [rbp-8],1
  0000000010002A4B: E9 0C FF FF FF     jmp         000000001000295C
  0000000010002A50: B8 01 00 00 00     mov         eax,1
  0000000010002A55: 48 89 45 F8        mov         qword ptr [rbp-8],rax
  0000000010002A59: B8 04 00 00 00     mov         eax,4
  0000000010002A5E: 48 89 45 D0        mov         qword ptr [rbp-30h],rax
  0000000010002A62: 48 8B 45 F8        mov         rax,qword ptr [rbp-8]
  0000000010002A66: 48 3B 45 D0        cmp         rax,qword ptr [rbp-30h]
  0000000010002A6A: 0F 8F E6 00 00 00  jg          0000000010002B56
  0000000010002A70: 48 8B 45 F0        mov         rax,qword ptr [rbp-10h]
  0000000010002A74: 48 83 F8 40        cmp         rax,40h
  0000000010002A78: 0F 83 05 00 00 00  jae         0000000010002A83
  0000000010002A7E: E9 08 00 00 00     jmp         0000000010002A8B
  0000000010002A83: B0 01              mov         al,1
  0000000010002A85: B9 3E 0F 00 00     mov         ecx,0F3Eh
  0000000010002A8A: CC                 int         3
  0000000010002A8B: 48 C1 E0 03        shl         rax,3
  0000000010002A8F: 48 8D 0D 6A F1 FF  lea         rcx,[0000000010001C00h]
                    FF
  0000000010002A96: 48 03 C1           add         rax,rcx
  0000000010002A99: B9 06 00 00 00     mov         ecx,6
  0000000010002A9E: 48 89 08           mov         qword ptr [rax],rcx
  0000000010002AA1: 48 8B 45 F0        mov         rax,qword ptr [rbp-10h]
  0000000010002AA5: 48 83 C0 01        add         rax,1
  0000000010002AA9: 48 83 F8 40        cmp         rax,40h
  0000000010002AAD: 0F 83 05 00 00 00  jae         0000000010002AB8
  0000000010002AB3: E9 08 00 00 00     jmp         0000000010002AC0
  0000000010002AB8: B0 01              mov         al,1
  0000000010002ABA: B9 59 0F 00 00     mov         ecx,0F59h
  0000000010002ABF: CC                 int         3
  0000000010002AC0: 48 C1 E0 03        shl         rax,3
  0000000010002AC4: 48 8D 0D 35 F1 FF  lea         rcx,[0000000010001C00h]
                    FF
  0000000010002ACB: 48 03 C1           add         rax,rcx
  0000000010002ACE: B9 0A 00 00 00     mov         ecx,0Ah
  0000000010002AD3: 48 89 08           mov         qword ptr [rax],rcx
  0000000010002AD6: 48 8B 45 F0        mov         rax,qword ptr [rbp-10h]
  0000000010002ADA: 48 83 C0 02        add         rax,2
  0000000010002ADE: 48 83 F8 40        cmp         rax,40h
  0000000010002AE2: 0F 83 05 00 00 00  jae         0000000010002AED
  0000000010002AE8: E9 08 00 00 00     jmp         0000000010002AF5
  0000000010002AED: B0 01              mov         al,1
  0000000010002AEF: B9 75 0F 00 00     mov         ecx,0F75h
  0000000010002AF4: CC                 int         3
  0000000010002AF5: 48 C1 E0 03        shl         rax,3
  0000000010002AF9: 48 8D 0D 00 F1 FF  lea         rcx,[0000000010001C00h]
                    FF
  0000000010002B00: 48 03 C1           add         rax,rcx
  0000000010002B03: B9 0F 00 00 00     mov         ecx,0Fh
  0000000010002B08: 48 89 08           mov         qword ptr [rax],rcx
  0000000010002B0B: 48 8B 45 F0        mov         rax,qword ptr [rbp-10h]
  0000000010002B0F: 48 83 C0 03        add         rax,3
  0000000010002B13: 48 83 F8 40        cmp         rax,40h
  0000000010002B17: 0F 83 05 00 00 00  jae         0000000010002B22
  0000000010002B1D: E9 08 00 00 00     jmp         0000000010002B2A
  0000000010002B22: B0 01              mov         al,1
  0000000010002B24: B9 91 0F 00 00     mov         ecx,0F91h
  0000000010002B29: CC                 int         3
  0000000010002B2A: 48 C1 E0 03        shl         rax,3
  0000000010002B2E: 48 8D 0D CB F0 FF  lea         rcx,[0000000010001C00h]
                    FF
  0000000010002B35: 48 03 C1           add         rax,rcx
  0000000010002B38: B9 15 00 00 00     mov         ecx,15h
  0000000010002B3D: 48 89 08           mov         qword ptr [rax],rcx
  0000000010002B40: 48 8B 45 F0        mov         rax,qword ptr [rbp-10h]
  0000000010002B44: 48 83 C0 04        add         rax,4
  0000000010002B48: 48 89 45 F0        mov         qword ptr [rbp-10h],rax
  0000000010002B4C: 48 83 45 F8 01     add         qword ptr [rbp-8],1
  0000000010002B51: E9 0C FF FF FF     jmp         0000000010002A62
  0000000010002B56: B8 78 A4 6A D7     mov         eax,0D76AA478h
  0000000010002B5B: 48 89 05 9E F2 FF  mov         qword ptr [0000000010001E00h],rax
                    FF
  0000000010002B62: B8 56 B7 C7 E8     mov         eax,0E8C7B756h
  0000000010002B67: 48 89 05 9A F2 FF  mov         qword ptr [0000000010001E08h],rax
                    FF
  0000000010002B6E: B8 DB 70 20 24     mov         eax,242070DBh
  0000000010002B73: 48 89 05 96 F2 FF  mov         qword ptr [0000000010001E10h],rax
                    FF
  0000000010002B7A: B8 EE CE BD C1     mov         eax,0C1BDCEEEh
  0000000010002B7F: 48 89 05 92 F2 FF  mov         qword ptr [0000000010001E18h],rax
                    FF
  0000000010002B86: B8 AF 0F 7C F5     mov         eax,0F57C0FAFh
  0000000010002B8B: 48 89 05 8E F2 FF  mov         qword ptr [0000000010001E20h],rax
                    FF
  0000000010002B92: B8 2A C6 87 47     mov         eax,4787C62Ah
  0000000010002B97: 48 89 05 8A F2 FF  mov         qword ptr [0000000010001E28h],rax
                    FF
  0000000010002B9E: B8 13 46 30 A8     mov         eax,0A8304613h
  0000000010002BA3: 48 89 05 86 F2 FF  mov         qword ptr [0000000010001E30h],rax
                    FF
  0000000010002BAA: B8 01 95 46 FD     mov         eax,0FD469501h
  0000000010002BAF: 48 89 05 82 F2 FF  mov         qword ptr [0000000010001E38h],rax
                    FF
  0000000010002BB6: B8 D8 98 80 69     mov         eax,698098D8h
  0000000010002BBB: 48 89 05 7E F2 FF  mov         qword ptr [0000000010001E40h],rax
                    FF
  0000000010002BC2: B8 AF F7 44 8B     mov         eax,8B44F7AFh
  0000000010002BC7: 48 89 05 7A F2 FF  mov         qword ptr [0000000010001E48h],rax
                    FF
  0000000010002BCE: B8 B1 5B FF FF     mov         eax,0FFFF5BB1h
  0000000010002BD3: 48 89 05 76 F2 FF  mov         qword ptr [0000000010001E50h],rax
                    FF
  0000000010002BDA: B8 BE D7 5C 89     mov         eax,895CD7BEh
  0000000010002BDF: 48 89 05 72 F2 FF  mov         qword ptr [0000000010001E58h],rax
                    FF
  0000000010002BE6: B8 22 11 90 6B     mov         eax,6B901122h
  0000000010002BEB: 48 89 05 6E F2 FF  mov         qword ptr [0000000010001E60h],rax
                    FF
  0000000010002BF2: B8 93 71 98 FD     mov         eax,0FD987193h
  0000000010002BF7: 48 89 05 6A F2 FF  mov         qword ptr [0000000010001E68h],rax
                    FF
  0000000010002BFE: B8 8E 43 79 A6     mov         eax,0A679438Eh
  0000000010002C03: 48 89 05 66 F2 FF  mov         qword ptr [0000000010001E70h],rax
                    FF
  0000000010002C0A: B8 21 08 B4 49     mov         eax,49B40821h
  0000000010002C0F: 48 89 05 62 F2 FF  mov         qword ptr [0000000010001E78h],rax
                    FF
  0000000010002C16: B8 62 25 1E F6     mov         eax,0F61E2562h
  0000000010002C1B: 48 89 05 5E F2 FF  mov         qword ptr [0000000010001E80h],rax
                    FF
  0000000010002C22: B8 40 B3 40 C0     mov         eax,0C040B340h
  0000000010002C27: 48 89 05 5A F2 FF  mov         qword ptr [0000000010001E88h],rax
                    FF
  0000000010002C2E: B8 51 5A 5E 26     mov         eax,265E5A51h
  0000000010002C33: 48 89 05 56 F2 FF  mov         qword ptr [0000000010001E90h],rax
                    FF
  0000000010002C3A: B8 AA C7 B6 E9     mov         eax,0E9B6C7AAh
  0000000010002C3F: 48 89 05 52 F2 FF  mov         qword ptr [0000000010001E98h],rax
                    FF
  0000000010002C46: B8 5D 10 2F D6     mov         eax,0D62F105Dh
  0000000010002C4B: 48 89 05 4E F2 FF  mov         qword ptr [0000000010001EA0h],rax
                    FF
  0000000010002C52: B8 53 14 44 02     mov         eax,2441453h
  0000000010002C57: 48 89 05 4A F2 FF  mov         qword ptr [0000000010001EA8h],rax
                    FF
  0000000010002C5E: B8 81 E6 A1 D8     mov         eax,0D8A1E681h
  0000000010002C63: 48 89 05 46 F2 FF  mov         qword ptr [0000000010001EB0h],rax
                    FF
  0000000010002C6A: B8 C8 FB D3 E7     mov         eax,0E7D3FBC8h
  0000000010002C6F: 48 89 05 42 F2 FF  mov         qword ptr [0000000010001EB8h],rax
                    FF
  0000000010002C76: B8 E6 CD E1 21     mov         eax,21E1CDE6h
  0000000010002C7B: 48 89 05 3E F2 FF  mov         qword ptr [0000000010001EC0h],rax
                    FF
  0000000010002C82: B8 D6 07 37 C3     mov         eax,0C33707D6h
  0000000010002C87: 48 89 05 3A F2 FF  mov         qword ptr [0000000010001EC8h],rax
                    FF
  0000000010002C8E: B8 87 0D D5 F4     mov         eax,0F4D50D87h
  0000000010002C93: 48 89 05 36 F2 FF  mov         qword ptr [0000000010001ED0h],rax
                    FF
  0000000010002C9A: B8 ED 14 5A 45     mov         eax,455A14EDh
  0000000010002C9F: 48 89 05 32 F2 FF  mov         qword ptr [0000000010001ED8h],rax
                    FF
  0000000010002CA6: B8 05 E9 E3 A9     mov         eax,0A9E3E905h
  0000000010002CAB: 48 89 05 2E F2 FF  mov         qword ptr [0000000010001EE0h],rax
                    FF
  0000000010002CB2: B8 F8 A3 EF FC     mov         eax,0FCEFA3F8h
  0000000010002CB7: 48 89 05 2A F2 FF  mov         qword ptr [0000000010001EE8h],rax
                    FF
  0000000010002CBE: B8 D9 02 6F 67     mov         eax,676F02D9h
  0000000010002CC3: 48 89 05 26 F2 FF  mov         qword ptr [0000000010001EF0h],rax
                    FF
  0000000010002CCA: B8 8A 4C 2A 8D     mov         eax,8D2A4C8Ah
  0000000010002CCF: 48 89 05 22 F2 FF  mov         qword ptr [0000000010001EF8h],rax
                    FF
  0000000010002CD6: B8 42 39 FA FF     mov         eax,0FFFA3942h
  0000000010002CDB: 48 89 05 1E F2 FF  mov         qword ptr [0000000010001F00h],rax
                    FF
  0000000010002CE2: B8 81 F6 71 87     mov         eax,8771F681h
  0000000010002CE7: 48 89 05 1A F2 FF  mov         qword ptr [0000000010001F08h],rax
                    FF
  0000000010002CEE: B8 22 61 9D 6D     mov         eax,6D9D6122h
  0000000010002CF3: 48 89 05 16 F2 FF  mov         qword ptr [0000000010001F10h],rax
                    FF
  0000000010002CFA: B8 0C 38 E5 FD     mov         eax,0FDE5380Ch
  0000000010002CFF: 48 89 05 12 F2 FF  mov         qword ptr [0000000010001F18h],rax
                    FF
  0000000010002D06: B8 44 EA BE A4     mov         eax,0A4BEEA44h
  0000000010002D0B: 48 89 05 0E F2 FF  mov         qword ptr [0000000010001F20h],rax
                    FF
  0000000010002D12: B8 A9 CF DE 4B     mov         eax,4BDECFA9h
  0000000010002D17: 48 89 05 0A F2 FF  mov         qword ptr [0000000010001F28h],rax
                    FF
  0000000010002D1E: B8 60 4B BB F6     mov         eax,0F6BB4B60h
  0000000010002D23: 48 89 05 06 F2 FF  mov         qword ptr [0000000010001F30h],rax
                    FF
  0000000010002D2A: B8 70 BC BF BE     mov         eax,0BEBFBC70h
  0000000010002D2F: 48 89 05 02 F2 FF  mov         qword ptr [0000000010001F38h],rax
                    FF
  0000000010002D36: B8 C6 7E 9B 28     mov         eax,289B7EC6h
  0000000010002D3B: 48 89 05 FE F1 FF  mov         qword ptr [0000000010001F40h],rax
                    FF
  0000000010002D42: B8 FA 27 A1 EA     mov         eax,0EAA127FAh
  0000000010002D47: 48 89 05 FA F1 FF  mov         qword ptr [0000000010001F48h],rax
                    FF
  0000000010002D4E: B8 85 30 EF D4     mov         eax,0D4EF3085h
  0000000010002D53: 48 89 05 F6 F1 FF  mov         qword ptr [0000000010001F50h],rax
                    FF
  0000000010002D5A: B8 05 1D 88 04     mov         eax,4881D05h
  0000000010002D5F: 48 89 05 F2 F1 FF  mov         qword ptr [0000000010001F58h],rax
                    FF
  0000000010002D66: B8 39 D0 D4 D9     mov         eax,0D9D4D039h
  0000000010002D6B: 48 89 05 EE F1 FF  mov         qword ptr [0000000010001F60h],rax
                    FF
  0000000010002D72: B8 E5 99 DB E6     mov         eax,0E6DB99E5h
  0000000010002D77: 48 89 05 EA F1 FF  mov         qword ptr [0000000010001F68h],rax
                    FF
  0000000010002D7E: B8 F8 7C A2 1F     mov         eax,1FA27CF8h
  0000000010002D83: 48 89 05 E6 F1 FF  mov         qword ptr [0000000010001F70h],rax
                    FF
  0000000010002D8A: B8 65 56 AC C4     mov         eax,0C4AC5665h
  0000000010002D8F: 48 89 05 E2 F1 FF  mov         qword ptr [0000000010001F78h],rax
                    FF
  0000000010002D96: B8 44 22 29 F4     mov         eax,0F4292244h
  0000000010002D9B: 48 89 05 DE F1 FF  mov         qword ptr [0000000010001F80h],rax
                    FF
  0000000010002DA2: B8 97 FF 2A 43     mov         eax,432AFF97h
  0000000010002DA7: 48 89 05 DA F1 FF  mov         qword ptr [0000000010001F88h],rax
                    FF
  0000000010002DAE: B8 A7 23 94 AB     mov         eax,0AB9423A7h
  0000000010002DB3: 48 89 05 D6 F1 FF  mov         qword ptr [0000000010001F90h],rax
                    FF
  0000000010002DBA: B8 39 A0 93 FC     mov         eax,0FC93A039h
  0000000010002DBF: 48 89 05 D2 F1 FF  mov         qword ptr [0000000010001F98h],rax
                    FF
  0000000010002DC6: B8 C3 59 5B 65     mov         eax,655B59C3h
  0000000010002DCB: 48 89 05 CE F1 FF  mov         qword ptr [0000000010001FA0h],rax
                    FF
  0000000010002DD2: B8 92 CC 0C 8F     mov         eax,8F0CCC92h
  0000000010002DD7: 48 89 05 CA F1 FF  mov         qword ptr [0000000010001FA8h],rax
                    FF
  0000000010002DDE: B8 7D F4 EF FF     mov         eax,0FFEFF47Dh
  0000000010002DE3: 48 89 05 C6 F1 FF  mov         qword ptr [0000000010001FB0h],rax
                    FF
  0000000010002DEA: B8 D1 5D 84 85     mov         eax,85845DD1h
  0000000010002DEF: 48 89 05 C2 F1 FF  mov         qword ptr [0000000010001FB8h],rax
                    FF
  0000000010002DF6: B8 4F 7E A8 6F     mov         eax,6FA87E4Fh
  0000000010002DFB: 48 89 05 BE F1 FF  mov         qword ptr [0000000010001FC0h],rax
                    FF
  0000000010002E02: B8 E0 E6 2C FE     mov         eax,0FE2CE6E0h
  0000000010002E07: 48 89 05 BA F1 FF  mov         qword ptr [0000000010001FC8h],rax
                    FF
  0000000010002E0E: B8 14 43 01 A3     mov         eax,0A3014314h
  0000000010002E13: 48 89 05 B6 F1 FF  mov         qword ptr [0000000010001FD0h],rax
                    FF
  0000000010002E1A: B8 A1 11 08 4E     mov         eax,4E0811A1h
  0000000010002E1F: 48 89 05 B2 F1 FF  mov         qword ptr [0000000010001FD8h],rax
                    FF
  0000000010002E26: B8 82 7E 53 F7     mov         eax,0F7537E82h
  0000000010002E2B: 48 89 05 AE F1 FF  mov         qword ptr [0000000010001FE0h],rax
                    FF
  0000000010002E32: B8 35 F2 3A BD     mov         eax,0BD3AF235h
  0000000010002E37: 48 89 05 AA F1 FF  mov         qword ptr [0000000010001FE8h],rax
                    FF
  0000000010002E3E: B8 BB D2 D7 2A     mov         eax,2AD7D2BBh
  0000000010002E43: 48 89 05 A6 F1 FF  mov         qword ptr [0000000010001FF0h],rax
                    FF
  0000000010002E4A: B8 91 D3 86 EB     mov         eax,0EB86D391h
  0000000010002E4F: 48 89 05 A2 F1 FF  mov         qword ptr [0000000010001FF8h],rax
                    FF
  0000000010002E56: C9                 leave
  0000000010002E57: C3                 ret
  0000000010002E58: 55                 push        rbp
  0000000010002E59: 48 8B EC           mov         rbp,rsp
  0000000010002E5C: 48 83 EC 20        sub         rsp,20h
  0000000010002E60: E8 CB F8 FF FF     call        0000000010002730
  0000000010002E65: 48 83 C4 20        add         rsp,20h
  0000000010002E69: C9                 leave
  0000000010002E6A: C3                 ret
  0000000010002E6B: 83 FA 01           cmp         edx,1
  0000000010002E6E: 0F 84 01 00 00 00  je          0000000010002E75
  0000000010002E74: C3                 ret
  0000000010002E75: 56                 push        rsi
  0000000010002E76: 57                 push        rdi
  0000000010002E77: 48 83 EC 28        sub         rsp,28h
  0000000010002E7B: FF 15 5F ED FF FF  call        qword ptr [0000000010001BE0h]
  0000000010002E81: 48 89 05 38 ED FF  mov         qword ptr [0000000010001BC0h],rax
                    FF
  0000000010002E88: E8 CB FF FF FF     call        0000000010002E58
  0000000010002E8D: B8 01 00 00 00     mov         eax,1
  0000000010002E92: 48 83 C4 28        add         rsp,28h
  0000000010002E96: 5F                 pop         rdi
  0000000010002E97: 5E                 pop         rsi
  0000000010002E98: C3                 ret

RAW DATA #2
  0000000010002000: 55 48 8B EC 48 89 4D 10 B8 01 23 45 67 48 8B 4D  UH.?H.M.¸.#EgH.M
  0000000010002010: 10 48 89 01 B8 89 AB CD EF 48 8B 4D 10 48 89 41  .H..¸.«ÍïH.M.H.A
  0000000010002020: 08 B8 FE DC BA 98 48 8B 4D 10 48 89 41 10 B8 76  .¸?Üº.H.M.H.A.¸v
  0000000010002030: 54 32 10 48 8B 4D 10 48 89 41 18 31 C0 48 8B 4D  T2.H.M.H.A.1ÀH.M
  0000000010002040: 10 48 89 41 20 C9 C3 55 48 8B EC 48 89 4D 10 48  .H.A É?UH.?H.M.H
  0000000010002050: 89 55 18 48 8B 45 18 48 83 E0 1F 48 89 45 18 48  .U.H.E.H.à.H.E.H
  0000000010002060: 8B 45 10 B9 FF FF FF FF 48 23 C1 48 89 45 10 48  .E.¹ÿÿÿÿH#ÁH.E.H
  0000000010002070: 8B 45 10 48 8B 4D 18 48 D3 E0 48 8B 4D 10 BA 20  .E.H.M.HÓàH.M.º 
  0000000010002080: 00 00 00 4C 8B 45 18 49 2B D0 48 87 CA 48 D3 FA  ...L.E.I+?H.ÊHÓú
  0000000010002090: 48 8B CA 48 03 C1 B9 FF FF FF FF 48 23 C1 C9 C3  H.ÊH.Á¹ÿÿÿÿH#ÁÉ?
  00000000100020A0: 55 48 8B EC 48 83 EC 50 48 89 4D 10 48 89 55 18  UH.?H.?PH.M.H.U.
  00000000100020B0: 48 8B 45 10 48 8B 00 48 89 45 F8 48 8B 45 10 48  H.E.H..H.EøH.E.H
  00000000100020C0: 8B 40 08 48 89 45 F0 48 8B 45 10 48 8B 40 10 48  .@.H.E?H.E.H.@.H
  00000000100020D0: 89 45 E8 48 8B 45 10 48 8B 40 18 48 89 45 E0 31  .EèH.E.H.@.H.Eà1
  00000000100020E0: C0 48 89 45 C8 B8 3F 00 00 00 48 89 45 B0 48 8B  ÀH.EÈ¸?...H.E°H.
  00000000100020F0: 45 C8 48 3B 45 B0 0F 8F BE 02 00 00 48 8B 45 C8  EÈH;E°..¾...H.EÈ
  0000000010002100: 48 85 C0 0F 8C 3B 00 00 00 48 8B 45 C8 48 83 F8  H.À..;...H.EÈH.ø
  0000000010002110: 0F 0F 8F 2D 00 00 00 48 8B 45 F0 48 8B 4D E8 48  ...-...H.E?H.MèH
  0000000010002120: 23 C1 48 8B 4D F0 48 F7 D1 48 8B 55 E0 48 23 CA  #ÁH.M?H÷ÑH.UàH#Ê
  0000000010002130: 48 0B C1 48 89 45 D0 48 8B 45 C8 48 89 45 C0 E9  H.ÁH.E?H.EÈH.EÀé
  0000000010002140: EE 00 00 00 48 8B 45 C8 48 83 F8 10 0F 8C 4A 00  î...H.EÈH.ø...J.
  0000000010002150: 00 00 48 8B 45 C8 48 83 F8 1F 0F 8F 3C 00 00 00  ..H.EÈH.ø...<...
  0000000010002160: 48 8B 45 E0 48 8B 4D F0 48 23 C1 48 8B 4D E0 48  H.EàH.M?H#ÁH.MàH
  0000000010002170: F7 D1 48 8B 55 E8 48 23 CA 48 0B C1 48 89 45 D0  ÷ÑH.UèH#ÊH.ÁH.E?
  0000000010002180: 48 8B 45 C8 48 69 C0 05 00 00 00 48 83 C0 01 48  H.EÈHiÀ....H.À.H
  0000000010002190: 83 E0 0F 48 89 45 C0 E9 96 00 00 00 48 8B 45 C8  .à.H.EÀé....H.EÈ
  00000000100021A0: 48 83 F8 20 0F 8C 40 00 00 00 48 8B 45 C8 48 83  H.ø ..@...H.EÈH.
  00000000100021B0: F8 2F 0F 8F 32 00 00 00 48 8B 45 F0 48 8B 4D E8  ø/..2...H.E?H.Mè
  00000000100021C0: 48 33 C1 48 8B 4D E0 48 33 C1 48 89 45 D0 48 8B  H3ÁH.MàH3ÁH.E?H.
  00000000100021D0: 45 C8 48 69 C0 03 00 00 00 48 83 C0 05 48 83 E0  EÈHiÀ....H.À.H.à
  00000000100021E0: 0F 48 89 45 C0 E9 48 00 00 00 48 8B 45 C8 48 83  .H.EÀéH...H.EÈH.
  00000000100021F0: F8 30 0F 8C 3A 00 00 00 48 8B 45 C8 48 83 F8 3F  ø0..:...H.EÈH.ø?
  0000000010002200: 0F 8F 2C 00 00 00 48 8B 45 E8 48 8B 4D F0 48 8B  ..,...H.EèH.M?H.
  0000000010002210: 55 E0 48 F7 D2 48 0B CA 48 33 C1 48 89 45 D0 48  UàH÷?H.ÊH3ÁH.E?H
  0000000010002220: 8B 45 C8 48 69 C0 07 00 00 00 48 83 E0 0F 48 89  .EÈHiÀ....H.à.H.
  0000000010002230: 45 C0 48 8B 45 E0 48 89 45 D8 48 8B 45 E8 48 89  EÀH.EàH.EØH.EèH.
  0000000010002240: 45 E0 48 8B 45 F0 48 89 45 E8 48 8B 45 C0 48 C1  EàH.E?H.EèH.EÀHÁ
  0000000010002250: E0 02 48 83 F8 40 0F 83 05 00 00 00 E9 08 00 00  à.H.ø@......é...
  0000000010002260: 00 B0 01 B9 A2 05 00 00 CC 48 8B 4D 18 48 03 C1  .°.¹¢...?H.M.H.Á
  0000000010002270: 0F B6 00 48 8B 4D C0 48 C1 E1 02 48 83 C1 01 48  .¶.H.MÀHÁá.H.Á.H
  0000000010002280: 83 F9 40 0F 83 05 00 00 00 E9 08 00 00 00 B0 01  .ù@......é....°.
  0000000010002290: B9 AD 05 00 00 CC 48 8B 55 18 48 03 CA 0F B6 09  ¹­...?H.U.H.Ê.¶.
  00000000100022A0: 48 C1 E1 08 48 03 C1 48 8B 4D C0 48 C1 E1 02 48  HÁá.H.ÁH.MÀHÁá.H
  00000000100022B0: 83 C1 02 48 83 F9 40 0F 83 05 00 00 00 E9 08 00  .Á.H.ù@......é..
  00000000100022C0: 00 00 B0 01 B9 BD 05 00 00 CC 48 8B 55 18 48 03  ..°.¹½...?H.U.H.
  00000000100022D0: CA 0F B6 09 48 C1 E1 10 48 03 C1 48 8B 4D C0 48  Ê.¶.HÁá.H.ÁH.MÀH
  00000000100022E0: C1 E1 02 48 83 C1 03 48 83 F9 40 0F 83 05 00 00  Áá.H.Á.H.ù@.....
  00000000100022F0: 00 E9 08 00 00 00 B0 01 B9 CF 05 00 00 CC 48 8B  .é....°.¹Ï...?H.
  0000000010002300: 55 18 48 03 CA 0F B6 09 48 C1 E1 18 48 03 C1 48  U.H.Ê.¶.HÁá.H.ÁH
  0000000010002310: 89 45 B8 48 83 EC 20 48 8B 4D F8 48 8B 55 D0 48  .E¸H.? H.MøH.U?H
  0000000010002320: 03 CA 48 8B 55 C8 48 83 FA 40 0F 83 05 00 00 00  .ÊH.UÈH.ú@......
  0000000010002330: E9 08 00 00 00 B0 01 B9 06 06 00 00 CC 48 C1 E2  é....°.¹....?HÁâ
  0000000010002340: 03 4C 8D 05 B8 FA FF FF 49 03 D0 48 8B 12 48 03  .L..¸úÿÿI.?H..H.
  0000000010002350: CA 48 8B 55 B8 48 03 CA 48 8B 55 C8 48 83 FA 40  ÊH.U¸H.ÊH.UÈH.ú@
  0000000010002360: 0F 83 05 00 00 00 E9 08 00 00 00 B0 01 B9 19 06  ......é....°.¹..
  0000000010002370: 00 00 CC 48 C1 E2 03 4C 8D 05 82 F8 FF FF 49 03  ..?HÁâ.L...øÿÿI.
  0000000010002380: D0 48 8B 12 E8 BE FC FF FF 48 83 C4 20 48 89 45  ?H..è¾üÿÿH.Ä H.E
  0000000010002390: B8 48 8B 45 F0 48 8B 4D B8 48 03 C1 B9 FF FF FF  ¸H.E?H.M¸H.Á¹ÿÿÿ
  00000000100023A0: FF 48 23 C1 48 89 45 F0 48 8B 45 D8 48 89 45 F8  ÿH#ÁH.E?H.EØH.Eø
  00000000100023B0: 48 83 45 C8 01 E9 34 FD FF FF 48 8B 45 10 48 8B  H.EÈ.é4?ÿÿH.E.H.
  00000000100023C0: 00 48 8B 4D F8 48 03 C1 B9 FF FF FF FF 48 23 C1  .H.MøH.Á¹ÿÿÿÿH#Á
  00000000100023D0: 48 8B 4D 10 48 89 01 48 8B 45 10 48 8B 40 08 48  H.M.H..H.E.H.@.H
  00000000100023E0: 8B 4D F0 48 03 C1 B9 FF FF FF FF 48 23 C1 48 8B  .M?H.Á¹ÿÿÿÿH#ÁH.
  00000000100023F0: 4D 10 48 89 41 08 48 8B 45 10 48 8B 40 10 48 8B  M.H.A.H.E.H.@.H.
  0000000010002400: 4D E8 48 03 C1 B9 FF FF FF FF 48 23 C1 48 8B 4D  MèH.Á¹ÿÿÿÿH#ÁH.M
  0000000010002410: 10 48 89 41 10 48 8B 45 10 48 8B 40 18 48 8B 4D  .H.A.H.E.H.@.H.M
  0000000010002420: E0 48 03 C1 B9 FF FF FF FF 48 23 C1 48 8B 4D 10  àH.Á¹ÿÿÿÿH#ÁH.M.
  0000000010002430: 48 89 41 18 C9 C3 55 48 8B EC 48 83 EC 70 56 57  H.A.É?UH.?H.?pVW
  0000000010002440: 48 89 4D 10 48 89 55 18 4C 89 45 20 48 8B 45 20  H.M.H.U.L.E H.E 
  0000000010002450: 48 83 F8 40 0F 8F 05 00 00 00 E9 08 00 00 00 B0  H.ø@......é....°
  0000000010002460: 03 B9 CB 07 00 00 CC 48 8B 45 18 48 8D 4D 98 48  .¹Ë...?H.E.H.M.H
  0000000010002470: 8B 55 20 48 8B F0 48 8B F9 48 8B CA F3 A4 48 8B  .U H.?H.ùH.Êó¤H.
  0000000010002480: 45 10 48 8B 40 20 48 8B 4D 20 48 C1 E1 03 48 03  E.H.@ H.M HÁá.H.
  0000000010002490: C1 48 8B 4D 10 48 89 41 20 48 8B 45 20 48 83 F8  ÁH.M.H.A H.E H.ø
  00000000100024A0: 40 0F 85 1A 00 00 00 48 83 EC 20 48 8B 4D 10 48  @......H.? H.M.H
  00000000100024B0: 8D 55 98 E8 E8 FB FF FF 48 83 C4 20 E9 8B 01 00  .U.èèûÿÿH.Ä é...
  00000000100024C0: 00 48 8B 45 20 48 83 F8 38 0F 8D 96 00 00 00 48  .H.E H.ø8......H
  00000000100024D0: 8B 45 20 48 83 F8 40 0F 83 05 00 00 00 E9 08 00  .E H.ø@......é..
  00000000100024E0: 00 00 B0 01 B9 7C 08 00 00 CC 48 03 C5 B9 80 00  ..°.¹|...?H.Å¹..
  00000000100024F0: 00 00 88 48 98 48 8B 45 20 48 83 C0 01 48 89 45  ...H.H.E H.À.H.E
  0000000010002500: F8 48 8B 45 F8 48 83 F8 38 0F 8D 2D 00 00 00 48  øH.EøH.ø8..-...H
  0000000010002510: 8B 45 F8 48 83 F8 40 0F 83 05 00 00 00 E9 08 00  .EøH.ø@......é..
  0000000010002520: 00 00 B0 01 B9 AF 08 00 00 CC 48 03 C5 31 C9 88  ..°.¹¯...?H.Å1É.
  0000000010002530: 48 98 48 83 45 F8 01 E9 C5 FF FF FF 48 8D 45 D0  H.H.Eø.éÅÿÿÿH.E?
  0000000010002540: 48 8B 4D 10 48 8B 49 20 48 89 08 48 83 EC 20 48  H.M.H.I H..H.? H
  0000000010002550: 8B 4D 10 48 8D 55 98 E8 44 FB FF FF 48 83 C4 20  .M.H.U.èDûÿÿH.Ä 
  0000000010002560: E9 E7 00 00 00 48 8B 45 20 48 83 F8 40 0F 83 05  éç...H.E H.ø@...
  0000000010002570: 00 00 00 E9 08 00 00 00 B0 01 B9 1A 09 00 00 CC  ...é....°.¹....?
  0000000010002580: 48 03 C5 B9 80 00 00 00 88 48 98 48 8B 45 20 48  H.Å¹.....H.H.E H
  0000000010002590: 83 C0 01 48 89 45 F8 48 8B 45 F8 48 83 F8 40 0F  .À.H.EøH.EøH.ø@.
  00000000100025A0: 8D 2D 00 00 00 48 8B 45 F8 48 83 F8 40 0F 83 05  .-...H.EøH.ø@...
  00000000100025B0: 00 00 00 E9 08 00 00 00 B0 01 B9 4D 09 00 00 CC  ...é....°.¹M...?
  00000000100025C0: 48 03 C5 31 C9 88 48 98 48 83 45 F8 01 E9 C5 FF  H.Å1É.H.H.Eø.éÅÿ
  00000000100025D0: FF FF 48 83 EC 20 48 8B 4D 10 48 8D 55 98 E8 BD  ÿÿH.? H.M.H.U.è½
  00000000100025E0: FA FF FF 48 83 C4 20 31 C0 48 89 45 F8 48 8B 45  úÿÿH.Ä 1ÀH.EøH.E
  00000000100025F0: F8 48 83 F8 38 0F 8D 2D 00 00 00 48 8B 45 F8 48  øH.ø8..-...H.EøH
  0000000010002600: 83 F8 40 0F 83 05 00 00 00 E9 08 00 00 00 B0 01  .ø@......é....°.
  0000000010002610: B9 94 09 00 00 CC 48 03 C5 31 C9 88 48 98 48 83  ¹....?H.Å1É.H.H.
  0000000010002620: 45 F8 01 E9 C5 FF FF FF 48 8D 45 D0 48 8B 4D 10  Eø.éÅÿÿÿH.E?H.M.
  0000000010002630: 48 8B 49 20 48 89 08 48 83 EC 20 48 8B 4D 10 48  H.I H..H.? H.M.H
  0000000010002640: 8D 55 98 E8 58 FA FF FF 48 83 C4 20 5F 5E C9 C3  .U.èXúÿÿH.Ä _^É?
  0000000010002650: 55 48 8B EC 48 83 EC 10 48 89 4D 10 48 89 55 18  UH.?H.?.H.M.H.U.
  0000000010002660: 4C 89 45 20 4C 89 4D 28 48 8B 45 20 48 8B 4D 28  L.E L.M(H.E H.M(
  0000000010002670: 48 3B C1 0F 8C 05 00 00 00 E9 08 00 00 00 B0 03  H;Á......é....°.
  0000000010002680: B9 AA 0A 00 00 CC 48 8B 45 18 48 89 45 F8 48 8B  ¹ª...?H.E.H.EøH.
  0000000010002690: 45 28 48 83 F8 40 0F 8C 38 00 00 00 48 83 EC 20  E(H.ø@..8...H.? 
  00000000100026A0: 48 8B 4D 10 48 8B 55 F8 41 B8 40 00 00 00 E8 83  H.M.H.UøA¸@...è.
  00000000100026B0: FD FF FF 48 83 C4 20 48 8B 45 28 48 83 E8 40 48  ?ÿÿH.Ä H.E(H.è@H
  00000000100026C0: 89 45 28 48 8B 45 F8 48 83 C0 40 48 89 45 F8 E9  .E(H.EøH.À@H.Eøé
  00000000100026D0: BA FF FF FF 48 83 EC 20 48 8B 4D 10 48 8B 55 F8  ºÿÿÿH.? H.M.H.Uø
  00000000100026E0: 4C 8B 45 28 E8 4D FD FF FF 48 83 C4 20 C9 C3 55  L.E(èM?ÿÿH.Ä É?U
  00000000100026F0: 48 8B EC 48 89 4D 10 48 8B 45 10 48 8B 00 48 8B  H.?H.M.H.E.H..H.
  0000000010002700: 4D 10 48 8B 49 08 48 C1 E1 20 48 03 C1 C9 C3 55  M.H.I.HÁá H.ÁÉ?U
  0000000010002710: 48 8B EC 48 89 4D 10 48 8B 45 10 48 8B 40 10 48  H.?H.M.H.E.H.@.H
  0000000010002720: 8B 4D 10 48 8B 49 18 48 C1 E1 20 48 03 C1 C9 C3  .M.H.I.HÁá H.ÁÉ?
  0000000010002730: 55 48 8B EC 48 83 EC 30 31 C0 48 89 45 F0 B8 01  UH.?H.?01ÀH.E?¸.
  0000000010002740: 00 00 00 48 89 45 F8 B8 04 00 00 00 48 89 45 E8  ...H.Eø¸....H.Eè
  0000000010002750: 48 8B 45 F8 48 3B 45 E8 0F 8F E6 00 00 00 48 8B  H.EøH;Eè..æ...H.
  0000000010002760: 45 F0 48 83 F8 40 0F 83 05 00 00 00 E9 08 00 00  E?H.ø@......é...
  0000000010002770: 00 B0 01 B9 80 0D 00 00 CC 48 C1 E0 03 48 8D 0D  .°.¹....?HÁà.H..
  0000000010002780: 7C F4 FF FF 48 03 C1 B9 07 00 00 00 48 89 08 48  |ôÿÿH.Á¹....H..H
  0000000010002790: 8B 45 F0 48 83 C0 01 48 83 F8 40 0F 83 05 00 00  .E?H.À.H.ø@.....
  00000000100027A0: 00 E9 08 00 00 00 B0 01 B9 9B 0D 00 00 CC 48 C1  .é....°.¹....?HÁ
  00000000100027B0: E0 03 48 8D 0D 47 F4 FF FF 48 03 C1 B9 0C 00 00  à.H..GôÿÿH.Á¹...
  00000000100027C0: 00 48 89 08 48 8B 45 F0 48 83 C0 02 48 83 F8 40  .H..H.E?H.À.H.ø@
  00000000100027D0: 0F 83 05 00 00 00 E9 08 00 00 00 B0 01 B9 B7 0D  ......é....°.¹·.
  00000000100027E0: 00 00 CC 48 C1 E0 03 48 8D 0D 12 F4 FF FF 48 03  ..?HÁà.H...ôÿÿH.
  00000000100027F0: C1 B9 11 00 00 00 48 89 08 48 8B 45 F0 48 83 C0  Á¹....H..H.E?H.À
  0000000010002800: 03 48 83 F8 40 0F 83 05 00 00 00 E9 08 00 00 00  .H.ø@......é....
  0000000010002810: B0 01 B9 D3 0D 00 00 CC 48 C1 E0 03 48 8D 0D DD  °.¹Ó...?HÁà.H..?
  0000000010002820: F3 FF FF 48 03 C1 B9 16 00 00 00 48 89 08 48 8B  óÿÿH.Á¹....H..H.
  0000000010002830: 45 F0 48 83 C0 04 48 89 45 F0 48 83 45 F8 01 E9  E?H.À.H.E?H.Eø.é
  0000000010002840: 0C FF FF FF B8 01 00 00 00 48 89 45 F8 B8 04 00  .ÿÿÿ¸....H.Eø¸..
  0000000010002850: 00 00 48 89 45 E0 48 8B 45 F8 48 3B 45 E0 0F 8F  ..H.EàH.EøH;Eà..
  0000000010002860: E6 00 00 00 48 8B 45 F0 48 83 F8 40 0F 83 05 00  æ...H.E?H.ø@....
  0000000010002870: 00 00 E9 08 00 00 00 B0 01 B9 15 0E 00 00 CC 48  ..é....°.¹....?H
  0000000010002880: C1 E0 03 48 8D 0D 76 F3 FF FF 48 03 C1 B9 05 00  Áà.H..vóÿÿH.Á¹..
  0000000010002890: 00 00 48 89 08 48 8B 45 F0 48 83 C0 01 48 83 F8  ..H..H.E?H.À.H.ø
  00000000100028A0: 40 0F 83 05 00 00 00 E9 08 00 00 00 B0 01 B9 30  @......é....°.¹0
  00000000100028B0: 0E 00 00 CC 48 C1 E0 03 48 8D 0D 41 F3 FF FF 48  ...?HÁà.H..AóÿÿH
  00000000100028C0: 03 C1 B9 09 00 00 00 48 89 08 48 8B 45 F0 48 83  .Á¹....H..H.E?H.
  00000000100028D0: C0 02 48 83 F8 40 0F 83 05 00 00 00 E9 08 00 00  À.H.ø@......é...
  00000000100028E0: 00 B0 01 B9 4B 0E 00 00 CC 48 C1 E0 03 48 8D 0D  .°.¹K...?HÁà.H..
  00000000100028F0: 0C F3 FF FF 48 03 C1 B9 0E 00 00 00 48 89 08 48  .óÿÿH.Á¹....H..H
  0000000010002900: 8B 45 F0 48 83 C0 03 48 83 F8 40 0F 83 05 00 00  .E?H.À.H.ø@.....
  0000000010002910: 00 E9 08 00 00 00 B0 01 B9 67 0E 00 00 CC 48 C1  .é....°.¹g...?HÁ
  0000000010002920: E0 03 48 8D 0D D7 F2 FF FF 48 03 C1 B9 14 00 00  à.H..×?ÿÿH.Á¹...
  0000000010002930: 00 48 89 08 48 8B 45 F0 48 83 C0 04 48 89 45 F0  .H..H.E?H.À.H.E?
  0000000010002940: 48 83 45 F8 01 E9 0C FF FF FF B8 01 00 00 00 48  H.Eø.é.ÿÿÿ¸....H
  0000000010002950: 89 45 F8 B8 04 00 00 00 48 89 45 D8 48 8B 45 F8  .Eø¸....H.EØH.Eø
  0000000010002960: 48 3B 45 D8 0F 8F E6 00 00 00 48 8B 45 F0 48 83  H;EØ..æ...H.E?H.
  0000000010002970: F8 40 0F 83 05 00 00 00 E9 08 00 00 00 B0 01 B9  ø@......é....°.¹
  0000000010002980: A9 0E 00 00 CC 48 C1 E0 03 48 8D 0D 70 F2 FF FF  ©...?HÁà.H..p?ÿÿ
  0000000010002990: 48 03 C1 B9 04 00 00 00 48 89 08 48 8B 45 F0 48  H.Á¹....H..H.E?H
  00000000100029A0: 83 C0 01 48 83 F8 40 0F 83 05 00 00 00 E9 08 00  .À.H.ø@......é..
  00000000100029B0: 00 00 B0 01 B9 C4 0E 00 00 CC 48 C1 E0 03 48 8D  ..°.¹Ä...?HÁà.H.
  00000000100029C0: 0D 3B F2 FF FF 48 03 C1 B9 0B 00 00 00 48 89 08  .;?ÿÿH.Á¹....H..
  00000000100029D0: 48 8B 45 F0 48 83 C0 02 48 83 F8 40 0F 83 05 00  H.E?H.À.H.ø@....
  00000000100029E0: 00 00 E9 08 00 00 00 B0 01 B9 E0 0E 00 00 CC 48  ..é....°.¹à...?H
  00000000100029F0: C1 E0 03 48 8D 0D 06 F2 FF FF 48 03 C1 B9 10 00  Áà.H...?ÿÿH.Á¹..
  0000000010002A00: 00 00 48 89 08 48 8B 45 F0 48 83 C0 03 48 83 F8  ..H..H.E?H.À.H.ø
  0000000010002A10: 40 0F 83 05 00 00 00 E9 08 00 00 00 B0 01 B9 FC  @......é....°.¹ü
  0000000010002A20: 0E 00 00 CC 48 C1 E0 03 48 8D 0D D1 F1 FF FF 48  ...?HÁà.H..ÑñÿÿH
  0000000010002A30: 03 C1 B9 17 00 00 00 48 89 08 48 8B 45 F0 48 83  .Á¹....H..H.E?H.
  0000000010002A40: C0 04 48 89 45 F0 48 83 45 F8 01 E9 0C FF FF FF  À.H.E?H.Eø.é.ÿÿÿ
  0000000010002A50: B8 01 00 00 00 48 89 45 F8 B8 04 00 00 00 48 89  ¸....H.Eø¸....H.
  0000000010002A60: 45 D0 48 8B 45 F8 48 3B 45 D0 0F 8F E6 00 00 00  E?H.EøH;E?..æ...
  0000000010002A70: 48 8B 45 F0 48 83 F8 40 0F 83 05 00 00 00 E9 08  H.E?H.ø@......é.
  0000000010002A80: 00 00 00 B0 01 B9 3E 0F 00 00 CC 48 C1 E0 03 48  ...°.¹>...?HÁà.H
  0000000010002A90: 8D 0D 6A F1 FF FF 48 03 C1 B9 06 00 00 00 48 89  ..jñÿÿH.Á¹....H.
  0000000010002AA0: 08 48 8B 45 F0 48 83 C0 01 48 83 F8 40 0F 83 05  .H.E?H.À.H.ø@...
  0000000010002AB0: 00 00 00 E9 08 00 00 00 B0 01 B9 59 0F 00 00 CC  ...é....°.¹Y...?
  0000000010002AC0: 48 C1 E0 03 48 8D 0D 35 F1 FF FF 48 03 C1 B9 0A  HÁà.H..5ñÿÿH.Á¹.
  0000000010002AD0: 00 00 00 48 89 08 48 8B 45 F0 48 83 C0 02 48 83  ...H..H.E?H.À.H.
  0000000010002AE0: F8 40 0F 83 05 00 00 00 E9 08 00 00 00 B0 01 B9  ø@......é....°.¹
  0000000010002AF0: 75 0F 00 00 CC 48 C1 E0 03 48 8D 0D 00 F1 FF FF  u...?HÁà.H...ñÿÿ
  0000000010002B00: 48 03 C1 B9 0F 00 00 00 48 89 08 48 8B 45 F0 48  H.Á¹....H..H.E?H
  0000000010002B10: 83 C0 03 48 83 F8 40 0F 83 05 00 00 00 E9 08 00  .À.H.ø@......é..
  0000000010002B20: 00 00 B0 01 B9 91 0F 00 00 CC 48 C1 E0 03 48 8D  ..°.¹....?HÁà.H.
  0000000010002B30: 0D CB F0 FF FF 48 03 C1 B9 15 00 00 00 48 89 08  .Ë?ÿÿH.Á¹....H..
  0000000010002B40: 48 8B 45 F0 48 83 C0 04 48 89 45 F0 48 83 45 F8  H.E?H.À.H.E?H.Eø
  0000000010002B50: 01 E9 0C FF FF FF B8 78 A4 6A D7 48 89 05 9E F2  .é.ÿÿÿ¸x¤j×H...?
  0000000010002B60: FF FF B8 56 B7 C7 E8 48 89 05 9A F2 FF FF B8 DB  ÿÿ¸V·ÇèH...?ÿÿ¸Û
  0000000010002B70: 70 20 24 48 89 05 96 F2 FF FF B8 EE CE BD C1 48  p $H...?ÿÿ¸îÎ½ÁH
  0000000010002B80: 89 05 92 F2 FF FF B8 AF 0F 7C F5 48 89 05 8E F2  ...?ÿÿ¸¯.|?H...?
  0000000010002B90: FF FF B8 2A C6 87 47 48 89 05 8A F2 FF FF B8 13  ÿÿ¸*Æ.GH...?ÿÿ¸.
  0000000010002BA0: 46 30 A8 48 89 05 86 F2 FF FF B8 01 95 46 FD 48  F0¨H...?ÿÿ¸..F?H
  0000000010002BB0: 89 05 82 F2 FF FF B8 D8 98 80 69 48 89 05 7E F2  ...?ÿÿ¸Ø..iH..~?
  0000000010002BC0: FF FF B8 AF F7 44 8B 48 89 05 7A F2 FF FF B8 B1  ÿÿ¸¯÷D.H..z?ÿÿ¸±
  0000000010002BD0: 5B FF FF 48 89 05 76 F2 FF FF B8 BE D7 5C 89 48  [ÿÿH..v?ÿÿ¸¾×\.H
  0000000010002BE0: 89 05 72 F2 FF FF B8 22 11 90 6B 48 89 05 6E F2  ..r?ÿÿ¸"..kH..n?
  0000000010002BF0: FF FF B8 93 71 98 FD 48 89 05 6A F2 FF FF B8 8E  ÿÿ¸.q.?H..j?ÿÿ¸.
  0000000010002C00: 43 79 A6 48 89 05 66 F2 FF FF B8 21 08 B4 49 48  Cy¦H..f?ÿÿ¸!.´IH
  0000000010002C10: 89 05 62 F2 FF FF B8 62 25 1E F6 48 89 05 5E F2  ..b?ÿÿ¸b%.öH..^?
  0000000010002C20: FF FF B8 40 B3 40 C0 48 89 05 5A F2 FF FF B8 51  ÿÿ¸@³@ÀH..Z?ÿÿ¸Q
  0000000010002C30: 5A 5E 26 48 89 05 56 F2 FF FF B8 AA C7 B6 E9 48  Z^&H..V?ÿÿ¸ªÇ¶éH
  0000000010002C40: 89 05 52 F2 FF FF B8 5D 10 2F D6 48 89 05 4E F2  ..R?ÿÿ¸]./ÖH..N?
  0000000010002C50: FF FF B8 53 14 44 02 48 89 05 4A F2 FF FF B8 81  ÿÿ¸S.D.H..J?ÿÿ¸.
  0000000010002C60: E6 A1 D8 48 89 05 46 F2 FF FF B8 C8 FB D3 E7 48  æ¡ØH..F?ÿÿ¸ÈûÓçH
  0000000010002C70: 89 05 42 F2 FF FF B8 E6 CD E1 21 48 89 05 3E F2  ..B?ÿÿ¸æÍá!H..>?
  0000000010002C80: FF FF B8 D6 07 37 C3 48 89 05 3A F2 FF FF B8 87  ÿÿ¸Ö.7?H..:?ÿÿ¸.
  0000000010002C90: 0D D5 F4 48 89 05 36 F2 FF FF B8 ED 14 5A 45 48  .?ôH..6?ÿÿ¸í.ZEH
  0000000010002CA0: 89 05 32 F2 FF FF B8 05 E9 E3 A9 48 89 05 2E F2  ..2?ÿÿ¸.é?©H...?
  0000000010002CB0: FF FF B8 F8 A3 EF FC 48 89 05 2A F2 FF FF B8 D9  ÿÿ¸ø£ïüH..*?ÿÿ¸Ù
  0000000010002CC0: 02 6F 67 48 89 05 26 F2 FF FF B8 8A 4C 2A 8D 48  .ogH..&?ÿÿ¸.L*.H
  0000000010002CD0: 89 05 22 F2 FF FF B8 42 39 FA FF 48 89 05 1E F2  .."?ÿÿ¸B9úÿH...?
  0000000010002CE0: FF FF B8 81 F6 71 87 48 89 05 1A F2 FF FF B8 22  ÿÿ¸.öq.H...?ÿÿ¸"
  0000000010002CF0: 61 9D 6D 48 89 05 16 F2 FF FF B8 0C 38 E5 FD 48  a.mH...?ÿÿ¸.8å?H
  0000000010002D00: 89 05 12 F2 FF FF B8 44 EA BE A4 48 89 05 0E F2  ...?ÿÿ¸Dê¾¤H...?
  0000000010002D10: FF FF B8 A9 CF DE 4B 48 89 05 0A F2 FF FF B8 60  ÿÿ¸©Ï?KH...?ÿÿ¸`
  0000000010002D20: 4B BB F6 48 89 05 06 F2 FF FF B8 70 BC BF BE 48  K»öH...?ÿÿ¸p¼¿¾H
  0000000010002D30: 89 05 02 F2 FF FF B8 C6 7E 9B 28 48 89 05 FE F1  ...?ÿÿ¸Æ~.(H..?ñ
  0000000010002D40: FF FF B8 FA 27 A1 EA 48 89 05 FA F1 FF FF B8 85  ÿÿ¸ú'¡êH..úñÿÿ¸.
  0000000010002D50: 30 EF D4 48 89 05 F6 F1 FF FF B8 05 1D 88 04 48  0ïÔH..öñÿÿ¸....H
  0000000010002D60: 89 05 F2 F1 FF FF B8 39 D0 D4 D9 48 89 05 EE F1  ..?ñÿÿ¸9?ÔÙH..îñ
  0000000010002D70: FF FF B8 E5 99 DB E6 48 89 05 EA F1 FF FF B8 F8  ÿÿ¸å.ÛæH..êñÿÿ¸ø
  0000000010002D80: 7C A2 1F 48 89 05 E6 F1 FF FF B8 65 56 AC C4 48  |¢.H..æñÿÿ¸eV¬ÄH
  0000000010002D90: 89 05 E2 F1 FF FF B8 44 22 29 F4 48 89 05 DE F1  ..âñÿÿ¸D")ôH..?ñ
  0000000010002DA0: FF FF B8 97 FF 2A 43 48 89 05 DA F1 FF FF B8 A7  ÿÿ¸.ÿ*CH..Úñÿÿ¸§
  0000000010002DB0: 23 94 AB 48 89 05 D6 F1 FF FF B8 39 A0 93 FC 48  #.«H..Öñÿÿ¸9..üH
  0000000010002DC0: 89 05 D2 F1 FF FF B8 C3 59 5B 65 48 89 05 CE F1  ..?ñÿÿ¸?Y[eH..Îñ
  0000000010002DD0: FF FF B8 92 CC 0C 8F 48 89 05 CA F1 FF FF B8 7D  ÿÿ¸.?..H..Êñÿÿ¸}
  0000000010002DE0: F4 EF FF 48 89 05 C6 F1 FF FF B8 D1 5D 84 85 48  ôïÿH..Æñÿÿ¸Ñ]..H
  0000000010002DF0: 89 05 C2 F1 FF FF B8 4F 7E A8 6F 48 89 05 BE F1  ..Âñÿÿ¸O~¨oH..¾ñ
  0000000010002E00: FF FF B8 E0 E6 2C FE 48 89 05 BA F1 FF FF B8 14  ÿÿ¸àæ,?H..ºñÿÿ¸.
  0000000010002E10: 43 01 A3 48 89 05 B6 F1 FF FF B8 A1 11 08 4E 48  C.£H..¶ñÿÿ¸¡..NH
  0000000010002E20: 89 05 B2 F1 FF FF B8 82 7E 53 F7 48 89 05 AE F1  ..²ñÿÿ¸.~S÷H..®ñ
  0000000010002E30: FF FF B8 35 F2 3A BD 48 89 05 AA F1 FF FF B8 BB  ÿÿ¸5?:½H..ªñÿÿ¸»
  0000000010002E40: D2 D7 2A 48 89 05 A6 F1 FF FF B8 91 D3 86 EB 48  ?×*H..¦ñÿÿ¸.Ó.ëH
  0000000010002E50: 89 05 A2 F1 FF FF C9 C3 55 48 8B EC 48 83 EC 20  ..¢ñÿÿÉ?UH.?H.? 
  0000000010002E60: E8 CB F8 FF FF 48 83 C4 20 C9 C3 83 FA 01 0F 84  èËøÿÿH.Ä É?.ú...
  0000000010002E70: 01 00 00 00 C3 56 57 48 83 EC 28 FF 15 5F ED FF  ....?VWH.?(ÿ._íÿ
  0000000010002E80: FF 48 89 05 38 ED FF FF E8 CB FF FF FF B8 01 00  ÿH..8íÿÿèËÿÿÿ¸..
  0000000010002E90: 00 00 48 83 C4 28 5F 5E C3                       ..H.Ä(_^?

SECTION HEADER #3
  .idata name
     130 virtual size
    3000 virtual address (0000000010003000 to 000000001000312F)
     200 size of raw data
    1400 file pointer to raw data (00001400 to 000015FF)
       0 file pointer to relocation table
       0 file pointer to line numbers
       0 number of relocations
       0 number of line numbers
C0000040 flags
         Initialized Data
         Read Write

RAW DATA #3
  0000000010003000: 28 30 00 00 00 00 00 00 00 00 00 00 60 30 00 00  (0..........`0..
  0000000010003010: C8 1B 00 00 00 00 00 00 00 00 00 00 00 00 00 00  È...............
  0000000010003020: 00 00 00 00 00 00 00 00 70 30 00 00 00 00 00 00  ........p0......
  0000000010003030: 90 30 00 00 00 00 00 00 B0 30 00 00 00 00 00 00  .0......°0......
  0000000010003040: D0 30 00 00 00 00 00 00 F0 30 00 00 00 00 00 00  ?0......?0......
  0000000010003050: 10 31 00 00 00 00 00 00 00 00 00 00 00 00 00 00  .1..............
  0000000010003060: 4B 45 52 4E 45 4C 33 32 2E 44 4C 4C 00 00 00 00  KERNEL32.DLL....
  0000000010003070: 00 00 45 78 69 74 50 72 6F 63 65 73 73 00 00 00  ..ExitProcess...
  0000000010003080: 00 00 00 00 00 00 00 00 00 00 00 00 00 00 00 00  ................
  0000000010003090: 00 00 4C 6F 61 64 4C 69 62 72 61 72 79 57 00 00  ..LoadLibraryW..
  00000000100030A0: 00 00 00 00 00 00 00 00 00 00 00 00 00 00 00 00  ................
  00000000100030B0: 00 00 47 65 74 50 72 6F 63 41 64 64 72 65 73 73  ..GetProcAddress
  00000000100030C0: 00 00 00 00 00 00 00 00 00 00 00 00 00 00 00 00  ................
  00000000100030D0: 00 00 47 65 74 50 72 6F 63 65 73 73 48 65 61 70  ..GetProcessHeap
  00000000100030E0: 00 00 00 00 00 00 00 00 00 00 00 00 00 00 00 00  ................
  00000000100030F0: 00 00 48 65 61 70 41 6C 6C 6F 63 00 00 00 00 00  ..HeapAlloc.....
  0000000010003100: 00 00 00 00 00 00 00 00 00 00 00 00 00 00 00 00  ................
  0000000010003110: 00 00 48 65 61 70 46 72 65 65 00 00 00 00 00 00  ..HeapFree......
  0000000010003120: 00 00 00 00 00 00 00 00 00 00 00 00 00 00 00 00  ................

  Section contains the following imports:

    KERNEL32.DLL
              10001BC8 Import Address Table
              10003028 Import Name Table
                     0 time date stamp
                     0 Index of first forwarder reference

                           0 ExitProcess
                           0 LoadLibraryW
                           0 GetProcAddress
                           0 GetProcessHeap
                           0 HeapAlloc
                           0 HeapFree

SECTION HEADER #4
  .reloc name
       C virtual size
    4000 virtual address (0000000010004000 to 000000001000400B)
     200 size of raw data
    2200 file pointer to raw data (00002200 to 000023FF)
       0 file pointer to relocation table
       0 file pointer to line numbers
       0 number of relocations
       0 number of line numbers
42000040 flags
         Initialized Data
         Discardable
         Read Only

RAW DATA #4
  0000000010004000: 04 00 00 00 0C 00 00 00 00 00 00 00              ............

BASE RELOCATIONS #4
       4 RVA,        C SizeOfBlock
       0  ABS                        
       0  ABS                        

SECTION HEADER #5
  .edata name
      4A virtual size
    5000 virtual address (0000000010005000 to 0000000010005049)
     200 size of raw data
    2400 file pointer to raw data (00002400 to 000025FF)
       0 file pointer to relocation table
       0 file pointer to line numbers
       0 number of relocations
       0 number of line numbers
40000040 flags
         Initialized Data
         Read Only

RAW DATA #5
  0000000010005000: 00 00 00 00 00 00 00 00 00 00 00 00 40 50 00 00  ............@P..
  0000000010005010: 01 00 00 00 06 00 00 00 00 00 00 00 28 50 00 00  ............(P..
  0000000010005020: 00 00 00 00 00 00 00 00 38 1B 00 00 00 20 00 00  ........8.... ..
  0000000010005030: 36 24 00 00 50 26 00 00 EF 26 00 00 0F 27 00 00  6$..P&..ï&...'..
  0000000010005040: 43 72 79 70 74 2E 64 6C 6C 00                    Crypt.dll.

  Section contains the following exports for Crypt.dll

    00000000 characteristics
           0 time date stamp
        0.00 version
           1 ordinal base
           6 number of functions
           0 number of names

    ordinal hint RVA      name

          1      00001B38 [NONAME]
          2      00002000 [NONAME]
          3      00002436 [NONAME]
          4      00002650 [NONAME]
          5      000026EF [NONAME]
          6      0000270F [NONAME]

  Summary

        1000 .data
        1000 .edata
        1000 .idata
        1000 .reloc
        1000 .text
