Microsoft (R) COFF/PE Dumper Version 14.00.24215.1
Copyright (C) Microsoft Corporation.  All rights reserved.


Dump of file Scanner1.dll

PE signature found

File Type: DLL

FILE HEADER VALUES
            8664 machine (x64)
               5 number of sections
               0 time date stamp
               0 file pointer to symbol table
               0 number of symbols
              F0 size of optional header
            2022 characteristics
                   Executable
                   Application can handle large (>2GB) addresses
                   DLL

OPTIONAL HEADER VALUES
             20B magic # (PE32+)
            0.00 linker version
            2000 size of code
            1200 size of initialized data
               0 size of uninitialized data
          104EEB entry point (0000000010104EEB)
          103000 base of code
        10000000 image base (0000000010000000 to 0000000010107FFF)
            1000 section alignment
             200 file alignment
            5.00 operating system version
            0.00 image version
            5.00 subsystem version
               0 Win32 version
          108000 size of image
             400 size of headers
               0 checksum
               2 subsystem (Windows GUI)
             140 DLL characteristics
                   Dynamic base
                   NX compatible
            1000 size of stack reserve
            1000 size of stack commit
           10000 size of heap reserve
               0 size of heap commit
               0 loader flags
              10 number of directories
          107000 [      65] RVA [size] of Export Directory
          105000 [     130] RVA [size] of Import Directory
               0 [       0] RVA [size] of Resource Directory
               0 [       0] RVA [size] of Exception Directory
               0 [       0] RVA [size] of Certificates Directory
          106000 [       C] RVA [size] of Base Relocation Directory
               0 [       0] RVA [size] of Debug Directory
               0 [       0] RVA [size] of Architecture Directory
               0 [       0] RVA [size] of Global Pointer Directory
               0 [       0] RVA [size] of Thread Storage Directory
               0 [       0] RVA [size] of Load Configuration Directory
               0 [       0] RVA [size] of Bound Import Directory
               0 [       0] RVA [size] of Import Address Table Directory
               0 [       0] RVA [size] of Delay Import Directory
               0 [       0] RVA [size] of COM Descriptor Directory
               0 [       0] RVA [size] of Reserved Directory


SECTION HEADER #1
   .data name
  102000 virtual size
    1000 virtual address (0000000010001000 to 0000000010102FFF)
     C00 size of raw data
    2600 file pointer to raw data (00002600 to 000031FF)
       0 file pointer to relocation table
       0 file pointer to line numbers
       0 number of relocations
       0 number of line numbers
C0000040 flags
         Initialized Data
         Read Write

RAW DATA #1
  0000000010001000: 00 00 00 00 00 00 00 00 00 00 00 00 00 00 00 00  ................
  0000000010001010: 00 00 00 00 00 00 00 00 00 00 00 00 00 00 00 00  ................
  0000000010001020: 00 00 00 00 00 00 00 00 00 00 00 00 00 00 00 00  ................
  0000000010001030: 00 00 00 00 00 00 00 00 00 00 00 00 00 00 00 00  ................
  0000000010001040: 00 00 00 00 00 00 00 00 00 00 00 00 00 00 00 00  ................
  0000000010001050: 00 00 00 00 00 00 00 00 00 00 00 00 00 00 00 00  ................
  0000000010001060: 00 00 00 00 00 00 00 00 00 00 00 00 00 00 00 00  ................
  0000000010001070: 00 00 00 00 00 00 00 00 00 00 00 00 00 00 00 00  ................
  0000000010001080: 00 00 00 00 00 00 00 00 00 00 00 00 00 00 00 00  ................
  0000000010001090: 00 00 00 00 00 00 00 00 00 00 00 00 00 00 00 00  ................
  00000000100010A0: 00 00 00 00 00 00 00 00 00 00 00 00 00 00 00 00  ................
  00000000100010B0: 00 00 00 00 00 00 00 00 00 00 00 00 00 00 00 00  ................
  00000000100010C0: 00 00 00 00 00 00 00 00 00 00 00 00 00 00 00 00  ................
  00000000100010D0: 00 00 00 00 00 00 00 00 00 00 00 00 00 00 00 00  ................
  00000000100010E0: 00 00 00 00 00 00 00 00 00 00 00 00 00 00 00 00  ................
  00000000100010F0: 00 00 00 00 00 00 00 00 00 00 00 00 00 00 00 00  ................
  0000000010001100: 00 00 00 00 00 00 00 00 00 00 00 00 00 00 00 00  ................
  0000000010001110: 00 00 00 00 00 00 00 00 00 00 00 00 00 00 00 00  ................
  0000000010001120: 00 00 00 00 00 00 00 00 00 00 00 00 00 00 00 00  ................
  0000000010001130: 00 00 00 00 00 00 00 00 00 00 00 00 00 00 00 00  ................
  0000000010001140: 00 00 00 00 00 00 00 00 00 00 00 00 00 00 00 00  ................
  0000000010001150: 00 00 00 00 00 00 00 00 00 00 00 00 00 00 00 00  ................
  0000000010001160: 00 00 00 00 00 00 00 00 00 00 00 00 00 00 00 00  ................
  0000000010001170: 00 00 00 00 00 00 00 00 00 00 00 00 00 00 00 00  ................
  0000000010001180: 00 00 00 00 00 00 00 00 00 00 00 00 00 00 00 00  ................
  0000000010001190: 00 00 00 00 00 00 00 00 00 00 00 00 00 00 00 00  ................
  00000000100011A0: 00 00 00 00 00 00 00 00 00 00 00 00 00 00 00 00  ................
  00000000100011B0: 00 00 00 00 00 00 00 00 00 00 00 00 00 00 00 00  ................
  00000000100011C0: 00 00 00 00 00 00 00 00 00 00 00 00 00 00 00 00  ................
  00000000100011D0: 00 00 00 00 00 00 00 00 00 00 00 00 00 00 00 00  ................
  00000000100011E0: 00 00 00 00 00 00 00 00 00 00 00 00 00 00 00 00  ................
  00000000100011F0: 00 00 00 00 00 00 00 00 00 00 00 00 00 00 00 00  ................
  0000000010001200: 00 00 00 00 00 00 00 00 00 00 00 00 00 00 00 00  ................
  0000000010001210: 00 00 00 00 00 00 00 00 00 00 00 00 00 00 00 00  ................
  0000000010001220: 00 00 00 00 00 00 00 00 00 00 00 00 00 00 00 00  ................
  0000000010001230: 00 00 00 00 00 00 00 00 00 00 00 00 00 00 00 00  ................
  0000000010001240: 00 00 00 00 00 00 00 00 00 00 00 00 00 00 00 00  ................
  0000000010001250: 00 00 00 00 00 00 00 00 00 00 00 00 00 00 00 00  ................
  0000000010001260: 00 00 00 00 00 00 00 00 00 00 00 00 00 00 00 00  ................
  0000000010001270: 00 00 00 00 00 00 00 00 00 00 00 00 00 00 00 00  ................
  0000000010001280: 00 00 00 00 00 00 00 00 00 00 00 00 00 00 00 00  ................
  0000000010001290: 00 00 00 00 00 00 00 00 00 00 00 00 00 00 00 00  ................
  00000000100012A0: 00 00 00 00 00 00 00 00 00 00 00 00 00 00 00 00  ................
  00000000100012B0: 00 00 00 00 00 00 00 00 00 00 00 00 00 00 00 00  ................
  00000000100012C0: 00 00 00 00 00 00 00 00 00 00 00 00 00 00 00 00  ................
  00000000100012D0: 00 00 00 00 00 00 00 00 00 00 00 00 00 00 00 00  ................
  00000000100012E0: 00 00 00 00 00 00 00 00 00 00 00 00 00 00 00 00  ................
  00000000100012F0: 00 00 00 00 00 00 00 00 00 00 00 00 00 00 00 00  ................
  0000000010001300: 00 00 00 00 00 00 00 00 00 00 00 00 00 00 00 00  ................
  0000000010001310: 00 00 00 00 00 00 00 00 00 00 00 00 00 00 00 00  ................
  0000000010001320: 00 00 00 00 00 00 00 00 00 00 00 00 00 00 00 00  ................
  0000000010001330: 00 00 00 00 00 00 00 00 00 00 00 00 00 00 00 00  ................
  0000000010001340: 00 00 00 00 00 00 00 00 00 00 00 00 00 00 00 00  ................
  0000000010001350: 00 00 00 00 00 00 00 00 00 00 00 00 00 00 00 00  ................
  0000000010001360: 00 00 00 00 00 00 00 00 00 00 00 00 00 00 00 00  ................
  0000000010001370: 00 00 00 00 00 00 00 00 00 00 00 00 00 00 00 00  ................
  0000000010001380: 00 00 00 00 00 00 00 00 00 00 00 00 00 00 00 00  ................
  0000000010001390: 00 00 00 00 00 00 00 00 00 00 00 00 00 00 00 00  ................
  00000000100013A0: 00 00 00 00 00 00 00 00 00 00 00 00 00 00 00 00  ................
  00000000100013B0: 00 00 00 00 00 00 00 00 00 00 00 00 00 00 00 00  ................
  00000000100013C0: 00 00 00 00 00 00 00 00 00 00 00 00 00 00 00 00  ................
  00000000100013D0: 00 00 00 00 00 00 00 00 00 00 00 00 00 00 00 00  ................
  00000000100013E0: 00 00 00 00 00 00 00 00 00 00 00 00 00 00 00 00  ................
  00000000100013F0: 00 00 00 00 00 00 00 00 00 00 00 00 00 00 00 00  ................
  0000000010001400: 00 00 00 00 00 00 00 00 00 00 00 00 00 00 00 00  ................
  0000000010001410: 00 00 00 00 00 00 00 00 00 00 00 00 00 00 00 00  ................
  0000000010001420: 00 00 00 00 00 00 00 00 00 00 00 00 00 00 00 00  ................
  0000000010001430: 00 00 00 00 00 00 00 00 00 00 00 00 00 00 00 00  ................
  0000000010001440: 00 00 00 00 00 00 00 00 00 00 00 00 00 00 00 00  ................
  0000000010001450: 00 00 00 00 00 00 00 00 00 00 00 00 00 00 00 00  ................
  0000000010001460: 00 00 00 00 00 00 00 00 00 00 00 00 00 00 00 00  ................
  0000000010001470: 00 00 00 00 00 00 00 00 00 00 00 00 00 00 00 00  ................
  0000000010001480: 00 00 00 00 00 00 00 00 00 00 00 00 00 00 00 00  ................
  0000000010001490: 00 00 00 00 00 00 00 00 00 00 00 00 00 00 00 00  ................
  00000000100014A0: 00 00 00 00 00 00 00 00 00 00 00 00 00 00 00 00  ................
  00000000100014B0: 00 00 00 00 00 00 00 00 00 00 00 00 00 00 00 00  ................
  00000000100014C0: 00 00 00 00 00 00 00 00 00 00 42 00 61 00 73 00  ..........B.a.s.
  00000000100014D0: 65 00 53 00 79 00 73 00 2E 00 64 00 6C 00 6C 00  e.S.y.s...d.l.l.
  00000000100014E0: 00 00 45 00 58 00 54 00 45 00 4E 00 53 00 49 00  ..E.X.T.E.N.S.I.
  00000000100014F0: 42 00 4C 00 45 00 00 00 50 00 52 00 4F 00 43 00  B.L.E...P.R.O.C.
  0000000010001500: 45 00 44 00 55 00 52 00 45 00 00 00 50 00 4F 00  E.D.U.R.E...P.O.
  0000000010001510: 49 00 4E 00 54 00 45 00 52 00 00 00 4D 00 4F 00  I.N.T.E.R...M.O.
  0000000010001520: 44 00 55 00 4C 00 45 00 00 00 49 00 4D 00 50 00  D.U.L.E...I.M.P.
  0000000010001530: 4F 00 52 00 54 00 00 00 52 00 45 00 54 00 55 00  O.R.T...R.E.T.U.
  0000000010001540: 52 00 4E 00 00 00 52 00 45 00 50 00 45 00 41 00  R.N...R.E.P.E.A.
  0000000010001550: 54 00 00 00 52 00 45 00 43 00 4F 00 52 00 44 00  T...R.E.C.O.R.D.
  0000000010001560: 00 00 57 00 48 00 49 00 4C 00 45 00 00 00 55 00  ..W.H.I.L.E...U.
  0000000010001570: 4E 00 54 00 49 00 4C 00 00 00 43 00 4F 00 4E 00  N.T.I.L...C.O.N.
  0000000010001580: 53 00 54 00 00 00 42 00 45 00 47 00 49 00 4E 00  S.T...B.E.G.I.N.
  0000000010001590: 00 00 41 00 52 00 52 00 41 00 59 00 00 00 46 00  ..A.R.R.A.Y...F.
  00000000100015A0: 41 00 4C 00 53 00 45 00 00 00 45 00 4C 00 53 00  A.L.S.E...E.L.S.
  00000000100015B0: 49 00 46 00 00 00 43 00 41 00 53 00 45 00 00 00  I.F...C.A.S.E...
  00000000100015C0: 54 00 59 00 50 00 45 00 00 00 54 00 52 00 55 00  T.Y.P.E...T.R.U.
  00000000100015D0: 45 00 00 00 54 00 48 00 45 00 4E 00 00 00 45 00  E...T.H.E.N...E.
  00000000100015E0: 4C 00 53 00 45 00 00 00 46 00 4F 00 52 00 00 00  L.S.E...F.O.R...
  00000000100015F0: 4D 00 4F 00 44 00 00 00 44 00 49 00 56 00 00 00  M.O.D...D.I.V...
  0000000010001600: 56 00 41 00 52 00 00 00 4E 00 49 00 4C 00 00 00  V.A.R...N.I.L...
  0000000010001610: 45 00 4E 00 44 00 00 00 42 00 59 00 00 00 49 00  E.N.D...B.Y...I.
  0000000010001620: 53 00 00 00 49 00 4E 00 00 00 54 00 4F 00 00 00  S...I.N...T.O...
  0000000010001630: 4F 00 52 00 00 00 4F 00 46 00 00 00 44 00 4F 00  O.R...O.F...D.O.
  0000000010001640: 00 00 49 00 46 00 00 00 00 00 00 00 00 00 00 00  ..I.F...........
  0000000010001650: 00 00 00 00 00 00 00 00 00 00 00 00 7E 00 00 00  ............~...
  0000000010001660: 7C 00 00 00 7D 00 00 00 7B 00 00 00 7B 00 00 00  |...}...{...{...
  0000000010001670: 5F 00 00 00 5E 00 00 00 5D 00 00 00 5B 00 00 00  _...^...]...[...
  0000000010001680: 61 00 00 00 5B 00 00 00 3D 00 00 00 3E 00 00 00  a...[...=...>...
  0000000010001690: 3D 00 00 00 3D 00 00 00 3C 00 00 00 3B 00 00 00  =...=...<...;...
  00000000100016A0: 3D 00 00 00 3A 00 00 00 3A 00 00 00 2F 00 00 00  =...:...:.../...
  00000000100016B0: 2E 00 00 00 2E 00 00 00 2D 00 00 00 2C 00 00 00  ........-...,...
  00000000100016C0: 2B 00 00 00 2A 00 00 00 29 00 00 00 2A 00 00 00  +...*...)...*...
  00000000100016D0: 28 00 00 00 26 00 00 00 24 00 00 00 23 00 00 00  (...&...$...#...
  00000000100016E0: 30 00 00 00 41 00 00 00 20 00 00 00 29 00 00 00  0...A... ...)...
  00000000100016F0: 2A 00 00 00 2A 00 00 00 28 00 00 00 24 00 00 00  *...*...(...$...
  0000000010001700: 49 00 6E 00 63 00 6F 00 72 00 72 00 65 00 63 00  I.n.c.o.r.r.e.c.
  0000000010001710: 74 00 20 00 63 00 6F 00 6D 00 70 00 69 00 6C 00  t. .c.o.m.p.i.l.
  0000000010001720: 65 00 72 00 20 00 64 00 69 00 72 00 65 00 63 00  e.r. .d.i.r.e.c.
  0000000010001730: 74 00 69 00 76 00 65 00 00 00 2A 00 00 00 2A 00  t.i.v.e...*...*.
  0000000010001740: 00 00 42 00 61 00 64 00 20 00 69 00 6E 00 74 00  ..B.a.d. .i.n.t.
  0000000010001750: 65 00 67 00 65 00 72 00 00 00 54 00 6F 00 6F 00  e.g.e.r...T.o.o.
  0000000010001760: 20 00 6C 00 61 00 72 00 67 00 65 00 00 00 54 00   .l.a.r.g.e...T.
  0000000010001770: 6F 00 6F 00 20 00 6C 00 61 00 72 00 67 00 65 00  o.o. .l.a.r.g.e.
  0000000010001780: 00 00 44 00 69 00 67 00 69 00 74 00 3F 00 00 00  ..D.i.g.i.t.?...
  0000000010001790: 39 00 00 00 30 00 00 00 39 00 00 00 30 00 00 00  9...0...9...0...
  00000000100017A0: 2B 00 00 00 2D 00 00 00 44 00 00 00 45 00 00 00  +...-...D...E...
  00000000100017B0: 39 00 00 00 30 00 00 00 42 00 61 00 64 00 20 00  9...0...B.a.d. .
  00000000100017C0: 69 00 6E 00 74 00 65 00 67 00 65 00 72 00 00 00  i.n.t.e.g.e.r...
  00000000100017D0: 54 00 6F 00 6F 00 20 00 6C 00 61 00 72 00 67 00  T.o.o. .l.a.r.g.
  00000000100017E0: 65 00 00 00 2E 00 00 00 2E 00 00 00 52 00 00 00  e...........R...
  00000000100017F0: 49 00 6C 00 6C 00 65 00 67 00 61 00 6C 00 20 00  I.l.l.e.g.a.l. .
  0000000010001800: 76 00 61 00 6C 00 75 00 65 00 00 00 58 00 00 00  v.a.l.u.e...X...
  0000000010001810: 58 00 00 00 52 00 00 00 48 00 00 00 46 00 00 00  X...R...H...F...
  0000000010001820: 41 00 00 00 39 00 00 00 30 00 00 00 54 00 6F 00  A...9...0...T.o.
  0000000010001830: 6F 00 20 00 6D 00 61 00 6E 00 79 00 20 00 64 00  o. .m.a.n.y. .d.
  0000000010001840: 69 00 67 00 69 00 74 00 73 00 00 00 53 00 74 00  i.g.i.t.s...S.t.
  0000000010001850: 72 00 69 00 6E 00 67 00 20 00 74 00 6F 00 6F 00  r.i.n.g. .t.o.o.
  0000000010001860: 20 00 6C 00 6F 00 6E 00 67 00 00 00 48 00 65 00   .l.o.n.g...H.e.
  0000000010001870: 78 00 20 00 64 00 69 00 67 00 69 00 74 00 20 00  x. .d.i.g.i.t. .
  0000000010001880: 65 00 78 00 70 00 65 00 63 00 74 00 65 00 64 00  e.x.p.e.c.t.e.d.
  0000000010001890: 00 00 46 00 00 00 41 00 00 00 39 00 00 00 30 00  ..F...A...9...0.
  00000000100018A0: 00 00 48 00 65 00 78 00 20 00 64 00 69 00 67 00  ..H.e.x. .d.i.g.
  00000000100018B0: 69 00 74 00 20 00 65 00 78 00 70 00 65 00 63 00  i.t. .e.x.p.e.c.
  00000000100018C0: 74 00 65 00 64 00 00 00 46 00 00 00 41 00 00 00  t.e.d...F...A...
  00000000100018D0: 39 00 00 00 30 00 00 00 20 00 00 00 24 00 00 00  9...0... ...$...
  00000000100018E0: 40 00 00 00 53 00 74 00 72 00 69 00 6E 00 67 00  @...S.t.r.i.n.g.
  00000000100018F0: 20 00 74 00 6F 00 6F 00 20 00 6C 00 6F 00 6E 00   .t.o.o. .l.o.n.
  0000000010001900: 67 00 00 00 7A 00 00 00 61 00 00 00 5A 00 00 00  g...z...a...Z...
  0000000010001910: 5F 00 00 00 41 00 00 00 39 00 00 00 30 00 00 00  _...A...9...0...
  0000000010001920: 00 00 00 00 00 00 00 00 00 00 3A 00 20 00 00 00  ..........:. ...
  0000000010001930: 00 00 00 00 00 00 00 00 00 00 00 00 66 00 69 00  ............f.i.
  0000000010001940: 6C 00 65 00 20 00 70 00 6F 00 73 00 20 00 00 00  l.e. .p.o.s. ...
  0000000010001950: 00 00 00 00 00 00 00 00 00 00 00 00 00 00 00 00  ................
  0000000010001960: 00 00 00 00 00 00 00 00 00 00 00 00 00 00 00 00  ................
  0000000010001970: 00 00 00 00 00 00 00 00 00 00 00 00 00 00 00 00  ................
  0000000010001980: 00 00 00 00 00 00 00 00 00 00 00 00 00 00 00 00  ................
  0000000010001990: 00 00 00 00 00 00 00 00 00 00 00 00 00 00 00 00  ................
  00000000100019A0: 00 00 00 00 00 00 00 00 00 00 00 00 00 00 00 00  ................
  00000000100019B0: 00 00 00 00 00 00 00 00 00 00 00 00 00 00 00 00  ................
  00000000100019C0: 00 00 00 00 00 00 00 00 00 00 00 00 00 00 00 00  ................
  00000000100019D0: 00 00 00 00 00 00 00 00 00 00 00 00 00 00 00 00  ................
  00000000100019E0: 00 00 00 00 00 00 00 00 70 50 10 00 00 00 00 00  ........pP......
  00000000100019F0: 90 50 10 00 00 00 00 00 B0 50 10 00 00 00 00 00  .P......°P......
  0000000010001A00: D0 50 10 00 00 00 00 00 F0 50 10 00 00 00 00 00  ?P......?P......
  0000000010001A10: 10 51 10 00 00 00 00 00 00 00 00 00 00 00 00 00  .Q..............
  0000000010001A20: 00 00 00 00 00 00 00 00 00 00 00 00 00 00 00 00  ................
  0000000010001A30: 00 00 00 00 00 00 00 00 00 00 00 00 00 00 00 00  ................
  0000000010001A40: 00 00 00 00 00 00 00 00 00 00 00 00 00 00 00 00  ................
  0000000010001A50: 00 00 00 00 00 00 00 00 00 00 00 00 00 00 00 00  ................
  0000000010001A60: 00 00 00 00 00 00 00 00 00 00 00 00 00 00 00 00  ................
  0000000010001A70: 00 00 00 00 00 00 00 00 00 00 00 00 00 00 00 00  ................
  0000000010001A80: 00 00 00 00 00 00 00 00 00 00 00 00 00 00 00 00  ................
  0000000010001A90: 00 00 00 00 00 00 00 00 00 00 00 00 00 00 00 00  ................
  0000000010001AA0: 00 00 00 00 00 00 00 00 00 00 00 00 00 00 00 00  ................
  0000000010001AB0: 00 00 00 00 00 00 00 00 00 00 00 00 00 00 00 00  ................
  0000000010001AC0: 00 00 00 00 00 00 00 00 00 00 00 00 00 00 00 00  ................
  0000000010001AD0: 00 00 00 00 00 00 00 00 00 00 00 00 00 00 00 00  ................
  0000000010001AE0: 00 00 00 00 00 00 00 00 00 00 00 00 00 00 00 00  ................
  0000000010001AF0: 00 00 00 00 00 00 00 00 00 00 00 00 00 00 00 00  ................
  0000000010001B00: 00 00 00 00 00 00 00 00 00 00 00 00 00 00 00 00  ................
  0000000010001B10: 00 00 00 00 00 00 00 00 00 00 00 00 00 00 00 00  ................
  0000000010001B20: 00 00 00 00 00 00 00 00 00 00 00 00 00 00 00 00  ................
  0000000010001B30: 00 00 00 00 00 00 00 00 00 00 00 00 00 00 00 00  ................
  0000000010001B40: 00 00 00 00 00 00 00 00 00 00 00 00 00 00 00 00  ................
  0000000010001B50: 00 00 00 00 00 00 00 00 00 00 00 00 00 00 00 00  ................
  0000000010001B60: 00 00 00 00 00 00 00 00 00 00 00 00 00 00 00 00  ................
  0000000010001B70: 00 00 00 00 00 00 00 00 00 00 00 00 00 00 00 00  ................
  0000000010001B80: 00 00 00 00 00 00 00 00 00 00 00 00 00 00 00 00  ................
  0000000010001B90: 00 00 00 00 00 00 00 00 00 00 00 00 00 00 00 00  ................
  0000000010001BA0: 00 00 00 00 00 00 00 00 00 00 00 00 00 00 00 00  ................
  0000000010001BB0: 00 00 00 00 00 00 00 00 00 00 00 00 00 00 00 00  ................
  0000000010001BC0: 00 00 00 00 00 00 00 00 00 00 00 00 00 00 00 00  ................
  0000000010001BD0: 00 00 00 00 00 00 00 00 00 00 00 00 00 00 00 00  ................
  0000000010001BE0: 00 00 00 00 00 00 00 00 00 00 00 00 00 00 00 00  ................
  0000000010001BF0: 00 00 00 00 00 00 00 00 00 00 00 00 00 00 00 00  ................

SECTION HEADER #2
   .text name
    1FF0 virtual size
  103000 virtual address (0000000010103000 to 0000000010104FEF)
    2000 size of raw data
     400 file pointer to raw data (00000400 to 000023FF)
       0 file pointer to relocation table
       0 file pointer to line numbers
       0 number of relocations
       0 number of line numbers
60000020 flags
         Code
         Execute Read

  0000000010103000: 55                 push        rbp
  0000000010103001: 48 8B EC           mov         rbp,rsp
  0000000010103004: 48 8B 05 2D EA EF  mov         rax,qword ptr [0000000010001A38h]
                    FF
  000000001010300B: C9                 leave
  000000001010300C: C3                 ret
  000000001010300D: 55                 push        rbp
  000000001010300E: 48 8B EC           mov         rbp,rsp
  0000000010103011: 48 83 EC 10        sub         rsp,10h
  0000000010103015: 48 89 4D 10        mov         qword ptr [rbp+10h],rcx
  0000000010103019: 48 89 55 18        mov         qword ptr [rbp+18h],rdx
  000000001010301D: 48 8B 05 1C EA EF  mov         rax,qword ptr [0000000010001A40h]
                    FF
  0000000010103024: 48 89 45 F8        mov         qword ptr [rbp-8],rax
  0000000010103028: 48 8B 45 F8        mov         rax,qword ptr [rbp-8]
  000000001010302C: 48 8B 0D 1D FD FF  mov         rcx,qword ptr [0000000010102D50h]
                    FF
  0000000010103033: 48 3B C1           cmp         rax,rcx
  0000000010103036: 0F 8E 83 00 00 00  jle         00000000101030BF
  000000001010303C: 48 8B 05 1D FD FF  mov         rax,qword ptr [0000000010102D60h]
                    FF
  0000000010103043: 48 83 F8 19        cmp         rax,19h
  0000000010103047: 0F 8D 72 00 00 00  jge         00000000101030BF
  000000001010304D: 48 83 EC 20        sub         rsp,20h
  0000000010103051: 48 8D 0D E4 E8 EF  lea         rcx,[000000001000193Ch]
                    FF
  0000000010103058: BA 0A 00 00 00     mov         edx,0Ah
  000000001010305D: FF 15 ED E8 EF FF  call        qword ptr [0000000010001950h]
  0000000010103063: 48 83 C4 20        add         rsp,20h
  0000000010103067: 48 83 EC 20        sub         rsp,20h
  000000001010306B: 48 8B 4D F8        mov         rcx,qword ptr [rbp-8]
  000000001010306F: FF 15 BB E8 EF FF  call        qword ptr [0000000010001930h]
  0000000010103075: 48 83 C4 20        add         rsp,20h
  0000000010103079: 48 83 EC 20        sub         rsp,20h
  000000001010307D: 48 8D 0D A6 E8 EF  lea         rcx,[000000001000192Ah]
                    FF
  0000000010103084: BA 03 00 00 00     mov         edx,3
  0000000010103089: FF 15 C1 E8 EF FF  call        qword ptr [0000000010001950h]
  000000001010308F: 48 83 C4 20        add         rsp,20h
  0000000010103093: 48 83 EC 20        sub         rsp,20h
  0000000010103097: 48 8B 4D 10        mov         rcx,qword ptr [rbp+10h]
  000000001010309B: 48 8B 55 18        mov         rdx,qword ptr [rbp+18h]
  000000001010309F: FF 15 AB E8 EF FF  call        qword ptr [0000000010001950h]
  00000000101030A5: 48 83 C4 20        add         rsp,20h
  00000000101030A9: 48 83 EC 20        sub         rsp,20h
  00000000101030AD: FF 15 6D E8 EF FF  call        qword ptr [0000000010001920h]
  00000000101030B3: 48 83 C4 20        add         rsp,20h
  00000000101030B7: 48 83 05 A1 FC FF  add         qword ptr [0000000010102D60h],1
                    FF 01
  00000000101030BF: 48 8B 45 F8        mov         rax,qword ptr [rbp-8]
  00000000101030C3: 48 83 C0 04        add         rax,4
  00000000101030C7: 48 89 05 82 FC FF  mov         qword ptr [0000000010102D50h],rax
                    FF
  00000000101030CE: C9                 leave
  00000000101030CF: C3                 ret
  00000000101030D0: 55                 push        rbp
  00000000101030D1: 48 8B EC           mov         rbp,rsp
  00000000101030D4: 48 83 EC 10        sub         rsp,10h
  00000000101030D8: 48 8B 05 69 E9 EF  mov         rax,qword ptr [0000000010001A48h]
                    FF
  00000000101030DF: 48 8B 0D 4A E9 EF  mov         rcx,qword ptr [0000000010001A30h]
                    FF
  00000000101030E6: 48 3B C1           cmp         rax,rcx
  00000000101030E9: 0F 8D 51 00 00 00  jge         0000000010103140
  00000000101030EF: 48 8B 05 52 E9 EF  mov         rax,qword ptr [0000000010001A48h]
                    FF
  00000000101030F6: 48 81 F8 00 00 10  cmp         rax,100000h
                    00
  00000000101030FD: 0F 83 05 00 00 00  jae         0000000010103108
  0000000010103103: E9 08 00 00 00     jmp         0000000010103110
  0000000010103108: B0 01              mov         al,1
  000000001010310A: B9 54 0E 00 00     mov         ecx,0E54h
  000000001010310F: CC                 int         3
  0000000010103110: 48 8D 0D 39 E9 EF  lea         rcx,[0000000010001A50h]
                    FF
  0000000010103117: 48 03 C1           add         rax,rcx
  000000001010311A: 0F B6 00           movzx       eax,byte ptr [rax]
  000000001010311D: 48 81 E0 FF 00 00  and         rax,0FFh
                    00
  0000000010103124: 66 89 05 33 FC FF  mov         word ptr [0000000010102D5Eh],ax
                    FF
  000000001010312B: 48 83 05 15 E9 EF  add         qword ptr [0000000010001A48h],1
                    FF 01
  0000000010103133: 48 83 05 FD E8 EF  add         qword ptr [0000000010001A38h],1
                    FF 01
  000000001010313B: E9 14 00 00 00     jmp         0000000010103154
  0000000010103140: B8 01 00 00 00     mov         eax,1
  0000000010103145: 88 05 12 FC FF FF  mov         byte ptr [0000000010102D5Dh],al
  000000001010314B: 31 C0              xor         eax,eax
  000000001010314D: 66 89 05 0A FC FF  mov         word ptr [0000000010102D5Eh],ax
                    FF
  0000000010103154: C9                 leave
  0000000010103155: C3                 ret
  0000000010103156: 55                 push        rbp
  0000000010103157: 48 8B EC           mov         rbp,rsp
  000000001010315A: 48 83 EC 10        sub         rsp,10h
  000000001010315E: 56                 push        rsi
  000000001010315F: 57                 push        rdi
  0000000010103160: 48 89 4D 10        mov         qword ptr [rbp+10h],rcx
  0000000010103164: 31 C0              xor         eax,eax
  0000000010103166: 48 89 45 F8        mov         qword ptr [rbp-8],rax
  000000001010316A: 48 8B 45 F8        mov         rax,qword ptr [rbp-8]
  000000001010316E: 48 83 F8 3F        cmp         rax,3Fh
  0000000010103172: 0F 8D 38 00 00 00  jge         00000000101031B0
  0000000010103178: 48 8B 45 F8        mov         rax,qword ptr [rbp-8]
  000000001010317C: 48 83 F8 40        cmp         rax,40h
  0000000010103180: 0F 83 05 00 00 00  jae         000000001010318B
  0000000010103186: E9 08 00 00 00     jmp         0000000010103193
  000000001010318B: B0 01              mov         al,1
  000000001010318D: B9 1D 0F 00 00     mov         ecx,0F1Dh
  0000000010103192: CC                 int         3
  0000000010103193: 48 C1 E0 01        shl         rax,1
  0000000010103197: 48 8D 0D CE FD FF  lea         rcx,[0000000010102F6Ch]
                    FF
  000000001010319E: 48 03 C1           add         rax,rcx
  00000000101031A1: 0F B7 0D B6 FB FF  movzx       ecx,word ptr [0000000010102D5Eh]
                    FF
  00000000101031A8: 66 89 08           mov         word ptr [rax],cx
  00000000101031AB: 48 83 45 F8 01     add         qword ptr [rbp-8],1
  00000000101031B0: 48 83 EC 20        sub         rsp,20h
  00000000101031B4: E8 17 FF FF FF     call        00000000101030D0
  00000000101031B9: 48 83 C4 20        add         rsp,20h
  00000000101031BD: 0F B7 05 9A FB FF  movzx       eax,word ptr [0000000010102D5Eh]
                    FF
  00000000101031C4: 66 83 F8 30        cmp         ax,30h
  00000000101031C8: 0F 82 66 00 00 00  jb          0000000010103234
  00000000101031CE: 0F B7 05 89 FB FF  movzx       eax,word ptr [0000000010102D5Eh]
                    FF
  00000000101031D5: 66 83 F8 39        cmp         ax,39h
  00000000101031D9: 0F 86 11 00 00 00  jbe         00000000101031F0
  00000000101031DF: 0F B7 05 78 FB FF  movzx       eax,word ptr [0000000010102D5Eh]
                    FF
  00000000101031E6: 66 83 F8 41        cmp         ax,41h
  00000000101031EA: 0F 82 44 00 00 00  jb          0000000010103234
  00000000101031F0: 0F B7 05 67 FB FF  movzx       eax,word ptr [0000000010102D5Eh]
                    FF
  00000000101031F7: 66 83 F8 5F        cmp         ax,5Fh
  00000000101031FB: 0F 84 22 00 00 00  je          0000000010103223
  0000000010103201: 0F B7 05 56 FB FF  movzx       eax,word ptr [0000000010102D5Eh]
                    FF
  0000000010103208: 66 83 F8 5A        cmp         ax,5Ah
  000000001010320C: 0F 86 11 00 00 00  jbe         0000000010103223
  0000000010103212: 0F B7 05 45 FB FF  movzx       eax,word ptr [0000000010102D5Eh]
                    FF
  0000000010103219: 66 83 F8 61        cmp         ax,61h
  000000001010321D: 0F 82 11 00 00 00  jb          0000000010103234
  0000000010103223: 0F B7 05 34 FB FF  movzx       eax,word ptr [0000000010102D5Eh]
                    FF
  000000001010322A: 66 83 F8 7A        cmp         ax,7Ah
  000000001010322E: 0F 86 36 FF FF FF  jbe         000000001010316A
  0000000010103234: 48 8B 45 F8        mov         rax,qword ptr [rbp-8]
  0000000010103238: 48 83 F8 40        cmp         rax,40h
  000000001010323C: 0F 83 05 00 00 00  jae         0000000010103247
  0000000010103242: E9 08 00 00 00     jmp         000000001010324F
  0000000010103247: B0 01              mov         al,1
  0000000010103249: B9 A5 0F 00 00     mov         ecx,0FA5h
  000000001010324E: CC                 int         3
  000000001010324F: 48 C1 E0 01        shl         rax,1
  0000000010103253: 48 8D 0D 12 FD FF  lea         rcx,[0000000010102F6Ch]
                    FF
  000000001010325A: 48 03 C1           add         rax,rcx
  000000001010325D: 31 C9              xor         ecx,ecx
  000000001010325F: 66 89 08           mov         word ptr [rax],cx
  0000000010103262: 48 8B 45 F8        mov         rax,qword ptr [rbp-8]
  0000000010103266: 48 83 F8 0B        cmp         rax,0Bh
  000000001010326A: 0F 8D 90 01 00 00  jge         0000000010103400
  0000000010103270: 48 8B 45 F8        mov         rax,qword ptr [rbp-8]
  0000000010103274: 48 83 E8 01        sub         rax,1
  0000000010103278: 48 83 F8 0B        cmp         rax,0Bh
  000000001010327C: 0F 83 05 00 00 00  jae         0000000010103287
  0000000010103282: E9 08 00 00 00     jmp         000000001010328F
  0000000010103287: B0 01              mov         al,1
  0000000010103289: B9 CD 0F 00 00     mov         ecx,0FCDh
  000000001010328E: CC                 int         3
  000000001010328F: 48 C1 E0 03        shl         rax,3
  0000000010103293: 48 8D 0D 4E FA FF  lea         rcx,[0000000010102CE8h]
                    FF
  000000001010329A: 48 03 C1           add         rax,rcx
  000000001010329D: 48 8B 00           mov         rax,qword ptr [rax]
  00000000101032A0: 48 89 45 F0        mov         qword ptr [rbp-10h],rax
  00000000101032A4: 48 8B 45 F0        mov         rax,qword ptr [rbp-10h]
  00000000101032A8: 48 83 F8 23        cmp         rax,23h
  00000000101032AC: 0F 83 05 00 00 00  jae         00000000101032B7
  00000000101032B2: E9 08 00 00 00     jmp         00000000101032BF
  00000000101032B7: B0 01              mov         al,1
  00000000101032B9: B9 02 10 00 00     mov         ecx,1002h
  00000000101032BE: CC                 int         3
  00000000101032BF: 48 69 C0 88 00 00  imul        rax,rax,88h
                    00
  00000000101032C6: 48 8D 0D 83 E7 FF  lea         rcx,[0000000010101A50h]
                    FF
  00000000101032CD: 48 03 C1           add         rax,rcx
  00000000101032D0: 48 8D 3D 95 FC FF  lea         rdi,[0000000010102F6Ch]
                    FF
  00000000101032D7: 48 8B F0           mov         rsi,rax
  00000000101032DA: 48 83 C6 08        add         rsi,8
  00000000101032DE: 33 C9              xor         ecx,ecx
  00000000101032E0: 48 83 F9 40        cmp         rcx,40h
  00000000101032E4: 0F 84 3A 00 00 00  je          0000000010103324
  00000000101032EA: 66 83 3E 00        cmp         word ptr [rsi],0
  00000000101032EE: 0F 84 30 00 00 00  je          0000000010103324
  00000000101032F4: 48 83 F9 40        cmp         rcx,40h
  00000000101032F8: 0F 84 3A 00 00 00  je          0000000010103338
  00000000101032FE: 66 8B 17           mov         dx,word ptr [rdi]
  0000000010103301: 66 85 D2           test        dx,dx
  0000000010103304: 0F 84 2E 00 00 00  je          0000000010103338
  000000001010330A: 66 3B 16           cmp         dx,word ptr [rsi]
  000000001010330D: 0F 85 25 00 00 00  jne         0000000010103338
  0000000010103313: 48 83 C7 02        add         rdi,2
  0000000010103317: 48 83 C6 02        add         rsi,2
  000000001010331B: 48 83 C1 01        add         rcx,1
  000000001010331F: E9 BC FF FF FF     jmp         00000000101032E0
  0000000010103324: 48 83 F9 40        cmp         rcx,40h
  0000000010103328: 0F 84 4D 00 00 00  je          000000001010337B
  000000001010332E: 66 83 3F 00        cmp         word ptr [rdi],0
  0000000010103332: 0F 84 43 00 00 00  je          000000001010337B
  0000000010103338: 48 8B 45 F0        mov         rax,qword ptr [rbp-10h]
  000000001010333C: 48 8B 4D F8        mov         rcx,qword ptr [rbp-8]
  0000000010103340: 48 83 F9 0B        cmp         rcx,0Bh
  0000000010103344: 0F 83 05 00 00 00  jae         000000001010334F
  000000001010334A: E9 08 00 00 00     jmp         0000000010103357
  000000001010334F: B0 01              mov         al,1
  0000000010103351: B9 15 10 00 00     mov         ecx,1015h
  0000000010103356: CC                 int         3
  0000000010103357: 48 C1 E1 03        shl         rcx,3
  000000001010335B: 48 8D 15 86 F9 FF  lea         rdx,[0000000010102CE8h]
                    FF
  0000000010103362: 48 03 CA           add         rcx,rdx
  0000000010103365: 48 8B 09           mov         rcx,qword ptr [rcx]
  0000000010103368: 48 3B C1           cmp         rax,rcx
  000000001010336B: 0F 8D 0A 00 00 00  jge         000000001010337B
  0000000010103371: 48 83 45 F0 01     add         qword ptr [rbp-10h],1
  0000000010103376: E9 29 FF FF FF     jmp         00000000101032A4
  000000001010337B: 48 8B 45 F0        mov         rax,qword ptr [rbp-10h]
  000000001010337F: 48 8B 4D F8        mov         rcx,qword ptr [rbp-8]
  0000000010103383: 48 83 F9 0B        cmp         rcx,0Bh
  0000000010103387: 0F 83 05 00 00 00  jae         0000000010103392
  000000001010338D: E9 08 00 00 00     jmp         000000001010339A
  0000000010103392: B0 01              mov         al,1
  0000000010103394: B9 38 10 00 00     mov         ecx,1038h
  0000000010103399: CC                 int         3
  000000001010339A: 48 C1 E1 03        shl         rcx,3
  000000001010339E: 48 8D 15 43 F9 FF  lea         rdx,[0000000010102CE8h]
                    FF
  00000000101033A5: 48 03 CA           add         rcx,rdx
  00000000101033A8: 48 8B 09           mov         rcx,qword ptr [rcx]
  00000000101033AB: 48 3B C1           cmp         rax,rcx
  00000000101033AE: 0F 8D 3B 00 00 00  jge         00000000101033EF
  00000000101033B4: 48 8B 45 F0        mov         rax,qword ptr [rbp-10h]
  00000000101033B8: 48 83 F8 23        cmp         rax,23h
  00000000101033BC: 0F 83 05 00 00 00  jae         00000000101033C7
  00000000101033C2: E9 08 00 00 00     jmp         00000000101033CF
  00000000101033C7: B0 01              mov         al,1
  00000000101033C9: B9 4F 10 00 00     mov         ecx,104Fh
  00000000101033CE: CC                 int         3
  00000000101033CF: 48 69 C0 88 00 00  imul        rax,rax,88h
                    00
  00000000101033D6: 48 8D 0D 73 E6 FF  lea         rcx,[0000000010101A50h]
                    FF
  00000000101033DD: 48 03 C1           add         rax,rcx
  00000000101033E0: 48 8B 00           mov         rax,qword ptr [rax]
  00000000101033E3: 48 8B 4D 10        mov         rcx,qword ptr [rbp+10h]
  00000000101033E7: 48 89 01           mov         qword ptr [rcx],rax
  00000000101033EA: E9 0C 00 00 00     jmp         00000000101033FB
  00000000101033EF: B8 1F 00 00 00     mov         eax,1Fh
  00000000101033F4: 48 8B 4D 10        mov         rcx,qword ptr [rbp+10h]
  00000000101033F8: 48 89 01           mov         qword ptr [rcx],rax
  00000000101033FB: E9 0C 00 00 00     jmp         000000001010340C
  0000000010103400: B8 1F 00 00 00     mov         eax,1Fh
  0000000010103405: 48 8B 4D 10        mov         rcx,qword ptr [rbp+10h]
  0000000010103409: 48 89 01           mov         qword ptr [rcx],rax
  000000001010340C: 5F                 pop         rdi
  000000001010340D: 5E                 pop         rsi
  000000001010340E: C9                 leave
  000000001010340F: C3                 ret
  0000000010103410: 55                 push        rbp
  0000000010103411: 48 8B EC           mov         rbp,rsp
  0000000010103414: 48 83 EC 10        sub         rsp,10h
  0000000010103418: 48 89 4D 10        mov         qword ptr [rbp+10h],rcx
  000000001010341C: 31 C0              xor         eax,eax
  000000001010341E: 48 89 45 F8        mov         qword ptr [rbp-8],rax
  0000000010103422: 48 83 EC 20        sub         rsp,20h
  0000000010103426: E8 A5 FC FF FF     call        00000000101030D0
  000000001010342B: 48 83 C4 20        add         rsp,20h
  000000001010342F: 0F B6 05 27 F9 FF  movzx       eax,byte ptr [0000000010102D5Dh]
                    FF
  0000000010103436: 85 C0              test        eax,eax
  0000000010103438: 0F 85 90 00 00 00  jne         00000000101034CE
  000000001010343E: 0F B7 05 19 F9 FF  movzx       eax,word ptr [0000000010102D5Eh]
                    FF
  0000000010103445: 0F B7 4D 10        movzx       ecx,word ptr [rbp+10h]
  0000000010103449: 66 3B C1           cmp         ax,cx
  000000001010344C: 0F 84 7C 00 00 00  je          00000000101034CE
  0000000010103452: 48 8B 45 F8        mov         rax,qword ptr [rbp-8]
  0000000010103456: 48 81 F8 FF 00 00  cmp         rax,0FFh
                    00
  000000001010345D: 0F 8D 40 00 00 00  jge         00000000101034A3
  0000000010103463: 48 8B 45 F8        mov         rax,qword ptr [rbp-8]
  0000000010103467: 48 81 F8 00 01 00  cmp         rax,100h
                    00
  000000001010346E: 0F 83 05 00 00 00  jae         0000000010103479
  0000000010103474: E9 08 00 00 00     jmp         0000000010103481
  0000000010103479: B0 01              mov         al,1
  000000001010347B: B9 22 11 00 00     mov         ecx,1122h
  0000000010103480: CC                 int         3
  0000000010103481: 48 C1 E0 01        shl         rax,1
  0000000010103485: 48 8D 0D E0 F8 FF  lea         rcx,[0000000010102D6Ch]
                    FF
  000000001010348C: 48 03 C1           add         rax,rcx
  000000001010348F: 0F B7 0D C8 F8 FF  movzx       ecx,word ptr [0000000010102D5Eh]
                    FF
  0000000010103496: 66 89 08           mov         word ptr [rax],cx
  0000000010103499: 48 83 45 F8 01     add         qword ptr [rbp-8],1
  000000001010349E: E9 19 00 00 00     jmp         00000000101034BC
  00000000101034A3: 48 83 EC 20        sub         rsp,20h
  00000000101034A7: 48 8D 0D 36 E4 EF  lea         rcx,[00000000100018E4h]
                    FF
  00000000101034AE: BA 10 00 00 00     mov         edx,10h
  00000000101034B3: E8 55 FB FF FF     call        000000001010300D
  00000000101034B8: 48 83 C4 20        add         rsp,20h
  00000000101034BC: 48 83 EC 20        sub         rsp,20h
  00000000101034C0: E8 0B FC FF FF     call        00000000101030D0
  00000000101034C5: 48 83 C4 20        add         rsp,20h
  00000000101034C9: E9 61 FF FF FF     jmp         000000001010342F
  00000000101034CE: 48 8B 45 F8        mov         rax,qword ptr [rbp-8]
  00000000101034D2: 48 81 F8 00 01 00  cmp         rax,100h
                    00
  00000000101034D9: 0F 83 05 00 00 00  jae         00000000101034E4
  00000000101034DF: E9 08 00 00 00     jmp         00000000101034EC
  00000000101034E4: B0 01              mov         al,1
  00000000101034E6: B9 70 11 00 00     mov         ecx,1170h
  00000000101034EB: CC                 int         3
  00000000101034EC: 48 C1 E0 01        shl         rax,1
  00000000101034F0: 48 8D 0D 75 F8 FF  lea         rcx,[0000000010102D6Ch]
                    FF
  00000000101034F7: 48 03 C1           add         rax,rcx
  00000000101034FA: 31 C9              xor         ecx,ecx
  00000000101034FC: 66 89 08           mov         word ptr [rax],cx
  00000000101034FF: 48 83 EC 20        sub         rsp,20h
  0000000010103503: E8 C8 FB FF FF     call        00000000101030D0
  0000000010103508: 48 83 C4 20        add         rsp,20h
  000000001010350C: 48 8B 45 F8        mov         rax,qword ptr [rbp-8]
  0000000010103510: 48 83 C0 01        add         rax,1
  0000000010103514: 48 89 05 D5 FA FF  mov         qword ptr [0000000010102FF0h],rax
                    FF
  000000001010351B: 0F B7 05 3C F8 FF  movzx       eax,word ptr [0000000010102D5Eh]
                    FF
  0000000010103522: 66 83 F8 40        cmp         ax,40h
  0000000010103526: 0F 85 1D 00 00 00  jne         0000000010103549
  000000001010352C: 48 83 EC 20        sub         rsp,20h
  0000000010103530: E8 9B FB FF FF     call        00000000101030D0
  0000000010103535: 48 83 C4 20        add         rsp,20h
  0000000010103539: B8 01 00 00 00     mov         eax,1
  000000001010353E: 88 05 27 F8 FF FF  mov         byte ptr [0000000010102D6Bh],al
  0000000010103544: E9 08 00 00 00     jmp         0000000010103551
  0000000010103549: 31 C0              xor         eax,eax
  000000001010354B: 88 05 1A F8 FF FF  mov         byte ptr [0000000010102D6Bh],al
  0000000010103551: C9                 leave
  0000000010103552: C3                 ret
  0000000010103553: 55                 push        rbp
  0000000010103554: 48 8B EC           mov         rbp,rsp
  0000000010103557: 48 83 EC 20        sub         rsp,20h
  000000001010355B: 31 C0              xor         eax,eax
  000000001010355D: 48 89 45 F8        mov         qword ptr [rbp-8],rax
  0000000010103561: 48 83 EC 20        sub         rsp,20h
  0000000010103565: E8 66 FB FF FF     call        00000000101030D0
  000000001010356A: 48 83 C4 20        add         rsp,20h
  000000001010356E: 0F B6 05 E8 F7 FF  movzx       eax,byte ptr [0000000010102D5Dh]
                    FF
  0000000010103575: 85 C0              test        eax,eax
  0000000010103577: 0F 84 FD 01 00 00  je          000000001010377A
  000000001010357D: 0F B7 05 DA F7 FF  movzx       eax,word ptr [0000000010102D5Eh]
                    FF
  0000000010103584: 66 83 F8 24        cmp         ax,24h
  0000000010103588: 0F 84 EC 01 00 00  je          000000001010377A
  000000001010358E: 0F B7 05 C9 F7 FF  movzx       eax,word ptr [0000000010102D5Eh]
                    FF
  0000000010103595: 66 83 F8 20        cmp         ax,20h
  0000000010103599: 0F 84 22 00 00 00  je          00000000101035C1
  000000001010359F: 0F B7 05 B8 F7 FF  movzx       eax,word ptr [0000000010102D5Eh]
                    FF
  00000000101035A6: 66 83 F8 09        cmp         ax,9
  00000000101035AA: 0F 84 11 00 00 00  je          00000000101035C1
  00000000101035B0: 0F B7 05 A7 F7 FF  movzx       eax,word ptr [0000000010102D5Eh]
                    FF
  00000000101035B7: 66 83 F8 0D        cmp         ax,0Dh
  00000000101035BB: 0F 85 12 00 00 00  jne         00000000101035D3
  00000000101035C1: 48 83 EC 20        sub         rsp,20h
  00000000101035C5: E8 06 FB FF FF     call        00000000101030D0
  00000000101035CA: 48 83 C4 20        add         rsp,20h
  00000000101035CE: E9 BB FF FF FF     jmp         000000001010358E
  00000000101035D3: 0F B7 05 84 F7 FF  movzx       eax,word ptr [0000000010102D5Eh]
                    FF
  00000000101035DA: 66 83 F8 30        cmp         ax,30h
  00000000101035DE: 0F 82 25 00 00 00  jb          0000000010103609
  00000000101035E4: 0F B7 05 73 F7 FF  movzx       eax,word ptr [0000000010102D5Eh]
                    FF
  00000000101035EB: 66 83 F8 39        cmp         ax,39h
  00000000101035EF: 0F 87 14 00 00 00  ja          0000000010103609
  00000000101035F5: 0F B7 05 62 F7 FF  movzx       eax,word ptr [0000000010102D5Eh]
                    FF
  00000000101035FC: 48 83 E8 30        sub         rax,30h
  0000000010103600: 48 89 45 F0        mov         qword ptr [rbp-10h],rax
  0000000010103604: E9 55 00 00 00     jmp         000000001010365E
  0000000010103609: 0F B7 05 4E F7 FF  movzx       eax,word ptr [0000000010102D5Eh]
                    FF
  0000000010103610: 66 83 F8 41        cmp         ax,41h
  0000000010103614: 0F 82 25 00 00 00  jb          000000001010363F
  000000001010361A: 0F B7 05 3D F7 FF  movzx       eax,word ptr [0000000010102D5Eh]
                    FF
  0000000010103621: 66 83 F8 46        cmp         ax,46h
  0000000010103625: 0F 87 14 00 00 00  ja          000000001010363F
  000000001010362B: 0F B7 05 2C F7 FF  movzx       eax,word ptr [0000000010102D5Eh]
                    FF
  0000000010103632: 48 83 E8 37        sub         rax,37h
  0000000010103636: 48 89 45 F0        mov         qword ptr [rbp-10h],rax
  000000001010363A: E9 1F 00 00 00     jmp         000000001010365E
  000000001010363F: 31 C0              xor         eax,eax
  0000000010103641: 48 89 45 F0        mov         qword ptr [rbp-10h],rax
  0000000010103645: 48 83 EC 20        sub         rsp,20h
  0000000010103649: 48 8D 0D 52 E2 EF  lea         rcx,[00000000100018A2h]
                    FF
  0000000010103650: BA 13 00 00 00     mov         edx,13h
  0000000010103655: E8 B3 F9 FF FF     call        000000001010300D
  000000001010365A: 48 83 C4 20        add         rsp,20h
  000000001010365E: 48 83 EC 20        sub         rsp,20h
  0000000010103662: E8 69 FA FF FF     call        00000000101030D0
  0000000010103667: 48 83 C4 20        add         rsp,20h
  000000001010366B: 0F B7 05 EC F6 FF  movzx       eax,word ptr [0000000010102D5Eh]
                    FF
  0000000010103672: 66 83 F8 30        cmp         ax,30h
  0000000010103676: 0F 82 25 00 00 00  jb          00000000101036A1
  000000001010367C: 0F B7 05 DB F6 FF  movzx       eax,word ptr [0000000010102D5Eh]
                    FF
  0000000010103683: 66 83 F8 39        cmp         ax,39h
  0000000010103687: 0F 87 14 00 00 00  ja          00000000101036A1
  000000001010368D: 0F B7 05 CA F6 FF  movzx       eax,word ptr [0000000010102D5Eh]
                    FF
  0000000010103694: 48 83 E8 30        sub         rax,30h
  0000000010103698: 48 89 45 E8        mov         qword ptr [rbp-18h],rax
  000000001010369C: E9 55 00 00 00     jmp         00000000101036F6
  00000000101036A1: 0F B7 05 B6 F6 FF  movzx       eax,word ptr [0000000010102D5Eh]
                    FF
  00000000101036A8: 66 83 F8 41        cmp         ax,41h
  00000000101036AC: 0F 82 25 00 00 00  jb          00000000101036D7
  00000000101036B2: 0F B7 05 A5 F6 FF  movzx       eax,word ptr [0000000010102D5Eh]
                    FF
  00000000101036B9: 66 83 F8 46        cmp         ax,46h
  00000000101036BD: 0F 87 14 00 00 00  ja          00000000101036D7
  00000000101036C3: 0F B7 05 94 F6 FF  movzx       eax,word ptr [0000000010102D5Eh]
                    FF
  00000000101036CA: 48 83 E8 37        sub         rax,37h
  00000000101036CE: 48 89 45 E8        mov         qword ptr [rbp-18h],rax
  00000000101036D2: E9 1F 00 00 00     jmp         00000000101036F6
  00000000101036D7: 31 C0              xor         eax,eax
  00000000101036D9: 48 89 45 E8        mov         qword ptr [rbp-18h],rax
  00000000101036DD: 48 83 EC 20        sub         rsp,20h
  00000000101036E1: 48 8D 0D 84 E1 EF  lea         rcx,[000000001000186Ch]
                    FF
  00000000101036E8: BA 13 00 00 00     mov         edx,13h
  00000000101036ED: E8 1B F9 FF FF     call        000000001010300D
  00000000101036F2: 48 83 C4 20        add         rsp,20h
  00000000101036F6: 48 8B 45 F8        mov         rax,qword ptr [rbp-8]
  00000000101036FA: 48 81 F8 FF 00 00  cmp         rax,0FFh
                    00
  0000000010103701: 0F 8D 48 00 00 00  jge         000000001010374F
  0000000010103707: 48 8B 45 F8        mov         rax,qword ptr [rbp-8]
  000000001010370B: 48 81 F8 00 01 00  cmp         rax,100h
                    00
  0000000010103712: 0F 83 05 00 00 00  jae         000000001010371D
  0000000010103718: E9 08 00 00 00     jmp         0000000010103725
  000000001010371D: B0 01              mov         al,1
  000000001010371F: B9 F5 13 00 00     mov         ecx,13F5h
  0000000010103724: CC                 int         3
  0000000010103725: 48 C1 E0 01        shl         rax,1
  0000000010103729: 48 8D 0D 3C F6 FF  lea         rcx,[0000000010102D6Ch]
                    FF
  0000000010103730: 48 03 C1           add         rax,rcx
  0000000010103733: 48 8B 4D F0        mov         rcx,qword ptr [rbp-10h]
  0000000010103737: 48 C1 E1 04        shl         rcx,4
  000000001010373B: 48 8B 55 E8        mov         rdx,qword ptr [rbp-18h]
  000000001010373F: 48 03 CA           add         rcx,rdx
  0000000010103742: 66 89 08           mov         word ptr [rax],cx
  0000000010103745: 48 83 45 F8 01     add         qword ptr [rbp-8],1
  000000001010374A: E9 19 00 00 00     jmp         0000000010103768
  000000001010374F: 48 83 EC 20        sub         rsp,20h
  0000000010103753: 48 8D 0D F2 E0 EF  lea         rcx,[000000001000184Ch]
                    FF
  000000001010375A: BA 10 00 00 00     mov         edx,10h
  000000001010375F: E8 A9 F8 FF FF     call        000000001010300D
  0000000010103764: 48 83 C4 20        add         rsp,20h
  0000000010103768: 48 83 EC 20        sub         rsp,20h
  000000001010376C: E8 5F F9 FF FF     call        00000000101030D0
  0000000010103771: 48 83 C4 20        add         rsp,20h
  0000000010103775: E9 F4 FD FF FF     jmp         000000001010356E
  000000001010377A: 48 83 EC 20        sub         rsp,20h
  000000001010377E: E8 4D F9 FF FF     call        00000000101030D0
  0000000010103783: 48 83 C4 20        add         rsp,20h
  0000000010103787: 48 8B 45 F8        mov         rax,qword ptr [rbp-8]
  000000001010378B: 48 89 05 5E F8 FF  mov         qword ptr [0000000010102FF0h],rax
                    FF
  0000000010103792: C9                 leave
  0000000010103793: C3                 ret
  0000000010103794: 55                 push        rbp
  0000000010103795: 48 8B EC           mov         rbp,rsp
  0000000010103798: 48 83 EC 10        sub         rsp,10h
  000000001010379C: 48 89 4D 10        mov         qword ptr [rbp+10h],rcx
  00000000101037A0: B8 00 00 80 3F     mov         eax,3F800000h
  00000000101037A5: 66 0F 6E C0        movd        xmm0,eax
  00000000101037A9: F3 0F 11 45 FC     movss       dword ptr [rbp-4],xmm0
  00000000101037AE: B8 00 00 20 41     mov         eax,41200000h
  00000000101037B3: 66 0F 6E C0        movd        xmm0,eax
  00000000101037B7: F3 0F 11 45 F8     movss       dword ptr [rbp-8],xmm0
  00000000101037BC: 48 8B 45 10        mov         rax,qword ptr [rbp+10h]
  00000000101037C0: 48 85 C0           test        rax,rax
  00000000101037C3: 0F 8E 45 00 00 00  jle         000000001010380E
  00000000101037C9: 48 8B 45 10        mov         rax,qword ptr [rbp+10h]
  00000000101037CD: 48 83 E0 01        and         rax,1
  00000000101037D1: 0F 84 13 00 00 00  je          00000000101037EA
  00000000101037D7: F3 0F 10 45 F8     movss       xmm0,dword ptr [rbp-8]
  00000000101037DC: F3 0F 10 4D FC     movss       xmm1,dword ptr [rbp-4]
  00000000101037E1: F3 0F 59 C1        mulss       xmm0,xmm1
  00000000101037E5: F3 0F 11 45 FC     movss       dword ptr [rbp-4],xmm0
  00000000101037EA: F3 0F 10 45 F8     movss       xmm0,dword ptr [rbp-8]
  00000000101037EF: F3 0F 10 4D F8     movss       xmm1,dword ptr [rbp-8]
  00000000101037F4: F3 0F 59 C1        mulss       xmm0,xmm1
  00000000101037F8: F3 0F 11 45 F8     movss       dword ptr [rbp-8],xmm0
  00000000101037FD: 48 8B 45 10        mov         rax,qword ptr [rbp+10h]
  0000000010103801: 48 C1 F8 01        sar         rax,1
  0000000010103805: 48 89 45 10        mov         qword ptr [rbp+10h],rax
  0000000010103809: E9 AE FF FF FF     jmp         00000000101037BC
  000000001010380E: F3 0F 10 45 FC     movss       xmm0,dword ptr [rbp-4]
  0000000010103813: C9                 leave
  0000000010103814: C3                 ret
  0000000010103815: 55                 push        rbp
  0000000010103816: 48 8B EC           mov         rbp,rsp
  0000000010103819: 48 81 EC F0 00 00  sub         rsp,0F0h
                    00
  0000000010103820: 48 89 4D 10        mov         qword ptr [rbp+10h],rcx
  0000000010103824: 31 C0              xor         eax,eax
  0000000010103826: 48 89 05 CB F7 FF  mov         qword ptr [0000000010102FF8h],rax
                    FF
  000000001010382D: 31 C0              xor         eax,eax
  000000001010382F: 48 89 45 F8        mov         qword ptr [rbp-8],rax
  0000000010103833: 31 C0              xor         eax,eax
  0000000010103835: 48 89 45 E0        mov         qword ptr [rbp-20h],rax
  0000000010103839: 31 C0              xor         eax,eax
  000000001010383B: 48 89 45 F0        mov         qword ptr [rbp-10h],rax
  000000001010383F: 48 8B 45 E0        mov         rax,qword ptr [rbp-20h]
  0000000010103843: 48 83 F8 15        cmp         rax,15h
  0000000010103847: 0F 8D 3E 00 00 00  jge         000000001010388B
  000000001010384D: 48 8B 45 E0        mov         rax,qword ptr [rbp-20h]
  0000000010103851: 48 83 F8 15        cmp         rax,15h
  0000000010103855: 0F 83 05 00 00 00  jae         0000000010103860
  000000001010385B: E9 08 00 00 00     jmp         0000000010103868
  0000000010103860: B0 01              mov         al,1
  0000000010103862: B9 3D 16 00 00     mov         ecx,163Dh
  0000000010103867: CC                 int         3
  0000000010103868: 48 C1 E0 03        shl         rax,3
  000000001010386C: 48 03 C5           add         rax,rbp
  000000001010386F: 0F B7 0D E8 F4 FF  movzx       ecx,word ptr [0000000010102D5Eh]
                    FF
  0000000010103876: 48 83 E9 30        sub         rcx,30h
  000000001010387A: 48 89 88 20 FF FF  mov         qword ptr [rax+FFFFFFFFFFFFFF20h],rcx
                    FF
  0000000010103881: 48 83 45 E0 01     add         qword ptr [rbp-20h],1
  0000000010103886: E9 1F 00 00 00     jmp         00000000101038AA
  000000001010388B: 48 83 EC 20        sub         rsp,20h
  000000001010388F: 48 8D 0D 96 DF EF  lea         rcx,[000000001000182Ch]
                    FF
  0000000010103896: BA 10 00 00 00     mov         edx,10h
  000000001010389B: E8 6D F7 FF FF     call        000000001010300D
  00000000101038A0: 48 83 C4 20        add         rsp,20h
  00000000101038A4: 31 C0              xor         eax,eax
  00000000101038A6: 48 89 45 E0        mov         qword ptr [rbp-20h],rax
  00000000101038AA: 48 83 EC 20        sub         rsp,20h
  00000000101038AE: E8 1D F8 FF FF     call        00000000101030D0
  00000000101038B3: 48 83 C4 20        add         rsp,20h
  00000000101038B7: 0F B7 05 A0 F4 FF  movzx       eax,word ptr [0000000010102D5Eh]
                    FF
  00000000101038BE: 66 83 F8 30        cmp         ax,30h
  00000000101038C2: 0F 82 33 00 00 00  jb          00000000101038FB
  00000000101038C8: 0F B7 05 8F F4 FF  movzx       eax,word ptr [0000000010102D5Eh]
                    FF
  00000000101038CF: 66 83 F8 39        cmp         ax,39h
  00000000101038D3: 0F 86 11 00 00 00  jbe         00000000101038EA
  00000000101038D9: 0F B7 05 7E F4 FF  movzx       eax,word ptr [0000000010102D5Eh]
                    FF
  00000000101038E0: 66 83 F8 41        cmp         ax,41h
  00000000101038E4: 0F 82 11 00 00 00  jb          00000000101038FB
  00000000101038EA: 0F B7 05 6D F4 FF  movzx       eax,word ptr [0000000010102D5Eh]
                    FF
  00000000101038F1: 66 83 F8 46        cmp         ax,46h
  00000000101038F5: 0F 86 44 FF FF FF  jbe         000000001010383F
  00000000101038FB: 0F B7 05 5C F4 FF  movzx       eax,word ptr [0000000010102D5Eh]
                    FF
  0000000010103902: 66 83 F8 48        cmp         ax,48h
  0000000010103906: 0F 84 22 00 00 00  je          000000001010392E
  000000001010390C: 0F B7 05 4B F4 FF  movzx       eax,word ptr [0000000010102D5Eh]
                    FF
  0000000010103913: 66 83 F8 52        cmp         ax,52h
  0000000010103917: 0F 84 11 00 00 00  je          000000001010392E
  000000001010391D: 0F B7 05 3A F4 FF  movzx       eax,word ptr [0000000010102D5Eh]
                    FF
  0000000010103924: 66 83 F8 58        cmp         ax,58h
  0000000010103928: 0F 85 77 01 00 00  jne         0000000010103AA5
  000000001010392E: 48 8B 45 F8        mov         rax,qword ptr [rbp-8]
  0000000010103932: 48 83 F8 15        cmp         rax,15h
  0000000010103936: 0F 83 05 00 00 00  jae         0000000010103941
  000000001010393C: E9 08 00 00 00     jmp         0000000010103949
  0000000010103941: B0 01              mov         al,1
  0000000010103943: B9 21 17 00 00     mov         ecx,1721h
  0000000010103948: CC                 int         3
  0000000010103949: 48 C1 E0 03        shl         rax,3
  000000001010394D: 48 03 C5           add         rax,rbp
  0000000010103950: 48 8B 80 20 FF FF  mov         rax,qword ptr [rax+FFFFFFFFFFFFFF20h]
                    FF
  0000000010103957: 48 89 45 D0        mov         qword ptr [rbp-30h],rax
  000000001010395B: 48 8B 45 D0        mov         rax,qword ptr [rbp-30h]
  000000001010395F: 48 83 F8 0A        cmp         rax,0Ah
  0000000010103963: 0F 8C 0C 00 00 00  jl          0000000010103975
  0000000010103969: 48 8B 45 D0        mov         rax,qword ptr [rbp-30h]
  000000001010396D: 48 83 E8 07        sub         rax,7
  0000000010103971: 48 89 45 D0        mov         qword ptr [rbp-30h],rax
  0000000010103975: 48 8B 45 F0        mov         rax,qword ptr [rbp-10h]
  0000000010103979: 48 C1 E0 04        shl         rax,4
  000000001010397D: 48 8B 4D D0        mov         rcx,qword ptr [rbp-30h]
  0000000010103981: 48 03 C1           add         rax,rcx
  0000000010103984: 48 89 45 F0        mov         qword ptr [rbp-10h],rax
  0000000010103988: 48 83 45 F8 01     add         qword ptr [rbp-8],1
  000000001010398D: 48 8B 45 F8        mov         rax,qword ptr [rbp-8]
  0000000010103991: 48 8B 4D E0        mov         rcx,qword ptr [rbp-20h]
  0000000010103995: 48 3B C1           cmp         rax,rcx
  0000000010103998: 0F 85 90 FF FF FF  jne         000000001010392E
  000000001010399E: 0F B7 05 B9 F3 FF  movzx       eax,word ptr [0000000010102D5Eh]
                    FF
  00000000101039A5: 66 83 F8 58        cmp         ax,58h
  00000000101039A9: 0F 85 9B 00 00 00  jne         0000000010103A4A
  00000000101039AF: B8 1A 00 00 00     mov         eax,1Ah
  00000000101039B4: 48 8B 4D 10        mov         rcx,qword ptr [rbp+10h]
  00000000101039B8: 48 89 01           mov         qword ptr [rcx],rax
  00000000101039BB: 48 8B 45 F0        mov         rax,qword ptr [rbp-10h]
  00000000101039BF: 48 81 F8 00 00 01  cmp         rax,10000h
                    00
  00000000101039C6: 0F 8D 10 00 00 00  jge         00000000101039DC
  00000000101039CC: 48 8B 45 F0        mov         rax,qword ptr [rbp-10h]
  00000000101039D0: 48 89 05 21 F6 FF  mov         qword ptr [0000000010102FF8h],rax
                    FF
  00000000101039D7: E9 22 00 00 00     jmp         00000000101039FE
  00000000101039DC: 48 83 EC 20        sub         rsp,20h
  00000000101039E0: 48 8D 0D 09 DE EF  lea         rcx,[00000000100017F0h]
                    FF
  00000000101039E7: BA 0E 00 00 00     mov         edx,0Eh
  00000000101039EC: E8 1C F6 FF FF     call        000000001010300D
  00000000101039F1: 48 83 C4 20        add         rsp,20h
  00000000101039F5: 31 C0              xor         eax,eax
  00000000101039F7: 48 89 05 FA F5 FF  mov         qword ptr [0000000010102FF8h],rax
                    FF
  00000000101039FE: 48 8B 45 F0        mov         rax,qword ptr [rbp-10h]
  0000000010103A02: 48 85 C0           test        rax,rax
  0000000010103A05: 0F 85 1A 00 00 00  jne         0000000010103A25
  0000000010103A0B: 31 C0              xor         eax,eax
  0000000010103A0D: 66 89 05 58 F3 FF  mov         word ptr [0000000010102D6Ch],ax
                    FF
  0000000010103A14: B8 01 00 00 00     mov         eax,1
  0000000010103A19: 48 89 05 D0 F5 FF  mov         qword ptr [0000000010102FF0h],rax
                    FF
  0000000010103A20: E9 20 00 00 00     jmp         0000000010103A45
  0000000010103A25: 0F B7 45 F0        movzx       eax,word ptr [rbp-10h]
  0000000010103A29: 66 89 05 3C F3 FF  mov         word ptr [0000000010102D6Ch],ax
                    FF
  0000000010103A30: 31 C0              xor         eax,eax
  0000000010103A32: 66 89 05 35 F3 FF  mov         word ptr [0000000010102D6Eh],ax
                    FF
  0000000010103A39: B8 02 00 00 00     mov         eax,2
  0000000010103A3E: 48 89 05 AB F5 FF  mov         qword ptr [0000000010102FF0h],rax
                    FF
  0000000010103A45: E9 49 00 00 00     jmp         0000000010103A93
  0000000010103A4A: 0F B7 05 0D F3 FF  movzx       eax,word ptr [0000000010102D5Eh]
                    FF
  0000000010103A51: 66 83 F8 52        cmp         ax,52h
  0000000010103A55: 0F 85 21 00 00 00  jne         0000000010103A7C
  0000000010103A5B: B8 16 00 00 00     mov         eax,16h
  0000000010103A60: 48 8B 4D 10        mov         rcx,qword ptr [rbp+10h]
  0000000010103A64: 48 89 01           mov         qword ptr [rcx],rax
  0000000010103A67: 48 8B 45 F0        mov         rax,qword ptr [rbp-10h]
  0000000010103A6B: 66 0F 6E C0        movd        xmm0,eax
  0000000010103A6F: F3 0F 11 05 75 F5  movss       dword ptr [0000000010102FECh],xmm0
                    FF FF
  0000000010103A77: E9 17 00 00 00     jmp         0000000010103A93
  0000000010103A7C: B8 15 00 00 00     mov         eax,15h
  0000000010103A81: 48 8B 4D 10        mov         rcx,qword ptr [rbp+10h]
  0000000010103A85: 48 89 01           mov         qword ptr [rcx],rax
  0000000010103A88: 48 8B 45 F0        mov         rax,qword ptr [rbp-10h]
  0000000010103A8C: 48 89 05 65 F5 FF  mov         qword ptr [0000000010102FF8h],rax
                    FF
  0000000010103A93: 48 83 EC 20        sub         rsp,20h
  0000000010103A97: E8 34 F6 FF FF     call        00000000101030D0
  0000000010103A9C: 48 83 C4 20        add         rsp,20h
  0000000010103AA0: E9 FF 05 00 00     jmp         00000000101040A4
  0000000010103AA5: 0F B7 05 B2 F2 FF  movzx       eax,word ptr [0000000010102D5Eh]
                    FF
  0000000010103AAC: 66 83 F8 2E        cmp         ax,2Eh
  0000000010103AB0: 0F 85 94 04 00 00  jne         0000000010103F4A
  0000000010103AB6: 48 83 EC 20        sub         rsp,20h
  0000000010103ABA: E8 11 F6 FF FF     call        00000000101030D0
  0000000010103ABF: 48 83 C4 20        add         rsp,20h
  0000000010103AC3: 0F B7 05 94 F2 FF  movzx       eax,word ptr [0000000010102D5Eh]
                    FF
  0000000010103ACA: 66 83 F8 2E        cmp         ax,2Eh
  0000000010103ACE: 0F 85 6B 01 00 00  jne         0000000010103C3F
  0000000010103AD4: B8 7F 00 00 00     mov         eax,7Fh
  0000000010103AD9: 66 89 05 7E F2 FF  mov         word ptr [0000000010102D5Eh],ax
                    FF
  0000000010103AE0: 48 8B 45 F8        mov         rax,qword ptr [rbp-8]
  0000000010103AE4: 48 83 F8 15        cmp         rax,15h
  0000000010103AE8: 0F 83 05 00 00 00  jae         0000000010103AF3
  0000000010103AEE: E9 08 00 00 00     jmp         0000000010103AFB
  0000000010103AF3: B0 01              mov         al,1
  0000000010103AF5: B9 57 19 00 00     mov         ecx,1957h
  0000000010103AFA: CC                 int         3
  0000000010103AFB: 48 C1 E0 03        shl         rax,3
  0000000010103AFF: 48 03 C5           add         rax,rbp
  0000000010103B02: 48 8B 80 20 FF FF  mov         rax,qword ptr [rax+FFFFFFFFFFFFFF20h]
                    FF
  0000000010103B09: 48 83 F8 0A        cmp         rax,0Ah
  0000000010103B0D: 0F 8D E1 00 00 00  jge         0000000010103BF4
  0000000010103B13: 48 8B 45 F0        mov         rax,qword ptr [rbp-10h]
  0000000010103B17: 48 8B 4D F8        mov         rcx,qword ptr [rbp-8]
  0000000010103B1B: 48 83 F9 15        cmp         rcx,15h
  0000000010103B1F: 0F 83 05 00 00 00  jae         0000000010103B2A
  0000000010103B25: E9 08 00 00 00     jmp         0000000010103B32
  0000000010103B2A: B0 01              mov         al,1
  0000000010103B2C: B9 7A 19 00 00     mov         ecx,197Ah
  0000000010103B31: CC                 int         3
  0000000010103B32: 48 C1 E1 03        shl         rcx,3
  0000000010103B36: 48 03 CD           add         rcx,rbp
  0000000010103B39: 48 BA FF FF FF FF  mov         rdx,7FFFFFFFFFFFFFFFh
                    FF FF FF 7F
  0000000010103B43: 48 8B 89 20 FF FF  mov         rcx,qword ptr [rcx+FFFFFFFFFFFFFF20h]
                    FF
  0000000010103B4A: 48 87 D1           xchg        rdx,rcx
  0000000010103B4D: 48 2B CA           sub         rcx,rdx
  0000000010103B50: BA 0A 00 00 00     mov         edx,0Ah
  0000000010103B55: 4C 8B C0           mov         r8,rax
  0000000010103B58: 4C 8B CA           mov         r9,rdx
  0000000010103B5B: 48 8B C1           mov         rax,rcx
  0000000010103B5E: 48 99              cqo
  0000000010103B60: 48 85 C0           test        rax,rax
  0000000010103B63: 0F 88 08 00 00 00  js          0000000010103B71
  0000000010103B69: 49 F7 F9           idiv        rax,r9
  0000000010103B6C: E9 10 00 00 00     jmp         0000000010103B81
  0000000010103B71: 49 F7 F9           idiv        rax,r9
  0000000010103B74: 48 85 D2           test        rdx,rdx
  0000000010103B77: 0F 84 04 00 00 00  je          0000000010103B81
  0000000010103B7D: 48 83 E8 01        sub         rax,1
  0000000010103B81: 48 8B C8           mov         rcx,rax
  0000000010103B84: 49 8B C0           mov         rax,r8
  0000000010103B87: 48 3B C1           cmp         rax,rcx
  0000000010103B8A: 0F 8F 40 00 00 00  jg          0000000010103BD0
  0000000010103B90: 48 8B 45 F0        mov         rax,qword ptr [rbp-10h]
  0000000010103B94: 48 69 C0 0A 00 00  imul        rax,rax,0Ah
                    00
  0000000010103B9B: 48 8B 4D F8        mov         rcx,qword ptr [rbp-8]
  0000000010103B9F: 48 83 F9 15        cmp         rcx,15h
  0000000010103BA3: 0F 83 05 00 00 00  jae         0000000010103BAE
  0000000010103BA9: E9 08 00 00 00     jmp         0000000010103BB6
  0000000010103BAE: B0 01              mov         al,1
  0000000010103BB0: B9 9C 19 00 00     mov         ecx,199Ch
  0000000010103BB5: CC                 int         3
  0000000010103BB6: 48 C1 E1 03        shl         rcx,3
  0000000010103BBA: 48 03 CD           add         rcx,rbp
  0000000010103BBD: 48 8B 89 20 FF FF  mov         rcx,qword ptr [rcx+FFFFFFFFFFFFFF20h]
                    FF
  0000000010103BC4: 48 03 C1           add         rax,rcx
  0000000010103BC7: 48 89 45 F0        mov         qword ptr [rbp-10h],rax
  0000000010103BCB: E9 1F 00 00 00     jmp         0000000010103BEF
  0000000010103BD0: 48 83 EC 20        sub         rsp,20h
  0000000010103BD4: 48 8D 0D F5 DB EF  lea         rcx,[00000000100017D0h]
                    FF
  0000000010103BDB: BA 0A 00 00 00     mov         edx,0Ah
  0000000010103BE0: E8 28 F4 FF FF     call        000000001010300D
  0000000010103BE5: 48 83 C4 20        add         rsp,20h
  0000000010103BE9: 31 C0              xor         eax,eax
  0000000010103BEB: 48 89 45 F0        mov         qword ptr [rbp-10h],rax
  0000000010103BEF: E9 19 00 00 00     jmp         0000000010103C0D
  0000000010103BF4: 48 83 EC 20        sub         rsp,20h
  0000000010103BF8: 48 8D 0D B9 DB EF  lea         rcx,[00000000100017B8h]
                    FF
  0000000010103BFF: BA 0C 00 00 00     mov         edx,0Ch
  0000000010103C04: E8 04 F4 FF FF     call        000000001010300D
  0000000010103C09: 48 83 C4 20        add         rsp,20h
  0000000010103C0D: 48 83 45 F8 01     add         qword ptr [rbp-8],1
  0000000010103C12: 48 8B 45 F8        mov         rax,qword ptr [rbp-8]
  0000000010103C16: 48 8B 4D E0        mov         rcx,qword ptr [rbp-20h]
  0000000010103C1A: 48 3B C1           cmp         rax,rcx
  0000000010103C1D: 0F 85 BD FE FF FF  jne         0000000010103AE0
  0000000010103C23: B8 15 00 00 00     mov         eax,15h
  0000000010103C28: 48 8B 4D 10        mov         rcx,qword ptr [rbp+10h]
  0000000010103C2C: 48 89 01           mov         qword ptr [rcx],rax
  0000000010103C2F: 48 8B 45 F0        mov         rax,qword ptr [rbp-10h]
  0000000010103C33: 48 89 05 BE F3 FF  mov         qword ptr [0000000010102FF8h],rax
                    FF
  0000000010103C3A: E9 06 03 00 00     jmp         0000000010103F45
  0000000010103C3F: 0F 57 C0           xorps       xmm0,xmm0
  0000000010103C42: F3 0F 11 45 CC     movss       dword ptr [rbp-34h],xmm0
  0000000010103C47: 31 C0              xor         eax,eax
  0000000010103C49: 48 89 45 E8        mov         qword ptr [rbp-18h],rax
  0000000010103C4D: F3 0F 10 45 CC     movss       xmm0,dword ptr [rbp-34h]
  0000000010103C52: B8 00 00 20 41     mov         eax,41200000h
  0000000010103C57: 66 0F 6E C8        movd        xmm1,eax
  0000000010103C5B: F3 0F 59 C1        mulss       xmm0,xmm1
  0000000010103C5F: 48 8B 45 F8        mov         rax,qword ptr [rbp-8]
  0000000010103C63: 48 83 F8 15        cmp         rax,15h
  0000000010103C67: 0F 83 05 00 00 00  jae         0000000010103C72
  0000000010103C6D: E9 08 00 00 00     jmp         0000000010103C7A
  0000000010103C72: B0 01              mov         al,1
  0000000010103C74: B9 94 1A 00 00     mov         ecx,1A94h
  0000000010103C79: CC                 int         3
  0000000010103C7A: 48 C1 E0 03        shl         rax,3
  0000000010103C7E: 48 03 C5           add         rax,rbp
  0000000010103C81: 48 8B 80 20 FF FF  mov         rax,qword ptr [rax+FFFFFFFFFFFFFF20h]
                    FF
  0000000010103C88: F3 48 0F 2A C8     cvtsi2ss    xmm1,rax
  0000000010103C8D: F3 0F 58 C1        addss       xmm0,xmm1
  0000000010103C91: F3 0F 11 45 CC     movss       dword ptr [rbp-34h],xmm0
  0000000010103C96: 48 83 45 F8 01     add         qword ptr [rbp-8],1
  0000000010103C9B: 48 8B 45 F8        mov         rax,qword ptr [rbp-8]
  0000000010103C9F: 48 8B 4D E0        mov         rcx,qword ptr [rbp-20h]
  0000000010103CA3: 48 3B C1           cmp         rax,rcx
  0000000010103CA6: 0F 85 A1 FF FF FF  jne         0000000010103C4D
  0000000010103CAC: 0F B7 05 AB F0 FF  movzx       eax,word ptr [0000000010102D5Eh]
                    FF
  0000000010103CB3: 66 83 F8 30        cmp         ax,30h
  0000000010103CB7: 0F 82 53 00 00 00  jb          0000000010103D10
  0000000010103CBD: 0F B7 05 9A F0 FF  movzx       eax,word ptr [0000000010102D5Eh]
                    FF
  0000000010103CC4: 66 83 F8 39        cmp         ax,39h
  0000000010103CC8: 0F 87 42 00 00 00  ja          0000000010103D10
  0000000010103CCE: F3 0F 10 45 CC     movss       xmm0,dword ptr [rbp-34h]
  0000000010103CD3: B8 00 00 20 41     mov         eax,41200000h
  0000000010103CD8: 66 0F 6E C8        movd        xmm1,eax
  0000000010103CDC: F3 0F 59 C1        mulss       xmm0,xmm1
  0000000010103CE0: 0F B7 05 77 F0 FF  movzx       eax,word ptr [0000000010102D5Eh]
                    FF
  0000000010103CE7: 48 83 E8 30        sub         rax,30h
  0000000010103CEB: F3 48 0F 2A C8     cvtsi2ss    xmm1,rax
  0000000010103CF0: F3 0F 58 C1        addss       xmm0,xmm1
  0000000010103CF4: F3 0F 11 45 CC     movss       dword ptr [rbp-34h],xmm0
  0000000010103CF9: 48 83 45 E8 FF     add         qword ptr [rbp-18h],0FFFFFFFFFFFFFFFFh
  0000000010103CFE: 48 83 EC 20        sub         rsp,20h
  0000000010103D02: E8 C9 F3 FF FF     call        00000000101030D0
  0000000010103D07: 48 83 C4 20        add         rsp,20h
  0000000010103D0B: E9 9C FF FF FF     jmp         0000000010103CAC
  0000000010103D10: 0F B7 05 47 F0 FF  movzx       eax,word ptr [0000000010102D5Eh]
                    FF
  0000000010103D17: 66 83 F8 45        cmp         ax,45h
  0000000010103D1B: 0F 84 11 00 00 00  je          0000000010103D32
  0000000010103D21: 0F B7 05 36 F0 FF  movzx       eax,word ptr [0000000010102D5Eh]
                    FF
  0000000010103D28: 66 83 F8 44        cmp         ax,44h
  0000000010103D2C: 0F 85 25 01 00 00  jne         0000000010103E57
  0000000010103D32: 48 83 EC 20        sub         rsp,20h
  0000000010103D36: E8 95 F3 FF FF     call        00000000101030D0
  0000000010103D3B: 48 83 C4 20        add         rsp,20h
  0000000010103D3F: 31 C0              xor         eax,eax
  0000000010103D41: 48 89 45 D8        mov         qword ptr [rbp-28h],rax
  0000000010103D45: 0F B7 05 12 F0 FF  movzx       eax,word ptr [0000000010102D5Eh]
                    FF
  0000000010103D4C: 66 83 F8 2D        cmp         ax,2Dh
  0000000010103D50: 0F 85 1D 00 00 00  jne         0000000010103D73
  0000000010103D56: B8 01 00 00 00     mov         eax,1
  0000000010103D5B: 88 85 1F FF FF FF  mov         byte ptr [rbp+FFFFFFFFFFFFFF1Fh],al
  0000000010103D61: 48 83 EC 20        sub         rsp,20h
  0000000010103D65: E8 66 F3 FF FF     call        00000000101030D0
  0000000010103D6A: 48 83 C4 20        add         rsp,20h
  0000000010103D6E: E9 26 00 00 00     jmp         0000000010103D99
  0000000010103D73: 31 C0              xor         eax,eax
  0000000010103D75: 88 85 1F FF FF FF  mov         byte ptr [rbp+FFFFFFFFFFFFFF1Fh],al
  0000000010103D7B: 0F B7 05 DC EF FF  movzx       eax,word ptr [0000000010102D5Eh]
                    FF
  0000000010103D82: 66 83 F8 2B        cmp         ax,2Bh
  0000000010103D86: 0F 85 0D 00 00 00  jne         0000000010103D99
  0000000010103D8C: 48 83 EC 20        sub         rsp,20h
  0000000010103D90: E8 3B F3 FF FF     call        00000000101030D0
  0000000010103D95: 48 83 C4 20        add         rsp,20h
  0000000010103D99: 0F B7 05 BE EF FF  movzx       eax,word ptr [0000000010102D5Eh]
                    FF
  0000000010103DA0: 66 83 F8 30        cmp         ax,30h
  0000000010103DA4: 0F 82 94 00 00 00  jb          0000000010103E3E
  0000000010103DAA: 0F B7 05 AD EF FF  movzx       eax,word ptr [0000000010102D5Eh]
                    FF
  0000000010103DB1: 66 83 F8 39        cmp         ax,39h
  0000000010103DB5: 0F 87 83 00 00 00  ja          0000000010103E3E
  0000000010103DBB: 48 8B 45 D8        mov         rax,qword ptr [rbp-28h]
  0000000010103DBF: 48 69 C0 0A 00 00  imul        rax,rax,0Ah
                    00
  0000000010103DC6: 0F B7 0D 91 EF FF  movzx       ecx,word ptr [0000000010102D5Eh]
                    FF
  0000000010103DCD: 48 03 C1           add         rax,rcx
  0000000010103DD0: 48 83 E8 30        sub         rax,30h
  0000000010103DD4: 48 89 45 D8        mov         qword ptr [rbp-28h],rax
  0000000010103DD8: 48 83 EC 20        sub         rsp,20h
  0000000010103DDC: E8 EF F2 FF FF     call        00000000101030D0
  0000000010103DE1: 48 83 C4 20        add         rsp,20h
  0000000010103DE5: 0F B7 05 72 EF FF  movzx       eax,word ptr [0000000010102D5Eh]
                    FF
  0000000010103DEC: 66 83 F8 30        cmp         ax,30h
  0000000010103DF0: 0F 82 11 00 00 00  jb          0000000010103E07
  0000000010103DF6: 0F B7 05 61 EF FF  movzx       eax,word ptr [0000000010102D5Eh]
                    FF
  0000000010103DFD: 66 83 F8 39        cmp         ax,39h
  0000000010103E01: 0F 86 B4 FF FF FF  jbe         0000000010103DBB
  0000000010103E07: 0F B6 85 1F FF FF  movzx       eax,byte ptr [rbp+FFFFFFFFFFFFFF1Fh]
                    FF
  0000000010103E0E: 85 C0              test        eax,eax
  0000000010103E10: 0F 84 14 00 00 00  je          0000000010103E2A
  0000000010103E16: 48 8B 45 E8        mov         rax,qword ptr [rbp-18h]
  0000000010103E1A: 48 8B 4D D8        mov         rcx,qword ptr [rbp-28h]
  0000000010103E1E: 48 2B C1           sub         rax,rcx
  0000000010103E21: 48 89 45 E8        mov         qword ptr [rbp-18h],rax
  0000000010103E25: E9 0F 00 00 00     jmp         0000000010103E39
  0000000010103E2A: 48 8B 45 E8        mov         rax,qword ptr [rbp-18h]
  0000000010103E2E: 48 8B 4D D8        mov         rcx,qword ptr [rbp-28h]
  0000000010103E32: 48 03 C1           add         rax,rcx
  0000000010103E35: 48 89 45 E8        mov         qword ptr [rbp-18h],rax
  0000000010103E39: E9 19 00 00 00     jmp         0000000010103E57
  0000000010103E3E: 48 83 EC 20        sub         rsp,20h
  0000000010103E42: 48 8D 0D 39 D9 EF  lea         rcx,[0000000010001782h]
                    FF
  0000000010103E49: BA 07 00 00 00     mov         edx,7
  0000000010103E4E: E8 BA F1 FF FF     call        000000001010300D
  0000000010103E53: 48 83 C4 20        add         rsp,20h
  0000000010103E57: 48 8B 45 E8        mov         rax,qword ptr [rbp-18h]
  0000000010103E5B: 48 85 C0           test        rax,rax
  0000000010103E5E: 0F 8D 58 00 00 00  jge         0000000010103EBC
  0000000010103E64: 48 8B 45 E8        mov         rax,qword ptr [rbp-18h]
  0000000010103E68: 48 83 F8 DA        cmp         rax,0FFFFFFFFFFFFFFDAh
  0000000010103E6C: 0F 8C 3D 00 00 00  jl          0000000010103EAF
  0000000010103E72: F3 0F 10 45 CC     movss       xmm0,dword ptr [rbp-34h]
  0000000010103E77: 48 83 EC 08        sub         rsp,8
  0000000010103E7B: F3 0F 11 04 24     movss       dword ptr [rsp],xmm0
  0000000010103E80: 48 83 EC 28        sub         rsp,28h
  0000000010103E84: 48 8B 4D E8        mov         rcx,qword ptr [rbp-18h]
  0000000010103E88: 48 F7 D9           neg         rcx
  0000000010103E8B: E8 04 F9 FF FF     call        0000000010103794
  0000000010103E90: 48 83 C4 28        add         rsp,28h
  0000000010103E94: F3 0F 10 C8        movss       xmm1,xmm0
  0000000010103E98: F3 0F 10 04 24     movss       xmm0,dword ptr [rsp]
  0000000010103E9D: 48 83 C4 08        add         rsp,8
  0000000010103EA1: F3 0F 5E C1        divss       xmm0,xmm1
  0000000010103EA5: F3 0F 11 45 CC     movss       dword ptr [rbp-34h],xmm0
  0000000010103EAA: E9 08 00 00 00     jmp         0000000010103EB7
  0000000010103EAF: 0F 57 C0           xorps       xmm0,xmm0
  0000000010103EB2: F3 0F 11 45 CC     movss       dword ptr [rbp-34h],xmm0
  0000000010103EB7: E9 60 00 00 00     jmp         0000000010103F1C
  0000000010103EBC: 48 8B 45 E8        mov         rax,qword ptr [rbp-18h]
  0000000010103EC0: 48 85 C0           test        rax,rax
  0000000010103EC3: 0F 8E 53 00 00 00  jle         0000000010103F1C
  0000000010103EC9: 48 8B 45 E8        mov         rax,qword ptr [rbp-18h]
  0000000010103ECD: 48 83 F8 26        cmp         rax,26h
  0000000010103ED1: 0F 8F 24 00 00 00  jg          0000000010103EFB
  0000000010103ED7: 48 83 EC 20        sub         rsp,20h
  0000000010103EDB: 48 8B 4D E8        mov         rcx,qword ptr [rbp-18h]
  0000000010103EDF: E8 B0 F8 FF FF     call        0000000010103794
  0000000010103EE4: 48 83 C4 20        add         rsp,20h
  0000000010103EE8: F3 0F 10 4D CC     movss       xmm1,dword ptr [rbp-34h]
  0000000010103EED: F3 0F 59 C1        mulss       xmm0,xmm1
  0000000010103EF1: F3 0F 11 45 CC     movss       dword ptr [rbp-34h],xmm0
  0000000010103EF6: E9 21 00 00 00     jmp         0000000010103F1C
  0000000010103EFB: 0F 57 C0           xorps       xmm0,xmm0
  0000000010103EFE: F3 0F 11 45 CC     movss       dword ptr [rbp-34h],xmm0
  0000000010103F03: 48 83 EC 20        sub         rsp,20h
  0000000010103F07: 48 8D 0D 60 D8 EF  lea         rcx,[000000001000176Eh]
                    FF
  0000000010103F0E: BA 0A 00 00 00     mov         edx,0Ah
  0000000010103F13: E8 F5 F0 FF FF     call        000000001010300D
  0000000010103F18: 48 83 C4 20        add         rsp,20h
  0000000010103F1C: B8 16 00 00 00     mov         eax,16h
  0000000010103F21: 48 8B 4D 10        mov         rcx,qword ptr [rbp+10h]
  0000000010103F25: 48 89 01           mov         qword ptr [rcx],rax
  0000000010103F28: F3 0F 10 45 CC     movss       xmm0,dword ptr [rbp-34h]
  0000000010103F2D: F3 0F 11 05 B7 F0  movss       dword ptr [0000000010102FECh],xmm0
                    FF FF
  0000000010103F35: F3 0F 10 45 CC     movss       xmm0,dword ptr [rbp-34h]
  0000000010103F3A: 66 0F 7E C0        movd        eax,xmm0
  0000000010103F3E: 48 89 05 B3 F0 FF  mov         qword ptr [0000000010102FF8h],rax
                    FF
  0000000010103F45: E9 5A 01 00 00     jmp         00000000101040A4
  0000000010103F4A: 48 8B 45 F8        mov         rax,qword ptr [rbp-8]
  0000000010103F4E: 48 83 F8 15        cmp         rax,15h
  0000000010103F52: 0F 83 05 00 00 00  jae         0000000010103F5D
  0000000010103F58: E9 08 00 00 00     jmp         0000000010103F65
  0000000010103F5D: B0 01              mov         al,1
  0000000010103F5F: B9 EA 1D 00 00     mov         ecx,1DEAh
  0000000010103F64: CC                 int         3
  0000000010103F65: 48 C1 E0 03        shl         rax,3
  0000000010103F69: 48 03 C5           add         rax,rbp
  0000000010103F6C: 48 8B 80 20 FF FF  mov         rax,qword ptr [rax+FFFFFFFFFFFFFF20h]
                    FF
  0000000010103F73: 48 83 F8 0A        cmp         rax,0Ah
  0000000010103F77: 0F 8D E1 00 00 00  jge         000000001010405E
  0000000010103F7D: 48 8B 45 F0        mov         rax,qword ptr [rbp-10h]
  0000000010103F81: 48 8B 4D F8        mov         rcx,qword ptr [rbp-8]
  0000000010103F85: 48 83 F9 15        cmp         rcx,15h
  0000000010103F89: 0F 83 05 00 00 00  jae         0000000010103F94
  0000000010103F8F: E9 08 00 00 00     jmp         0000000010103F9C
  0000000010103F94: B0 01              mov         al,1
  0000000010103F96: B9 0C 1E 00 00     mov         ecx,1E0Ch
  0000000010103F9B: CC                 int         3
  0000000010103F9C: 48 C1 E1 03        shl         rcx,3
  0000000010103FA0: 48 03 CD           add         rcx,rbp
  0000000010103FA3: 48 BA FF FF FF FF  mov         rdx,7FFFFFFFFFFFFFFFh
                    FF FF FF 7F
  0000000010103FAD: 48 8B 89 20 FF FF  mov         rcx,qword ptr [rcx+FFFFFFFFFFFFFF20h]
                    FF
  0000000010103FB4: 48 87 D1           xchg        rdx,rcx
  0000000010103FB7: 48 2B CA           sub         rcx,rdx
  0000000010103FBA: BA 0A 00 00 00     mov         edx,0Ah
  0000000010103FBF: 4C 8B C0           mov         r8,rax
  0000000010103FC2: 4C 8B CA           mov         r9,rdx
  0000000010103FC5: 48 8B C1           mov         rax,rcx
  0000000010103FC8: 48 99              cqo
  0000000010103FCA: 48 85 C0           test        rax,rax
  0000000010103FCD: 0F 88 08 00 00 00  js          0000000010103FDB
  0000000010103FD3: 49 F7 F9           idiv        rax,r9
  0000000010103FD6: E9 10 00 00 00     jmp         0000000010103FEB
  0000000010103FDB: 49 F7 F9           idiv        rax,r9
  0000000010103FDE: 48 85 D2           test        rdx,rdx
  0000000010103FE1: 0F 84 04 00 00 00  je          0000000010103FEB
  0000000010103FE7: 48 83 E8 01        sub         rax,1
  0000000010103FEB: 48 8B C8           mov         rcx,rax
  0000000010103FEE: 49 8B C0           mov         rax,r8
  0000000010103FF1: 48 3B C1           cmp         rax,rcx
  0000000010103FF4: 0F 8F 40 00 00 00  jg          000000001010403A
  0000000010103FFA: 48 8B 45 F0        mov         rax,qword ptr [rbp-10h]
  0000000010103FFE: 48 69 C0 0A 00 00  imul        rax,rax,0Ah
                    00
  0000000010104005: 48 8B 4D F8        mov         rcx,qword ptr [rbp-8]
  0000000010104009: 48 83 F9 15        cmp         rcx,15h
  000000001010400D: 0F 83 05 00 00 00  jae         0000000010104018
  0000000010104013: E9 08 00 00 00     jmp         0000000010104020
  0000000010104018: B0 01              mov         al,1
  000000001010401A: B9 2C 1E 00 00     mov         ecx,1E2Ch
  000000001010401F: CC                 int         3
  0000000010104020: 48 C1 E1 03        shl         rcx,3
  0000000010104024: 48 03 CD           add         rcx,rbp
  0000000010104027: 48 8B 89 20 FF FF  mov         rcx,qword ptr [rcx+FFFFFFFFFFFFFF20h]
                    FF
  000000001010402E: 48 03 C1           add         rax,rcx
  0000000010104031: 48 89 45 F0        mov         qword ptr [rbp-10h],rax
  0000000010104035: E9 1F 00 00 00     jmp         0000000010104059
  000000001010403A: 48 83 EC 20        sub         rsp,20h
  000000001010403E: 48 8D 0D 15 D7 EF  lea         rcx,[000000001000175Ah]
                    FF
  0000000010104045: BA 0A 00 00 00     mov         edx,0Ah
  000000001010404A: E8 BE EF FF FF     call        000000001010300D
  000000001010404F: 48 83 C4 20        add         rsp,20h
  0000000010104053: 31 C0              xor         eax,eax
  0000000010104055: 48 89 45 F0        mov         qword ptr [rbp-10h],rax
  0000000010104059: E9 19 00 00 00     jmp         0000000010104077
  000000001010405E: 48 83 EC 20        sub         rsp,20h
  0000000010104062: 48 8D 0D D9 D6 EF  lea         rcx,[0000000010001742h]
                    FF
  0000000010104069: BA 0C 00 00 00     mov         edx,0Ch
  000000001010406E: E8 9A EF FF FF     call        000000001010300D
  0000000010104073: 48 83 C4 20        add         rsp,20h
  0000000010104077: 48 83 45 F8 01     add         qword ptr [rbp-8],1
  000000001010407C: 48 8B 45 F8        mov         rax,qword ptr [rbp-8]
  0000000010104080: 48 8B 4D E0        mov         rcx,qword ptr [rbp-20h]
  0000000010104084: 48 3B C1           cmp         rax,rcx
  0000000010104087: 0F 85 BD FE FF FF  jne         0000000010103F4A
  000000001010408D: B8 15 00 00 00     mov         eax,15h
  0000000010104092: 48 8B 4D 10        mov         rcx,qword ptr [rbp+10h]
  0000000010104096: 48 89 01           mov         qword ptr [rcx],rax
  0000000010104099: 48 8B 45 F0        mov         rax,qword ptr [rbp-10h]
  000000001010409D: 48 89 05 54 EF FF  mov         qword ptr [0000000010102FF8h],rax
                    FF
  00000000101040A4: C9                 leave
  00000000101040A5: C3                 ret
  00000000101040A6: E9 2A 01 00 00     jmp         00000000101041D5
  00000000101040AB: 55                 push        rbp
  00000000101040AC: 48 8B EC           mov         rbp,rsp
  00000000101040AF: 48 81 EC 10 02 00  sub         rsp,210h
                    00
  00000000101040B6: 48 83 EC 20        sub         rsp,20h
  00000000101040BA: E8 11 F0 FF FF     call        00000000101030D0
  00000000101040BF: 48 83 C4 20        add         rsp,20h
  00000000101040C3: 31 C0              xor         eax,eax
  00000000101040C5: 48 89 85 F8 FD FF  mov         qword ptr [rbp+FFFFFFFFFFFFFDF8h],rax
                    FF
  00000000101040CC: 48 8B 85 F8 FD FF  mov         rax,qword ptr [rbp+FFFFFFFFFFFFFDF8h]
                    FF
  00000000101040D3: 48 81 F8 FF 00 00  cmp         rax,0FFh
                    00
  00000000101040DA: 0F 8D 70 00 00 00  jge         0000000010104150
  00000000101040E0: 0F B7 05 77 EC FF  movzx       eax,word ptr [0000000010102D5Eh]
                    FF
  00000000101040E7: 66 83 F8 2A        cmp         ax,2Ah
  00000000101040EB: 0F 84 5F 00 00 00  je          0000000010104150
  00000000101040F1: 0F B6 05 65 EC FF  movzx       eax,byte ptr [0000000010102D5Dh]
                    FF
  00000000101040F8: 85 C0              test        eax,eax
  00000000101040FA: 0F 85 50 00 00 00  jne         0000000010104150
  0000000010104100: 48 8B 85 F8 FD FF  mov         rax,qword ptr [rbp+FFFFFFFFFFFFFDF8h]
                    FF
  0000000010104107: 48 81 F8 00 01 00  cmp         rax,100h
                    00
  000000001010410E: 0F 83 05 00 00 00  jae         0000000010104119
  0000000010104114: E9 08 00 00 00     jmp         0000000010104121
  0000000010104119: B0 01              mov         al,1
  000000001010411B: B9 9D 1F 00 00     mov         ecx,1F9Dh
  0000000010104120: CC                 int         3
  0000000010104121: 48 C1 E0 01        shl         rax,1
  0000000010104125: 48 03 C5           add         rax,rbp
  0000000010104128: 0F B7 0D 2F EC FF  movzx       ecx,word ptr [0000000010102D5Eh]
                    FF
  000000001010412F: 66 89 88 00 FE FF  mov         word ptr [rax+FFFFFFFFFFFFFE00h],cx
                    FF
  0000000010104136: 48 83 EC 20        sub         rsp,20h
  000000001010413A: E8 91 EF FF FF     call        00000000101030D0
  000000001010413F: 48 83 C4 20        add         rsp,20h
  0000000010104143: 48 83 85 F8 FD FF  add         qword ptr [rbp+FFFFFFFFFFFFFDF8h],1
                    FF 01
  000000001010414B: E9 7C FF FF FF     jmp         00000000101040CC
  0000000010104150: 48 8B 85 F8 FD FF  mov         rax,qword ptr [rbp+FFFFFFFFFFFFFDF8h]
                    FF
  0000000010104157: 48 81 F8 00 01 00  cmp         rax,100h
                    00
  000000001010415E: 0F 83 05 00 00 00  jae         0000000010104169
  0000000010104164: E9 08 00 00 00     jmp         0000000010104171
  0000000010104169: B0 01              mov         al,1
  000000001010416B: B9 C6 1F 00 00     mov         ecx,1FC6h
  0000000010104170: CC                 int         3
  0000000010104171: 48 C1 E0 01        shl         rax,1
  0000000010104175: 48 03 C5           add         rax,rbp
  0000000010104178: 31 C9              xor         ecx,ecx
  000000001010417A: 66 89 88 00 FE FF  mov         word ptr [rax+FFFFFFFFFFFFFE00h],cx
                    FF
  0000000010104181: 0F B7 05 D6 EB FF  movzx       eax,word ptr [0000000010102D5Eh]
                    FF
  0000000010104188: 66 83 F8 2A        cmp         ax,2Ah
  000000001010418C: 0F 85 28 00 00 00  jne         00000000101041BA
  0000000010104192: 48 8B 05 8F D8 EF  mov         rax,qword ptr [0000000010001A28h]
                    FF
  0000000010104199: 50                 push        rax
  000000001010419A: 48 83 EC 28        sub         rsp,28h
  000000001010419E: 48 8D 8D 00 FE FF  lea         rcx,[rbp+FFFFFFFFFFFFFE00h]
                    FF
  00000000101041A5: BA 00 01 00 00     mov         edx,100h
  00000000101041AA: 48 8B 44 24 28     mov         rax,qword ptr [rsp+28h]
  00000000101041AF: FF D0              call        rax
  00000000101041B1: 48 83 C4 30        add         rsp,30h
  00000000101041B5: E9 19 00 00 00     jmp         00000000101041D3
  00000000101041BA: 48 83 EC 20        sub         rsp,20h
  00000000101041BE: 48 8D 0D 3B D5 EF  lea         rcx,[0000000010001700h]
                    FF
  00000000101041C5: BA 1D 00 00 00     mov         edx,1Dh
  00000000101041CA: E8 3E EE FF FF     call        000000001010300D
  00000000101041CF: 48 83 C4 20        add         rsp,20h
  00000000101041D3: C9                 leave
  00000000101041D4: C3                 ret
  00000000101041D5: 55                 push        rbp
  00000000101041D6: 48 8B EC           mov         rbp,rsp
  00000000101041D9: 48 83 EC 10        sub         rsp,10h
  00000000101041DD: 48 89 4D 10        mov         qword ptr [rbp+10h],rcx
  00000000101041E1: 0F B7 05 76 EB FF  movzx       eax,word ptr [0000000010102D5Eh]
                    FF
  00000000101041E8: 66 83 F8 24        cmp         ax,24h
  00000000101041EC: 0F 85 1A 00 00 00  jne         000000001010420C
  00000000101041F2: 48 8B 45 10        mov         rax,qword ptr [rbp+10h]
  00000000101041F6: 48 85 C0           test        rax,rax
  00000000101041F9: 0F 85 0D 00 00 00  jne         000000001010420C
  00000000101041FF: 48 83 EC 20        sub         rsp,20h
  0000000010104203: E8 A3 FE FF FF     call        00000000101040AB
  0000000010104208: 48 83 C4 20        add         rsp,20h
  000000001010420C: 31 C0              xor         eax,eax
  000000001010420E: 88 45 FF           mov         byte ptr [rbp-1],al
  0000000010104211: 0F B6 05 45 EB FF  movzx       eax,byte ptr [0000000010102D5Dh]
                    FF
  0000000010104218: 85 C0              test        eax,eax
  000000001010421A: 0F 85 BD 00 00 00  jne         00000000101042DD
  0000000010104220: 0F B6 45 FF        movzx       eax,byte ptr [rbp-1]
  0000000010104224: 85 C0              test        eax,eax
  0000000010104226: 0F 85 B1 00 00 00  jne         00000000101042DD
  000000001010422C: 0F B7 05 2B EB FF  movzx       eax,word ptr [0000000010102D5Eh]
                    FF
  0000000010104233: 66 83 F8 28        cmp         ax,28h
  0000000010104237: 0F 85 45 00 00 00  jne         0000000010104282
  000000001010423D: 48 83 EC 20        sub         rsp,20h
  0000000010104241: E8 8A EE FF FF     call        00000000101030D0
  0000000010104246: 48 83 C4 20        add         rsp,20h
  000000001010424A: 0F B7 05 0D EB FF  movzx       eax,word ptr [0000000010102D5Eh]
                    FF
  0000000010104251: 66 83 F8 2A        cmp         ax,2Ah
  0000000010104255: 0F 85 22 00 00 00  jne         000000001010427D
  000000001010425B: 48 83 EC 20        sub         rsp,20h
  000000001010425F: E8 6C EE FF FF     call        00000000101030D0
  0000000010104264: 48 83 C4 20        add         rsp,20h
  0000000010104268: 48 83 EC 20        sub         rsp,20h
  000000001010426C: 48 8B 4D 10        mov         rcx,qword ptr [rbp+10h]
  0000000010104270: 48 83 C1 01        add         rcx,1
  0000000010104274: E8 5C FF FF FF     call        00000000101041D5
  0000000010104279: 48 83 C4 20        add         rsp,20h
  000000001010427D: E9 56 00 00 00     jmp         00000000101042D8
  0000000010104282: 0F B7 05 D5 EA FF  movzx       eax,word ptr [0000000010102D5Eh]
                    FF
  0000000010104289: 66 83 F8 2A        cmp         ax,2Ah
  000000001010428D: 0F 85 38 00 00 00  jne         00000000101042CB
  0000000010104293: 48 83 EC 20        sub         rsp,20h
  0000000010104297: E8 34 EE FF FF     call        00000000101030D0
  000000001010429C: 48 83 C4 20        add         rsp,20h
  00000000101042A0: 0F B7 05 B7 EA FF  movzx       eax,word ptr [0000000010102D5Eh]
                    FF
  00000000101042A7: 66 83 F8 29        cmp         ax,29h
  00000000101042AB: 0F 85 15 00 00 00  jne         00000000101042C6
  00000000101042B1: 48 83 EC 20        sub         rsp,20h
  00000000101042B5: E8 16 EE FF FF     call        00000000101030D0
  00000000101042BA: 48 83 C4 20        add         rsp,20h
  00000000101042BE: B8 01 00 00 00     mov         eax,1
  00000000101042C3: 88 45 FF           mov         byte ptr [rbp-1],al
  00000000101042C6: E9 0D 00 00 00     jmp         00000000101042D8
  00000000101042CB: 48 83 EC 20        sub         rsp,20h
  00000000101042CF: E8 FC ED FF FF     call        00000000101030D0
  00000000101042D4: 48 83 C4 20        add         rsp,20h
  00000000101042D8: E9 34 FF FF FF     jmp         0000000010104211
  00000000101042DD: C9                 leave
  00000000101042DE: C3                 ret
  00000000101042DF: 55                 push        rbp
  00000000101042E0: 48 8B EC           mov         rbp,rsp
  00000000101042E3: 48 89 4D 10        mov         qword ptr [rbp+10h],rcx
  00000000101042E7: 0F B6 05 6F EA FF  movzx       eax,byte ptr [0000000010102D5Dh]
                    FF
  00000000101042EE: 85 C0              test        eax,eax
  00000000101042F0: 0F 85 23 00 00 00  jne         0000000010104319
  00000000101042F6: 0F B7 05 61 EA FF  movzx       eax,word ptr [0000000010102D5Eh]
                    FF
  00000000101042FD: 66 83 F8 20        cmp         ax,20h
  0000000010104301: 0F 87 12 00 00 00  ja          0000000010104319
  0000000010104307: 48 83 EC 20        sub         rsp,20h
  000000001010430B: E8 C0 ED FF FF     call        00000000101030D0
  0000000010104310: 48 83 C4 20        add         rsp,20h
  0000000010104314: E9 CE FF FF FF     jmp         00000000101042E7
  0000000010104319: 48 8B 05 18 D7 EF  mov         rax,qword ptr [0000000010001A38h]
                    FF
  0000000010104320: 48 83 E8 01        sub         rax,1
  0000000010104324: 48 89 05 15 D7 EF  mov         qword ptr [0000000010001A40h],rax
                    FF
  000000001010432B: 0F B7 05 2C EA FF  movzx       eax,word ptr [0000000010102D5Eh]
                    FF
  0000000010104332: 66 83 F8 41        cmp         ax,41h
  0000000010104336: 0F 83 9C 04 00 00  jae         00000000101047D8
  000000001010433C: 0F B7 05 1B EA FF  movzx       eax,word ptr [0000000010102D5Eh]
                    FF
  0000000010104343: 66 83 F8 30        cmp         ax,30h
  0000000010104347: 0F 83 D1 02 00 00  jae         000000001010461E
  000000001010434D: 0F B7 05 0A EA FF  movzx       eax,word ptr [0000000010102D5Eh]
                    FF
  0000000010104354: 66 83 F8 22        cmp         ax,22h
  0000000010104358: 0F 84 11 00 00 00  je          000000001010436F
  000000001010435E: 0F B7 05 F9 E9 FF  movzx       eax,word ptr [0000000010102D5Eh]
                    FF
  0000000010104365: 66 83 F8 27        cmp         ax,27h
  0000000010104369: 0F 85 25 00 00 00  jne         0000000010104394
  000000001010436F: 48 83 EC 20        sub         rsp,20h
  0000000010104373: 0F B7 0D E4 E9 FF  movzx       ecx,word ptr [0000000010102D5Eh]
                    FF
  000000001010437A: E8 91 F0 FF FF     call        0000000010103410
  000000001010437F: 48 83 C4 20        add         rsp,20h
  0000000010104383: B8 1A 00 00 00     mov         eax,1Ah
  0000000010104388: 48 8B 4D 10        mov         rcx,qword ptr [rbp+10h]
  000000001010438C: 48 89 01           mov         qword ptr [rcx],rax
  000000001010438F: E9 85 02 00 00     jmp         0000000010104619
  0000000010104394: 0F B7 05 C3 E9 FF  movzx       eax,word ptr [0000000010102D5Eh]
                    FF
  000000001010439B: 66 83 F8 23        cmp         ax,23h
  000000001010439F: 0F 85 1E 00 00 00  jne         00000000101043C3
  00000000101043A5: 48 83 EC 20        sub         rsp,20h
  00000000101043A9: E8 22 ED FF FF     call        00000000101030D0
  00000000101043AE: 48 83 C4 20        add         rsp,20h
  00000000101043B2: B8 0A 00 00 00     mov         eax,0Ah
  00000000101043B7: 48 8B 4D 10        mov         rcx,qword ptr [rbp+10h]
  00000000101043BB: 48 89 01           mov         qword ptr [rcx],rax
  00000000101043BE: E9 56 02 00 00     jmp         0000000010104619
  00000000101043C3: 0F B7 05 94 E9 FF  movzx       eax,word ptr [0000000010102D5Eh]
                    FF
  00000000101043CA: 66 83 F8 24        cmp         ax,24h
  00000000101043CE: 0F 85 1E 00 00 00  jne         00000000101043F2
  00000000101043D4: 48 83 EC 20        sub         rsp,20h
  00000000101043D8: E8 76 F1 FF FF     call        0000000010103553
  00000000101043DD: 48 83 C4 20        add         rsp,20h
  00000000101043E1: B8 1A 00 00 00     mov         eax,1Ah
  00000000101043E6: 48 8B 4D 10        mov         rcx,qword ptr [rbp+10h]
  00000000101043EA: 48 89 01           mov         qword ptr [rcx],rax
  00000000101043ED: E9 27 02 00 00     jmp         0000000010104619
  00000000101043F2: 0F B7 05 65 E9 FF  movzx       eax,word ptr [0000000010102D5Eh]
                    FF
  00000000101043F9: 66 83 F8 26        cmp         ax,26h
  00000000101043FD: 0F 85 1E 00 00 00  jne         0000000010104421
  0000000010104403: 48 83 EC 20        sub         rsp,20h
  0000000010104407: E8 C4 EC FF FF     call        00000000101030D0
  000000001010440C: 48 83 C4 20        add         rsp,20h
  0000000010104410: B8 05 00 00 00     mov         eax,5
  0000000010104415: 48 8B 4D 10        mov         rcx,qword ptr [rbp+10h]
  0000000010104419: 48 89 01           mov         qword ptr [rcx],rax
  000000001010441C: E9 F8 01 00 00     jmp         0000000010104619
  0000000010104421: 0F B7 05 36 E9 FF  movzx       eax,word ptr [0000000010102D5Eh]
                    FF
  0000000010104428: 66 83 F8 28        cmp         ax,28h
  000000001010442C: 0F 85 59 00 00 00  jne         000000001010448B
  0000000010104432: 48 83 EC 20        sub         rsp,20h
  0000000010104436: E8 95 EC FF FF     call        00000000101030D0
  000000001010443B: 48 83 C4 20        add         rsp,20h
  000000001010443F: 0F B7 05 18 E9 FF  movzx       eax,word ptr [0000000010102D5Eh]
                    FF
  0000000010104446: 66 83 F8 2A        cmp         ax,2Ah
  000000001010444A: 0F 85 2A 00 00 00  jne         000000001010447A
  0000000010104450: 31 C0              xor         eax,eax
  0000000010104452: 48 8B 4D 10        mov         rcx,qword ptr [rbp+10h]
  0000000010104456: 48 89 01           mov         qword ptr [rcx],rax
  0000000010104459: 48 83 EC 20        sub         rsp,20h
  000000001010445D: E8 6E EC FF FF     call        00000000101030D0
  0000000010104462: 48 83 C4 20        add         rsp,20h
  0000000010104466: 48 83 EC 20        sub         rsp,20h
  000000001010446A: 31 C9              xor         ecx,ecx
  000000001010446C: E8 64 FD FF FF     call        00000000101041D5
  0000000010104471: 48 83 C4 20        add         rsp,20h
  0000000010104475: E9 0C 00 00 00     jmp         0000000010104486
  000000001010447A: B8 1C 00 00 00     mov         eax,1Ch
  000000001010447F: 48 8B 4D 10        mov         rcx,qword ptr [rbp+10h]
  0000000010104483: 48 89 01           mov         qword ptr [rcx],rax
  0000000010104486: E9 8E 01 00 00     jmp         0000000010104619
  000000001010448B: 0F B7 05 CC E8 FF  movzx       eax,word ptr [0000000010102D5Eh]
                    FF
  0000000010104492: 66 83 F8 29        cmp         ax,29h
  0000000010104496: 0F 85 1E 00 00 00  jne         00000000101044BA
  000000001010449C: 48 83 EC 20        sub         rsp,20h
  00000000101044A0: E8 2B EC FF FF     call        00000000101030D0
  00000000101044A5: 48 83 C4 20        add         rsp,20h
  00000000101044A9: B8 2C 00 00 00     mov         eax,2Ch
  00000000101044AE: 48 8B 4D 10        mov         rcx,qword ptr [rbp+10h]
  00000000101044B2: 48 89 01           mov         qword ptr [rcx],rax
  00000000101044B5: E9 5F 01 00 00     jmp         0000000010104619
  00000000101044BA: 0F B7 05 9D E8 FF  movzx       eax,word ptr [0000000010102D5Eh]
                    FF
  00000000101044C1: 66 83 F8 2A        cmp         ax,2Ah
  00000000101044C5: 0F 85 1E 00 00 00  jne         00000000101044E9
  00000000101044CB: 48 83 EC 20        sub         rsp,20h
  00000000101044CF: E8 FC EB FF FF     call        00000000101030D0
  00000000101044D4: 48 83 C4 20        add         rsp,20h
  00000000101044D8: B8 01 00 00 00     mov         eax,1
  00000000101044DD: 48 8B 4D 10        mov         rcx,qword ptr [rbp+10h]
  00000000101044E1: 48 89 01           mov         qword ptr [rcx],rax
  00000000101044E4: E9 30 01 00 00     jmp         0000000010104619
  00000000101044E9: 0F B7 05 6E E8 FF  movzx       eax,word ptr [0000000010102D5Eh]
                    FF
  00000000101044F0: 66 83 F8 2B        cmp         ax,2Bh
  00000000101044F4: 0F 85 1E 00 00 00  jne         0000000010104518
  00000000101044FA: 48 83 EC 20        sub         rsp,20h
  00000000101044FE: E8 CD EB FF FF     call        00000000101030D0
  0000000010104503: 48 83 C4 20        add         rsp,20h
  0000000010104507: B8 06 00 00 00     mov         eax,6
  000000001010450C: 48 8B 4D 10        mov         rcx,qword ptr [rbp+10h]
  0000000010104510: 48 89 01           mov         qword ptr [rcx],rax
  0000000010104513: E9 01 01 00 00     jmp         0000000010104619
  0000000010104518: 0F B7 05 3F E8 FF  movzx       eax,word ptr [0000000010102D5Eh]
                    FF
  000000001010451F: 66 83 F8 2C        cmp         ax,2Ch
  0000000010104523: 0F 85 1E 00 00 00  jne         0000000010104547
  0000000010104529: 48 83 EC 20        sub         rsp,20h
  000000001010452D: E8 9E EB FF FF     call        00000000101030D0
  0000000010104532: 48 83 C4 20        add         rsp,20h
  0000000010104536: B8 28 00 00 00     mov         eax,28h
  000000001010453B: 48 8B 4D 10        mov         rcx,qword ptr [rbp+10h]
  000000001010453F: 48 89 01           mov         qword ptr [rcx],rax
  0000000010104542: E9 D2 00 00 00     jmp         0000000010104619
  0000000010104547: 0F B7 05 10 E8 FF  movzx       eax,word ptr [0000000010102D5Eh]
                    FF
  000000001010454E: 66 83 F8 2D        cmp         ax,2Dh
  0000000010104552: 0F 85 1E 00 00 00  jne         0000000010104576
  0000000010104558: 48 83 EC 20        sub         rsp,20h
  000000001010455C: E8 6F EB FF FF     call        00000000101030D0
  0000000010104561: 48 83 C4 20        add         rsp,20h
  0000000010104565: B8 07 00 00 00     mov         eax,7
  000000001010456A: 48 8B 4D 10        mov         rcx,qword ptr [rbp+10h]
  000000001010456E: 48 89 01           mov         qword ptr [rcx],rax
  0000000010104571: E9 A3 00 00 00     jmp         0000000010104619
  0000000010104576: 0F B7 05 E1 E7 FF  movzx       eax,word ptr [0000000010102D5Eh]
                    FF
  000000001010457D: 66 83 F8 2E        cmp         ax,2Eh
  0000000010104581: 0F 85 4D 00 00 00  jne         00000000101045D4
  0000000010104587: 48 83 EC 20        sub         rsp,20h
  000000001010458B: E8 40 EB FF FF     call        00000000101030D0
  0000000010104590: 48 83 C4 20        add         rsp,20h
  0000000010104594: 0F B7 05 C3 E7 FF  movzx       eax,word ptr [0000000010102D5Eh]
                    FF
  000000001010459B: 66 83 F8 2E        cmp         ax,2Eh
  000000001010459F: 0F 85 1E 00 00 00  jne         00000000101045C3
  00000000101045A5: 48 83 EC 20        sub         rsp,20h
  00000000101045A9: E8 22 EB FF FF     call        00000000101030D0
  00000000101045AE: 48 83 C4 20        add         rsp,20h
  00000000101045B2: B8 2B 00 00 00     mov         eax,2Bh
  00000000101045B7: 48 8B 4D 10        mov         rcx,qword ptr [rbp+10h]
  00000000101045BB: 48 89 01           mov         qword ptr [rcx],rax
  00000000101045BE: E9 0C 00 00 00     jmp         00000000101045CF
  00000000101045C3: B8 12 00 00 00     mov         eax,12h
  00000000101045C8: 48 8B 4D 10        mov         rcx,qword ptr [rbp+10h]
  00000000101045CC: 48 89 01           mov         qword ptr [rcx],rax
  00000000101045CF: E9 45 00 00 00     jmp         0000000010104619
  00000000101045D4: 0F B7 05 83 E7 FF  movzx       eax,word ptr [0000000010102D5Eh]
                    FF
  00000000101045DB: 66 83 F8 2F        cmp         ax,2Fh
  00000000101045DF: 0F 85 1E 00 00 00  jne         0000000010104603
  00000000101045E5: 48 83 EC 20        sub         rsp,20h
  00000000101045E9: E8 E2 EA FF FF     call        00000000101030D0
  00000000101045EE: 48 83 C4 20        add         rsp,20h
  00000000101045F2: B8 02 00 00 00     mov         eax,2
  00000000101045F7: 48 8B 4D 10        mov         rcx,qword ptr [rbp+10h]
  00000000101045FB: 48 89 01           mov         qword ptr [rcx],rax
  00000000101045FE: E9 16 00 00 00     jmp         0000000010104619
  0000000010104603: 48 83 EC 20        sub         rsp,20h
  0000000010104607: E8 C4 EA FF FF     call        00000000101030D0
  000000001010460C: 48 83 C4 20        add         rsp,20h
  0000000010104610: 31 C0              xor         eax,eax
  0000000010104612: 48 8B 4D 10        mov         rcx,qword ptr [rbp+10h]
  0000000010104616: 48 89 01           mov         qword ptr [rcx],rax
  0000000010104619: E9 B5 01 00 00     jmp         00000000101047D3
  000000001010461E: 0F B7 05 39 E7 FF  movzx       eax,word ptr [0000000010102D5Eh]
                    FF
  0000000010104625: 66 83 F8 3A        cmp         ax,3Ah
  0000000010104629: 0F 83 16 00 00 00  jae         0000000010104645
  000000001010462F: 48 83 EC 20        sub         rsp,20h
  0000000010104633: 48 8B 4D 10        mov         rcx,qword ptr [rbp+10h]
  0000000010104637: E8 D9 F1 FF FF     call        0000000010103815
  000000001010463C: 48 83 C4 20        add         rsp,20h
  0000000010104640: E9 8E 01 00 00     jmp         00000000101047D3
  0000000010104645: 0F B7 05 12 E7 FF  movzx       eax,word ptr [0000000010102D5Eh]
                    FF
  000000001010464C: 66 83 F8 3A        cmp         ax,3Ah
  0000000010104650: 0F 85 4D 00 00 00  jne         00000000101046A3
  0000000010104656: 48 83 EC 20        sub         rsp,20h
  000000001010465A: E8 71 EA FF FF     call        00000000101030D0
  000000001010465F: 48 83 C4 20        add         rsp,20h
  0000000010104663: 0F B7 05 F4 E6 FF  movzx       eax,word ptr [0000000010102D5Eh]
                    FF
  000000001010466A: 66 83 F8 3D        cmp         ax,3Dh
  000000001010466E: 0F 85 1E 00 00 00  jne         0000000010104692
  0000000010104674: 48 83 EC 20        sub         rsp,20h
  0000000010104678: E8 53 EA FF FF     call        00000000101030D0
  000000001010467D: 48 83 C4 20        add         rsp,20h
  0000000010104681: B8 2A 00 00 00     mov         eax,2Ah
  0000000010104686: 48 8B 4D 10        mov         rcx,qword ptr [rbp+10h]
  000000001010468A: 48 89 01           mov         qword ptr [rcx],rax
  000000001010468D: E9 0C 00 00 00     jmp         000000001010469E
  0000000010104692: B8 29 00 00 00     mov         eax,29h
  0000000010104697: 48 8B 4D 10        mov         rcx,qword ptr [rbp+10h]
  000000001010469B: 48 89 01           mov         qword ptr [rcx],rax
  000000001010469E: E9 30 01 00 00     jmp         00000000101047D3
  00000000101046A3: 0F B7 05 B4 E6 FF  movzx       eax,word ptr [0000000010102D5Eh]
                    FF
  00000000101046AA: 66 83 F8 3B        cmp         ax,3Bh
  00000000101046AE: 0F 85 1E 00 00 00  jne         00000000101046D2
  00000000101046B4: 48 83 EC 20        sub         rsp,20h
  00000000101046B8: E8 13 EA FF FF     call        00000000101030D0
  00000000101046BD: 48 83 C4 20        add         rsp,20h
  00000000101046C1: B8 34 00 00 00     mov         eax,34h
  00000000101046C6: 48 8B 4D 10        mov         rcx,qword ptr [rbp+10h]
  00000000101046CA: 48 89 01           mov         qword ptr [rcx],rax
  00000000101046CD: E9 01 01 00 00     jmp         00000000101047D3
  00000000101046D2: 0F B7 05 85 E6 FF  movzx       eax,word ptr [0000000010102D5Eh]
                    FF
  00000000101046D9: 66 83 F8 3C        cmp         ax,3Ch
  00000000101046DD: 0F 85 4D 00 00 00  jne         0000000010104730
  00000000101046E3: 48 83 EC 20        sub         rsp,20h
  00000000101046E7: E8 E4 E9 FF FF     call        00000000101030D0
  00000000101046EC: 48 83 C4 20        add         rsp,20h
  00000000101046F0: 0F B7 05 67 E6 FF  movzx       eax,word ptr [0000000010102D5Eh]
                    FF
  00000000101046F7: 66 83 F8 3D        cmp         ax,3Dh
  00000000101046FB: 0F 85 1E 00 00 00  jne         000000001010471F
  0000000010104701: 48 83 EC 20        sub         rsp,20h
  0000000010104705: E8 C6 E9 FF FF     call        00000000101030D0
  000000001010470A: 48 83 C4 20        add         rsp,20h
  000000001010470E: B8 0C 00 00 00     mov         eax,0Ch
  0000000010104713: 48 8B 4D 10        mov         rcx,qword ptr [rbp+10h]
  0000000010104717: 48 89 01           mov         qword ptr [rcx],rax
  000000001010471A: E9 0C 00 00 00     jmp         000000001010472B
  000000001010471F: B8 0B 00 00 00     mov         eax,0Bh
  0000000010104724: 48 8B 4D 10        mov         rcx,qword ptr [rbp+10h]
  0000000010104728: 48 89 01           mov         qword ptr [rcx],rax
  000000001010472B: E9 A3 00 00 00     jmp         00000000101047D3
  0000000010104730: 0F B7 05 27 E6 FF  movzx       eax,word ptr [0000000010102D5Eh]
                    FF
  0000000010104737: 66 83 F8 3D        cmp         ax,3Dh
  000000001010473B: 0F 85 1E 00 00 00  jne         000000001010475F
  0000000010104741: 48 83 EC 20        sub         rsp,20h
  0000000010104745: E8 86 E9 FF FF     call        00000000101030D0
  000000001010474A: 48 83 C4 20        add         rsp,20h
  000000001010474E: B8 09 00 00 00     mov         eax,9
  0000000010104753: 48 8B 4D 10        mov         rcx,qword ptr [rbp+10h]
  0000000010104757: 48 89 01           mov         qword ptr [rcx],rax
  000000001010475A: E9 74 00 00 00     jmp         00000000101047D3
  000000001010475F: 0F B7 05 F8 E5 FF  movzx       eax,word ptr [0000000010102D5Eh]
                    FF
  0000000010104766: 66 83 F8 3E        cmp         ax,3Eh
  000000001010476A: 0F 85 4D 00 00 00  jne         00000000101047BD
  0000000010104770: 48 83 EC 20        sub         rsp,20h
  0000000010104774: E8 57 E9 FF FF     call        00000000101030D0
  0000000010104779: 48 83 C4 20        add         rsp,20h
  000000001010477D: 0F B7 05 DA E5 FF  movzx       eax,word ptr [0000000010102D5Eh]
                    FF
  0000000010104784: 66 83 F8 3D        cmp         ax,3Dh
  0000000010104788: 0F 85 1E 00 00 00  jne         00000000101047AC
  000000001010478E: 48 83 EC 20        sub         rsp,20h
  0000000010104792: E8 39 E9 FF FF     call        00000000101030D0
  0000000010104797: 48 83 C4 20        add         rsp,20h
  000000001010479B: B8 0E 00 00 00     mov         eax,0Eh
  00000000101047A0: 48 8B 4D 10        mov         rcx,qword ptr [rbp+10h]
  00000000101047A4: 48 89 01           mov         qword ptr [rcx],rax
  00000000101047A7: E9 0C 00 00 00     jmp         00000000101047B8
  00000000101047AC: B8 0D 00 00 00     mov         eax,0Dh
  00000000101047B1: 48 8B 4D 10        mov         rcx,qword ptr [rbp+10h]
  00000000101047B5: 48 89 01           mov         qword ptr [rcx],rax
  00000000101047B8: E9 16 00 00 00     jmp         00000000101047D3
  00000000101047BD: 48 83 EC 20        sub         rsp,20h
  00000000101047C1: E8 0A E9 FF FF     call        00000000101030D0
  00000000101047C6: 48 83 C4 20        add         rsp,20h
  00000000101047CA: 31 C0              xor         eax,eax
  00000000101047CC: 48 8B 4D 10        mov         rcx,qword ptr [rbp+10h]
  00000000101047D0: 48 89 01           mov         qword ptr [rcx],rax
  00000000101047D3: E9 C7 01 00 00     jmp         000000001010499F
  00000000101047D8: 0F B7 05 7F E5 FF  movzx       eax,word ptr [0000000010102D5Eh]
                    FF
  00000000101047DF: 66 83 F8 5B        cmp         ax,5Bh
  00000000101047E3: 0F 83 16 00 00 00  jae         00000000101047FF
  00000000101047E9: 48 83 EC 20        sub         rsp,20h
  00000000101047ED: 48 8B 4D 10        mov         rcx,qword ptr [rbp+10h]
  00000000101047F1: E8 60 E9 FF FF     call        0000000010103156
  00000000101047F6: 48 83 C4 20        add         rsp,20h
  00000000101047FA: E9 A0 01 00 00     jmp         000000001010499F
  00000000101047FF: 0F B7 05 58 E5 FF  movzx       eax,word ptr [0000000010102D5Eh]
                    FF
  0000000010104806: 66 83 F8 61        cmp         ax,61h
  000000001010480A: 0F 83 A8 00 00 00  jae         00000000101048B8
  0000000010104810: 0F B7 05 47 E5 FF  movzx       eax,word ptr [0000000010102D5Eh]
                    FF
  0000000010104817: 66 83 F8 5B        cmp         ax,5Bh
  000000001010481B: 0F 85 11 00 00 00  jne         0000000010104832
  0000000010104821: B8 1D 00 00 00     mov         eax,1Dh
  0000000010104826: 48 8B 4D 10        mov         rcx,qword ptr [rbp+10h]
  000000001010482A: 48 89 01           mov         qword ptr [rcx],rax
  000000001010482D: E9 74 00 00 00     jmp         00000000101048A6
  0000000010104832: 0F B7 05 25 E5 FF  movzx       eax,word ptr [0000000010102D5Eh]
                    FF
  0000000010104839: 66 83 F8 5D        cmp         ax,5Dh
  000000001010483D: 0F 85 11 00 00 00  jne         0000000010104854
  0000000010104843: B8 2D 00 00 00     mov         eax,2Dh
  0000000010104848: 48 8B 4D 10        mov         rcx,qword ptr [rbp+10h]
  000000001010484C: 48 89 01           mov         qword ptr [rcx],rax
  000000001010484F: E9 52 00 00 00     jmp         00000000101048A6
  0000000010104854: 0F B7 05 03 E5 FF  movzx       eax,word ptr [0000000010102D5Eh]
                    FF
  000000001010485B: 66 83 F8 5E        cmp         ax,5Eh
  000000001010485F: 0F 85 11 00 00 00  jne         0000000010104876
  0000000010104865: B8 11 00 00 00     mov         eax,11h
  000000001010486A: 48 8B 4D 10        mov         rcx,qword ptr [rbp+10h]
  000000001010486E: 48 89 01           mov         qword ptr [rcx],rax
  0000000010104871: E9 30 00 00 00     jmp         00000000101048A6
  0000000010104876: 0F B7 05 E1 E4 FF  movzx       eax,word ptr [0000000010102D5Eh]
                    FF
  000000001010487D: 66 83 F8 5F        cmp         ax,5Fh
  0000000010104881: 0F 85 16 00 00 00  jne         000000001010489D
  0000000010104887: 48 83 EC 20        sub         rsp,20h
  000000001010488B: 48 8B 4D 10        mov         rcx,qword ptr [rbp+10h]
  000000001010488F: E8 C2 E8 FF FF     call        0000000010103156
  0000000010104894: 48 83 C4 20        add         rsp,20h
  0000000010104898: E9 09 00 00 00     jmp         00000000101048A6
  000000001010489D: 31 C0              xor         eax,eax
  000000001010489F: 48 8B 4D 10        mov         rcx,qword ptr [rbp+10h]
  00000000101048A3: 48 89 01           mov         qword ptr [rcx],rax
  00000000101048A6: 48 83 EC 20        sub         rsp,20h
  00000000101048AA: E8 21 E8 FF FF     call        00000000101030D0
  00000000101048AF: 48 83 C4 20        add         rsp,20h
  00000000101048B3: E9 E7 00 00 00     jmp         000000001010499F
  00000000101048B8: 0F B7 05 9F E4 FF  movzx       eax,word ptr [0000000010102D5Eh]
                    FF
  00000000101048BF: 66 83 F8 7B        cmp         ax,7Bh
  00000000101048C3: 0F 83 16 00 00 00  jae         00000000101048DF
  00000000101048C9: 48 83 EC 20        sub         rsp,20h
  00000000101048CD: 48 8B 4D 10        mov         rcx,qword ptr [rbp+10h]
  00000000101048D1: E8 80 E8 FF FF     call        0000000010103156
  00000000101048D6: 48 83 C4 20        add         rsp,20h
  00000000101048DA: E9 C0 00 00 00     jmp         000000001010499F
  00000000101048DF: 0F B7 05 78 E4 FF  movzx       eax,word ptr [0000000010102D5Eh]
                    FF
  00000000101048E6: 66 83 F8 7B        cmp         ax,7Bh
  00000000101048EA: 0F 85 11 00 00 00  jne         0000000010104901
  00000000101048F0: B8 1E 00 00 00     mov         eax,1Eh
  00000000101048F5: 48 8B 4D 10        mov         rcx,qword ptr [rbp+10h]
  00000000101048F9: 48 89 01           mov         qword ptr [rcx],rax
  00000000101048FC: E9 91 00 00 00     jmp         0000000010104992
  0000000010104901: 0F B7 05 56 E4 FF  movzx       eax,word ptr [0000000010102D5Eh]
                    FF
  0000000010104908: 66 83 F8 7D        cmp         ax,7Dh
  000000001010490C: 0F 85 11 00 00 00  jne         0000000010104923
  0000000010104912: B8 2E 00 00 00     mov         eax,2Eh
  0000000010104917: 48 8B 4D 10        mov         rcx,qword ptr [rbp+10h]
  000000001010491B: 48 89 01           mov         qword ptr [rcx],rax
  000000001010491E: E9 6F 00 00 00     jmp         0000000010104992
  0000000010104923: 0F B7 05 34 E4 FF  movzx       eax,word ptr [0000000010102D5Eh]
                    FF
  000000001010492A: 66 83 F8 7C        cmp         ax,7Ch
  000000001010492E: 0F 85 11 00 00 00  jne         0000000010104945
  0000000010104934: B8 36 00 00 00     mov         eax,36h
  0000000010104939: 48 8B 4D 10        mov         rcx,qword ptr [rbp+10h]
  000000001010493D: 48 89 01           mov         qword ptr [rcx],rax
  0000000010104940: E9 4D 00 00 00     jmp         0000000010104992
  0000000010104945: 0F B7 05 12 E4 FF  movzx       eax,word ptr [0000000010102D5Eh]
                    FF
  000000001010494C: 66 83 F8 7E        cmp         ax,7Eh
  0000000010104950: 0F 85 11 00 00 00  jne         0000000010104967
  0000000010104956: B8 1B 00 00 00     mov         eax,1Bh
  000000001010495B: 48 8B 4D 10        mov         rcx,qword ptr [rbp+10h]
  000000001010495F: 48 89 01           mov         qword ptr [rcx],rax
  0000000010104962: E9 2B 00 00 00     jmp         0000000010104992
  0000000010104967: 0F B7 05 F0 E3 FF  movzx       eax,word ptr [0000000010102D5Eh]
                    FF
  000000001010496E: 66 83 F8 7F        cmp         ax,7Fh
  0000000010104972: 0F 85 11 00 00 00  jne         0000000010104989
  0000000010104978: B8 2B 00 00 00     mov         eax,2Bh
  000000001010497D: 48 8B 4D 10        mov         rcx,qword ptr [rbp+10h]
  0000000010104981: 48 89 01           mov         qword ptr [rcx],rax
  0000000010104984: E9 09 00 00 00     jmp         0000000010104992
  0000000010104989: 31 C0              xor         eax,eax
  000000001010498B: 48 8B 4D 10        mov         rcx,qword ptr [rbp+10h]
  000000001010498F: 48 89 01           mov         qword ptr [rcx],rax
  0000000010104992: 48 83 EC 20        sub         rsp,20h
  0000000010104996: E8 35 E7 FF FF     call        00000000101030D0
  000000001010499B: 48 83 C4 20        add         rsp,20h
  000000001010499F: 48 8B 45 10        mov         rax,qword ptr [rbp+10h]
  00000000101049A3: 48 8B 00           mov         rax,qword ptr [rax]
  00000000101049A6: 48 85 C0           test        rax,rax
  00000000101049A9: 0F 85 0F 00 00 00  jne         00000000101049BE
  00000000101049AF: 0F B6 05 A7 E3 FF  movzx       eax,byte ptr [0000000010102D5Dh]
                    FF
  00000000101049B6: 85 C0              test        eax,eax
  00000000101049B8: 0F 84 29 F9 FF FF  je          00000000101042E7
  00000000101049BE: C9                 leave
  00000000101049BF: C3                 ret
  00000000101049C0: 55                 push        rbp
  00000000101049C1: 48 8B EC           mov         rbp,rsp
  00000000101049C4: 56                 push        rsi
  00000000101049C5: 57                 push        rdi
  00000000101049C6: 48 89 4D 10        mov         qword ptr [rbp+10h],rcx
  00000000101049CA: 48 89 55 18        mov         qword ptr [rbp+18h],rdx
  00000000101049CE: 48 8B 45 18        mov         rax,qword ptr [rbp+18h]
  00000000101049D2: 48 89 05 77 E3 FF  mov         qword ptr [0000000010102D50h],rax
                    FF
  00000000101049D9: 31 C0              xor         eax,eax
  00000000101049DB: 48 89 05 7E E3 FF  mov         qword ptr [0000000010102D60h],rax
                    FF
  00000000101049E2: 48 8D 3D 5F E3 FF  lea         rdi,[0000000010102D48h]
                    FF
  00000000101049E9: 48 8B 75 10        mov         rsi,qword ptr [rbp+10h]
  00000000101049ED: B9 01 00 00 00     mov         ecx,1
  00000000101049F2: F3 48 A5           rep movs    qword ptr [rdi],qword ptr [rsi]
  00000000101049F5: 48 83 EC 20        sub         rsp,20h
  00000000101049F9: 48 8B 4D 10        mov         rcx,qword ptr [rbp+10h]
  00000000101049FD: 48 8B 55 18        mov         rdx,qword ptr [rbp+18h]
  0000000010104A01: FF 15 49 CC EF FF  call        qword ptr [0000000010001650h]
  0000000010104A07: 48 83 C4 20        add         rsp,20h
  0000000010104A0B: 48 8B 45 18        mov         rax,qword ptr [rbp+18h]
  0000000010104A0F: 48 89 05 22 D0 EF  mov         qword ptr [0000000010001A38h],rax
                    FF
  0000000010104A16: 31 C0              xor         eax,eax
  0000000010104A18: 48 89 05 29 D0 EF  mov         qword ptr [0000000010001A48h],rax
                    FF
  0000000010104A1F: 48 83 EC 20        sub         rsp,20h
  0000000010104A23: 48 8B 4D 10        mov         rcx,qword ptr [rbp+10h]
  0000000010104A27: 48 8D 15 22 D0 EF  lea         rdx,[0000000010001A50h]
                    FF
  0000000010104A2E: 41 B8 00 00 10 00  mov         r8d,100000h
  0000000010104A34: 4C 8D 0D F5 CF EF  lea         r9,[0000000010001A30h]
                    FF
  0000000010104A3B: FF 15 07 CC EF FF  call        qword ptr [0000000010001648h]
  0000000010104A41: 48 83 C4 20        add         rsp,20h
  0000000010104A45: 48 83 EC 20        sub         rsp,20h
  0000000010104A49: E8 82 E6 FF FF     call        00000000101030D0
  0000000010104A4E: 48 83 C4 20        add         rsp,20h
  0000000010104A52: 5F                 pop         rdi
  0000000010104A53: 5E                 pop         rsi
  0000000010104A54: C9                 leave
  0000000010104A55: C3                 ret
  0000000010104A56: 55                 push        rbp
  0000000010104A57: 48 8B EC           mov         rbp,rsp
  0000000010104A5A: 48 89 4D 10        mov         qword ptr [rbp+10h],rcx
  0000000010104A5E: 48 8B 45 10        mov         rax,qword ptr [rbp+10h]
  0000000010104A62: 48 89 05 BF CF EF  mov         qword ptr [0000000010001A28h],rax
                    FF
  0000000010104A69: C9                 leave
  0000000010104A6A: C3                 ret
  0000000010104A6B: 55                 push        rbp
  0000000010104A6C: 48 8B EC           mov         rbp,rsp
  0000000010104A6F: 56                 push        rsi
  0000000010104A70: 57                 push        rdi
  0000000010104A71: 48 89 4D 10        mov         qword ptr [rbp+10h],rcx
  0000000010104A75: 48 89 55 18        mov         qword ptr [rbp+18h],rdx
  0000000010104A79: 48 8B 05 C0 E2 FF  mov         rax,qword ptr [0000000010102D40h]
                    FF
  0000000010104A80: 48 83 F8 23        cmp         rax,23h
  0000000010104A84: 0F 83 05 00 00 00  jae         0000000010104A8F
  0000000010104A8A: E9 08 00 00 00     jmp         0000000010104A97
  0000000010104A8F: B0 01              mov         al,1
  0000000010104A91: B9 80 2A 00 00     mov         ecx,2A80h
  0000000010104A96: CC                 int         3
  0000000010104A97: 48 69 C0 88 00 00  imul        rax,rax,88h
                    00
  0000000010104A9E: 48 8D 0D AB CF FF  lea         rcx,[0000000010101A50h]
                    FF
  0000000010104AA5: 48 03 C1           add         rax,rcx
  0000000010104AA8: 48 8B F8           mov         rdi,rax
  0000000010104AAB: 48 83 C7 08        add         rdi,8
  0000000010104AAF: 48 8B 75 18        mov         rsi,qword ptr [rbp+18h]
  0000000010104AB3: B9 10 00 00 00     mov         ecx,10h
  0000000010104AB8: F3 48 A5           rep movs    qword ptr [rdi],qword ptr [rsi]
  0000000010104ABB: 48 8B 05 7E E2 FF  mov         rax,qword ptr [0000000010102D40h]
                    FF
  0000000010104AC2: 48 83 F8 23        cmp         rax,23h
  0000000010104AC6: 0F 83 05 00 00 00  jae         0000000010104AD1
  0000000010104ACC: E9 08 00 00 00     jmp         0000000010104AD9
  0000000010104AD1: B0 01              mov         al,1
  0000000010104AD3: B9 96 2A 00 00     mov         ecx,2A96h
  0000000010104AD8: CC                 int         3
  0000000010104AD9: 48 69 C0 88 00 00  imul        rax,rax,88h
                    00
  0000000010104AE0: 48 8D 0D 69 CF FF  lea         rcx,[0000000010101A50h]
                    FF
  0000000010104AE7: 48 03 C1           add         rax,rcx
  0000000010104AEA: 48 8B 4D 10        mov         rcx,qword ptr [rbp+10h]
  0000000010104AEE: 48 89 08           mov         qword ptr [rax],rcx
  0000000010104AF1: 48 83 05 47 E2 FF  add         qword ptr [0000000010102D40h],1
                    FF 01
  0000000010104AF9: 5F                 pop         rdi
  0000000010104AFA: 5E                 pop         rsi
  0000000010104AFB: C9                 leave
  0000000010104AFC: C3                 ret
  0000000010104AFD: 55                 push        rbp
  0000000010104AFE: 48 8B EC           mov         rbp,rsp
  0000000010104B01: 31 C0              xor         eax,eax
  0000000010104B03: 48 89 05 36 E2 FF  mov         qword ptr [0000000010102D40h],rax
                    FF
  0000000010104B0A: 31 C0              xor         eax,eax
  0000000010104B0C: 48 89 05 D5 E1 FF  mov         qword ptr [0000000010102CE8h],rax
                    FF
  0000000010104B13: 31 C0              xor         eax,eax
  0000000010104B15: 48 89 05 D4 E1 FF  mov         qword ptr [0000000010102CF0h],rax
                    FF
  0000000010104B1C: 48 83 EC 20        sub         rsp,20h
  0000000010104B20: B9 20 00 00 00     mov         ecx,20h
  0000000010104B25: 48 8D 15 16 CB EF  lea         rdx,[0000000010001642h]
                    FF
  0000000010104B2C: E8 3A FF FF FF     call        0000000010104A6B
  0000000010104B31: 48 83 C4 20        add         rsp,20h
  0000000010104B35: 48 83 EC 20        sub         rsp,20h
  0000000010104B39: B9 31 00 00 00     mov         ecx,31h
  0000000010104B3E: 48 8D 15 F7 CA EF  lea         rdx,[000000001000163Ch]
                    FF
  0000000010104B45: E8 21 FF FF FF     call        0000000010104A6B
  0000000010104B4A: 48 83 C4 20        add         rsp,20h
  0000000010104B4E: 48 83 EC 20        sub         rsp,20h
  0000000010104B52: B9 30 00 00 00     mov         ecx,30h
  0000000010104B57: 48 8D 15 D8 CA EF  lea         rdx,[0000000010001636h]
                    FF
  0000000010104B5E: E8 08 FF FF FF     call        0000000010104A6B
  0000000010104B63: 48 83 C4 20        add         rsp,20h
  0000000010104B67: 48 83 EC 20        sub         rsp,20h
  0000000010104B6B: B9 08 00 00 00     mov         ecx,8
  0000000010104B70: 48 8D 15 B9 CA EF  lea         rdx,[0000000010001630h]
                    FF
  0000000010104B77: E8 EF FE FF FF     call        0000000010104A6B
  0000000010104B7C: 48 83 C4 20        add         rsp,20h
  0000000010104B80: 48 83 EC 20        sub         rsp,20h
  0000000010104B84: B9 32 00 00 00     mov         ecx,32h
  0000000010104B89: 48 8D 15 9A CA EF  lea         rdx,[000000001000162Ah]
                    FF
  0000000010104B90: E8 D6 FE FF FF     call        0000000010104A6B
  0000000010104B95: 48 83 C4 20        add         rsp,20h
  0000000010104B99: 48 83 EC 20        sub         rsp,20h
  0000000010104B9D: B9 0F 00 00 00     mov         ecx,0Fh
  0000000010104BA2: 48 8D 15 7B CA EF  lea         rdx,[0000000010001624h]
                    FF
  0000000010104BA9: E8 BD FE FF FF     call        0000000010104A6B
  0000000010104BAE: 48 83 C4 20        add         rsp,20h
  0000000010104BB2: 48 83 EC 20        sub         rsp,20h
  0000000010104BB6: B9 10 00 00 00     mov         ecx,10h
  0000000010104BBB: 48 8D 15 5C CA EF  lea         rdx,[000000001000161Eh]
                    FF
  0000000010104BC2: E8 A4 FE FF FF     call        0000000010104A6B
  0000000010104BC7: 48 83 C4 20        add         rsp,20h
  0000000010104BCB: 48 83 EC 20        sub         rsp,20h
  0000000010104BCF: B9 33 00 00 00     mov         ecx,33h
  0000000010104BD4: 48 8D 15 3D CA EF  lea         rdx,[0000000010001618h]
                    FF
  0000000010104BDB: E8 8B FE FF FF     call        0000000010104A6B
  0000000010104BE0: 48 83 C4 20        add         rsp,20h
  0000000010104BE4: 48 8B 05 55 E1 FF  mov         rax,qword ptr [0000000010102D40h]
                    FF
  0000000010104BEB: 48 89 05 06 E1 FF  mov         qword ptr [0000000010102CF8h],rax
                    FF
  0000000010104BF2: 48 83 EC 20        sub         rsp,20h
  0000000010104BF6: B9 35 00 00 00     mov         ecx,35h
  0000000010104BFB: 48 8D 15 0E CA EF  lea         rdx,[0000000010001610h]
                    FF
  0000000010104C02: E8 64 FE FF FF     call        0000000010104A6B
  0000000010104C07: 48 83 C4 20        add         rsp,20h
  0000000010104C0B: 48 83 EC 20        sub         rsp,20h
  0000000010104C0F: B9 19 00 00 00     mov         ecx,19h
  0000000010104C14: 48 8D 15 ED C9 EF  lea         rdx,[0000000010001608h]
                    FF
  0000000010104C1B: E8 4B FE FF FF     call        0000000010104A6B
  0000000010104C20: 48 83 C4 20        add         rsp,20h
  0000000010104C24: 48 83 EC 20        sub         rsp,20h
  0000000010104C28: B9 48 00 00 00     mov         ecx,48h
  0000000010104C2D: 48 8D 15 CC C9 EF  lea         rdx,[0000000010001600h]
                    FF
  0000000010104C34: E8 32 FE FF FF     call        0000000010104A6B
  0000000010104C39: 48 83 C4 20        add         rsp,20h
  0000000010104C3D: 48 83 EC 20        sub         rsp,20h
  0000000010104C41: B9 03 00 00 00     mov         ecx,3
  0000000010104C46: 48 8D 15 AB C9 EF  lea         rdx,[00000000100015F8h]
                    FF
  0000000010104C4D: E8 19 FE FF FF     call        0000000010104A6B
  0000000010104C52: 48 83 C4 20        add         rsp,20h
  0000000010104C56: 48 83 EC 20        sub         rsp,20h
  0000000010104C5A: B9 04 00 00 00     mov         ecx,4
  0000000010104C5F: 48 8D 15 8A C9 EF  lea         rdx,[00000000100015F0h]
                    FF
  0000000010104C66: E8 00 FE FF FF     call        0000000010104A6B
  0000000010104C6B: 48 83 C4 20        add         rsp,20h
  0000000010104C6F: 48 83 EC 20        sub         rsp,20h
  0000000010104C73: B9 25 00 00 00     mov         ecx,25h
  0000000010104C78: 48 8D 15 69 C9 EF  lea         rdx,[00000000100015E8h]
                    FF
  0000000010104C7F: E8 E7 FD FF FF     call        0000000010104A6B
  0000000010104C84: 48 83 C4 20        add         rsp,20h
  0000000010104C88: 48 8B 05 B1 E0 FF  mov         rax,qword ptr [0000000010102D40h]
                    FF
  0000000010104C8F: 48 89 05 6A E0 FF  mov         qword ptr [0000000010102D00h],rax
                    FF
  0000000010104C96: 48 83 EC 20        sub         rsp,20h
  0000000010104C9A: B9 37 00 00 00     mov         ecx,37h
  0000000010104C9F: 48 8D 15 38 C9 EF  lea         rdx,[00000000100015DEh]
                    FF
  0000000010104CA6: E8 C0 FD FF FF     call        0000000010104A6B
  0000000010104CAB: 48 83 C4 20        add         rsp,20h
  0000000010104CAF: 48 83 EC 20        sub         rsp,20h
  0000000010104CB3: B9 2F 00 00 00     mov         ecx,2Fh
  0000000010104CB8: 48 8D 15 15 C9 EF  lea         rdx,[00000000100015D4h]
                    FF
  0000000010104CBF: E8 A7 FD FF FF     call        0000000010104A6B
  0000000010104CC4: 48 83 C4 20        add         rsp,20h
  0000000010104CC8: 48 83 EC 20        sub         rsp,20h
  0000000010104CCC: B9 18 00 00 00     mov         ecx,18h
  0000000010104CD1: 48 8D 15 F2 C8 EF  lea         rdx,[00000000100015CAh]
                    FF
  0000000010104CD8: E8 8E FD FF FF     call        0000000010104A6B
  0000000010104CDD: 48 83 C4 20        add         rsp,20h
  0000000010104CE1: 48 83 EC 20        sub         rsp,20h
  0000000010104CE5: B9 47 00 00 00     mov         ecx,47h
  0000000010104CEA: 48 8D 15 CF C8 EF  lea         rdx,[00000000100015C0h]
                    FF
  0000000010104CF1: E8 75 FD FF FF     call        0000000010104A6B
  0000000010104CF6: 48 83 C4 20        add         rsp,20h
  0000000010104CFA: 48 83 EC 20        sub         rsp,20h
  0000000010104CFE: B9 24 00 00 00     mov         ecx,24h
  0000000010104D03: 48 8D 15 AC C8 EF  lea         rdx,[00000000100015B6h]
                    FF
  0000000010104D0A: E8 5C FD FF FF     call        0000000010104A6B
  0000000010104D0F: 48 83 C4 20        add         rsp,20h
  0000000010104D13: 48 8B 05 26 E0 FF  mov         rax,qword ptr [0000000010102D40h]
                    FF
  0000000010104D1A: 48 89 05 E7 DF FF  mov         qword ptr [0000000010102D08h],rax
                    FF
  0000000010104D21: 48 83 EC 20        sub         rsp,20h
  0000000010104D25: B9 38 00 00 00     mov         ecx,38h
  0000000010104D2A: 48 8D 15 79 C8 EF  lea         rdx,[00000000100015AAh]
                    FF
  0000000010104D31: E8 35 FD FF FF     call        0000000010104A6B
  0000000010104D36: 48 83 C4 20        add         rsp,20h
  0000000010104D3A: 48 83 EC 20        sub         rsp,20h
  0000000010104D3E: B9 17 00 00 00     mov         ecx,17h
  0000000010104D43: 48 8D 15 54 C8 EF  lea         rdx,[000000001000159Eh]
                    FF
  0000000010104D4A: E8 1C FD FF FF     call        0000000010104A6B
  0000000010104D4F: 48 83 C4 20        add         rsp,20h
  0000000010104D53: 48 83 EC 20        sub         rsp,20h
  0000000010104D57: B9 3C 00 00 00     mov         ecx,3Ch
  0000000010104D5C: 48 8D 15 2F C8 EF  lea         rdx,[0000000010001592h]
                    FF
  0000000010104D63: E8 03 FD FF FF     call        0000000010104A6B
  0000000010104D68: 48 83 C4 20        add         rsp,20h
  0000000010104D6C: 48 83 EC 20        sub         rsp,20h
  0000000010104D70: B9 4A 00 00 00     mov         ecx,4Ah
  0000000010104D75: 48 8D 15 0A C8 EF  lea         rdx,[0000000010001586h]
                    FF
  0000000010104D7C: E8 EA FC FF FF     call        0000000010104A6B
  0000000010104D81: 48 83 C4 20        add         rsp,20h
  0000000010104D85: 48 83 EC 20        sub         rsp,20h
  0000000010104D89: B9 46 00 00 00     mov         ecx,46h
  0000000010104D8E: 48 8D 15 E5 C7 EF  lea         rdx,[000000001000157Ah]
                    FF
  0000000010104D95: E8 D1 FC FF FF     call        0000000010104A6B
  0000000010104D9A: 48 83 C4 20        add         rsp,20h
  0000000010104D9E: 48 83 EC 20        sub         rsp,20h
  0000000010104DA2: B9 39 00 00 00     mov         ecx,39h
  0000000010104DA7: 48 8D 15 C0 C7 EF  lea         rdx,[000000001000156Eh]
                    FF
  0000000010104DAE: E8 B8 FC FF FF     call        0000000010104A6B
  0000000010104DB3: 48 83 C4 20        add         rsp,20h
  0000000010104DB7: 48 83 EC 20        sub         rsp,20h
  0000000010104DBB: B9 22 00 00 00     mov         ecx,22h
  0000000010104DC0: 48 8D 15 9B C7 EF  lea         rdx,[0000000010001562h]
                    FF
  0000000010104DC7: E8 9F FC FF FF     call        0000000010104A6B
  0000000010104DCC: 48 83 C4 20        add         rsp,20h
  0000000010104DD0: 48 8B 05 69 DF FF  mov         rax,qword ptr [0000000010102D40h]
                    FF
  0000000010104DD7: 48 89 05 32 DF FF  mov         qword ptr [0000000010102D10h],rax
                    FF
  0000000010104DDE: 48 83 EC 20        sub         rsp,20h
  0000000010104DE2: B9 3D 00 00 00     mov         ecx,3Dh
  0000000010104DE7: 48 8D 15 66 C7 EF  lea         rdx,[0000000010001554h]
                    FF
  0000000010104DEE: E8 78 FC FF FF     call        0000000010104A6B
  0000000010104DF3: 48 83 C4 20        add         rsp,20h
  0000000010104DF7: 48 83 EC 20        sub         rsp,20h
  0000000010104DFB: B9 23 00 00 00     mov         ecx,23h
  0000000010104E00: 48 8D 15 3F C7 EF  lea         rdx,[0000000010001546h]
                    FF
  0000000010104E07: E8 5F FC FF FF     call        0000000010104A6B
  0000000010104E0C: 48 83 C4 20        add         rsp,20h
  0000000010104E10: 48 83 EC 20        sub         rsp,20h
  0000000010104E14: B9 3A 00 00 00     mov         ecx,3Ah
  0000000010104E19: 48 8D 15 18 C7 EF  lea         rdx,[0000000010001538h]
                    FF
  0000000010104E20: E8 46 FC FF FF     call        0000000010104A6B
  0000000010104E25: 48 83 C4 20        add         rsp,20h
  0000000010104E29: 48 83 EC 20        sub         rsp,20h
  0000000010104E2D: B9 4C 00 00 00     mov         ecx,4Ch
  0000000010104E32: 48 8D 15 F1 C6 EF  lea         rdx,[000000001000152Ah]
                    FF
  0000000010104E39: E8 2D FC FF FF     call        0000000010104A6B
  0000000010104E3E: 48 83 C4 20        add         rsp,20h
  0000000010104E42: 48 83 EC 20        sub         rsp,20h
  0000000010104E46: B9 4D 00 00 00     mov         ecx,4Dh
  0000000010104E4B: 48 8D 15 CA C6 EF  lea         rdx,[000000001000151Ch]
                    FF
  0000000010104E52: E8 14 FC FF FF     call        0000000010104A6B
  0000000010104E57: 48 83 C4 20        add         rsp,20h
  0000000010104E5B: 48 8B 05 DE DE FF  mov         rax,qword ptr [0000000010102D40h]
                    FF
  0000000010104E62: 48 89 05 AF DE FF  mov         qword ptr [0000000010102D18h],rax
                    FF
  0000000010104E69: 48 83 EC 20        sub         rsp,20h
  0000000010104E6D: B9 3E 00 00 00     mov         ecx,3Eh
  0000000010104E72: 48 8D 15 93 C6 EF  lea         rdx,[000000001000150Ch]
                    FF
  0000000010104E79: E8 ED FB FF FF     call        0000000010104A6B
  0000000010104E7E: 48 83 C4 20        add         rsp,20h
  0000000010104E82: 48 8B 05 B7 DE FF  mov         rax,qword ptr [0000000010102D40h]
                    FF
  0000000010104E89: 48 89 05 90 DE FF  mov         qword ptr [0000000010102D20h],rax
                    FF
  0000000010104E90: 48 8B 05 A9 DE FF  mov         rax,qword ptr [0000000010102D40h]
                    FF
  0000000010104E97: 48 89 05 8A DE FF  mov         qword ptr [0000000010102D28h],rax
                    FF
  0000000010104E9E: 48 83 EC 20        sub         rsp,20h
  0000000010104EA2: B9 49 00 00 00     mov         ecx,49h
  0000000010104EA7: 48 8D 15 4A C6 EF  lea         rdx,[00000000100014F8h]
                    FF
  0000000010104EAE: E8 B8 FB FF FF     call        0000000010104A6B
  0000000010104EB3: 48 83 C4 20        add         rsp,20h
  0000000010104EB7: 48 8B 05 82 DE FF  mov         rax,qword ptr [0000000010102D40h]
                    FF
  0000000010104EBE: 48 89 05 6B DE FF  mov         qword ptr [0000000010102D30h],rax
                    FF
  0000000010104EC5: 48 83 EC 20        sub         rsp,20h
  0000000010104EC9: 31 C9              xor         ecx,ecx
  0000000010104ECB: 48 8D 15 10 C6 EF  lea         rdx,[00000000100014E2h]
                    FF
  0000000010104ED2: E8 94 FB FF FF     call        0000000010104A6B
  0000000010104ED7: 48 83 C4 20        add         rsp,20h
  0000000010104EDB: 48 8B 05 5E DE FF  mov         rax,qword ptr [0000000010102D40h]
                    FF
  0000000010104EE2: 48 89 05 4F DE FF  mov         qword ptr [0000000010102D38h],rax
                    FF
  0000000010104EE9: C9                 leave
  0000000010104EEA: C3                 ret
  0000000010104EEB: 83 FA 01           cmp         edx,1
  0000000010104EEE: 0F 84 01 00 00 00  je          0000000010104EF5
  0000000010104EF4: C3                 ret
  0000000010104EF5: 56                 push        rsi
  0000000010104EF6: 57                 push        rdi
  0000000010104EF7: 48 83 EC 28        sub         rsp,28h
  0000000010104EFB: FF 15 FF CA EF FF  call        qword ptr [0000000010001A00h]
  0000000010104F01: 48 89 05 D8 CA EF  mov         qword ptr [00000000100019E0h],rax
                    FF
  0000000010104F08: 48 8D 0D BB C5 EF  lea         rcx,[00000000100014CAh]
                    FF
  0000000010104F0F: FF 15 DB CA EF FF  call        qword ptr [00000000100019F0h]
  0000000010104F15: 48 85 C0           test        rax,rax
  0000000010104F18: 0F 84 05 00 00 00  je          0000000010104F23
  0000000010104F1E: E9 08 00 00 00     jmp         0000000010104F2B
  0000000010104F23: B0 05              mov         al,5
  0000000010104F25: B9 CE 2E 00 00     mov         ecx,2ECEh
  0000000010104F2A: CC                 int         3
  0000000010104F2B: 48 8B F0           mov         rsi,rax
  0000000010104F2E: 48 B8 CD 2C 99 AE  mov         rax,0E4D95F8CAE992CCDh
                    8C 5F D9 E4
  0000000010104F38: 48 3B 86 F0 03 00  cmp         rax,qword ptr [rsi+00000000000003F0h]
                    00
  0000000010104F3F: 0F 85 05 00 00 00  jne         0000000010104F4A
  0000000010104F45: E9 08 00 00 00     jmp         0000000010104F52
  0000000010104F4A: B0 05              mov         al,5
  0000000010104F4C: B9 CE 2E 00 00     mov         ecx,2ECEh
  0000000010104F51: CC                 int         3
  0000000010104F52: 48 B8 15 0D CA 44  mov         rax,2EF2D42744CA0D15h
                    27 D4 F2 2E
  0000000010104F5C: 48 3B 86 F8 03 00  cmp         rax,qword ptr [rsi+00000000000003F8h]
                    00
  0000000010104F63: 0F 85 05 00 00 00  jne         0000000010104F6E
  0000000010104F69: E9 08 00 00 00     jmp         0000000010104F76
  0000000010104F6E: B0 05              mov         al,5
  0000000010104F70: B9 CE 2E 00 00     mov         ecx,2ECEh
  0000000010104F75: CC                 int         3
  0000000010104F76: 48 8B CE           mov         rcx,rsi
  0000000010104F79: BA 1E 00 00 00     mov         edx,1Eh
  0000000010104F7E: FF 15 74 CA EF FF  call        qword ptr [00000000100019F8h]
  0000000010104F84: 48 89 05 A5 C9 EF  mov         qword ptr [0000000010001930h],rax
                    FF
  0000000010104F8B: 48 8B CE           mov         rcx,rsi
  0000000010104F8E: BA 1D 00 00 00     mov         edx,1Dh
  0000000010104F93: FF 15 5F CA EF FF  call        qword ptr [00000000100019F8h]
  0000000010104F99: 48 89 05 80 C9 EF  mov         qword ptr [0000000010001920h],rax
                    FF
  0000000010104FA0: 48 8B CE           mov         rcx,rsi
  0000000010104FA3: BA 1C 00 00 00     mov         edx,1Ch
  0000000010104FA8: FF 15 4A CA EF FF  call        qword ptr [00000000100019F8h]
  0000000010104FAE: 48 89 05 9B C9 EF  mov         qword ptr [0000000010001950h],rax
                    FF
  0000000010104FB5: 48 8B CE           mov         rcx,rsi
  0000000010104FB8: BA 19 00 00 00     mov         edx,19h
  0000000010104FBD: FF 15 35 CA EF FF  call        qword ptr [00000000100019F8h]
  0000000010104FC3: 48 89 05 86 C6 EF  mov         qword ptr [0000000010001650h],rax
                    FF
  0000000010104FCA: 48 8B CE           mov         rcx,rsi
  0000000010104FCD: BA 0F 00 00 00     mov         edx,0Fh
  0000000010104FD2: FF 15 20 CA EF FF  call        qword ptr [00000000100019F8h]
  0000000010104FD8: 48 89 05 69 C6 EF  mov         qword ptr [0000000010001648h],rax
                    FF
  0000000010104FDF: E8 19 FB FF FF     call        0000000010104AFD
  0000000010104FE4: B8 01 00 00 00     mov         eax,1
  0000000010104FE9: 48 83 C4 28        add         rsp,28h
  0000000010104FED: 5F                 pop         rdi
  0000000010104FEE: 5E                 pop         rsi
  0000000010104FEF: C3                 ret

RAW DATA #2
  0000000010103000: 55 48 8B EC 48 8B 05 2D EA EF FF C9 C3 55 48 8B  UH.?H..-êïÿÉ?UH.
  0000000010103010: EC 48 83 EC 10 48 89 4D 10 48 89 55 18 48 8B 05  ?H.?.H.M.H.U.H..
  0000000010103020: 1C EA EF FF 48 89 45 F8 48 8B 45 F8 48 8B 0D 1D  .êïÿH.EøH.EøH...
  0000000010103030: FD FF FF 48 3B C1 0F 8E 83 00 00 00 48 8B 05 1D  ?ÿÿH;Á......H...
  0000000010103040: FD FF FF 48 83 F8 19 0F 8D 72 00 00 00 48 83 EC  ?ÿÿH.ø...r...H.?
  0000000010103050: 20 48 8D 0D E4 E8 EF FF BA 0A 00 00 00 FF 15 ED   H..äèïÿº....ÿ.í
  0000000010103060: E8 EF FF 48 83 C4 20 48 83 EC 20 48 8B 4D F8 FF  èïÿH.Ä H.? H.Møÿ
  0000000010103070: 15 BB E8 EF FF 48 83 C4 20 48 83 EC 20 48 8D 0D  .»èïÿH.Ä H.? H..
  0000000010103080: A6 E8 EF FF BA 03 00 00 00 FF 15 C1 E8 EF FF 48  ¦èïÿº....ÿ.ÁèïÿH
  0000000010103090: 83 C4 20 48 83 EC 20 48 8B 4D 10 48 8B 55 18 FF  .Ä H.? H.M.H.U.ÿ
  00000000101030A0: 15 AB E8 EF FF 48 83 C4 20 48 83 EC 20 FF 15 6D  .«èïÿH.Ä H.? ÿ.m
  00000000101030B0: E8 EF FF 48 83 C4 20 48 83 05 A1 FC FF FF 01 48  èïÿH.Ä H..¡üÿÿ.H
  00000000101030C0: 8B 45 F8 48 83 C0 04 48 89 05 82 FC FF FF C9 C3  .EøH.À.H...üÿÿÉ?
  00000000101030D0: 55 48 8B EC 48 83 EC 10 48 8B 05 69 E9 EF FF 48  UH.?H.?.H..iéïÿH
  00000000101030E0: 8B 0D 4A E9 EF FF 48 3B C1 0F 8D 51 00 00 00 48  ..JéïÿH;Á..Q...H
  00000000101030F0: 8B 05 52 E9 EF FF 48 81 F8 00 00 10 00 0F 83 05  ..RéïÿH.ø.......
  0000000010103100: 00 00 00 E9 08 00 00 00 B0 01 B9 54 0E 00 00 CC  ...é....°.¹T...?
  0000000010103110: 48 8D 0D 39 E9 EF FF 48 03 C1 0F B6 00 48 81 E0  H..9éïÿH.Á.¶.H.à
  0000000010103120: FF 00 00 00 66 89 05 33 FC FF FF 48 83 05 15 E9  ÿ...f..3üÿÿH...é
  0000000010103130: EF FF 01 48 83 05 FD E8 EF FF 01 E9 14 00 00 00  ïÿ.H..?èïÿ.é....
  0000000010103140: B8 01 00 00 00 88 05 12 FC FF FF 31 C0 66 89 05  ¸.......üÿÿ1Àf..
  0000000010103150: 0A FC FF FF C9 C3 55 48 8B EC 48 83 EC 10 56 57  .üÿÿÉ?UH.?H.?.VW
  0000000010103160: 48 89 4D 10 31 C0 48 89 45 F8 48 8B 45 F8 48 83  H.M.1ÀH.EøH.EøH.
  0000000010103170: F8 3F 0F 8D 38 00 00 00 48 8B 45 F8 48 83 F8 40  ø?..8...H.EøH.ø@
  0000000010103180: 0F 83 05 00 00 00 E9 08 00 00 00 B0 01 B9 1D 0F  ......é....°.¹..
  0000000010103190: 00 00 CC 48 C1 E0 01 48 8D 0D CE FD FF FF 48 03  ..?HÁà.H..Î?ÿÿH.
  00000000101031A0: C1 0F B7 0D B6 FB FF FF 66 89 08 48 83 45 F8 01  Á.·.¶ûÿÿf..H.Eø.
  00000000101031B0: 48 83 EC 20 E8 17 FF FF FF 48 83 C4 20 0F B7 05  H.? è.ÿÿÿH.Ä .·.
  00000000101031C0: 9A FB FF FF 66 83 F8 30 0F 82 66 00 00 00 0F B7  .ûÿÿf.ø0..f....·
  00000000101031D0: 05 89 FB FF FF 66 83 F8 39 0F 86 11 00 00 00 0F  ..ûÿÿf.ø9.......
  00000000101031E0: B7 05 78 FB FF FF 66 83 F8 41 0F 82 44 00 00 00  ·.xûÿÿf.øA..D...
  00000000101031F0: 0F B7 05 67 FB FF FF 66 83 F8 5F 0F 84 22 00 00  .·.gûÿÿf.ø_.."..
  0000000010103200: 00 0F B7 05 56 FB FF FF 66 83 F8 5A 0F 86 11 00  ..·.Vûÿÿf.øZ....
  0000000010103210: 00 00 0F B7 05 45 FB FF FF 66 83 F8 61 0F 82 11  ...·.Eûÿÿf.øa...
  0000000010103220: 00 00 00 0F B7 05 34 FB FF FF 66 83 F8 7A 0F 86  ....·.4ûÿÿf.øz..
  0000000010103230: 36 FF FF FF 48 8B 45 F8 48 83 F8 40 0F 83 05 00  6ÿÿÿH.EøH.ø@....
  0000000010103240: 00 00 E9 08 00 00 00 B0 01 B9 A5 0F 00 00 CC 48  ..é....°.¹¥...?H
  0000000010103250: C1 E0 01 48 8D 0D 12 FD FF FF 48 03 C1 31 C9 66  Áà.H...?ÿÿH.Á1Éf
  0000000010103260: 89 08 48 8B 45 F8 48 83 F8 0B 0F 8D 90 01 00 00  ..H.EøH.ø.......
  0000000010103270: 48 8B 45 F8 48 83 E8 01 48 83 F8 0B 0F 83 05 00  H.EøH.è.H.ø.....
  0000000010103280: 00 00 E9 08 00 00 00 B0 01 B9 CD 0F 00 00 CC 48  ..é....°.¹Í...?H
  0000000010103290: C1 E0 03 48 8D 0D 4E FA FF FF 48 03 C1 48 8B 00  Áà.H..NúÿÿH.ÁH..
  00000000101032A0: 48 89 45 F0 48 8B 45 F0 48 83 F8 23 0F 83 05 00  H.E?H.E?H.ø#....
  00000000101032B0: 00 00 E9 08 00 00 00 B0 01 B9 02 10 00 00 CC 48  ..é....°.¹....?H
  00000000101032C0: 69 C0 88 00 00 00 48 8D 0D 83 E7 FF FF 48 03 C1  iÀ....H...çÿÿH.Á
  00000000101032D0: 48 8D 3D 95 FC FF FF 48 8B F0 48 83 C6 08 33 C9  H.=.üÿÿH.?H.Æ.3É
  00000000101032E0: 48 83 F9 40 0F 84 3A 00 00 00 66 83 3E 00 0F 84  H.ù@..:...f.>...
  00000000101032F0: 30 00 00 00 48 83 F9 40 0F 84 3A 00 00 00 66 8B  0...H.ù@..:...f.
  0000000010103300: 17 66 85 D2 0F 84 2E 00 00 00 66 3B 16 0F 85 25  .f.?......f;...%
  0000000010103310: 00 00 00 48 83 C7 02 48 83 C6 02 48 83 C1 01 E9  ...H.Ç.H.Æ.H.Á.é
  0000000010103320: BC FF FF FF 48 83 F9 40 0F 84 4D 00 00 00 66 83  ¼ÿÿÿH.ù@..M...f.
  0000000010103330: 3F 00 0F 84 43 00 00 00 48 8B 45 F0 48 8B 4D F8  ?...C...H.E?H.Mø
  0000000010103340: 48 83 F9 0B 0F 83 05 00 00 00 E9 08 00 00 00 B0  H.ù.......é....°
  0000000010103350: 01 B9 15 10 00 00 CC 48 C1 E1 03 48 8D 15 86 F9  .¹....?HÁá.H...ù
  0000000010103360: FF FF 48 03 CA 48 8B 09 48 3B C1 0F 8D 0A 00 00  ÿÿH.ÊH..H;Á.....
  0000000010103370: 00 48 83 45 F0 01 E9 29 FF FF FF 48 8B 45 F0 48  .H.E?.é)ÿÿÿH.E?H
  0000000010103380: 8B 4D F8 48 83 F9 0B 0F 83 05 00 00 00 E9 08 00  .MøH.ù.......é..
  0000000010103390: 00 00 B0 01 B9 38 10 00 00 CC 48 C1 E1 03 48 8D  ..°.¹8...?HÁá.H.
  00000000101033A0: 15 43 F9 FF FF 48 03 CA 48 8B 09 48 3B C1 0F 8D  .CùÿÿH.ÊH..H;Á..
  00000000101033B0: 3B 00 00 00 48 8B 45 F0 48 83 F8 23 0F 83 05 00  ;...H.E?H.ø#....
  00000000101033C0: 00 00 E9 08 00 00 00 B0 01 B9 4F 10 00 00 CC 48  ..é....°.¹O...?H
  00000000101033D0: 69 C0 88 00 00 00 48 8D 0D 73 E6 FF FF 48 03 C1  iÀ....H..sæÿÿH.Á
  00000000101033E0: 48 8B 00 48 8B 4D 10 48 89 01 E9 0C 00 00 00 B8  H..H.M.H..é....¸
  00000000101033F0: 1F 00 00 00 48 8B 4D 10 48 89 01 E9 0C 00 00 00  ....H.M.H..é....
  0000000010103400: B8 1F 00 00 00 48 8B 4D 10 48 89 01 5F 5E C9 C3  ¸....H.M.H.._^É?
  0000000010103410: 55 48 8B EC 48 83 EC 10 48 89 4D 10 31 C0 48 89  UH.?H.?.H.M.1ÀH.
  0000000010103420: 45 F8 48 83 EC 20 E8 A5 FC FF FF 48 83 C4 20 0F  EøH.? è¥üÿÿH.Ä .
  0000000010103430: B6 05 27 F9 FF FF 85 C0 0F 85 90 00 00 00 0F B7  ¶.'ùÿÿ.À.......·
  0000000010103440: 05 19 F9 FF FF 0F B7 4D 10 66 3B C1 0F 84 7C 00  ..ùÿÿ.·M.f;Á..|.
  0000000010103450: 00 00 48 8B 45 F8 48 81 F8 FF 00 00 00 0F 8D 40  ..H.EøH.øÿ.....@
  0000000010103460: 00 00 00 48 8B 45 F8 48 81 F8 00 01 00 00 0F 83  ...H.EøH.ø......
  0000000010103470: 05 00 00 00 E9 08 00 00 00 B0 01 B9 22 11 00 00  ....é....°.¹"...
  0000000010103480: CC 48 C1 E0 01 48 8D 0D E0 F8 FF FF 48 03 C1 0F  ?HÁà.H..àøÿÿH.Á.
  0000000010103490: B7 0D C8 F8 FF FF 66 89 08 48 83 45 F8 01 E9 19  ·.Èøÿÿf..H.Eø.é.
  00000000101034A0: 00 00 00 48 83 EC 20 48 8D 0D 36 E4 EF FF BA 10  ...H.? H..6äïÿº.
  00000000101034B0: 00 00 00 E8 55 FB FF FF 48 83 C4 20 48 83 EC 20  ...èUûÿÿH.Ä H.? 
  00000000101034C0: E8 0B FC FF FF 48 83 C4 20 E9 61 FF FF FF 48 8B  è.üÿÿH.Ä éaÿÿÿH.
  00000000101034D0: 45 F8 48 81 F8 00 01 00 00 0F 83 05 00 00 00 E9  EøH.ø..........é
  00000000101034E0: 08 00 00 00 B0 01 B9 70 11 00 00 CC 48 C1 E0 01  ....°.¹p...?HÁà.
  00000000101034F0: 48 8D 0D 75 F8 FF FF 48 03 C1 31 C9 66 89 08 48  H..uøÿÿH.Á1Éf..H
  0000000010103500: 83 EC 20 E8 C8 FB FF FF 48 83 C4 20 48 8B 45 F8  .? èÈûÿÿH.Ä H.Eø
  0000000010103510: 48 83 C0 01 48 89 05 D5 FA FF FF 0F B7 05 3C F8  H.À.H..?úÿÿ.·.<ø
  0000000010103520: FF FF 66 83 F8 40 0F 85 1D 00 00 00 48 83 EC 20  ÿÿf.ø@......H.? 
  0000000010103530: E8 9B FB FF FF 48 83 C4 20 B8 01 00 00 00 88 05  è.ûÿÿH.Ä ¸......
  0000000010103540: 27 F8 FF FF E9 08 00 00 00 31 C0 88 05 1A F8 FF  'øÿÿé....1À...øÿ
  0000000010103550: FF C9 C3 55 48 8B EC 48 83 EC 20 31 C0 48 89 45  ÿÉ?UH.?H.? 1ÀH.E
  0000000010103560: F8 48 83 EC 20 E8 66 FB FF FF 48 83 C4 20 0F B6  øH.? èfûÿÿH.Ä .¶
  0000000010103570: 05 E8 F7 FF FF 85 C0 0F 84 FD 01 00 00 0F B7 05  .è÷ÿÿ.À..?....·.
  0000000010103580: DA F7 FF FF 66 83 F8 24 0F 84 EC 01 00 00 0F B7  Ú÷ÿÿf.ø$..?....·
  0000000010103590: 05 C9 F7 FF FF 66 83 F8 20 0F 84 22 00 00 00 0F  .É÷ÿÿf.ø .."....
  00000000101035A0: B7 05 B8 F7 FF FF 66 83 F8 09 0F 84 11 00 00 00  ·.¸÷ÿÿf.ø.......
  00000000101035B0: 0F B7 05 A7 F7 FF FF 66 83 F8 0D 0F 85 12 00 00  .·.§÷ÿÿf.ø......
  00000000101035C0: 00 48 83 EC 20 E8 06 FB FF FF 48 83 C4 20 E9 BB  .H.? è.ûÿÿH.Ä é»
  00000000101035D0: FF FF FF 0F B7 05 84 F7 FF FF 66 83 F8 30 0F 82  ÿÿÿ.·..÷ÿÿf.ø0..
  00000000101035E0: 25 00 00 00 0F B7 05 73 F7 FF FF 66 83 F8 39 0F  %....·.s÷ÿÿf.ø9.
  00000000101035F0: 87 14 00 00 00 0F B7 05 62 F7 FF FF 48 83 E8 30  ......·.b÷ÿÿH.è0
  0000000010103600: 48 89 45 F0 E9 55 00 00 00 0F B7 05 4E F7 FF FF  H.E?éU....·.N÷ÿÿ
  0000000010103610: 66 83 F8 41 0F 82 25 00 00 00 0F B7 05 3D F7 FF  f.øA..%....·.=÷ÿ
  0000000010103620: FF 66 83 F8 46 0F 87 14 00 00 00 0F B7 05 2C F7  ÿf.øF.......·.,÷
  0000000010103630: FF FF 48 83 E8 37 48 89 45 F0 E9 1F 00 00 00 31  ÿÿH.è7H.E?é....1
  0000000010103640: C0 48 89 45 F0 48 83 EC 20 48 8D 0D 52 E2 EF FF  ÀH.E?H.? H..Râïÿ
  0000000010103650: BA 13 00 00 00 E8 B3 F9 FF FF 48 83 C4 20 48 83  º....è³ùÿÿH.Ä H.
  0000000010103660: EC 20 E8 69 FA FF FF 48 83 C4 20 0F B7 05 EC F6  ? èiúÿÿH.Ä .·.?ö
  0000000010103670: FF FF 66 83 F8 30 0F 82 25 00 00 00 0F B7 05 DB  ÿÿf.ø0..%....·.Û
  0000000010103680: F6 FF FF 66 83 F8 39 0F 87 14 00 00 00 0F B7 05  öÿÿf.ø9.......·.
  0000000010103690: CA F6 FF FF 48 83 E8 30 48 89 45 E8 E9 55 00 00  ÊöÿÿH.è0H.EèéU..
  00000000101036A0: 00 0F B7 05 B6 F6 FF FF 66 83 F8 41 0F 82 25 00  ..·.¶öÿÿf.øA..%.
  00000000101036B0: 00 00 0F B7 05 A5 F6 FF FF 66 83 F8 46 0F 87 14  ...·.¥öÿÿf.øF...
  00000000101036C0: 00 00 00 0F B7 05 94 F6 FF FF 48 83 E8 37 48 89  ....·..öÿÿH.è7H.
  00000000101036D0: 45 E8 E9 1F 00 00 00 31 C0 48 89 45 E8 48 83 EC  Eèé....1ÀH.EèH.?
  00000000101036E0: 20 48 8D 0D 84 E1 EF FF BA 13 00 00 00 E8 1B F9   H...áïÿº....è.ù
  00000000101036F0: FF FF 48 83 C4 20 48 8B 45 F8 48 81 F8 FF 00 00  ÿÿH.Ä H.EøH.øÿ..
  0000000010103700: 00 0F 8D 48 00 00 00 48 8B 45 F8 48 81 F8 00 01  ...H...H.EøH.ø..
  0000000010103710: 00 00 0F 83 05 00 00 00 E9 08 00 00 00 B0 01 B9  ........é....°.¹
  0000000010103720: F5 13 00 00 CC 48 C1 E0 01 48 8D 0D 3C F6 FF FF  ?...?HÁà.H..<öÿÿ
  0000000010103730: 48 03 C1 48 8B 4D F0 48 C1 E1 04 48 8B 55 E8 48  H.ÁH.M?HÁá.H.UèH
  0000000010103740: 03 CA 66 89 08 48 83 45 F8 01 E9 19 00 00 00 48  .Êf..H.Eø.é....H
  0000000010103750: 83 EC 20 48 8D 0D F2 E0 EF FF BA 10 00 00 00 E8  .? H..?àïÿº....è
  0000000010103760: A9 F8 FF FF 48 83 C4 20 48 83 EC 20 E8 5F F9 FF  ©øÿÿH.Ä H.? è_ùÿ
  0000000010103770: FF 48 83 C4 20 E9 F4 FD FF FF 48 83 EC 20 E8 4D  ÿH.Ä éô?ÿÿH.? èM
  0000000010103780: F9 FF FF 48 83 C4 20 48 8B 45 F8 48 89 05 5E F8  ùÿÿH.Ä H.EøH..^ø
  0000000010103790: FF FF C9 C3 55 48 8B EC 48 83 EC 10 48 89 4D 10  ÿÿÉ?UH.?H.?.H.M.
  00000000101037A0: B8 00 00 80 3F 66 0F 6E C0 F3 0F 11 45 FC B8 00  ¸...?f.nÀó..Eü¸.
  00000000101037B0: 00 20 41 66 0F 6E C0 F3 0F 11 45 F8 48 8B 45 10  . Af.nÀó..EøH.E.
  00000000101037C0: 48 85 C0 0F 8E 45 00 00 00 48 8B 45 10 48 83 E0  H.À..E...H.E.H.à
  00000000101037D0: 01 0F 84 13 00 00 00 F3 0F 10 45 F8 F3 0F 10 4D  .......ó..Eøó..M
  00000000101037E0: FC F3 0F 59 C1 F3 0F 11 45 FC F3 0F 10 45 F8 F3  üó.YÁó..Eüó..Eøó
  00000000101037F0: 0F 10 4D F8 F3 0F 59 C1 F3 0F 11 45 F8 48 8B 45  ..Møó.YÁó..EøH.E
  0000000010103800: 10 48 C1 F8 01 48 89 45 10 E9 AE FF FF FF F3 0F  .HÁø.H.E.é®ÿÿÿó.
  0000000010103810: 10 45 FC C9 C3 55 48 8B EC 48 81 EC F0 00 00 00  .EüÉ?UH.?H.??...
  0000000010103820: 48 89 4D 10 31 C0 48 89 05 CB F7 FF FF 31 C0 48  H.M.1ÀH..Ë÷ÿÿ1ÀH
  0000000010103830: 89 45 F8 31 C0 48 89 45 E0 31 C0 48 89 45 F0 48  .Eø1ÀH.Eà1ÀH.E?H
  0000000010103840: 8B 45 E0 48 83 F8 15 0F 8D 3E 00 00 00 48 8B 45  .EàH.ø...>...H.E
  0000000010103850: E0 48 83 F8 15 0F 83 05 00 00 00 E9 08 00 00 00  àH.ø.......é....
  0000000010103860: B0 01 B9 3D 16 00 00 CC 48 C1 E0 03 48 03 C5 0F  °.¹=...?HÁà.H.Å.
  0000000010103870: B7 0D E8 F4 FF FF 48 83 E9 30 48 89 88 20 FF FF  ·.èôÿÿH.é0H.. ÿÿ
  0000000010103880: FF 48 83 45 E0 01 E9 1F 00 00 00 48 83 EC 20 48  ÿH.Eà.é....H.? H
  0000000010103890: 8D 0D 96 DF EF FF BA 10 00 00 00 E8 6D F7 FF FF  ...ßïÿº....èm÷ÿÿ
  00000000101038A0: 48 83 C4 20 31 C0 48 89 45 E0 48 83 EC 20 E8 1D  H.Ä 1ÀH.EàH.? è.
  00000000101038B0: F8 FF FF 48 83 C4 20 0F B7 05 A0 F4 FF FF 66 83  øÿÿH.Ä .·..ôÿÿf.
  00000000101038C0: F8 30 0F 82 33 00 00 00 0F B7 05 8F F4 FF FF 66  ø0..3....·..ôÿÿf
  00000000101038D0: 83 F8 39 0F 86 11 00 00 00 0F B7 05 7E F4 FF FF  .ø9.......·.~ôÿÿ
  00000000101038E0: 66 83 F8 41 0F 82 11 00 00 00 0F B7 05 6D F4 FF  f.øA.......·.môÿ
  00000000101038F0: FF 66 83 F8 46 0F 86 44 FF FF FF 0F B7 05 5C F4  ÿf.øF..Dÿÿÿ.·.\ô
  0000000010103900: FF FF 66 83 F8 48 0F 84 22 00 00 00 0F B7 05 4B  ÿÿf.øH.."....·.K
  0000000010103910: F4 FF FF 66 83 F8 52 0F 84 11 00 00 00 0F B7 05  ôÿÿf.øR.......·.
  0000000010103920: 3A F4 FF FF 66 83 F8 58 0F 85 77 01 00 00 48 8B  :ôÿÿf.øX..w...H.
  0000000010103930: 45 F8 48 83 F8 15 0F 83 05 00 00 00 E9 08 00 00  EøH.ø.......é...
  0000000010103940: 00 B0 01 B9 21 17 00 00 CC 48 C1 E0 03 48 03 C5  .°.¹!...?HÁà.H.Å
  0000000010103950: 48 8B 80 20 FF FF FF 48 89 45 D0 48 8B 45 D0 48  H.. ÿÿÿH.E?H.E?H
  0000000010103960: 83 F8 0A 0F 8C 0C 00 00 00 48 8B 45 D0 48 83 E8  .ø.......H.E?H.è
  0000000010103970: 07 48 89 45 D0 48 8B 45 F0 48 C1 E0 04 48 8B 4D  .H.E?H.E?HÁà.H.M
  0000000010103980: D0 48 03 C1 48 89 45 F0 48 83 45 F8 01 48 8B 45  ?H.ÁH.E?H.Eø.H.E
  0000000010103990: F8 48 8B 4D E0 48 3B C1 0F 85 90 FF FF FF 0F B7  øH.MàH;Á...ÿÿÿ.·
  00000000101039A0: 05 B9 F3 FF FF 66 83 F8 58 0F 85 9B 00 00 00 B8  .¹óÿÿf.øX......¸
  00000000101039B0: 1A 00 00 00 48 8B 4D 10 48 89 01 48 8B 45 F0 48  ....H.M.H..H.E?H
  00000000101039C0: 81 F8 00 00 01 00 0F 8D 10 00 00 00 48 8B 45 F0  .ø..........H.E?
  00000000101039D0: 48 89 05 21 F6 FF FF E9 22 00 00 00 48 83 EC 20  H..!öÿÿé"...H.? 
  00000000101039E0: 48 8D 0D 09 DE EF FF BA 0E 00 00 00 E8 1C F6 FF  H...?ïÿº....è.öÿ
  00000000101039F0: FF 48 83 C4 20 31 C0 48 89 05 FA F5 FF FF 48 8B  ÿH.Ä 1ÀH..ú?ÿÿH.
  0000000010103A00: 45 F0 48 85 C0 0F 85 1A 00 00 00 31 C0 66 89 05  E?H.À......1Àf..
  0000000010103A10: 58 F3 FF FF B8 01 00 00 00 48 89 05 D0 F5 FF FF  Xóÿÿ¸....H..??ÿÿ
  0000000010103A20: E9 20 00 00 00 0F B7 45 F0 66 89 05 3C F3 FF FF  é ....·E?f..<óÿÿ
  0000000010103A30: 31 C0 66 89 05 35 F3 FF FF B8 02 00 00 00 48 89  1Àf..5óÿÿ¸....H.
  0000000010103A40: 05 AB F5 FF FF E9 49 00 00 00 0F B7 05 0D F3 FF  .«?ÿÿéI....·..óÿ
  0000000010103A50: FF 66 83 F8 52 0F 85 21 00 00 00 B8 16 00 00 00  ÿf.øR..!...¸....
  0000000010103A60: 48 8B 4D 10 48 89 01 48 8B 45 F0 66 0F 6E C0 F3  H.M.H..H.E?f.nÀó
  0000000010103A70: 0F 11 05 75 F5 FF FF E9 17 00 00 00 B8 15 00 00  ...u?ÿÿé....¸...
  0000000010103A80: 00 48 8B 4D 10 48 89 01 48 8B 45 F0 48 89 05 65  .H.M.H..H.E?H..e
  0000000010103A90: F5 FF FF 48 83 EC 20 E8 34 F6 FF FF 48 83 C4 20  ?ÿÿH.? è4öÿÿH.Ä 
  0000000010103AA0: E9 FF 05 00 00 0F B7 05 B2 F2 FF FF 66 83 F8 2E  éÿ....·.²?ÿÿf.ø.
  0000000010103AB0: 0F 85 94 04 00 00 48 83 EC 20 E8 11 F6 FF FF 48  ......H.? è.öÿÿH
  0000000010103AC0: 83 C4 20 0F B7 05 94 F2 FF FF 66 83 F8 2E 0F 85  .Ä .·..?ÿÿf.ø...
  0000000010103AD0: 6B 01 00 00 B8 7F 00 00 00 66 89 05 7E F2 FF FF  k...¸....f..~?ÿÿ
  0000000010103AE0: 48 8B 45 F8 48 83 F8 15 0F 83 05 00 00 00 E9 08  H.EøH.ø.......é.
  0000000010103AF0: 00 00 00 B0 01 B9 57 19 00 00 CC 48 C1 E0 03 48  ...°.¹W...?HÁà.H
  0000000010103B00: 03 C5 48 8B 80 20 FF FF FF 48 83 F8 0A 0F 8D E1  .ÅH.. ÿÿÿH.ø...á
  0000000010103B10: 00 00 00 48 8B 45 F0 48 8B 4D F8 48 83 F9 15 0F  ...H.E?H.MøH.ù..
  0000000010103B20: 83 05 00 00 00 E9 08 00 00 00 B0 01 B9 7A 19 00  .....é....°.¹z..
  0000000010103B30: 00 CC 48 C1 E1 03 48 03 CD 48 BA FF FF FF FF FF  .?HÁá.H.ÍHºÿÿÿÿÿ
  0000000010103B40: FF FF 7F 48 8B 89 20 FF FF FF 48 87 D1 48 2B CA  ÿÿ.H.. ÿÿÿH.ÑH+Ê
  0000000010103B50: BA 0A 00 00 00 4C 8B C0 4C 8B CA 48 8B C1 48 99  º....L.ÀL.ÊH.ÁH.
  0000000010103B60: 48 85 C0 0F 88 08 00 00 00 49 F7 F9 E9 10 00 00  H.À......I÷ùé...
  0000000010103B70: 00 49 F7 F9 48 85 D2 0F 84 04 00 00 00 48 83 E8  .I÷ùH.?......H.è
  0000000010103B80: 01 48 8B C8 49 8B C0 48 3B C1 0F 8F 40 00 00 00  .H.ÈI.ÀH;Á..@...
  0000000010103B90: 48 8B 45 F0 48 69 C0 0A 00 00 00 48 8B 4D F8 48  H.E?HiÀ....H.MøH
  0000000010103BA0: 83 F9 15 0F 83 05 00 00 00 E9 08 00 00 00 B0 01  .ù.......é....°.
  0000000010103BB0: B9 9C 19 00 00 CC 48 C1 E1 03 48 03 CD 48 8B 89  ¹....?HÁá.H.ÍH..
  0000000010103BC0: 20 FF FF FF 48 03 C1 48 89 45 F0 E9 1F 00 00 00   ÿÿÿH.ÁH.E?é....
  0000000010103BD0: 48 83 EC 20 48 8D 0D F5 DB EF FF BA 0A 00 00 00  H.? H..?Ûïÿº....
  0000000010103BE0: E8 28 F4 FF FF 48 83 C4 20 31 C0 48 89 45 F0 E9  è(ôÿÿH.Ä 1ÀH.E?é
  0000000010103BF0: 19 00 00 00 48 83 EC 20 48 8D 0D B9 DB EF FF BA  ....H.? H..¹Ûïÿº
  0000000010103C00: 0C 00 00 00 E8 04 F4 FF FF 48 83 C4 20 48 83 45  ....è.ôÿÿH.Ä H.E
  0000000010103C10: F8 01 48 8B 45 F8 48 8B 4D E0 48 3B C1 0F 85 BD  ø.H.EøH.MàH;Á..½
  0000000010103C20: FE FF FF B8 15 00 00 00 48 8B 4D 10 48 89 01 48  ?ÿÿ¸....H.M.H..H
  0000000010103C30: 8B 45 F0 48 89 05 BE F3 FF FF E9 06 03 00 00 0F  .E?H..¾óÿÿé.....
  0000000010103C40: 57 C0 F3 0F 11 45 CC 31 C0 48 89 45 E8 F3 0F 10  WÀó..E?1ÀH.Eèó..
  0000000010103C50: 45 CC B8 00 00 20 41 66 0F 6E C8 F3 0F 59 C1 48  E?¸.. Af.nÈó.YÁH
  0000000010103C60: 8B 45 F8 48 83 F8 15 0F 83 05 00 00 00 E9 08 00  .EøH.ø.......é..
  0000000010103C70: 00 00 B0 01 B9 94 1A 00 00 CC 48 C1 E0 03 48 03  ..°.¹....?HÁà.H.
  0000000010103C80: C5 48 8B 80 20 FF FF FF F3 48 0F 2A C8 F3 0F 58  ÅH.. ÿÿÿóH.*Èó.X
  0000000010103C90: C1 F3 0F 11 45 CC 48 83 45 F8 01 48 8B 45 F8 48  Áó..E?H.Eø.H.EøH
  0000000010103CA0: 8B 4D E0 48 3B C1 0F 85 A1 FF FF FF 0F B7 05 AB  .MàH;Á..¡ÿÿÿ.·.«
  0000000010103CB0: F0 FF FF 66 83 F8 30 0F 82 53 00 00 00 0F B7 05  ?ÿÿf.ø0..S....·.
  0000000010103CC0: 9A F0 FF FF 66 83 F8 39 0F 87 42 00 00 00 F3 0F  .?ÿÿf.ø9..B...ó.
  0000000010103CD0: 10 45 CC B8 00 00 20 41 66 0F 6E C8 F3 0F 59 C1  .E?¸.. Af.nÈó.YÁ
  0000000010103CE0: 0F B7 05 77 F0 FF FF 48 83 E8 30 F3 48 0F 2A C8  .·.w?ÿÿH.è0óH.*È
  0000000010103CF0: F3 0F 58 C1 F3 0F 11 45 CC 48 83 45 E8 FF 48 83  ó.XÁó..E?H.EèÿH.
  0000000010103D00: EC 20 E8 C9 F3 FF FF 48 83 C4 20 E9 9C FF FF FF  ? èÉóÿÿH.Ä é.ÿÿÿ
  0000000010103D10: 0F B7 05 47 F0 FF FF 66 83 F8 45 0F 84 11 00 00  .·.G?ÿÿf.øE.....
  0000000010103D20: 00 0F B7 05 36 F0 FF FF 66 83 F8 44 0F 85 25 01  ..·.6?ÿÿf.øD..%.
  0000000010103D30: 00 00 48 83 EC 20 E8 95 F3 FF FF 48 83 C4 20 31  ..H.? è.óÿÿH.Ä 1
  0000000010103D40: C0 48 89 45 D8 0F B7 05 12 F0 FF FF 66 83 F8 2D  ÀH.EØ.·..?ÿÿf.ø-
  0000000010103D50: 0F 85 1D 00 00 00 B8 01 00 00 00 88 85 1F FF FF  ......¸.......ÿÿ
  0000000010103D60: FF 48 83 EC 20 E8 66 F3 FF FF 48 83 C4 20 E9 26  ÿH.? èfóÿÿH.Ä é&
  0000000010103D70: 00 00 00 31 C0 88 85 1F FF FF FF 0F B7 05 DC EF  ...1À...ÿÿÿ.·.Üï
  0000000010103D80: FF FF 66 83 F8 2B 0F 85 0D 00 00 00 48 83 EC 20  ÿÿf.ø+......H.? 
  0000000010103D90: E8 3B F3 FF FF 48 83 C4 20 0F B7 05 BE EF FF FF  è;óÿÿH.Ä .·.¾ïÿÿ
  0000000010103DA0: 66 83 F8 30 0F 82 94 00 00 00 0F B7 05 AD EF FF  f.ø0.......·.­ïÿ
  0000000010103DB0: FF 66 83 F8 39 0F 87 83 00 00 00 48 8B 45 D8 48  ÿf.ø9......H.EØH
  0000000010103DC0: 69 C0 0A 00 00 00 0F B7 0D 91 EF FF FF 48 03 C1  iÀ.....·..ïÿÿH.Á
  0000000010103DD0: 48 83 E8 30 48 89 45 D8 48 83 EC 20 E8 EF F2 FF  H.è0H.EØH.? èï?ÿ
  0000000010103DE0: FF 48 83 C4 20 0F B7 05 72 EF FF FF 66 83 F8 30  ÿH.Ä .·.rïÿÿf.ø0
  0000000010103DF0: 0F 82 11 00 00 00 0F B7 05 61 EF FF FF 66 83 F8  .......·.aïÿÿf.ø
  0000000010103E00: 39 0F 86 B4 FF FF FF 0F B6 85 1F FF FF FF 85 C0  9..´ÿÿÿ.¶..ÿÿÿ.À
  0000000010103E10: 0F 84 14 00 00 00 48 8B 45 E8 48 8B 4D D8 48 2B  ......H.EèH.MØH+
  0000000010103E20: C1 48 89 45 E8 E9 0F 00 00 00 48 8B 45 E8 48 8B  ÁH.Eèé....H.EèH.
  0000000010103E30: 4D D8 48 03 C1 48 89 45 E8 E9 19 00 00 00 48 83  MØH.ÁH.Eèé....H.
  0000000010103E40: EC 20 48 8D 0D 39 D9 EF FF BA 07 00 00 00 E8 BA  ? H..9Ùïÿº....èº
  0000000010103E50: F1 FF FF 48 83 C4 20 48 8B 45 E8 48 85 C0 0F 8D  ñÿÿH.Ä H.EèH.À..
  0000000010103E60: 58 00 00 00 48 8B 45 E8 48 83 F8 DA 0F 8C 3D 00  X...H.EèH.øÚ..=.
  0000000010103E70: 00 00 F3 0F 10 45 CC 48 83 EC 08 F3 0F 11 04 24  ..ó..E?H.?.ó...$
  0000000010103E80: 48 83 EC 28 48 8B 4D E8 48 F7 D9 E8 04 F9 FF FF  H.?(H.MèH÷Ùè.ùÿÿ
  0000000010103E90: 48 83 C4 28 F3 0F 10 C8 F3 0F 10 04 24 48 83 C4  H.Ä(ó..Èó...$H.Ä
  0000000010103EA0: 08 F3 0F 5E C1 F3 0F 11 45 CC E9 08 00 00 00 0F  .ó.^Áó..E?é.....
  0000000010103EB0: 57 C0 F3 0F 11 45 CC E9 60 00 00 00 48 8B 45 E8  WÀó..E?é`...H.Eè
  0000000010103EC0: 48 85 C0 0F 8E 53 00 00 00 48 8B 45 E8 48 83 F8  H.À..S...H.EèH.ø
  0000000010103ED0: 26 0F 8F 24 00 00 00 48 83 EC 20 48 8B 4D E8 E8  &..$...H.? H.Mèè
  0000000010103EE0: B0 F8 FF FF 48 83 C4 20 F3 0F 10 4D CC F3 0F 59  °øÿÿH.Ä ó..M?ó.Y
  0000000010103EF0: C1 F3 0F 11 45 CC E9 21 00 00 00 0F 57 C0 F3 0F  Áó..E?é!....WÀó.
  0000000010103F00: 11 45 CC 48 83 EC 20 48 8D 0D 60 D8 EF FF BA 0A  .E?H.? H..`Øïÿº.
  0000000010103F10: 00 00 00 E8 F5 F0 FF FF 48 83 C4 20 B8 16 00 00  ...è??ÿÿH.Ä ¸...
  0000000010103F20: 00 48 8B 4D 10 48 89 01 F3 0F 10 45 CC F3 0F 11  .H.M.H..ó..E?ó..
  0000000010103F30: 05 B7 F0 FF FF F3 0F 10 45 CC 66 0F 7E C0 48 89  .·?ÿÿó..E?f.~ÀH.
  0000000010103F40: 05 B3 F0 FF FF E9 5A 01 00 00 48 8B 45 F8 48 83  .³?ÿÿéZ...H.EøH.
  0000000010103F50: F8 15 0F 83 05 00 00 00 E9 08 00 00 00 B0 01 B9  ø.......é....°.¹
  0000000010103F60: EA 1D 00 00 CC 48 C1 E0 03 48 03 C5 48 8B 80 20  ê...?HÁà.H.ÅH.. 
  0000000010103F70: FF FF FF 48 83 F8 0A 0F 8D E1 00 00 00 48 8B 45  ÿÿÿH.ø...á...H.E
  0000000010103F80: F0 48 8B 4D F8 48 83 F9 15 0F 83 05 00 00 00 E9  ?H.MøH.ù.......é
  0000000010103F90: 08 00 00 00 B0 01 B9 0C 1E 00 00 CC 48 C1 E1 03  ....°.¹....?HÁá.
  0000000010103FA0: 48 03 CD 48 BA FF FF FF FF FF FF FF 7F 48 8B 89  H.ÍHºÿÿÿÿÿÿÿ.H..
  0000000010103FB0: 20 FF FF FF 48 87 D1 48 2B CA BA 0A 00 00 00 4C   ÿÿÿH.ÑH+Êº....L
  0000000010103FC0: 8B C0 4C 8B CA 48 8B C1 48 99 48 85 C0 0F 88 08  .ÀL.ÊH.ÁH.H.À...
  0000000010103FD0: 00 00 00 49 F7 F9 E9 10 00 00 00 49 F7 F9 48 85  ...I÷ùé....I÷ùH.
  0000000010103FE0: D2 0F 84 04 00 00 00 48 83 E8 01 48 8B C8 49 8B  ?......H.è.H.ÈI.
  0000000010103FF0: C0 48 3B C1 0F 8F 40 00 00 00 48 8B 45 F0 48 69  ÀH;Á..@...H.E?Hi
  0000000010104000: C0 0A 00 00 00 48 8B 4D F8 48 83 F9 15 0F 83 05  À....H.MøH.ù....
  0000000010104010: 00 00 00 E9 08 00 00 00 B0 01 B9 2C 1E 00 00 CC  ...é....°.¹,...?
  0000000010104020: 48 C1 E1 03 48 03 CD 48 8B 89 20 FF FF FF 48 03  HÁá.H.ÍH.. ÿÿÿH.
  0000000010104030: C1 48 89 45 F0 E9 1F 00 00 00 48 83 EC 20 48 8D  ÁH.E?é....H.? H.
  0000000010104040: 0D 15 D7 EF FF BA 0A 00 00 00 E8 BE EF FF FF 48  ..×ïÿº....è¾ïÿÿH
  0000000010104050: 83 C4 20 31 C0 48 89 45 F0 E9 19 00 00 00 48 83  .Ä 1ÀH.E?é....H.
  0000000010104060: EC 20 48 8D 0D D9 D6 EF FF BA 0C 00 00 00 E8 9A  ? H..ÙÖïÿº....è.
  0000000010104070: EF FF FF 48 83 C4 20 48 83 45 F8 01 48 8B 45 F8  ïÿÿH.Ä H.Eø.H.Eø
  0000000010104080: 48 8B 4D E0 48 3B C1 0F 85 BD FE FF FF B8 15 00  H.MàH;Á..½?ÿÿ¸..
  0000000010104090: 00 00 48 8B 4D 10 48 89 01 48 8B 45 F0 48 89 05  ..H.M.H..H.E?H..
  00000000101040A0: 54 EF FF FF C9 C3 E9 2A 01 00 00 55 48 8B EC 48  TïÿÿÉ?é*...UH.?H
  00000000101040B0: 81 EC 10 02 00 00 48 83 EC 20 E8 11 F0 FF FF 48  .?....H.? è.?ÿÿH
  00000000101040C0: 83 C4 20 31 C0 48 89 85 F8 FD FF FF 48 8B 85 F8  .Ä 1ÀH..ø?ÿÿH..ø
  00000000101040D0: FD FF FF 48 81 F8 FF 00 00 00 0F 8D 70 00 00 00  ?ÿÿH.øÿ.....p...
  00000000101040E0: 0F B7 05 77 EC FF FF 66 83 F8 2A 0F 84 5F 00 00  .·.w?ÿÿf.ø*.._..
  00000000101040F0: 00 0F B6 05 65 EC FF FF 85 C0 0F 85 50 00 00 00  ..¶.e?ÿÿ.À..P...
  0000000010104100: 48 8B 85 F8 FD FF FF 48 81 F8 00 01 00 00 0F 83  H..ø?ÿÿH.ø......
  0000000010104110: 05 00 00 00 E9 08 00 00 00 B0 01 B9 9D 1F 00 00  ....é....°.¹....
  0000000010104120: CC 48 C1 E0 01 48 03 C5 0F B7 0D 2F EC FF FF 66  ?HÁà.H.Å.·./?ÿÿf
  0000000010104130: 89 88 00 FE FF FF 48 83 EC 20 E8 91 EF FF FF 48  ...?ÿÿH.? è.ïÿÿH
  0000000010104140: 83 C4 20 48 83 85 F8 FD FF FF 01 E9 7C FF FF FF  .Ä H..ø?ÿÿ.é|ÿÿÿ
  0000000010104150: 48 8B 85 F8 FD FF FF 48 81 F8 00 01 00 00 0F 83  H..ø?ÿÿH.ø......
  0000000010104160: 05 00 00 00 E9 08 00 00 00 B0 01 B9 C6 1F 00 00  ....é....°.¹Æ...
  0000000010104170: CC 48 C1 E0 01 48 03 C5 31 C9 66 89 88 00 FE FF  ?HÁà.H.Å1Éf...?ÿ
  0000000010104180: FF 0F B7 05 D6 EB FF FF 66 83 F8 2A 0F 85 28 00  ÿ.·.Öëÿÿf.ø*..(.
  0000000010104190: 00 00 48 8B 05 8F D8 EF FF 50 48 83 EC 28 48 8D  ..H...ØïÿPH.?(H.
  00000000101041A0: 8D 00 FE FF FF BA 00 01 00 00 48 8B 44 24 28 FF  ..?ÿÿº....H.D$(ÿ
  00000000101041B0: D0 48 83 C4 30 E9 19 00 00 00 48 83 EC 20 48 8D  ?H.Ä0é....H.? H.
  00000000101041C0: 0D 3B D5 EF FF BA 1D 00 00 00 E8 3E EE FF FF 48  .;?ïÿº....è>îÿÿH
  00000000101041D0: 83 C4 20 C9 C3 55 48 8B EC 48 83 EC 10 48 89 4D  .Ä É?UH.?H.?.H.M
  00000000101041E0: 10 0F B7 05 76 EB FF FF 66 83 F8 24 0F 85 1A 00  ..·.vëÿÿf.ø$....
  00000000101041F0: 00 00 48 8B 45 10 48 85 C0 0F 85 0D 00 00 00 48  ..H.E.H.À......H
  0000000010104200: 83 EC 20 E8 A3 FE FF FF 48 83 C4 20 31 C0 88 45  .? è£?ÿÿH.Ä 1À.E
  0000000010104210: FF 0F B6 05 45 EB FF FF 85 C0 0F 85 BD 00 00 00  ÿ.¶.Eëÿÿ.À..½...
  0000000010104220: 0F B6 45 FF 85 C0 0F 85 B1 00 00 00 0F B7 05 2B  .¶Eÿ.À..±....·.+
  0000000010104230: EB FF FF 66 83 F8 28 0F 85 45 00 00 00 48 83 EC  ëÿÿf.ø(..E...H.?
  0000000010104240: 20 E8 8A EE FF FF 48 83 C4 20 0F B7 05 0D EB FF   è.îÿÿH.Ä .·..ëÿ
  0000000010104250: FF 66 83 F8 2A 0F 85 22 00 00 00 48 83 EC 20 E8  ÿf.ø*.."...H.? è
  0000000010104260: 6C EE FF FF 48 83 C4 20 48 83 EC 20 48 8B 4D 10  lîÿÿH.Ä H.? H.M.
  0000000010104270: 48 83 C1 01 E8 5C FF FF FF 48 83 C4 20 E9 56 00  H.Á.è\ÿÿÿH.Ä éV.
  0000000010104280: 00 00 0F B7 05 D5 EA FF FF 66 83 F8 2A 0F 85 38  ...·.?êÿÿf.ø*..8
  0000000010104290: 00 00 00 48 83 EC 20 E8 34 EE FF FF 48 83 C4 20  ...H.? è4îÿÿH.Ä 
  00000000101042A0: 0F B7 05 B7 EA FF FF 66 83 F8 29 0F 85 15 00 00  .·.·êÿÿf.ø).....
  00000000101042B0: 00 48 83 EC 20 E8 16 EE FF FF 48 83 C4 20 B8 01  .H.? è.îÿÿH.Ä ¸.
  00000000101042C0: 00 00 00 88 45 FF E9 0D 00 00 00 48 83 EC 20 E8  ....Eÿé....H.? è
  00000000101042D0: FC ED FF FF 48 83 C4 20 E9 34 FF FF FF C9 C3 55  üíÿÿH.Ä é4ÿÿÿÉ?U
  00000000101042E0: 48 8B EC 48 89 4D 10 0F B6 05 6F EA FF FF 85 C0  H.?H.M..¶.oêÿÿ.À
  00000000101042F0: 0F 85 23 00 00 00 0F B7 05 61 EA FF FF 66 83 F8  ..#....·.aêÿÿf.ø
  0000000010104300: 20 0F 87 12 00 00 00 48 83 EC 20 E8 C0 ED FF FF   ......H.? èÀíÿÿ
  0000000010104310: 48 83 C4 20 E9 CE FF FF FF 48 8B 05 18 D7 EF FF  H.Ä éÎÿÿÿH...×ïÿ
  0000000010104320: 48 83 E8 01 48 89 05 15 D7 EF FF 0F B7 05 2C EA  H.è.H...×ïÿ.·.,ê
  0000000010104330: FF FF 66 83 F8 41 0F 83 9C 04 00 00 0F B7 05 1B  ÿÿf.øA.......·..
  0000000010104340: EA FF FF 66 83 F8 30 0F 83 D1 02 00 00 0F B7 05  êÿÿf.ø0..Ñ....·.
  0000000010104350: 0A EA FF FF 66 83 F8 22 0F 84 11 00 00 00 0F B7  .êÿÿf.ø".......·
  0000000010104360: 05 F9 E9 FF FF 66 83 F8 27 0F 85 25 00 00 00 48  .ùéÿÿf.ø'..%...H
  0000000010104370: 83 EC 20 0F B7 0D E4 E9 FF FF E8 91 F0 FF FF 48  .? .·.äéÿÿè.?ÿÿH
  0000000010104380: 83 C4 20 B8 1A 00 00 00 48 8B 4D 10 48 89 01 E9  .Ä ¸....H.M.H..é
  0000000010104390: 85 02 00 00 0F B7 05 C3 E9 FF FF 66 83 F8 23 0F  .....·.?éÿÿf.ø#.
  00000000101043A0: 85 1E 00 00 00 48 83 EC 20 E8 22 ED FF FF 48 83  .....H.? è"íÿÿH.
  00000000101043B0: C4 20 B8 0A 00 00 00 48 8B 4D 10 48 89 01 E9 56  Ä ¸....H.M.H..éV
  00000000101043C0: 02 00 00 0F B7 05 94 E9 FF FF 66 83 F8 24 0F 85  ....·..éÿÿf.ø$..
  00000000101043D0: 1E 00 00 00 48 83 EC 20 E8 76 F1 FF FF 48 83 C4  ....H.? èvñÿÿH.Ä
  00000000101043E0: 20 B8 1A 00 00 00 48 8B 4D 10 48 89 01 E9 27 02   ¸....H.M.H..é'.
  00000000101043F0: 00 00 0F B7 05 65 E9 FF FF 66 83 F8 26 0F 85 1E  ...·.eéÿÿf.ø&...
  0000000010104400: 00 00 00 48 83 EC 20 E8 C4 EC FF FF 48 83 C4 20  ...H.? èÄ?ÿÿH.Ä 
  0000000010104410: B8 05 00 00 00 48 8B 4D 10 48 89 01 E9 F8 01 00  ¸....H.M.H..éø..
  0000000010104420: 00 0F B7 05 36 E9 FF FF 66 83 F8 28 0F 85 59 00  ..·.6éÿÿf.ø(..Y.
  0000000010104430: 00 00 48 83 EC 20 E8 95 EC FF FF 48 83 C4 20 0F  ..H.? è.?ÿÿH.Ä .
  0000000010104440: B7 05 18 E9 FF FF 66 83 F8 2A 0F 85 2A 00 00 00  ·..éÿÿf.ø*..*...
  0000000010104450: 31 C0 48 8B 4D 10 48 89 01 48 83 EC 20 E8 6E EC  1ÀH.M.H..H.? èn?
  0000000010104460: FF FF 48 83 C4 20 48 83 EC 20 31 C9 E8 64 FD FF  ÿÿH.Ä H.? 1Éèd?ÿ
  0000000010104470: FF 48 83 C4 20 E9 0C 00 00 00 B8 1C 00 00 00 48  ÿH.Ä é....¸....H
  0000000010104480: 8B 4D 10 48 89 01 E9 8E 01 00 00 0F B7 05 CC E8  .M.H..é.....·.?è
  0000000010104490: FF FF 66 83 F8 29 0F 85 1E 00 00 00 48 83 EC 20  ÿÿf.ø)......H.? 
  00000000101044A0: E8 2B EC FF FF 48 83 C4 20 B8 2C 00 00 00 48 8B  è+?ÿÿH.Ä ¸,...H.
  00000000101044B0: 4D 10 48 89 01 E9 5F 01 00 00 0F B7 05 9D E8 FF  M.H..é_....·..èÿ
  00000000101044C0: FF 66 83 F8 2A 0F 85 1E 00 00 00 48 83 EC 20 E8  ÿf.ø*......H.? è
  00000000101044D0: FC EB FF FF 48 83 C4 20 B8 01 00 00 00 48 8B 4D  üëÿÿH.Ä ¸....H.M
  00000000101044E0: 10 48 89 01 E9 30 01 00 00 0F B7 05 6E E8 FF FF  .H..é0....·.nèÿÿ
  00000000101044F0: 66 83 F8 2B 0F 85 1E 00 00 00 48 83 EC 20 E8 CD  f.ø+......H.? èÍ
  0000000010104500: EB FF FF 48 83 C4 20 B8 06 00 00 00 48 8B 4D 10  ëÿÿH.Ä ¸....H.M.
  0000000010104510: 48 89 01 E9 01 01 00 00 0F B7 05 3F E8 FF FF 66  H..é.....·.?èÿÿf
  0000000010104520: 83 F8 2C 0F 85 1E 00 00 00 48 83 EC 20 E8 9E EB  .ø,......H.? è.ë
  0000000010104530: FF FF 48 83 C4 20 B8 28 00 00 00 48 8B 4D 10 48  ÿÿH.Ä ¸(...H.M.H
  0000000010104540: 89 01 E9 D2 00 00 00 0F B7 05 10 E8 FF FF 66 83  ..é?....·..èÿÿf.
  0000000010104550: F8 2D 0F 85 1E 00 00 00 48 83 EC 20 E8 6F EB FF  ø-......H.? èoëÿ
  0000000010104560: FF 48 83 C4 20 B8 07 00 00 00 48 8B 4D 10 48 89  ÿH.Ä ¸....H.M.H.
  0000000010104570: 01 E9 A3 00 00 00 0F B7 05 E1 E7 FF FF 66 83 F8  .é£....·.áçÿÿf.ø
  0000000010104580: 2E 0F 85 4D 00 00 00 48 83 EC 20 E8 40 EB FF FF  ...M...H.? è@ëÿÿ
  0000000010104590: 48 83 C4 20 0F B7 05 C3 E7 FF FF 66 83 F8 2E 0F  H.Ä .·.?çÿÿf.ø..
  00000000101045A0: 85 1E 00 00 00 48 83 EC 20 E8 22 EB FF FF 48 83  .....H.? è"ëÿÿH.
  00000000101045B0: C4 20 B8 2B 00 00 00 48 8B 4D 10 48 89 01 E9 0C  Ä ¸+...H.M.H..é.
  00000000101045C0: 00 00 00 B8 12 00 00 00 48 8B 4D 10 48 89 01 E9  ...¸....H.M.H..é
  00000000101045D0: 45 00 00 00 0F B7 05 83 E7 FF FF 66 83 F8 2F 0F  E....·..çÿÿf.ø/.
  00000000101045E0: 85 1E 00 00 00 48 83 EC 20 E8 E2 EA FF FF 48 83  .....H.? èâêÿÿH.
  00000000101045F0: C4 20 B8 02 00 00 00 48 8B 4D 10 48 89 01 E9 16  Ä ¸....H.M.H..é.
  0000000010104600: 00 00 00 48 83 EC 20 E8 C4 EA FF FF 48 83 C4 20  ...H.? èÄêÿÿH.Ä 
  0000000010104610: 31 C0 48 8B 4D 10 48 89 01 E9 B5 01 00 00 0F B7  1ÀH.M.H..éµ....·
  0000000010104620: 05 39 E7 FF FF 66 83 F8 3A 0F 83 16 00 00 00 48  .9çÿÿf.ø:......H
  0000000010104630: 83 EC 20 48 8B 4D 10 E8 D9 F1 FF FF 48 83 C4 20  .? H.M.èÙñÿÿH.Ä 
  0000000010104640: E9 8E 01 00 00 0F B7 05 12 E7 FF FF 66 83 F8 3A  é.....·..çÿÿf.ø:
  0000000010104650: 0F 85 4D 00 00 00 48 83 EC 20 E8 71 EA FF FF 48  ..M...H.? èqêÿÿH
  0000000010104660: 83 C4 20 0F B7 05 F4 E6 FF FF 66 83 F8 3D 0F 85  .Ä .·.ôæÿÿf.ø=..
  0000000010104670: 1E 00 00 00 48 83 EC 20 E8 53 EA FF FF 48 83 C4  ....H.? èSêÿÿH.Ä
  0000000010104680: 20 B8 2A 00 00 00 48 8B 4D 10 48 89 01 E9 0C 00   ¸*...H.M.H..é..
  0000000010104690: 00 00 B8 29 00 00 00 48 8B 4D 10 48 89 01 E9 30  ..¸)...H.M.H..é0
  00000000101046A0: 01 00 00 0F B7 05 B4 E6 FF FF 66 83 F8 3B 0F 85  ....·.´æÿÿf.ø;..
  00000000101046B0: 1E 00 00 00 48 83 EC 20 E8 13 EA FF FF 48 83 C4  ....H.? è.êÿÿH.Ä
  00000000101046C0: 20 B8 34 00 00 00 48 8B 4D 10 48 89 01 E9 01 01   ¸4...H.M.H..é..
  00000000101046D0: 00 00 0F B7 05 85 E6 FF FF 66 83 F8 3C 0F 85 4D  ...·..æÿÿf.ø<..M
  00000000101046E0: 00 00 00 48 83 EC 20 E8 E4 E9 FF FF 48 83 C4 20  ...H.? èäéÿÿH.Ä 
  00000000101046F0: 0F B7 05 67 E6 FF FF 66 83 F8 3D 0F 85 1E 00 00  .·.gæÿÿf.ø=.....
  0000000010104700: 00 48 83 EC 20 E8 C6 E9 FF FF 48 83 C4 20 B8 0C  .H.? èÆéÿÿH.Ä ¸.
  0000000010104710: 00 00 00 48 8B 4D 10 48 89 01 E9 0C 00 00 00 B8  ...H.M.H..é....¸
  0000000010104720: 0B 00 00 00 48 8B 4D 10 48 89 01 E9 A3 00 00 00  ....H.M.H..é£...
  0000000010104730: 0F B7 05 27 E6 FF FF 66 83 F8 3D 0F 85 1E 00 00  .·.'æÿÿf.ø=.....
  0000000010104740: 00 48 83 EC 20 E8 86 E9 FF FF 48 83 C4 20 B8 09  .H.? è.éÿÿH.Ä ¸.
  0000000010104750: 00 00 00 48 8B 4D 10 48 89 01 E9 74 00 00 00 0F  ...H.M.H..ét....
  0000000010104760: B7 05 F8 E5 FF FF 66 83 F8 3E 0F 85 4D 00 00 00  ·.øåÿÿf.ø>..M...
  0000000010104770: 48 83 EC 20 E8 57 E9 FF FF 48 83 C4 20 0F B7 05  H.? èWéÿÿH.Ä .·.
  0000000010104780: DA E5 FF FF 66 83 F8 3D 0F 85 1E 00 00 00 48 83  Úåÿÿf.ø=......H.
  0000000010104790: EC 20 E8 39 E9 FF FF 48 83 C4 20 B8 0E 00 00 00  ? è9éÿÿH.Ä ¸....
  00000000101047A0: 48 8B 4D 10 48 89 01 E9 0C 00 00 00 B8 0D 00 00  H.M.H..é....¸...
  00000000101047B0: 00 48 8B 4D 10 48 89 01 E9 16 00 00 00 48 83 EC  .H.M.H..é....H.?
  00000000101047C0: 20 E8 0A E9 FF FF 48 83 C4 20 31 C0 48 8B 4D 10   è.éÿÿH.Ä 1ÀH.M.
  00000000101047D0: 48 89 01 E9 C7 01 00 00 0F B7 05 7F E5 FF FF 66  H..éÇ....·..åÿÿf
  00000000101047E0: 83 F8 5B 0F 83 16 00 00 00 48 83 EC 20 48 8B 4D  .ø[......H.? H.M
  00000000101047F0: 10 E8 60 E9 FF FF 48 83 C4 20 E9 A0 01 00 00 0F  .è`éÿÿH.Ä é.....
  0000000010104800: B7 05 58 E5 FF FF 66 83 F8 61 0F 83 A8 00 00 00  ·.Xåÿÿf.øa..¨...
  0000000010104810: 0F B7 05 47 E5 FF FF 66 83 F8 5B 0F 85 11 00 00  .·.Gåÿÿf.ø[.....
  0000000010104820: 00 B8 1D 00 00 00 48 8B 4D 10 48 89 01 E9 74 00  .¸....H.M.H..ét.
  0000000010104830: 00 00 0F B7 05 25 E5 FF FF 66 83 F8 5D 0F 85 11  ...·.%åÿÿf.ø]...
  0000000010104840: 00 00 00 B8 2D 00 00 00 48 8B 4D 10 48 89 01 E9  ...¸-...H.M.H..é
  0000000010104850: 52 00 00 00 0F B7 05 03 E5 FF FF 66 83 F8 5E 0F  R....·..åÿÿf.ø^.
  0000000010104860: 85 11 00 00 00 B8 11 00 00 00 48 8B 4D 10 48 89  .....¸....H.M.H.
  0000000010104870: 01 E9 30 00 00 00 0F B7 05 E1 E4 FF FF 66 83 F8  .é0....·.áäÿÿf.ø
  0000000010104880: 5F 0F 85 16 00 00 00 48 83 EC 20 48 8B 4D 10 E8  _......H.? H.M.è
  0000000010104890: C2 E8 FF FF 48 83 C4 20 E9 09 00 00 00 31 C0 48  ÂèÿÿH.Ä é....1ÀH
  00000000101048A0: 8B 4D 10 48 89 01 48 83 EC 20 E8 21 E8 FF FF 48  .M.H..H.? è!èÿÿH
  00000000101048B0: 83 C4 20 E9 E7 00 00 00 0F B7 05 9F E4 FF FF 66  .Ä éç....·..äÿÿf
  00000000101048C0: 83 F8 7B 0F 83 16 00 00 00 48 83 EC 20 48 8B 4D  .ø{......H.? H.M
  00000000101048D0: 10 E8 80 E8 FF FF 48 83 C4 20 E9 C0 00 00 00 0F  .è.èÿÿH.Ä éÀ....
  00000000101048E0: B7 05 78 E4 FF FF 66 83 F8 7B 0F 85 11 00 00 00  ·.xäÿÿf.ø{......
  00000000101048F0: B8 1E 00 00 00 48 8B 4D 10 48 89 01 E9 91 00 00  ¸....H.M.H..é...
  0000000010104900: 00 0F B7 05 56 E4 FF FF 66 83 F8 7D 0F 85 11 00  ..·.Väÿÿf.ø}....
  0000000010104910: 00 00 B8 2E 00 00 00 48 8B 4D 10 48 89 01 E9 6F  ..¸....H.M.H..éo
  0000000010104920: 00 00 00 0F B7 05 34 E4 FF FF 66 83 F8 7C 0F 85  ....·.4äÿÿf.ø|..
  0000000010104930: 11 00 00 00 B8 36 00 00 00 48 8B 4D 10 48 89 01  ....¸6...H.M.H..
  0000000010104940: E9 4D 00 00 00 0F B7 05 12 E4 FF FF 66 83 F8 7E  éM....·..äÿÿf.ø~
  0000000010104950: 0F 85 11 00 00 00 B8 1B 00 00 00 48 8B 4D 10 48  ......¸....H.M.H
  0000000010104960: 89 01 E9 2B 00 00 00 0F B7 05 F0 E3 FF FF 66 83  ..é+....·.??ÿÿf.
  0000000010104970: F8 7F 0F 85 11 00 00 00 B8 2B 00 00 00 48 8B 4D  ø.......¸+...H.M
  0000000010104980: 10 48 89 01 E9 09 00 00 00 31 C0 48 8B 4D 10 48  .H..é....1ÀH.M.H
  0000000010104990: 89 01 48 83 EC 20 E8 35 E7 FF FF 48 83 C4 20 48  ..H.? è5çÿÿH.Ä H
  00000000101049A0: 8B 45 10 48 8B 00 48 85 C0 0F 85 0F 00 00 00 0F  .E.H..H.À.......
  00000000101049B0: B6 05 A7 E3 FF FF 85 C0 0F 84 29 F9 FF FF C9 C3  ¶.§?ÿÿ.À..)ùÿÿÉ?
  00000000101049C0: 55 48 8B EC 56 57 48 89 4D 10 48 89 55 18 48 8B  UH.?VWH.M.H.U.H.
  00000000101049D0: 45 18 48 89 05 77 E3 FF FF 31 C0 48 89 05 7E E3  E.H..w?ÿÿ1ÀH..~?
  00000000101049E0: FF FF 48 8D 3D 5F E3 FF FF 48 8B 75 10 B9 01 00  ÿÿH.=_?ÿÿH.u.¹..
  00000000101049F0: 00 00 F3 48 A5 48 83 EC 20 48 8B 4D 10 48 8B 55  ..óH¥H.? H.M.H.U
  0000000010104A00: 18 FF 15 49 CC EF FF 48 83 C4 20 48 8B 45 18 48  .ÿ.I?ïÿH.Ä H.E.H
  0000000010104A10: 89 05 22 D0 EF FF 31 C0 48 89 05 29 D0 EF FF 48  .."?ïÿ1ÀH..)?ïÿH
  0000000010104A20: 83 EC 20 48 8B 4D 10 48 8D 15 22 D0 EF FF 41 B8  .? H.M.H.."?ïÿA¸
  0000000010104A30: 00 00 10 00 4C 8D 0D F5 CF EF FF FF 15 07 CC EF  ....L..?Ïïÿÿ..?ï
  0000000010104A40: FF 48 83 C4 20 48 83 EC 20 E8 82 E6 FF FF 48 83  ÿH.Ä H.? è.æÿÿH.
  0000000010104A50: C4 20 5F 5E C9 C3 55 48 8B EC 48 89 4D 10 48 8B  Ä _^É?UH.?H.M.H.
  0000000010104A60: 45 10 48 89 05 BF CF EF FF C9 C3 55 48 8B EC 56  E.H..¿ÏïÿÉ?UH.?V
  0000000010104A70: 57 48 89 4D 10 48 89 55 18 48 8B 05 C0 E2 FF FF  WH.M.H.U.H..Àâÿÿ
  0000000010104A80: 48 83 F8 23 0F 83 05 00 00 00 E9 08 00 00 00 B0  H.ø#......é....°
  0000000010104A90: 01 B9 80 2A 00 00 CC 48 69 C0 88 00 00 00 48 8D  .¹.*..?HiÀ....H.
  0000000010104AA0: 0D AB CF FF FF 48 03 C1 48 8B F8 48 83 C7 08 48  .«ÏÿÿH.ÁH.øH.Ç.H
  0000000010104AB0: 8B 75 18 B9 10 00 00 00 F3 48 A5 48 8B 05 7E E2  .u.¹....óH¥H..~â
  0000000010104AC0: FF FF 48 83 F8 23 0F 83 05 00 00 00 E9 08 00 00  ÿÿH.ø#......é...
  0000000010104AD0: 00 B0 01 B9 96 2A 00 00 CC 48 69 C0 88 00 00 00  .°.¹.*..?HiÀ....
  0000000010104AE0: 48 8D 0D 69 CF FF FF 48 03 C1 48 8B 4D 10 48 89  H..iÏÿÿH.ÁH.M.H.
  0000000010104AF0: 08 48 83 05 47 E2 FF FF 01 5F 5E C9 C3 55 48 8B  .H..Gâÿÿ._^É?UH.
  0000000010104B00: EC 31 C0 48 89 05 36 E2 FF FF 31 C0 48 89 05 D5  ?1ÀH..6âÿÿ1ÀH..?
  0000000010104B10: E1 FF FF 31 C0 48 89 05 D4 E1 FF FF 48 83 EC 20  áÿÿ1ÀH..ÔáÿÿH.? 
  0000000010104B20: B9 20 00 00 00 48 8D 15 16 CB EF FF E8 3A FF FF  ¹ ...H...Ëïÿè:ÿÿ
  0000000010104B30: FF 48 83 C4 20 48 83 EC 20 B9 31 00 00 00 48 8D  ÿH.Ä H.? ¹1...H.
  0000000010104B40: 15 F7 CA EF FF E8 21 FF FF FF 48 83 C4 20 48 83  .÷Êïÿè!ÿÿÿH.Ä H.
  0000000010104B50: EC 20 B9 30 00 00 00 48 8D 15 D8 CA EF FF E8 08  ? ¹0...H..ØÊïÿè.
  0000000010104B60: FF FF FF 48 83 C4 20 48 83 EC 20 B9 08 00 00 00  ÿÿÿH.Ä H.? ¹....
  0000000010104B70: 48 8D 15 B9 CA EF FF E8 EF FE FF FF 48 83 C4 20  H..¹Êïÿèï?ÿÿH.Ä 
  0000000010104B80: 48 83 EC 20 B9 32 00 00 00 48 8D 15 9A CA EF FF  H.? ¹2...H...Êïÿ
  0000000010104B90: E8 D6 FE FF FF 48 83 C4 20 48 83 EC 20 B9 0F 00  èÖ?ÿÿH.Ä H.? ¹..
  0000000010104BA0: 00 00 48 8D 15 7B CA EF FF E8 BD FE FF FF 48 83  ..H..{Êïÿè½?ÿÿH.
  0000000010104BB0: C4 20 48 83 EC 20 B9 10 00 00 00 48 8D 15 5C CA  Ä H.? ¹....H..\Ê
  0000000010104BC0: EF FF E8 A4 FE FF FF 48 83 C4 20 48 83 EC 20 B9  ïÿè¤?ÿÿH.Ä H.? ¹
  0000000010104BD0: 33 00 00 00 48 8D 15 3D CA EF FF E8 8B FE FF FF  3...H..=Êïÿè.?ÿÿ
  0000000010104BE0: 48 83 C4 20 48 8B 05 55 E1 FF FF 48 89 05 06 E1  H.Ä H..UáÿÿH...á
  0000000010104BF0: FF FF 48 83 EC 20 B9 35 00 00 00 48 8D 15 0E CA  ÿÿH.? ¹5...H...Ê
  0000000010104C00: EF FF E8 64 FE FF FF 48 83 C4 20 48 83 EC 20 B9  ïÿèd?ÿÿH.Ä H.? ¹
  0000000010104C10: 19 00 00 00 48 8D 15 ED C9 EF FF E8 4B FE FF FF  ....H..íÉïÿèK?ÿÿ
  0000000010104C20: 48 83 C4 20 48 83 EC 20 B9 48 00 00 00 48 8D 15  H.Ä H.? ¹H...H..
  0000000010104C30: CC C9 EF FF E8 32 FE FF FF 48 83 C4 20 48 83 EC  ?Éïÿè2?ÿÿH.Ä H.?
  0000000010104C40: 20 B9 03 00 00 00 48 8D 15 AB C9 EF FF E8 19 FE   ¹....H..«Éïÿè.?
  0000000010104C50: FF FF 48 83 C4 20 48 83 EC 20 B9 04 00 00 00 48  ÿÿH.Ä H.? ¹....H
  0000000010104C60: 8D 15 8A C9 EF FF E8 00 FE FF FF 48 83 C4 20 48  ...Éïÿè.?ÿÿH.Ä H
  0000000010104C70: 83 EC 20 B9 25 00 00 00 48 8D 15 69 C9 EF FF E8  .? ¹%...H..iÉïÿè
  0000000010104C80: E7 FD FF FF 48 83 C4 20 48 8B 05 B1 E0 FF FF 48  ç?ÿÿH.Ä H..±àÿÿH
  0000000010104C90: 89 05 6A E0 FF FF 48 83 EC 20 B9 37 00 00 00 48  ..jàÿÿH.? ¹7...H
  0000000010104CA0: 8D 15 38 C9 EF FF E8 C0 FD FF FF 48 83 C4 20 48  ..8ÉïÿèÀ?ÿÿH.Ä H
  0000000010104CB0: 83 EC 20 B9 2F 00 00 00 48 8D 15 15 C9 EF FF E8  .? ¹/...H...Éïÿè
  0000000010104CC0: A7 FD FF FF 48 83 C4 20 48 83 EC 20 B9 18 00 00  §?ÿÿH.Ä H.? ¹...
  0000000010104CD0: 00 48 8D 15 F2 C8 EF FF E8 8E FD FF FF 48 83 C4  .H..?Èïÿè.?ÿÿH.Ä
  0000000010104CE0: 20 48 83 EC 20 B9 47 00 00 00 48 8D 15 CF C8 EF   H.? ¹G...H..ÏÈï
  0000000010104CF0: FF E8 75 FD FF FF 48 83 C4 20 48 83 EC 20 B9 24  ÿèu?ÿÿH.Ä H.? ¹$
  0000000010104D00: 00 00 00 48 8D 15 AC C8 EF FF E8 5C FD FF FF 48  ...H..¬Èïÿè\?ÿÿH
  0000000010104D10: 83 C4 20 48 8B 05 26 E0 FF FF 48 89 05 E7 DF FF  .Ä H..&àÿÿH..çßÿ
  0000000010104D20: FF 48 83 EC 20 B9 38 00 00 00 48 8D 15 79 C8 EF  ÿH.? ¹8...H..yÈï
  0000000010104D30: FF E8 35 FD FF FF 48 83 C4 20 48 83 EC 20 B9 17  ÿè5?ÿÿH.Ä H.? ¹.
  0000000010104D40: 00 00 00 48 8D 15 54 C8 EF FF E8 1C FD FF FF 48  ...H..TÈïÿè.?ÿÿH
  0000000010104D50: 83 C4 20 48 83 EC 20 B9 3C 00 00 00 48 8D 15 2F  .Ä H.? ¹<...H../
  0000000010104D60: C8 EF FF E8 03 FD FF FF 48 83 C4 20 48 83 EC 20  Èïÿè.?ÿÿH.Ä H.? 
  0000000010104D70: B9 4A 00 00 00 48 8D 15 0A C8 EF FF E8 EA FC FF  ¹J...H...Èïÿèêüÿ
  0000000010104D80: FF 48 83 C4 20 48 83 EC 20 B9 46 00 00 00 48 8D  ÿH.Ä H.? ¹F...H.
  0000000010104D90: 15 E5 C7 EF FF E8 D1 FC FF FF 48 83 C4 20 48 83  .åÇïÿèÑüÿÿH.Ä H.
  0000000010104DA0: EC 20 B9 39 00 00 00 48 8D 15 C0 C7 EF FF E8 B8  ? ¹9...H..ÀÇïÿè¸
  0000000010104DB0: FC FF FF 48 83 C4 20 48 83 EC 20 B9 22 00 00 00  üÿÿH.Ä H.? ¹"...
  0000000010104DC0: 48 8D 15 9B C7 EF FF E8 9F FC FF FF 48 83 C4 20  H...Çïÿè.üÿÿH.Ä 
  0000000010104DD0: 48 8B 05 69 DF FF FF 48 89 05 32 DF FF FF 48 83  H..ißÿÿH..2ßÿÿH.
  0000000010104DE0: EC 20 B9 3D 00 00 00 48 8D 15 66 C7 EF FF E8 78  ? ¹=...H..fÇïÿèx
  0000000010104DF0: FC FF FF 48 83 C4 20 48 83 EC 20 B9 23 00 00 00  üÿÿH.Ä H.? ¹#...
  0000000010104E00: 48 8D 15 3F C7 EF FF E8 5F FC FF FF 48 83 C4 20  H..?Çïÿè_üÿÿH.Ä 
  0000000010104E10: 48 83 EC 20 B9 3A 00 00 00 48 8D 15 18 C7 EF FF  H.? ¹:...H...Çïÿ
  0000000010104E20: E8 46 FC FF FF 48 83 C4 20 48 83 EC 20 B9 4C 00  èFüÿÿH.Ä H.? ¹L.
  0000000010104E30: 00 00 48 8D 15 F1 C6 EF FF E8 2D FC FF FF 48 83  ..H..ñÆïÿè-üÿÿH.
  0000000010104E40: C4 20 48 83 EC 20 B9 4D 00 00 00 48 8D 15 CA C6  Ä H.? ¹M...H..ÊÆ
  0000000010104E50: EF FF E8 14 FC FF FF 48 83 C4 20 48 8B 05 DE DE  ïÿè.üÿÿH.Ä H..??
  0000000010104E60: FF FF 48 89 05 AF DE FF FF 48 83 EC 20 B9 3E 00  ÿÿH..¯?ÿÿH.? ¹>.
  0000000010104E70: 00 00 48 8D 15 93 C6 EF FF E8 ED FB FF FF 48 83  ..H...ÆïÿèíûÿÿH.
  0000000010104E80: C4 20 48 8B 05 B7 DE FF FF 48 89 05 90 DE FF FF  Ä H..·?ÿÿH...?ÿÿ
  0000000010104E90: 48 8B 05 A9 DE FF FF 48 89 05 8A DE FF FF 48 83  H..©?ÿÿH...?ÿÿH.
  0000000010104EA0: EC 20 B9 49 00 00 00 48 8D 15 4A C6 EF FF E8 B8  ? ¹I...H..JÆïÿè¸
  0000000010104EB0: FB FF FF 48 83 C4 20 48 8B 05 82 DE FF FF 48 89  ûÿÿH.Ä H...?ÿÿH.
  0000000010104EC0: 05 6B DE FF FF 48 83 EC 20 31 C9 48 8D 15 10 C6  .k?ÿÿH.? 1ÉH...Æ
  0000000010104ED0: EF FF E8 94 FB FF FF 48 83 C4 20 48 8B 05 5E DE  ïÿè.ûÿÿH.Ä H..^?
  0000000010104EE0: FF FF 48 89 05 4F DE FF FF C9 C3 83 FA 01 0F 84  ÿÿH..O?ÿÿÉ?.ú...
  0000000010104EF0: 01 00 00 00 C3 56 57 48 83 EC 28 FF 15 FF CA EF  ....?VWH.?(ÿ.ÿÊï
  0000000010104F00: FF 48 89 05 D8 CA EF FF 48 8D 0D BB C5 EF FF FF  ÿH..ØÊïÿH..»Åïÿÿ
  0000000010104F10: 15 DB CA EF FF 48 85 C0 0F 84 05 00 00 00 E9 08  .ÛÊïÿH.À......é.
  0000000010104F20: 00 00 00 B0 05 B9 CE 2E 00 00 CC 48 8B F0 48 B8  ...°.¹Î...?H.?H¸
  0000000010104F30: CD 2C 99 AE 8C 5F D9 E4 48 3B 86 F0 03 00 00 0F  Í,.®._ÙäH;.?....
  0000000010104F40: 85 05 00 00 00 E9 08 00 00 00 B0 05 B9 CE 2E 00  .....é....°.¹Î..
  0000000010104F50: 00 CC 48 B8 15 0D CA 44 27 D4 F2 2E 48 3B 86 F8  .?H¸..ÊD'Ô?.H;.ø
  0000000010104F60: 03 00 00 0F 85 05 00 00 00 E9 08 00 00 00 B0 05  .........é....°.
  0000000010104F70: B9 CE 2E 00 00 CC 48 8B CE BA 1E 00 00 00 FF 15  ¹Î...?H.Îº....ÿ.
  0000000010104F80: 74 CA EF FF 48 89 05 A5 C9 EF FF 48 8B CE BA 1D  tÊïÿH..¥ÉïÿH.Îº.
  0000000010104F90: 00 00 00 FF 15 5F CA EF FF 48 89 05 80 C9 EF FF  ...ÿ._ÊïÿH...Éïÿ
  0000000010104FA0: 48 8B CE BA 1C 00 00 00 FF 15 4A CA EF FF 48 89  H.Îº....ÿ.JÊïÿH.
  0000000010104FB0: 05 9B C9 EF FF 48 8B CE BA 19 00 00 00 FF 15 35  ..ÉïÿH.Îº....ÿ.5
  0000000010104FC0: CA EF FF 48 89 05 86 C6 EF FF 48 8B CE BA 0F 00  ÊïÿH...ÆïÿH.Îº..
  0000000010104FD0: 00 00 FF 15 20 CA EF FF 48 89 05 69 C6 EF FF E8  ..ÿ. ÊïÿH..iÆïÿè
  0000000010104FE0: 19 FB FF FF B8 01 00 00 00 48 83 C4 28 5F 5E C3  .ûÿÿ¸....H.Ä(_^?

SECTION HEADER #3
  .idata name
     130 virtual size
  105000 virtual address (0000000010105000 to 000000001010512F)
     200 size of raw data
    2400 file pointer to raw data (00002400 to 000025FF)
       0 file pointer to relocation table
       0 file pointer to line numbers
       0 number of relocations
       0 number of line numbers
C0000040 flags
         Initialized Data
         Read Write

RAW DATA #3
  0000000010105000: 28 50 10 00 00 00 00 00 00 00 00 00 60 50 10 00  (P..........`P..
  0000000010105010: E8 19 00 00 00 00 00 00 00 00 00 00 00 00 00 00  è...............
  0000000010105020: 00 00 00 00 00 00 00 00 70 50 10 00 00 00 00 00  ........pP......
  0000000010105030: 90 50 10 00 00 00 00 00 B0 50 10 00 00 00 00 00  .P......°P......
  0000000010105040: D0 50 10 00 00 00 00 00 F0 50 10 00 00 00 00 00  ?P......?P......
  0000000010105050: 10 51 10 00 00 00 00 00 00 00 00 00 00 00 00 00  .Q..............
  0000000010105060: 4B 45 52 4E 45 4C 33 32 2E 44 4C 4C 00 00 00 00  KERNEL32.DLL....
  0000000010105070: 00 00 45 78 69 74 50 72 6F 63 65 73 73 00 00 00  ..ExitProcess...
  0000000010105080: 00 00 00 00 00 00 00 00 00 00 00 00 00 00 00 00  ................
  0000000010105090: 00 00 4C 6F 61 64 4C 69 62 72 61 72 79 57 00 00  ..LoadLibraryW..
  00000000101050A0: 00 00 00 00 00 00 00 00 00 00 00 00 00 00 00 00  ................
  00000000101050B0: 00 00 47 65 74 50 72 6F 63 41 64 64 72 65 73 73  ..GetProcAddress
  00000000101050C0: 00 00 00 00 00 00 00 00 00 00 00 00 00 00 00 00  ................
  00000000101050D0: 00 00 47 65 74 50 72 6F 63 65 73 73 48 65 61 70  ..GetProcessHeap
  00000000101050E0: 00 00 00 00 00 00 00 00 00 00 00 00 00 00 00 00  ................
  00000000101050F0: 00 00 48 65 61 70 41 6C 6C 6F 63 00 00 00 00 00  ..HeapAlloc.....
  0000000010105100: 00 00 00 00 00 00 00 00 00 00 00 00 00 00 00 00  ................
  0000000010105110: 00 00 48 65 61 70 46 72 65 65 00 00 00 00 00 00  ..HeapFree......
  0000000010105120: 00 00 00 00 00 00 00 00 00 00 00 00 00 00 00 00  ................

  Section contains the following imports:

    KERNEL32.DLL
              100019E8 Import Address Table
              10105028 Import Name Table
                     0 time date stamp
                     0 Index of first forwarder reference

                           0 ExitProcess
                           0 LoadLibraryW
                           0 GetProcAddress
                           0 GetProcessHeap
                           0 HeapAlloc
                           0 HeapFree

SECTION HEADER #4
  .reloc name
       C virtual size
  106000 virtual address (0000000010106000 to 000000001010600B)
     200 size of raw data
    3200 file pointer to raw data (00003200 to 000033FF)
       0 file pointer to relocation table
       0 file pointer to line numbers
       0 number of relocations
       0 number of line numbers
42000040 flags
         Initialized Data
         Discardable
         Read Only

RAW DATA #4
  0000000010106000: 04 00 00 00 0C 00 00 00 00 00 00 00              ............

BASE RELOCATIONS #4
       4 RVA,        C SizeOfBlock
       0  ABS                        
       0  ABS                        

SECTION HEADER #5
  .edata name
      65 virtual size
  107000 virtual address (0000000010107000 to 0000000010107064)
     200 size of raw data
    3400 file pointer to raw data (00003400 to 000035FF)
       0 file pointer to relocation table
       0 file pointer to line numbers
       0 number of relocations
       0 number of line numbers
40000040 flags
         Initialized Data
         Read Only

RAW DATA #5
  0000000010107000: 00 00 00 00 00 00 00 00 00 00 00 00 58 70 10 00  ............Xp..
  0000000010107010: 01 00 00 00 0C 00 00 00 00 00 00 00 28 70 10 00  ............(p..
  0000000010107020: 00 00 00 00 00 00 00 00 F8 2F 10 00 F0 2F 10 00  ........ø/..?/..
  0000000010107030: EC 2F 10 00 6C 2F 10 00 6C 2D 10 00 6B 2D 10 00  ?/..l/..l-..k-..
  0000000010107040: 60 2D 10 00 00 30 10 00 0D 30 10 00 DF 42 10 00  `-...0...0..ßB..
  0000000010107050: C0 49 10 00 56 4A 10 00 53 63 61 6E 6E 65 72 31  ÀI..VJ..Scanner1
  0000000010107060: 2E 64 6C 6C 00                                   .dll.

  Section contains the following exports for Scanner1.dll

    00000000 characteristics
           0 time date stamp
        0.00 version
           1 ordinal base
          12 number of functions
           0 number of names

    ordinal hint RVA      name

          1      00102FF8 [NONAME]
          2      00102FF0 [NONAME]
          3      00102FEC [NONAME]
          4      00102F6C [NONAME]
          5      00102D6C [NONAME]
          6      00102D6B [NONAME]
          7      00102D60 [NONAME]
          8      00103000 [NONAME]
          9      0010300D [NONAME]
         10      001042DF [NONAME]
         11      001049C0 [NONAME]
         12      00104A56 [NONAME]

  Summary

      102000 .data
        1000 .edata
        1000 .idata
        1000 .reloc
        2000 .text
